
.\rom_0x08003000.elf:     file format elf32-littlearm
.\rom_0x08003000.elf
architecture: arm, flags 0x00000112:
EXEC_P, HAS_SYMS, D_PAGED
start address 0x08003000

Program Header:
0x70000001 off    0x0000d040 vaddr 0x0800d040 paddr 0x0800d040 align 2**2
         filesz 0x00000008 memsz 0x00000008 flags r--
    LOAD off    0x00000000 vaddr 0x08000000 paddr 0x08000000 align 2**15
         filesz 0x0000d5e0 memsz 0x0000d5e0 flags r-x
    LOAD off    0x00010000 vaddr 0x20000000 paddr 0x0800d5e0 align 2**15
         filesz 0x00000f28 memsz 0x00004c98 flags rw-
private flags = 5000202: [Version5 EABI] [soft-float ABI] [has entry point]

Sections:
Idx Name          Size      VMA       LMA       File off  Algn
  0 .text         0000a040  08003000  08003000  00003000  2**4
                  CONTENTS, ALLOC, LOAD, READONLY, CODE
  1 .ARM.exidx    00000008  0800d040  0800d040  0000d040  2**2
                  CONTENTS, ALLOC, LOAD, READONLY, DATA
  2 .rodata       00000598  0800d048  0800d048  0000d048  2**3
                  CONTENTS, ALLOC, LOAD, READONLY, DATA
  3 .data         00000f28  20000000  0800d5e0  00010000  2**2
                  CONTENTS, ALLOC, LOAD, DATA
  4 .bss          00003d70  20000f28  0800e508  00010f28  2**3
                  ALLOC
  5 .comment      00000030  00000000  00000000  00010f28  2**0
                  CONTENTS, READONLY
  6 .ARM.attributes 00000031  00000000  00000000  00010f58  2**0
                  CONTENTS, READONLY
  7 .debug_frame  0000082c  00000000  00000000  00010f8c  2**2
                  CONTENTS, READONLY, DEBUGGING
SYMBOL TABLE:
08003000 l    d  .text	00000000 .text
0800d040 l    d  .ARM.exidx	00000000 .ARM.exidx
0800d048 l    d  .rodata	00000000 .rodata
20000000 l    d  .data	00000000 .data
20000f28 l    d  .bss	00000000 .bss
00000000 l    d  .comment	00000000 .comment
00000000 l    d  .ARM.attributes	00000000 .ARM.attributes
00000000 l    d  .debug_frame	00000000 .debug_frame
00000000 l    df *ABS*	00000000 crt0.o
20004fff l       *ABS*	00000000 RAM_END
20004c00 l       *ABS*	00000000 PSP_BASE
20004c00 l       *ABS*	00000000 MSP_LIMIT
20005000 l       *ABS*	00000000 MSP_BASE
00000400 l       *ABS*	00000000 MSP_SIZE
00000000 l    df *ABS*	00000000 OS.c
0800313c l     F .text	00000056 NVIC_SetPriority
20000004 l     O .data	00000004 pstack.5355
20000008 l     O .data	00000004 stack_limit.5354
0800d04c l       .rodata	00000000 .LC0
0800d068 l       .rodata	00000000 .LC1
20003d88 l       .bss	00000000 idx_tcb.5364
0800d090 l       .rodata	00000000 .LC2
0800d0a8 l       .rodata	00000000 .LC3
0800d0c8 l       .rodata	00000000 .LC4
0800d0d4 l       .rodata	00000000 .LC5
00000000 l    df *ABS*	00000000 clock.c
00000000 l    df *ABS*	00000000 core_cm3.c
00000000 l    df *ABS*	00000000 joy_key.c
08003e28 l     F .text	00000032 NVIC_EnableIRQ
08003e5c l     F .text	00000034 NVIC_ClearPendingIRQ
00000000 l    df *ABS*	00000000 lcd.c
080041e8 l     F .text	0000009c _SPI1_Init
080042dc l     F .text	00000028 _Delay
00000000 l    df *ABS*	00000000 led.c
00000000 l    df *ABS*	00000000 main.c
0800d0e0 l       .rodata	00000000 .LC0
0800d0ec l       .rodata	00000000 .LC1
0800d100 l       .rodata	00000000 .LC2
0800d110 l       .rodata	00000000 .LC3
0800d12c l       .rodata	00000000 .LC4
0800d13c l       .rodata	00000000 .LC5
0800d150 l       .rodata	00000000 .LC6
0800d168 l       .rodata	00000000 .LC7
0800d17c l       .rodata	00000000 .LC8
0800d194 l       .rodata	00000000 .LC9
00000000 l    df *ABS*	00000000 priority_queue.c
00000000 l    df *ABS*	00000000 queue.c
20000010 l     O .data	00000004 pbuffer.4030
20000014 l     O .data	00000004 buffer_limit.4029
00000000 l    df *ABS*	00000000 runtime.c
200045c8 l       .bss	00000000 heap.4796
00000000 l    df *ABS*	00000000 snake.c
00000000 l    df *ABS*	00000000 stm32f10x_it.c
08006070 l     F .text	00000034 NVIC_ClearPendingIRQ
0800d1a4 l       .rodata	00000000 .LC0
0800d1bc l       .rodata	00000000 .LC1
0800d1f4 l     O .rodata	00000020 Stack_reg
0800d214 l       .rodata	00000000 .LC10
080060e4 l     F .text	0000004c Stack_Dump
0800d228 l       .rodata	00000000 .LC11
0800d240 l       .rodata	00000000 .LC12
0800d24c l       .rodata	00000000 .LC13
0800d258 l       .rodata	00000000 .LC14
0800d27c l       .rodata	00000000 .LC15
0800d280 l       .rodata	00000000 .LC16
0800d2ac l       .rodata	00000000 .LC17
0800d2d8 l       .rodata	00000000 .LC18
0800d2dc l       .rodata	00000000 .LC19
0800d308 l       .rodata	00000000 .LC20
0800d318 l       .rodata	00000000 .LC21
08006130 l     F .text	000000fe Fault_Report
0800d338 l       .rodata	00000000 .LC22
0800d344 l       .rodata	00000000 .LC23
0800d354 l       .rodata	00000000 .LC24
0800d368 l       .rodata	00000000 .LC25
0800d378 l       .rodata	00000000 .LC26
0800d38c l       .rodata	00000000 .LC27
0800d39c l       .rodata	00000000 .LC28
0800d3c0 l       .rodata	00000000 .LC29
0800d3dc l       .rodata	00000000 .LC30
0800d3e8 l       .rodata	00000000 .LC31
0800d3f8 l       .rodata	00000000 .LC32
00000000 l    df *ABS*	00000000 systick.c
00000000 l    df *ABS*	00000000 timer.c
08006828 l     F .text	00000032 NVIC_EnableIRQ
0800685c l     F .text	00000034 NVIC_DisableIRQ
08006890 l     F .text	00000034 NVIC_ClearPendingIRQ
00000000 l    df *ABS*	00000000 uart.c
080069f0 l     F .text	00000032 NVIC_EnableIRQ
08006a24 l     F .text	00000034 NVIC_DisableIRQ
08006a58 l     F .text	00000034 NVIC_ClearPendingIRQ
00000000 l    df *ABS*	00000000 exp_handler.o
08006d71 l       .text	00000000 _PSR
08006d32 l       .text	00000000 _loop
08006d64 l       .text	00000000 fmt
08006d75 l       .text	00000000 _r0
08006d79 l       .text	00000000 _r1
08006d7d l       .text	00000000 _r2
08006d81 l       .text	00000000 _r3
08006d85 l       .text	00000000 _r4
08006d89 l       .text	00000000 _r5
08006d8d l       .text	00000000 _r6
08006d91 l       .text	00000000 _r7
08006d95 l       .text	00000000 _r8
08006d99 l       .text	00000000 _r9
08006d9d l       .text	00000000 _r10
08006da1 l       .text	00000000 _r11
08006da5 l       .text	00000000 _r12
08006da9 l       .text	00000000 _PSP
00000000 l    df *ABS*	00000000 scheduler.o
00000000 l    df *ABS*	00000000 memcpy-stub.c
00000000 l    df *ABS*	00000000 rand.c
00000000 l    df *ABS*	00000000 vsprintf.c
00000000 l    df *ABS*	00000000 impure.c
200009ac l     O .data	000000f0 impure_data
00000000 l    df *ABS*	00000000 malloc.c
00000000 l    df *ABS*	00000000 mallocr.c
20000a9c l       .data	00000000 .LANCHOR0
20004c54 l       .bss	00000000 .LANCHOR1
00000000 l    df *ABS*	00000000 mlock.c
00000000 l    df *ABS*	00000000 sbrkr.c
00000000 l    df *ABS*	00000000 vfprintf.c
0800d40c l       .rodata	00000000 .LANCHOR0
0800d40c l     O .rodata	00000010 blanks.6752
0800d41c l     O .rodata	00000010 zeroes.6753
00000000 l    df *ABS*	00000000 dtoa.c
08008ab8 l     F .text	0000014a quorem
00000000 l    df *ABS*	00000000 mallocr.c
00000000 l    df *ABS*	00000000 locale.c
20000eac l       .data	00000000 .LANCHOR0
20000eac l     O .data	00000020 lc_ctype_charset
20000ed0 l     O .data	00000020 lc_message_charset
20000ef0 l     O .data	00000038 lconv
00000000 l    df *ABS*	00000000 memchr-stub.c
00000000 l    df *ABS*	00000000 mprec.c
0800d430 l       .rodata	00000000 .LANCHOR0
0800d430 l     O .rodata	0000000c p05.5301
00000000 l    df *ABS*	00000000 reent.c
00000000 l    df *ABS*	00000000 s_fpclassify.c
00000000 l    df *ABS*	00000000 lib_a-strcmp.o
00000000 l    df *ABS*	00000000 strlen.c
00000000 l    df *ABS*	00000000 vfprintf.c
0800d558 l       .rodata	00000000 .LANCHOR0
0800d558 l     O .rodata	00000010 blanks.6696
0800d568 l     O .rodata	00000010 zeroes.6697
00000000 l    df *ABS*	00000000 mallocr.c
00000000 l    df *ABS*	00000000 memmove.c
00000000 l    df *ABS*	00000000 memset.c
00000000 l    df *ABS*	00000000 mallocr.c
00000000 l    df *ABS*	00000000 _udivsi3.o
0800bdb0 l       .text	00000000 .udivsi3_skip_div0_test
00000000 l       *ABS*	00000000 shift
00000000 l    df *ABS*	00000000 _dvmd_tls.o
00000000 l    df *ABS*	00000000 _arm_addsubdf3.o
00000000 l    df *ABS*	00000000 _arm_muldivdf3.o
00000000 l    df *ABS*	00000000 _arm_cmpdf2.o
00000000 l    df *ABS*	00000000 _arm_fixdfsi.o
00000000 l    df *ABS*	00000000 _arm_fixunsdfsi.o
00000000 l    df *ABS*	00000000 _aeabi_uldivmod.o
00000000 l    df *ABS*	00000000 bpabi.c
00000000 l    df *ABS*	00000000 libgcc2.c
00000000 l    df *ABS*	00000000 libgcc2.c
00000000 l    df *ABS*	00000000 
08006464 g     F .text	0000000a EXTI2_IRQHandler
20003b88 g     O .bss	00000004 current_tcb
08003c30 g     F .text	00000018 __set_PRIMASK
0800a754 g     F .text	00000034 _mprec_log10
0800a7d0 g     F .text	0000005e __any_on
0800d508 g     O .rodata	00000028 __mprec_tinytens
0800c894 g     F .text	00000012 .hidden __aeabi_dcmple
0800a830 g     F .text	0000001a cleanup_glue
20004c20 g     O .bss	00000008 food
0800c9bc g     F .text	00000030 .hidden __gnu_uldivmod_helper
08003e90 g     F .text	000000f4 Key_Poll_Init
0800c7d0 g     F .text	0000007a .hidden __cmpdf2
080063d4 g     F .text	00000012 DebugMon_Handler
200048f8 g     O .bss	00000328 snake
0800c7d0 g     F .text	0000007a .hidden __eqdf2
2000000c g     O .data	00000002 BACK_COLOR
0800c9ec g     F .text	00000352 .hidden __divdi3
08005ca0 g     F .text	00000068 snake_game
0800c340 g     F .text	0000005a .hidden __floatdidf
08007024 g     F .text	0000001a vsprintf
080065c8 g     F .text	0000000a TIM1_CC_IRQHandler
08006250 g     F .text	000000a8 HardFault_Handler
08009dcc g     F .text	00000052 _setlocale_r
080075d4 g     F .text	00000002 __malloc_unlock
080046c0 g     F .text	00000018 Lcd_Write_RAM_Prepare
08006e40 g     F .text	00000000 _OS_Start_First_Task
08003c48 g     F .text	0000001e __get_FAULTMASK
080063e8 g     F .text	0000001a SysTick_Handler
20000f28 g     O .bss	00000b70 tcb
08003cb8 g     F .text	00000020 __REV
08006410 g     F .text	0000000a PVD_IRQHandler
0800b854 g     F .text	000000ce memmove
080044a4 g     F .text	00000042 Lcd_Reset
0800506c g     F .text	000000b6 pq_heapify_down
08006e10 g     F .text	00000000 PendSV_Handler
08006230 g     F .text	0000001e NMI_Handler
08009ef8 g     F .text	0000006c _Balloc
08006470 g     F .text	0000003e EXTI3_IRQHandler
08004edc g     F .text	0000001a pq_init
20000998 g     O .data	00000010 EXTI15_10_LUT
0800c7c0 g     F .text	0000008a .hidden __gtdf2
08004f4c g     F .text	0000006a pq_compare_ready
08003550 g     F .text	00000096 OS_Scheduler_Start
08003e00 g     F .text	00000026 __STREXW
08003d8c g     F .text	00000022 __LDREXW
20004c94 g     O .bss	00000004 errno
08005f88 g     F .text	000000e6 Lcd_Draw_IMG
0800c85c g     F .text	00000010 .hidden __aeabi_cdcmple
20003d9c g     O .bss	00000002 POINT_COLOR
08004ec4 g     F .text	00000016 Main
08004ffc g     F .text	0000006e pq_heapify_up
080044e8 g     F .text	00000060 Lcd_WR_REG
080035e8 g     F .text	000000e2 OS_Scheduler
08006e50 g     F .text	000000a6 memcpy
0800c84c g     F .text	00000020 .hidden __aeabi_cdrcmple
08004c48 g     F .text	00000036 LED_Display
20004c30 g     O .bss	00000004 key_value
0800485c g     F .text	0000000c Lcd_Clr_Screen
08007600 g     F .text	000014b4 _svfprintf_r
0800c2d0 g     F .text	00000022 .hidden __floatsidf
0800c7c8 g     F .text	00000082 .hidden __ltdf2
0800651c g     F .text	0000000a USB_HP_CAN_TX_IRQHandler
08004548 g     F .text	00000060 Lcd_WR_DATA
0800644c g     F .text	0000000a EXTI0_IRQHandler
08004ca4 g     F .text	00000024 LED_All_Off
08006638 g     F .text	0000000a I2C2_EV_IRQHandler
0800c960 g     F .text	00000000 .hidden __aeabi_uldivmod
0800a924 g     F .text	00000050 __fpclassifyd
0800a6f4 g     F .text	0000005e __ratio
20004c38 g     O .bss	00000004 uart_rx_in
08003d20 g     F .text	00000022 __RBIT
20000018 g     O .data	00000320 apple_img
20000000 g       .data	00000000 __RW_BASE__
08007040 g     F .text	00000010 malloc
0800bdb0 g     F .text	0000025c .hidden __udivsi3
20003c88 g     O .bss	000000f8 blocked_queue
0800d440 g     O .rodata	000000c8 __mprec_tens
080063b0 g     F .text	00000024 UsageFault_Handler
08003c68 g     F .text	00000018 __set_FAULTMASK
08009e20 g     F .text	0000000a __locale_charset
0800c920 g     F .text	00000040 .hidden __fixunsdfsi
08006510 g     F .text	0000000a ADC1_2_IRQHandler
20004c54 g     O .bss	00000004 __malloc_top_pad
080059e0 g     F .text	00000018 input
20000ecc g     O .data	00000004 __mb_cur_max
0800c2b0 g     F .text	0000001e .hidden __aeabi_ui2d
08009e44 g     F .text	00000008 _localeconv_r
08005520 g     F .text	00000022 isFull
0800a154 g     F .text	00000012 __i2b
08004418 g     F .text	0000008c Lcd_Fill
08006650 g     F .text	0000000a SPI1_IRQHandler
08006540 g     F .text	0000000a CAN_SCE_IRQHandler
0800c02c g     F .text	00000000 .hidden __aeabi_drsub
080075d8 g     F .text	00000026 _sbrk_r
0800641c g     F .text	0000000a TAMPER_IRQHandler
08004bf0 g     F .text	00000058 LED_Init
20003dc8 g     O .bss	00000800 queue_buffer
0800c880 g     F .text	00000012 .hidden __aeabi_dcmplt
08003b00 g     F .text	000000a6 Clock_Init
20004c80 g     O .bss	00000004 __malloc_max_sbrked_mem
08003194 g     F .text	0000001e IdleTask
0800c2f4 g     F .text	0000003a .hidden __extendsfdf2
0800c5f0 g     F .text	000001d0 .hidden __aeabi_ddiv
0800c038 g     F .text	00000276 .hidden __adddf3
20000f28 g       .data	00000000 __RW_LIMIT__
08006c84 g     F .text	00000034 Uart1_Printf
0800a58c g     F .text	000000ac __b2d
200045cc g     O .bss	00000320 black_img
0800c39c g     F .text	00000254 .hidden __aeabi_dmul
08003c80 g     F .text	0000001e __get_CONTROL
0800d408 g     O .rodata	00000004 _global_impure_ptr
0800b9c4 g     F .text	000003ea _realloc_r
20001a98 g     O .bss	00002000 stack
0800cd40 g     F .text	00000300 .hidden __udivdi3
080064e0 g     F .text	0000000a DMA1_Channel4_IRQHandler
0800d530 g     O .rodata	00000028 __mprec_bigtens
0800a028 g     F .text	00000098 __s2b
0800c2b0 g     F .text	0000001e .hidden __floatunsidf
08005544 g     F .text	0000008a _sbrk
0800a418 g     F .text	00000042 __mcmp
08004ef8 g     F .text	00000052 pq_compare_delay
08004bc4 g     F .text	0000002c Lcd_Put_Pixel
08006cb8 g     F .text	00000060 Uart1_RX_Interrupt_Enable
0800670c g     F .text	0000000a USART3_IRQHandler
08006428 g     F .text	0000000a RTC_IRQHandler
08003ba8 g     F .text	00000010 __get_PSP
08004020 g     F .text	000001c8 Key_ISR_Enable
08003bb8 g     F .text	00000008 __set_PSP
08006504 g     F .text	0000000a DMA1_Channel7_IRQHandler
0800a84c g     F .text	000000d6 _reclaim_reent
0800a0c0 g     F .text	0000003c __hi0bits
0800c8d0 g     F .text	0000004e .hidden __fixdfsi
08004868 g     F .text	000000e0 Lcd_Draw_Box
08003390 g     F .text	00000128 OS_Create_Task_Simple
08003aec g     F .text	00000012 PRINT_DUMMY
20003a98 g     O .bss	000000f0 queues
200048f4 g     O .bss	00000004 score
080045a8 g     F .text	00000118 Lcd_Set_Display_Mode
080065ec g     F .text	00000034 TIM4_IRQHandler
0800c038 g     F .text	00000276 .hidden __aeabi_dadd
0800c7c8 g     F .text	00000082 .hidden __ledf2
20003da0 g     O .bss	00000028 dummyParams
08006534 g     F .text	0000000a CAN_RX1_IRQHandler
0800a2a8 g     F .text	000000b8 __pow5mult
0800c330 g     F .text	0000006a .hidden __aeabi_ul2d
20004c90 g     O .bss	00000004 __nlocale_changed
08004d10 g     F .text	00000016 Task1
00000000  w      *UND*	00000000 __sf_fake_stderr
08006db0 g     F .text	00000000 _HardFault_Handler
20003b90 g     O .bss	000000f8 ready_queue
08006620 g     F .text	0000000a I2C1_EV_IRQHandler
200048ec g     O .bss	00000004 game_over
080030ec g     F .text	00000000 __start
08003d44 g     F .text	00000022 __LDREXB
08004380 g     F .text	00000026 Lcd_Write_Reg
080039bc g     F .text	000000a4 OS_Block_Current_Task
0800c8bc g     F .text	00000012 .hidden __aeabi_dcmpgt
080064f8 g     F .text	0000000a DMA1_Channel6_IRQHandler
08009e68 g     F .text	00000090 memchr
08009c34 g     F .text	00000198 _free_r
0800532c g     F .text	000000d2 createQueue
08005124 g     F .text	00000052 pq_push
080065e0 g     F .text	0000000a TIM3_IRQHandler
08006440 g     F .text	0000000a RCC_IRQHandler
08009e2c g     F .text	0000000c __locale_mb_cur_max
080046d8 g     F .text	0000009c Lcd_Set_Windows
0800c8a8 g     F .text	00000012 .hidden __aeabi_dcmpge
080065bc g     F .text	0000000a TIM1_TRG_COM_IRQHandler
080064bc g     F .text	0000000a DMA1_Channel1_IRQHandler
08003c10 g     F .text	0000001e __get_PRIMASK
20004c8c g     O .bss	00000004 __mlocale_changed
0800c034 g     F .text	0000027a .hidden __aeabi_dsub
20000ea4 g     O .data	00000004 __malloc_sbrk_base
00000f28 g       *ABS*	00000000 __RW_SIZE__
0800c330 g     F .text	0000006a .hidden __floatundidf
08006f54 g     F .text	0000009c rand
0800a360 g     F .text	000000b6 __lshift
08006dc4 g     F .text	00000000 _MemManage_Handler
0800ac10 g     F .text	00000104 __ssprint_r
08006718 g     F .text	00000062 EXTI15_10_IRQHandler
0800d5e0 g       *ABS*	00000000 __RW_LOAD_ADDR__
08003cfc g     F .text	00000022 __REVSH
0800a168 g     F .text	00000140 __multiply
20004c58 g     O .bss	00000028 __malloc_current_mallinfo
0800a638 g     F .text	000000ba __d2b
20000978 g     O .data	00000020 EXTI9_5_LUT
0800d048 g     O .rodata	00000004 default_delay
0800400c g     F .text	00000012 Key_Wait_Key_Released
080031b4 g     F .text	0000017c OS_Init
080043a8 g     F .text	00000070 Lcd_Write_Data_16Bit
0800c2d0 g     F .text	00000022 .hidden __aeabi_i2d
080052c8 g     F .text	00000064 _OS_Get_Buffer
08005178 g     F .text	00000062 pq_pop
0800d048 g       .rodata	00000000 __RO_BASE__
0800c028  w    F .text	00000002 .hidden __aeabi_ldiv0
0800654c g     F .text	00000056 EXTI9_5_IRQHandler
0800c5f0 g     F .text	000001d0 .hidden __divdf3
0800a788 g     F .text	00000046 __copybits
20000a9c g     O .data	00000408 __malloc_av_
0800c39c g     F .text	00000254 .hidden __muldf3
20000338 g     O .data	00000320 grass_img
080075d0 g     F .text	00000002 __malloc_lock
08004cec g     F .text	00000024 LED_1_Toggle
080051dc g     F .text	00000026 pq_top
0800b7f0 g     F .text	00000062 _calloc_r
08006dd8 g     F .text	00000000 _BusFault_Handler
0800665c g     F .text	0000000a SPI2_IRQHandler
00000000  w      *UND*	00000000 __sf_fake_stdin
08005280 g     F .text	00000046 pq_update
08004cc8 g     F .text	00000024 LED_0_Toggle
08006528 g     F .text	0000000a USB_LP_CAN_RX0_IRQHandler
0800b924 g     F .text	0000009e memset
080062f8 g     F .text	0000005a MemManage_Handler
20004c84 g     O .bss	00000004 __malloc_max_total_mem
08004d40 g     F .text	00000166 Task3
08006ef8 g     F .text	0000005a srand
20004c94 g       .bss	00000000 __ZI_LIMIT__
080055d0 g     F .text	00000056 System_Init
0800bdb0 g     F .text	00000000 .hidden __aeabi_uidiv
08006e2c g     F .text	00000000 SVC_Handler
08006798 g     F .text	00000090 SysTick_OS_Tick
08003ca0 g     F .text	00000018 __set_CONTROL
08008c04 g     F .text	00000f8a _dtoa_r
08007060 g     F .text	0000056e _malloc_r
0800c340 g     F .text	0000005a .hidden __aeabi_l2d
08006c5c g     F .text	00000026 Uart1_Send_String
08006bf0 g     F .text	0000006a Uart1_Send_Byte
08003f84 g     F .text	00000066 Key_Get_Pressed
20004c2c g     O .bss	00000004 systick_flag
08004c80 g     F .text	00000024 LED_All_On
080034b8 g     F .text	00000098 OS_Create_Queue
080064ec g     F .text	0000000a DMA1_Channel5_IRQHandler
080064b0 g     F .text	0000000a EXTI4_IRQHandler
08009b90 g     F .text	000000a2 _malloc_trim_r
20004c28 g     O .bss	00000001 dir
08003ac8 g     F .text	00000024 OS_Pend_Trigger
0800377c g     F .text	0000014a OS_Signal_Wait
0800a974 g     F .text	00000000 strcmp
08003bc0 g     F .text	00000010 __get_MSP
080036cc g     F .text	000000b0 OS_Tick
0800d5e0 g       .rodata	00000000 __RO_LIMIT__
20004c34 g     O .bss	00000004 tim4_timeout
0800c7d0 g     F .text	0000007a .hidden __nedf2
20004c88 g     O .bss	00000004 _PathLocale
20003d90 g     O .bss	0000000c lcddev
08004774 g     F .text	00000020 Lcd_Set_Cursor
08006ff0 g     F .text	00000032 _vsprintf_r
080064d4 g     F .text	0000000a DMA1_Channel3_IRQHandler
08009e4c g     F .text	00000012 setlocale
08003cd8 g     F .text	00000022 __REV16
200009a8 g     O .data	00000004 _impure_ptr
080065b0 g     F .text	0000000a TIM1_UP_IRQHandler
08009e40 g     F .text	00000004 __locale_cjk_lang
08003330 g     F .text	00000060 _OS_Get_Stack
0800ad14 g     F .text	00000adc _svfiprintf_r
00003d70 g       *ABS*	00000000 __ZI_SIZE__
08006404 g     F .text	0000000a WWDG_IRQHandler
08004ea8 g     F .text	0000001a TaskDummy
08003bd0 g     F .text	00000008 __set_MSP
0800a548 g     F .text	00000042 __ulp
08004d28 g     F .text	00000018 Task2
08004948 g     F .text	0000027c Lcd_Init
08005628 g     F .text	00000088 setup
20004c50 g     O .bss	00000004 uart_rx_index
080065d4 g     F .text	0000000a TIM2_IRQHandler
08005204 g     F .text	0000007c pq_remove
08004304 g     F .text	0000007c Lcd_GPIO_Init
0800c920 g     F .text	00000040 .hidden __aeabi_d2uiz
08005400 g     F .text	0000007c enqueue
20003d80 g     O .bss	00000008 system_tick
20000f28 g       .bss	00000000 __ZI_BASE__
08009e60 g     F .text	00000008 localeconv
080065a4 g     F .text	0000000a TIM1_BRK_IRQHandler
0800c00c g     F .text	0000001a .hidden __aeabi_uidivmod
08006458 g     F .text	0000000a EXTI1_IRQHandler
08005d08 g     F .text	0000027e rotate_image_array
08003bf8 g     F .text	00000018 __set_BASEPRI
0800c86c g     F .text	00000012 .hidden __aeabi_dcmpeq
0800547c g     F .text	00000080 dequeue
08003fec g     F .text	00000020 Key_Wait_Key_Pressed
080056b0 g     F .text	000001a0 draw_init
08006a8c g     F .text	00000164 Uart1_Init
08004fb8 g     F .text	00000044 pq_swap
0800677c g     F .text	0000000a RTCAlarm_IRQHandler
08006700 g     F .text	0000000a USART2_IRQHandler
20000ea8 g     O .data	00000004 __malloc_trim_threshold
08009e38 g     F .text	00000008 __locale_msgcharset
08003dd8 g     F .text	00000028 __STREXH
0800a45c g     F .text	000000ea __mdiff
0800c8d0 g     F .text	0000004e .hidden __aeabi_d2iz
080059f8 g     F .text	000002a8 logic
08003d68 g     F .text	00000022 __LDREXH
08006644 g     F .text	0000000a I2C2_ER_IRQHandler
080064c8 g     F .text	0000000a DMA1_Channel2_IRQHandler
20003b8c g     O .bss	00000004 next_tcb
00000000  w      *UND*	00000000 __sf_fake_stdout
0800c028  w    F .text	00000002 .hidden __aeabi_idiv0
08005850 g     F .text	00000190 draw
08003a60 g     F .text	00000066 OS_Unblock_Task
08006434 g     F .text	0000000a FLASH_IRQHandler
08004794 g     F .text	000000c6 Lcd_Draw_Back_Color
08006354 g     F .text	0000005a BusFault_Handler
08006668 g     F .text	00000098 USART1_IRQHandler
200048f0 g     O .bss	00000004 eaten
20000658 g     O .data	00000320 snake_head_img
08004284 g     F .text	00000056 _SPI1_Write_Byte
0800abb0 g     F .text	0000005e strlen
080068c4 g     F .text	0000012a TIM4_Repeat_Interrupt_Enable
080038c8 g     F .text	000000f2 OS_Signal_Send
080054fc g     F .text	00000022 isEmpty
08006dec g     F .text	00000000 _UsageFault_Handler
08003bd8 g     F .text	0000001e __get_BASEPRI
0800c85c g     F .text	00000010 .hidden __aeabi_cdcmpeq
0800c7c0 g     F .text	0000008a .hidden __gedf2
0800c98c g     F .text	00000030 .hidden __gnu_ldivmod_helper
0800662c g     F .text	0000000a I2C1_ER_IRQHandler
20004c3c g     O .bss	00000014 uart_rx_buffer
0800c2f4 g     F .text	0000003a .hidden __aeabi_f2d
08003db0 g     F .text	00000028 __STREXB
0800c034 g     F .text	0000027a .hidden __subdf3
08006d1e g     F .text	00000000 _Print_Reg
20000000 g     O .data	00000004 interrupt_period
0800a0fc g     F .text	00000056 __lo0bits
080060a4 g     F .text	00000040 Invalid_ISR
08006788 g     F .text	0000000a USBWakeUp_IRQHandler
08007050 g     F .text	00000010 free
08009f9c g     F .text	0000008c __multadd
08006d18 g     F .text	00000000 __get_IPSR
08009f64 g     F .text	00000036 _Bfree



Disassembly of section .text:

08003000 <__start-0xec>:
 8003000:	20005000 	andcs	r5, r0, r0
 8003004:	080030ed 	stmdaeq	r0, {r0, r2, r3, r5, r6, r7, ip, sp}
 8003008:	08006231 	stmdaeq	r0, {r0, r4, r5, r9, sp, lr}
 800300c:	08006db1 	stmdaeq	r0, {r0, r4, r5, r7, r8, sl, fp, sp, lr}
 8003010:	08006dc5 	stmdaeq	r0, {r0, r2, r6, r7, r8, sl, fp, sp, lr}
 8003014:	08006dd9 	stmdaeq	r0, {r0, r3, r4, r6, r7, r8, sl, fp, sp, lr}
 8003018:	08006ded 	stmdaeq	r0, {r0, r2, r3, r5, r6, r7, r8, sl, fp, sp, lr}
	...
 800302c:	08006e2d 	stmdaeq	r0, {r0, r2, r3, r5, r9, sl, fp, sp, lr}
 8003030:	080063d5 	stmdaeq	r0, {r0, r2, r4, r6, r7, r8, r9, sp, lr}
 8003034:	00000000 	andeq	r0, r0, r0
 8003038:	08006e11 	stmdaeq	r0, {r0, r4, r9, sl, fp, sp, lr}
 800303c:	080063e9 	stmdaeq	r0, {r0, r3, r5, r6, r7, r8, r9, sp, lr}
 8003040:	08006405 	stmdaeq	r0, {r0, r2, sl, sp, lr}
 8003044:	08006411 	stmdaeq	r0, {r0, r4, sl, sp, lr}
 8003048:	0800641d 	stmdaeq	r0, {r0, r2, r3, r4, sl, sp, lr}
 800304c:	08006429 	stmdaeq	r0, {r0, r3, r5, sl, sp, lr}
 8003050:	08006435 	stmdaeq	r0, {r0, r2, r4, r5, sl, sp, lr}
 8003054:	08006441 	stmdaeq	r0, {r0, r6, sl, sp, lr}
 8003058:	0800644d 	stmdaeq	r0, {r0, r2, r3, r6, sl, sp, lr}
 800305c:	08006459 	stmdaeq	r0, {r0, r3, r4, r6, sl, sp, lr}
 8003060:	08006465 	stmdaeq	r0, {r0, r2, r5, r6, sl, sp, lr}
 8003064:	08006471 	stmdaeq	r0, {r0, r4, r5, r6, sl, sp, lr}
 8003068:	080064b1 	stmdaeq	r0, {r0, r4, r5, r7, sl, sp, lr}
 800306c:	080064bd 	stmdaeq	r0, {r0, r2, r3, r4, r5, r7, sl, sp, lr}
 8003070:	080064c9 	stmdaeq	r0, {r0, r3, r6, r7, sl, sp, lr}
 8003074:	080064d5 	stmdaeq	r0, {r0, r2, r4, r6, r7, sl, sp, lr}
 8003078:	080064e1 	stmdaeq	r0, {r0, r5, r6, r7, sl, sp, lr}
 800307c:	080064ed 	stmdaeq	r0, {r0, r2, r3, r5, r6, r7, sl, sp, lr}
 8003080:	080064f9 	stmdaeq	r0, {r0, r3, r4, r5, r6, r7, sl, sp, lr}
 8003084:	08006505 	stmdaeq	r0, {r0, r2, r8, sl, sp, lr}
 8003088:	08006511 	stmdaeq	r0, {r0, r4, r8, sl, sp, lr}
	...
 800309c:	0800654d 	stmdaeq	r0, {r0, r2, r3, r6, r8, sl, sp, lr}
 80030a0:	080065a5 	stmdaeq	r0, {r0, r2, r5, r7, r8, sl, sp, lr}
 80030a4:	080065b1 	stmdaeq	r0, {r0, r4, r5, r7, r8, sl, sp, lr}
 80030a8:	080065bd 	stmdaeq	r0, {r0, r2, r3, r4, r5, r7, r8, sl, sp, lr}
 80030ac:	080065c9 	stmdaeq	r0, {r0, r3, r6, r7, r8, sl, sp, lr}
 80030b0:	080065d5 	stmdaeq	r0, {r0, r2, r4, r6, r7, r8, sl, sp, lr}
 80030b4:	080065e1 	stmdaeq	r0, {r0, r5, r6, r7, r8, sl, sp, lr}
 80030b8:	080065ed 	stmdaeq	r0, {r0, r2, r3, r5, r6, r7, r8, sl, sp, lr}
 80030bc:	08006621 	stmdaeq	r0, {r0, r5, r9, sl, sp, lr}
 80030c0:	0800662d 	stmdaeq	r0, {r0, r2, r3, r5, r9, sl, sp, lr}
 80030c4:	08006639 	stmdaeq	r0, {r0, r3, r4, r5, r9, sl, sp, lr}
 80030c8:	08006645 	stmdaeq	r0, {r0, r2, r6, r9, sl, sp, lr}
 80030cc:	08006651 	stmdaeq	r0, {r0, r4, r6, r9, sl, sp, lr}
 80030d0:	0800665d 	stmdaeq	r0, {r0, r2, r3, r4, r6, r9, sl, sp, lr}
 80030d4:	08006669 	stmdaeq	r0, {r0, r3, r5, r6, r9, sl, sp, lr}
 80030d8:	08006701 	stmdaeq	r0, {r0, r8, r9, sl, sp, lr}
 80030dc:	0800670d 	stmdaeq	r0, {r0, r2, r3, r8, r9, sl, sp, lr}
 80030e0:	08006719 	stmdaeq	r0, {r0, r3, r4, r8, r9, sl, sp, lr}
 80030e4:	0800677d 	stmdaeq	r0, {r0, r2, r3, r4, r5, r6, r8, r9, sl, sp, lr}
 80030e8:	08006789 	stmdaeq	r0, {r0, r3, r7, r8, r9, sl, sp, lr}

080030ec <__start>:
 80030ec:	480e      	ldr	r0, [pc, #56]	; (8003128 <__start+0x3c>)
 80030ee:	490f      	ldr	r1, [pc, #60]	; (800312c <__start+0x40>)
 80030f0:	4b0f      	ldr	r3, [pc, #60]	; (8003130 <__start+0x44>)
 80030f2:	4288      	cmp	r0, r1
 80030f4:	d006      	beq.n	8003104 <__start+0x18>
 80030f6:	4299      	cmp	r1, r3
 80030f8:	bf3e      	ittt	cc
 80030fa:	f850 2b04 	ldrcc.w	r2, [r0], #4
 80030fe:	f841 2b04 	strcc.w	r2, [r1], #4
 8003102:	e7f8      	bcc.n	80030f6 <__start+0xa>
 8003104:	490b      	ldr	r1, [pc, #44]	; (8003134 <__start+0x48>)
 8003106:	f04f 0200 	mov.w	r2, #0
 800310a:	428b      	cmp	r3, r1
 800310c:	bf3c      	itt	cc
 800310e:	f843 2b04 	strcc.w	r2, [r3], #4
 8003112:	e7fa      	bcc.n	800310a <__start+0x1e>
 8003114:	4808      	ldr	r0, [pc, #32]	; (8003138 <__start+0x4c>)
 8003116:	f380 8814 	msr	CONTROL, r0
 800311a:	f000 fcf1 	bl	8003b00 <Clock_Init>
 800311e:	f002 fa57 	bl	80055d0 <System_Init>
 8003122:	f001 fecf 	bl	8004ec4 <Main>
 8003126:	e7fe      	b.n	8003126 <__start+0x3a>
 8003128:	0800d5e0 	stmdaeq	r0, {r5, r6, r7, r8, sl, ip, lr, pc}
 800312c:	20000000 	andcs	r0, r0, r0
 8003130:	20000f28 	andcs	r0, r0, r8, lsr #30
 8003134:	20004c94 	mulcs	r0, r4, ip
 8003138:	00000000 	andeq	r0, r0, r0

0800313c <NVIC_SetPriority>:
 800313c:	b480      	push	{r7}
 800313e:	b083      	sub	sp, #12
 8003140:	af00      	add	r7, sp, #0
 8003142:	4603      	mov	r3, r0
 8003144:	6039      	str	r1, [r7, #0]
 8003146:	71fb      	strb	r3, [r7, #7]
 8003148:	f997 3007 	ldrsb.w	r3, [r7, #7]
 800314c:	2b00      	cmp	r3, #0
 800314e:	da0e      	bge.n	800316e <NVIC_SetPriority+0x32>
 8003150:	f44f 436d 	mov.w	r3, #60672	; 0xed00
 8003154:	f2ce 0300 	movt	r3, #57344	; 0xe000
 8003158:	79fa      	ldrb	r2, [r7, #7]
 800315a:	f002 020f 	and.w	r2, r2, #15
 800315e:	1f11      	subs	r1, r2, #4
 8003160:	683a      	ldr	r2, [r7, #0]
 8003162:	b2d2      	uxtb	r2, r2
 8003164:	0112      	lsls	r2, r2, #4
 8003166:	b2d2      	uxtb	r2, r2
 8003168:	440b      	add	r3, r1
 800316a:	761a      	strb	r2, [r3, #24]
 800316c:	e00c      	b.n	8003188 <NVIC_SetPriority+0x4c>
 800316e:	f44f 4361 	mov.w	r3, #57600	; 0xe100
 8003172:	f2ce 0300 	movt	r3, #57344	; 0xe000
 8003176:	f997 1007 	ldrsb.w	r1, [r7, #7]
 800317a:	683a      	ldr	r2, [r7, #0]
 800317c:	b2d2      	uxtb	r2, r2
 800317e:	0112      	lsls	r2, r2, #4
 8003180:	b2d2      	uxtb	r2, r2
 8003182:	440b      	add	r3, r1
 8003184:	f883 2300 	strb.w	r2, [r3, #768]	; 0x300
 8003188:	370c      	adds	r7, #12
 800318a:	46bd      	mov	sp, r7
 800318c:	f85d 7b04 	ldr.w	r7, [sp], #4
 8003190:	4770      	bx	lr
 8003192:	bf00      	nop

08003194 <IdleTask>:
 8003194:	b480      	push	{r7}
 8003196:	b085      	sub	sp, #20
 8003198:	af00      	add	r7, sp, #0
 800319a:	6078      	str	r0, [r7, #4]
 800319c:	2300      	movs	r3, #0
 800319e:	60fb      	str	r3, [r7, #12]
 80031a0:	e002      	b.n	80031a8 <IdleTask+0x14>
 80031a2:	68fb      	ldr	r3, [r7, #12]
 80031a4:	3301      	adds	r3, #1
 80031a6:	60fb      	str	r3, [r7, #12]
 80031a8:	68fb      	ldr	r3, [r7, #12]
 80031aa:	f1b3 7f80 	cmp.w	r3, #16777216	; 0x1000000
 80031ae:	dbf8      	blt.n	80031a2 <IdleTask+0xe>
 80031b0:	e7f4      	b.n	800319c <IdleTask+0x8>
 80031b2:	bf00      	nop

080031b4 <OS_Init>:
 80031b4:	b580      	push	{r7, lr}
 80031b6:	b082      	sub	sp, #8
 80031b8:	af00      	add	r7, sp, #0
 80031ba:	2030      	movs	r0, #48	; 0x30
 80031bc:	f000 fd1c 	bl	8003bf8 <__set_BASEPRI>
 80031c0:	2300      	movs	r3, #0
 80031c2:	607b      	str	r3, [r7, #4]
 80031c4:	e04d      	b.n	8003262 <OS_Init+0xae>
 80031c6:	f640 7228 	movw	r2, #3880	; 0xf28
 80031ca:	f2c2 0200 	movt	r2, #8192	; 0x2000
 80031ce:	6879      	ldr	r1, [r7, #4]
 80031d0:	460b      	mov	r3, r1
 80031d2:	005b      	lsls	r3, r3, #1
 80031d4:	440b      	add	r3, r1
 80031d6:	011b      	lsls	r3, r3, #4
 80031d8:	4413      	add	r3, r2
 80031da:	687a      	ldr	r2, [r7, #4]
 80031dc:	605a      	str	r2, [r3, #4]
 80031de:	f640 7228 	movw	r2, #3880	; 0xf28
 80031e2:	f2c2 0200 	movt	r2, #8192	; 0x2000
 80031e6:	6879      	ldr	r1, [r7, #4]
 80031e8:	460b      	mov	r3, r1
 80031ea:	005b      	lsls	r3, r3, #1
 80031ec:	440b      	add	r3, r1
 80031ee:	011b      	lsls	r3, r3, #4
 80031f0:	4413      	add	r3, r2
 80031f2:	3308      	adds	r3, #8
 80031f4:	2200      	movs	r2, #0
 80031f6:	605a      	str	r2, [r3, #4]
 80031f8:	f640 7228 	movw	r2, #3880	; 0xf28
 80031fc:	f2c2 0200 	movt	r2, #8192	; 0x2000
 8003200:	6879      	ldr	r1, [r7, #4]
 8003202:	460b      	mov	r3, r1
 8003204:	005b      	lsls	r3, r3, #1
 8003206:	440b      	add	r3, r1
 8003208:	011b      	lsls	r3, r3, #4
 800320a:	4413      	add	r3, r2
 800320c:	f103 0110 	add.w	r1, r3, #16
 8003210:	f04f 0200 	mov.w	r2, #0
 8003214:	f04f 0300 	mov.w	r3, #0
 8003218:	e9c1 2300 	strd	r2, r3, [r1]
 800321c:	f640 7228 	movw	r2, #3880	; 0xf28
 8003220:	f2c2 0200 	movt	r2, #8192	; 0x2000
 8003224:	6879      	ldr	r1, [r7, #4]
 8003226:	460b      	mov	r3, r1
 8003228:	005b      	lsls	r3, r3, #1
 800322a:	440b      	add	r3, r1
 800322c:	011b      	lsls	r3, r3, #4
 800322e:	4413      	add	r3, r2
 8003230:	f103 0118 	add.w	r1, r3, #24
 8003234:	f04f 0200 	mov.w	r2, #0
 8003238:	f04f 0300 	mov.w	r3, #0
 800323c:	e9c1 2300 	strd	r2, r3, [r1]
 8003240:	f640 7228 	movw	r2, #3880	; 0xf28
 8003244:	f2c2 0200 	movt	r2, #8192	; 0x2000
 8003248:	6879      	ldr	r1, [r7, #4]
 800324a:	460b      	mov	r3, r1
 800324c:	005b      	lsls	r3, r3, #1
 800324e:	440b      	add	r3, r1
 8003250:	011b      	lsls	r3, r3, #4
 8003252:	4413      	add	r3, r2
 8003254:	3320      	adds	r3, #32
 8003256:	f04f 32ff 	mov.w	r2, #4294967295
 800325a:	601a      	str	r2, [r3, #0]
 800325c:	687b      	ldr	r3, [r7, #4]
 800325e:	3301      	adds	r3, #1
 8003260:	607b      	str	r3, [r7, #4]
 8003262:	687b      	ldr	r3, [r7, #4]
 8003264:	2b3c      	cmp	r3, #60	; 0x3c
 8003266:	ddae      	ble.n	80031c6 <OS_Init+0x12>
 8003268:	f643 3090 	movw	r0, #15248	; 0x3b90
 800326c:	f2c2 0000 	movt	r0, #8192	; 0x2000
 8003270:	f001 fe34 	bl	8004edc <pq_init>
 8003274:	f643 4088 	movw	r0, #15496	; 0x3c88
 8003278:	f2c2 0000 	movt	r0, #8192	; 0x2000
 800327c:	f001 fe2e 	bl	8004edc <pq_init>
 8003280:	2300      	movs	r3, #0
 8003282:	607b      	str	r3, [r7, #4]
 8003284:	e042      	b.n	800330c <OS_Init+0x158>
 8003286:	f643 2298 	movw	r2, #15000	; 0x3a98
 800328a:	f2c2 0200 	movt	r2, #8192	; 0x2000
 800328e:	6879      	ldr	r1, [r7, #4]
 8003290:	460b      	mov	r3, r1
 8003292:	005b      	lsls	r3, r3, #1
 8003294:	440b      	add	r3, r1
 8003296:	00db      	lsls	r3, r3, #3
 8003298:	4413      	add	r3, r2
 800329a:	2200      	movs	r2, #0
 800329c:	601a      	str	r2, [r3, #0]
 800329e:	f643 2298 	movw	r2, #15000	; 0x3a98
 80032a2:	f2c2 0200 	movt	r2, #8192	; 0x2000
 80032a6:	6879      	ldr	r1, [r7, #4]
 80032a8:	460b      	mov	r3, r1
 80032aa:	005b      	lsls	r3, r3, #1
 80032ac:	440b      	add	r3, r1
 80032ae:	00db      	lsls	r3, r3, #3
 80032b0:	4413      	add	r3, r2
 80032b2:	3304      	adds	r3, #4
 80032b4:	2200      	movs	r2, #0
 80032b6:	601a      	str	r2, [r3, #0]
 80032b8:	f643 2298 	movw	r2, #15000	; 0x3a98
 80032bc:	f2c2 0200 	movt	r2, #8192	; 0x2000
 80032c0:	6879      	ldr	r1, [r7, #4]
 80032c2:	460b      	mov	r3, r1
 80032c4:	005b      	lsls	r3, r3, #1
 80032c6:	440b      	add	r3, r1
 80032c8:	00db      	lsls	r3, r3, #3
 80032ca:	4413      	add	r3, r2
 80032cc:	3308      	adds	r3, #8
 80032ce:	2200      	movs	r2, #0
 80032d0:	601a      	str	r2, [r3, #0]
 80032d2:	f643 2298 	movw	r2, #15000	; 0x3a98
 80032d6:	f2c2 0200 	movt	r2, #8192	; 0x2000
 80032da:	6879      	ldr	r1, [r7, #4]
 80032dc:	460b      	mov	r3, r1
 80032de:	005b      	lsls	r3, r3, #1
 80032e0:	440b      	add	r3, r1
 80032e2:	00db      	lsls	r3, r3, #3
 80032e4:	4413      	add	r3, r2
 80032e6:	330c      	adds	r3, #12
 80032e8:	2200      	movs	r2, #0
 80032ea:	601a      	str	r2, [r3, #0]
 80032ec:	f643 2298 	movw	r2, #15000	; 0x3a98
 80032f0:	f2c2 0200 	movt	r2, #8192	; 0x2000
 80032f4:	6879      	ldr	r1, [r7, #4]
 80032f6:	460b      	mov	r3, r1
 80032f8:	005b      	lsls	r3, r3, #1
 80032fa:	440b      	add	r3, r1
 80032fc:	00db      	lsls	r3, r3, #3
 80032fe:	4413      	add	r3, r2
 8003300:	3310      	adds	r3, #16
 8003302:	2200      	movs	r2, #0
 8003304:	601a      	str	r2, [r3, #0]
 8003306:	687b      	ldr	r3, [r7, #4]
 8003308:	3301      	adds	r3, #1
 800330a:	607b      	str	r3, [r7, #4]
 800330c:	687b      	ldr	r3, [r7, #4]
 800330e:	2b09      	cmp	r3, #9
 8003310:	ddb9      	ble.n	8003286 <OS_Init+0xd2>
 8003312:	2000      	movs	r0, #0
 8003314:	f000 fc70 	bl	8003bf8 <__set_BASEPRI>
 8003318:	f243 1095 	movw	r0, #12693	; 0x3195
 800331c:	f6c0 0000 	movt	r0, #2048	; 0x800
 8003320:	2100      	movs	r1, #0
 8003322:	22ff      	movs	r2, #255	; 0xff
 8003324:	2380      	movs	r3, #128	; 0x80
 8003326:	f000 f833 	bl	8003390 <OS_Create_Task_Simple>
 800332a:	3708      	adds	r7, #8
 800332c:	46bd      	mov	sp, r7
 800332e:	bd80      	pop	{r7, pc}

08003330 <_OS_Get_Stack>:
 8003330:	b480      	push	{r7}
 8003332:	b085      	sub	sp, #20
 8003334:	af00      	add	r7, sp, #0
 8003336:	6078      	str	r0, [r7, #4]
 8003338:	f240 0304 	movw	r3, #4
 800333c:	f2c2 0300 	movt	r3, #8192	; 0x2000
 8003340:	681b      	ldr	r3, [r3, #0]
 8003342:	60fb      	str	r3, [r7, #12]
 8003344:	687b      	ldr	r3, [r7, #4]
 8003346:	3307      	adds	r3, #7
 8003348:	f023 0307 	bic.w	r3, r3, #7
 800334c:	607b      	str	r3, [r7, #4]
 800334e:	687b      	ldr	r3, [r7, #4]
 8003350:	425b      	negs	r3, r3
 8003352:	68fa      	ldr	r2, [r7, #12]
 8003354:	441a      	add	r2, r3
 8003356:	f240 0308 	movw	r3, #8
 800335a:	f2c2 0300 	movt	r3, #8192	; 0x2000
 800335e:	681b      	ldr	r3, [r3, #0]
 8003360:	429a      	cmp	r2, r3
 8003362:	d201      	bcs.n	8003368 <_OS_Get_Stack+0x38>
 8003364:	2300      	movs	r3, #0
 8003366:	e00d      	b.n	8003384 <_OS_Get_Stack+0x54>
 8003368:	f240 0304 	movw	r3, #4
 800336c:	f2c2 0300 	movt	r3, #8192	; 0x2000
 8003370:	681a      	ldr	r2, [r3, #0]
 8003372:	687b      	ldr	r3, [r7, #4]
 8003374:	425b      	negs	r3, r3
 8003376:	441a      	add	r2, r3
 8003378:	f240 0304 	movw	r3, #4
 800337c:	f2c2 0300 	movt	r3, #8192	; 0x2000
 8003380:	601a      	str	r2, [r3, #0]
 8003382:	68fb      	ldr	r3, [r7, #12]
 8003384:	4618      	mov	r0, r3
 8003386:	3714      	adds	r7, #20
 8003388:	46bd      	mov	sp, r7
 800338a:	f85d 7b04 	ldr.w	r7, [sp], #4
 800338e:	4770      	bx	lr

08003390 <OS_Create_Task_Simple>:
 8003390:	b580      	push	{r7, lr}
 8003392:	b086      	sub	sp, #24
 8003394:	af00      	add	r7, sp, #0
 8003396:	60f8      	str	r0, [r7, #12]
 8003398:	60b9      	str	r1, [r7, #8]
 800339a:	607a      	str	r2, [r7, #4]
 800339c:	603b      	str	r3, [r7, #0]
 800339e:	2030      	movs	r0, #48	; 0x30
 80033a0:	f000 fc2a 	bl	8003bf8 <__set_BASEPRI>
 80033a4:	f643 5388 	movw	r3, #15752	; 0x3d88
 80033a8:	f2c2 0300 	movt	r3, #8192	; 0x2000
 80033ac:	681b      	ldr	r3, [r3, #0]
 80033ae:	f24d 004c 	movw	r0, #53324	; 0xd04c
 80033b2:	f6c0 0000 	movt	r0, #2048	; 0x800
 80033b6:	4619      	mov	r1, r3
 80033b8:	f003 fc64 	bl	8006c84 <Uart1_Printf>
 80033bc:	f643 5388 	movw	r3, #15752	; 0x3d88
 80033c0:	f2c2 0300 	movt	r3, #8192	; 0x2000
 80033c4:	681b      	ldr	r3, [r3, #0]
 80033c6:	2b3c      	cmp	r3, #60	; 0x3c
 80033c8:	dd02      	ble.n	80033d0 <OS_Create_Task_Simple+0x40>
 80033ca:	f04f 33ff 	mov.w	r3, #4294967295
 80033ce:	e06f      	b.n	80034b0 <OS_Create_Task_Simple+0x120>
 80033d0:	f643 5388 	movw	r3, #15752	; 0x3d88
 80033d4:	f2c2 0300 	movt	r3, #8192	; 0x2000
 80033d8:	681a      	ldr	r2, [r3, #0]
 80033da:	4613      	mov	r3, r2
 80033dc:	005b      	lsls	r3, r3, #1
 80033de:	4413      	add	r3, r2
 80033e0:	011b      	lsls	r3, r3, #4
 80033e2:	f640 7228 	movw	r2, #3880	; 0xf28
 80033e6:	f2c2 0200 	movt	r2, #8192	; 0x2000
 80033ea:	4413      	add	r3, r2
 80033ec:	617b      	str	r3, [r7, #20]
 80033ee:	6838      	ldr	r0, [r7, #0]
 80033f0:	f7ff ff9e 	bl	8003330 <_OS_Get_Stack>
 80033f4:	4602      	mov	r2, r0
 80033f6:	697b      	ldr	r3, [r7, #20]
 80033f8:	601a      	str	r2, [r3, #0]
 80033fa:	697b      	ldr	r3, [r7, #20]
 80033fc:	681b      	ldr	r3, [r3, #0]
 80033fe:	2b00      	cmp	r3, #0
 8003400:	d102      	bne.n	8003408 <OS_Create_Task_Simple+0x78>
 8003402:	f06f 0301 	mvn.w	r3, #1
 8003406:	e053      	b.n	80034b0 <OS_Create_Task_Simple+0x120>
 8003408:	f643 5388 	movw	r3, #15752	; 0x3d88
 800340c:	f2c2 0300 	movt	r3, #8192	; 0x2000
 8003410:	681b      	ldr	r3, [r3, #0]
 8003412:	1c5a      	adds	r2, r3, #1
 8003414:	f643 5388 	movw	r3, #15752	; 0x3d88
 8003418:	f2c2 0300 	movt	r3, #8192	; 0x2000
 800341c:	601a      	str	r2, [r3, #0]
 800341e:	697b      	ldr	r3, [r7, #20]
 8003420:	681b      	ldr	r3, [r3, #0]
 8003422:	f1a3 0240 	sub.w	r2, r3, #64	; 0x40
 8003426:	697b      	ldr	r3, [r7, #20]
 8003428:	601a      	str	r2, [r3, #0]
 800342a:	697b      	ldr	r3, [r7, #20]
 800342c:	681b      	ldr	r3, [r3, #0]
 800342e:	3320      	adds	r3, #32
 8003430:	68ba      	ldr	r2, [r7, #8]
 8003432:	601a      	str	r2, [r3, #0]
 8003434:	697b      	ldr	r3, [r7, #20]
 8003436:	681b      	ldr	r3, [r3, #0]
 8003438:	3338      	adds	r3, #56	; 0x38
 800343a:	68fa      	ldr	r2, [r7, #12]
 800343c:	601a      	str	r2, [r3, #0]
 800343e:	697b      	ldr	r3, [r7, #20]
 8003440:	681b      	ldr	r3, [r3, #0]
 8003442:	333c      	adds	r3, #60	; 0x3c
 8003444:	f04f 7280 	mov.w	r2, #16777216	; 0x1000000
 8003448:	601a      	str	r2, [r3, #0]
 800344a:	697b      	ldr	r3, [r7, #20]
 800344c:	687a      	ldr	r2, [r7, #4]
 800344e:	609a      	str	r2, [r3, #8]
 8003450:	697b      	ldr	r3, [r7, #20]
 8003452:	2200      	movs	r2, #0
 8003454:	60da      	str	r2, [r3, #12]
 8003456:	f643 5380 	movw	r3, #15744	; 0x3d80
 800345a:	f2c2 0300 	movt	r3, #8192	; 0x2000
 800345e:	e9d3 2300 	ldrd	r2, r3, [r3]
 8003462:	6979      	ldr	r1, [r7, #20]
 8003464:	e9c1 2304 	strd	r2, r3, [r1, #16]
 8003468:	697b      	ldr	r3, [r7, #20]
 800346a:	f04f 32ff 	mov.w	r2, #4294967295
 800346e:	621a      	str	r2, [r3, #32]
 8003470:	f643 3090 	movw	r0, #15248	; 0x3b90
 8003474:	f2c2 0000 	movt	r0, #8192	; 0x2000
 8003478:	6979      	ldr	r1, [r7, #20]
 800347a:	f644 724d 	movw	r2, #20301	; 0x4f4d
 800347e:	f6c0 0200 	movt	r2, #2048	; 0x800
 8003482:	f001 fe4f 	bl	8005124 <pq_push>
 8003486:	f643 5388 	movw	r3, #15752	; 0x3d88
 800348a:	f2c2 0300 	movt	r3, #8192	; 0x2000
 800348e:	681b      	ldr	r3, [r3, #0]
 8003490:	1e5a      	subs	r2, r3, #1
 8003492:	697b      	ldr	r3, [r7, #20]
 8003494:	681b      	ldr	r3, [r3, #0]
 8003496:	f24d 0068 	movw	r0, #53352	; 0xd068
 800349a:	f6c0 0000 	movt	r0, #2048	; 0x800
 800349e:	4611      	mov	r1, r2
 80034a0:	461a      	mov	r2, r3
 80034a2:	f003 fbef 	bl	8006c84 <Uart1_Printf>
 80034a6:	2000      	movs	r0, #0
 80034a8:	f000 fba6 	bl	8003bf8 <__set_BASEPRI>
 80034ac:	697b      	ldr	r3, [r7, #20]
 80034ae:	685b      	ldr	r3, [r3, #4]
 80034b0:	4618      	mov	r0, r3
 80034b2:	3718      	adds	r7, #24
 80034b4:	46bd      	mov	sp, r7
 80034b6:	bd80      	pop	{r7, pc}

080034b8 <OS_Create_Queue>:
 80034b8:	b580      	push	{r7, lr}
 80034ba:	b084      	sub	sp, #16
 80034bc:	af00      	add	r7, sp, #0
 80034be:	6078      	str	r0, [r7, #4]
 80034c0:	6039      	str	r1, [r7, #0]
 80034c2:	2030      	movs	r0, #48	; 0x30
 80034c4:	f000 fb98 	bl	8003bf8 <__set_BASEPRI>
 80034c8:	2300      	movs	r3, #0
 80034ca:	60fb      	str	r3, [r7, #12]
 80034cc:	e034      	b.n	8003538 <OS_Create_Queue+0x80>
 80034ce:	f643 2298 	movw	r2, #15000	; 0x3a98
 80034d2:	f2c2 0200 	movt	r2, #8192	; 0x2000
 80034d6:	68f9      	ldr	r1, [r7, #12]
 80034d8:	460b      	mov	r3, r1
 80034da:	005b      	lsls	r3, r3, #1
 80034dc:	440b      	add	r3, r1
 80034de:	00db      	lsls	r3, r3, #3
 80034e0:	4413      	add	r3, r2
 80034e2:	330c      	adds	r3, #12
 80034e4:	681b      	ldr	r3, [r3, #0]
 80034e6:	2b00      	cmp	r3, #0
 80034e8:	d123      	bne.n	8003532 <OS_Create_Queue+0x7a>
 80034ea:	68fa      	ldr	r2, [r7, #12]
 80034ec:	4613      	mov	r3, r2
 80034ee:	005b      	lsls	r3, r3, #1
 80034f0:	4413      	add	r3, r2
 80034f2:	00db      	lsls	r3, r3, #3
 80034f4:	f643 2298 	movw	r2, #15000	; 0x3a98
 80034f8:	f2c2 0200 	movt	r2, #8192	; 0x2000
 80034fc:	441a      	add	r2, r3
 80034fe:	f643 3388 	movw	r3, #15240	; 0x3b88
 8003502:	f2c2 0300 	movt	r3, #8192	; 0x2000
 8003506:	681b      	ldr	r3, [r3, #0]
 8003508:	685b      	ldr	r3, [r3, #4]
 800350a:	4610      	mov	r0, r2
 800350c:	6879      	ldr	r1, [r7, #4]
 800350e:	683a      	ldr	r2, [r7, #0]
 8003510:	f001 ff0c 	bl	800532c <createQueue>
 8003514:	4603      	mov	r3, r0
 8003516:	2b00      	cmp	r3, #0
 8003518:	d108      	bne.n	800352c <OS_Create_Queue+0x74>
 800351a:	f24d 0090 	movw	r0, #53392	; 0xd090
 800351e:	f6c0 0000 	movt	r0, #2048	; 0x800
 8003522:	68f9      	ldr	r1, [r7, #12]
 8003524:	f003 fbae 	bl	8006c84 <Uart1_Printf>
 8003528:	68fb      	ldr	r3, [r7, #12]
 800352a:	e00d      	b.n	8003548 <OS_Create_Queue+0x90>
 800352c:	f06f 0302 	mvn.w	r3, #2
 8003530:	e00a      	b.n	8003548 <OS_Create_Queue+0x90>
 8003532:	68fb      	ldr	r3, [r7, #12]
 8003534:	3301      	adds	r3, #1
 8003536:	60fb      	str	r3, [r7, #12]
 8003538:	68fb      	ldr	r3, [r7, #12]
 800353a:	2b09      	cmp	r3, #9
 800353c:	ddc7      	ble.n	80034ce <OS_Create_Queue+0x16>
 800353e:	2000      	movs	r0, #0
 8003540:	f000 fb5a 	bl	8003bf8 <__set_BASEPRI>
 8003544:	f06f 0302 	mvn.w	r3, #2
 8003548:	4618      	mov	r0, r3
 800354a:	3710      	adds	r7, #16
 800354c:	46bd      	mov	sp, r7
 800354e:	bd80      	pop	{r7, pc}

08003550 <OS_Scheduler_Start>:
 8003550:	b580      	push	{r7, lr}
 8003552:	b082      	sub	sp, #8
 8003554:	af00      	add	r7, sp, #0
 8003556:	2030      	movs	r0, #48	; 0x30
 8003558:	f000 fb4e 	bl	8003bf8 <__set_BASEPRI>
 800355c:	f643 3090 	movw	r0, #15248	; 0x3b90
 8003560:	f2c2 0000 	movt	r0, #8192	; 0x2000
 8003564:	f644 714d 	movw	r1, #20301	; 0x4f4d
 8003568:	f6c0 0100 	movt	r1, #2048	; 0x800
 800356c:	f001 fe04 	bl	8005178 <pq_pop>
 8003570:	4602      	mov	r2, r0
 8003572:	f643 3388 	movw	r3, #15240	; 0x3b88
 8003576:	f2c2 0300 	movt	r3, #8192	; 0x2000
 800357a:	601a      	str	r2, [r3, #0]
 800357c:	f44f 436d 	mov.w	r3, #60672	; 0xed00
 8003580:	f2ce 0300 	movt	r3, #57344	; 0xe000
 8003584:	22f0      	movs	r2, #240	; 0xf0
 8003586:	f883 2023 	strb.w	r2, [r3, #35]	; 0x23
 800358a:	f44f 436d 	mov.w	r3, #60672	; 0xed00
 800358e:	f2ce 0300 	movt	r3, #57344	; 0xe000
 8003592:	22f0      	movs	r2, #240	; 0xf0
 8003594:	f883 2022 	strb.w	r2, [r3, #34]	; 0x22
 8003598:	2300      	movs	r3, #0
 800359a:	607b      	str	r3, [r7, #4]
 800359c:	e009      	b.n	80035b2 <OS_Scheduler_Start+0x62>
 800359e:	687b      	ldr	r3, [r7, #4]
 80035a0:	b2db      	uxtb	r3, r3
 80035a2:	b25b      	sxtb	r3, r3
 80035a4:	4618      	mov	r0, r3
 80035a6:	210e      	movs	r1, #14
 80035a8:	f7ff fdc8 	bl	800313c <NVIC_SetPriority>
 80035ac:	687b      	ldr	r3, [r7, #4]
 80035ae:	3301      	adds	r3, #1
 80035b0:	607b      	str	r3, [r7, #4]
 80035b2:	687b      	ldr	r3, [r7, #4]
 80035b4:	2b2a      	cmp	r3, #42	; 0x2a
 80035b6:	ddf2      	ble.n	800359e <OS_Scheduler_Start+0x4e>
 80035b8:	f643 3388 	movw	r3, #15240	; 0x3b88
 80035bc:	f2c2 0300 	movt	r3, #8192	; 0x2000
 80035c0:	681b      	ldr	r3, [r3, #0]
 80035c2:	2202      	movs	r2, #2
 80035c4:	60da      	str	r2, [r3, #12]
 80035c6:	f240 0300 	movw	r3, #0
 80035ca:	f2c2 0300 	movt	r3, #8192	; 0x2000
 80035ce:	681b      	ldr	r3, [r3, #0]
 80035d0:	4618      	mov	r0, r3
 80035d2:	f003 f8e1 	bl	8006798 <SysTick_OS_Tick>
 80035d6:	2000      	movs	r0, #0
 80035d8:	f000 fb0e 	bl	8003bf8 <__set_BASEPRI>
 80035dc:	f003 fc30 	bl	8006e40 <_OS_Start_First_Task>
 80035e0:	3708      	adds	r7, #8
 80035e2:	46bd      	mov	sp, r7
 80035e4:	bd80      	pop	{r7, pc}
 80035e6:	bf00      	nop

080035e8 <OS_Scheduler>:
 80035e8:	b580      	push	{r7, lr}
 80035ea:	af00      	add	r7, sp, #0
 80035ec:	f643 3090 	movw	r0, #15248	; 0x3b90
 80035f0:	f2c2 0000 	movt	r0, #8192	; 0x2000
 80035f4:	f001 fdf2 	bl	80051dc <pq_top>
 80035f8:	4602      	mov	r2, r0
 80035fa:	f643 338c 	movw	r3, #15244	; 0x3b8c
 80035fe:	f2c2 0300 	movt	r3, #8192	; 0x2000
 8003602:	601a      	str	r2, [r3, #0]
 8003604:	f643 338c 	movw	r3, #15244	; 0x3b8c
 8003608:	f2c2 0300 	movt	r3, #8192	; 0x2000
 800360c:	681b      	ldr	r3, [r3, #0]
 800360e:	2b00      	cmp	r3, #0
 8003610:	d100      	bne.n	8003614 <OS_Scheduler+0x2c>
 8003612:	e059      	b.n	80036c8 <OS_Scheduler+0xe0>
 8003614:	f643 338c 	movw	r3, #15244	; 0x3b8c
 8003618:	f2c2 0300 	movt	r3, #8192	; 0x2000
 800361c:	681b      	ldr	r3, [r3, #0]
 800361e:	2b00      	cmp	r3, #0
 8003620:	d052      	beq.n	80036c8 <OS_Scheduler+0xe0>
 8003622:	f643 338c 	movw	r3, #15244	; 0x3b8c
 8003626:	f2c2 0300 	movt	r3, #8192	; 0x2000
 800362a:	681a      	ldr	r2, [r3, #0]
 800362c:	f643 3388 	movw	r3, #15240	; 0x3b88
 8003630:	f2c2 0300 	movt	r3, #8192	; 0x2000
 8003634:	681b      	ldr	r3, [r3, #0]
 8003636:	429a      	cmp	r2, r3
 8003638:	d046      	beq.n	80036c8 <OS_Scheduler+0xe0>
 800363a:	f643 3090 	movw	r0, #15248	; 0x3b90
 800363e:	f2c2 0000 	movt	r0, #8192	; 0x2000
 8003642:	f644 714d 	movw	r1, #20301	; 0x4f4d
 8003646:	f6c0 0100 	movt	r1, #2048	; 0x800
 800364a:	f001 fd95 	bl	8005178 <pq_pop>
 800364e:	f643 338c 	movw	r3, #15244	; 0x3b8c
 8003652:	f2c2 0300 	movt	r3, #8192	; 0x2000
 8003656:	681b      	ldr	r3, [r3, #0]
 8003658:	2202      	movs	r2, #2
 800365a:	60da      	str	r2, [r3, #12]
 800365c:	f643 3388 	movw	r3, #15240	; 0x3b88
 8003660:	f2c2 0300 	movt	r3, #8192	; 0x2000
 8003664:	681b      	ldr	r3, [r3, #0]
 8003666:	68db      	ldr	r3, [r3, #12]
 8003668:	2b02      	cmp	r3, #2
 800366a:	d123      	bne.n	80036b4 <OS_Scheduler+0xcc>
 800366c:	f643 3388 	movw	r3, #15240	; 0x3b88
 8003670:	f2c2 0300 	movt	r3, #8192	; 0x2000
 8003674:	681b      	ldr	r3, [r3, #0]
 8003676:	2200      	movs	r2, #0
 8003678:	60da      	str	r2, [r3, #12]
 800367a:	f643 3388 	movw	r3, #15240	; 0x3b88
 800367e:	f2c2 0300 	movt	r3, #8192	; 0x2000
 8003682:	6819      	ldr	r1, [r3, #0]
 8003684:	f643 5380 	movw	r3, #15744	; 0x3d80
 8003688:	f2c2 0300 	movt	r3, #8192	; 0x2000
 800368c:	e9d3 2300 	ldrd	r2, r3, [r3]
 8003690:	e9c1 2304 	strd	r2, r3, [r1, #16]
 8003694:	f643 3388 	movw	r3, #15240	; 0x3b88
 8003698:	f2c2 0300 	movt	r3, #8192	; 0x2000
 800369c:	681b      	ldr	r3, [r3, #0]
 800369e:	f643 3090 	movw	r0, #15248	; 0x3b90
 80036a2:	f2c2 0000 	movt	r0, #8192	; 0x2000
 80036a6:	4619      	mov	r1, r3
 80036a8:	f644 724d 	movw	r2, #20301	; 0x4f4d
 80036ac:	f6c0 0200 	movt	r2, #2048	; 0x800
 80036b0:	f001 fd38 	bl	8005124 <pq_push>
 80036b4:	f643 338c 	movw	r3, #15244	; 0x3b8c
 80036b8:	f2c2 0300 	movt	r3, #8192	; 0x2000
 80036bc:	681a      	ldr	r2, [r3, #0]
 80036be:	f643 3388 	movw	r3, #15240	; 0x3b88
 80036c2:	f2c2 0300 	movt	r3, #8192	; 0x2000
 80036c6:	601a      	str	r2, [r3, #0]
 80036c8:	bd80      	pop	{r7, pc}
 80036ca:	bf00      	nop

080036cc <OS_Tick>:
 80036cc:	b580      	push	{r7, lr}
 80036ce:	b082      	sub	sp, #8
 80036d0:	af00      	add	r7, sp, #0
 80036d2:	2030      	movs	r0, #48	; 0x30
 80036d4:	f000 fa90 	bl	8003bf8 <__set_BASEPRI>
 80036d8:	f240 0300 	movw	r3, #0
 80036dc:	f2c2 0300 	movt	r3, #8192	; 0x2000
 80036e0:	681b      	ldr	r3, [r3, #0]
 80036e2:	4618      	mov	r0, r3
 80036e4:	ea4f 71e0 	mov.w	r1, r0, asr #31
 80036e8:	f643 5380 	movw	r3, #15744	; 0x3d80
 80036ec:	f2c2 0300 	movt	r3, #8192	; 0x2000
 80036f0:	e9d3 2300 	ldrd	r2, r3, [r3]
 80036f4:	1880      	adds	r0, r0, r2
 80036f6:	eb41 0103 	adc.w	r1, r1, r3
 80036fa:	f643 5380 	movw	r3, #15744	; 0x3d80
 80036fe:	f2c2 0300 	movt	r3, #8192	; 0x2000
 8003702:	e9c3 0100 	strd	r0, r1, [r3]
 8003706:	e018      	b.n	800373a <OS_Tick+0x6e>
 8003708:	f643 4088 	movw	r0, #15496	; 0x3c88
 800370c:	f2c2 0000 	movt	r0, #8192	; 0x2000
 8003710:	f644 61f9 	movw	r1, #20217	; 0x4ef9
 8003714:	f6c0 0100 	movt	r1, #2048	; 0x800
 8003718:	f001 fd2e 	bl	8005178 <pq_pop>
 800371c:	6078      	str	r0, [r7, #4]
 800371e:	687b      	ldr	r3, [r7, #4]
 8003720:	2200      	movs	r2, #0
 8003722:	60da      	str	r2, [r3, #12]
 8003724:	f643 3090 	movw	r0, #15248	; 0x3b90
 8003728:	f2c2 0000 	movt	r0, #8192	; 0x2000
 800372c:	6879      	ldr	r1, [r7, #4]
 800372e:	f644 724d 	movw	r2, #20301	; 0x4f4d
 8003732:	f6c0 0200 	movt	r2, #2048	; 0x800
 8003736:	f001 fcf5 	bl	8005124 <pq_push>
 800373a:	f643 4388 	movw	r3, #15496	; 0x3c88
 800373e:	f2c2 0300 	movt	r3, #8192	; 0x2000
 8003742:	f8d3 30f4 	ldr.w	r3, [r3, #244]	; 0xf4
 8003746:	2b00      	cmp	r3, #0
 8003748:	dd12      	ble.n	8003770 <OS_Tick+0xa4>
 800374a:	f643 4088 	movw	r0, #15496	; 0x3c88
 800374e:	f2c2 0000 	movt	r0, #8192	; 0x2000
 8003752:	f001 fd43 	bl	80051dc <pq_top>
 8003756:	4603      	mov	r3, r0
 8003758:	e9d3 0106 	ldrd	r0, r1, [r3, #24]
 800375c:	f643 5380 	movw	r3, #15744	; 0x3d80
 8003760:	f2c2 0300 	movt	r3, #8192	; 0x2000
 8003764:	e9d3 2300 	ldrd	r2, r3, [r3]
 8003768:	4282      	cmp	r2, r0
 800376a:	eb73 0c01 	sbcs.w	ip, r3, r1
 800376e:	dacb      	bge.n	8003708 <OS_Tick+0x3c>
 8003770:	2000      	movs	r0, #0
 8003772:	f000 fa41 	bl	8003bf8 <__set_BASEPRI>
 8003776:	3708      	adds	r7, #8
 8003778:	46bd      	mov	sp, r7
 800377a:	bd80      	pop	{r7, pc}

0800377c <OS_Signal_Wait>:
 800377c:	b580      	push	{r7, lr}
 800377e:	b086      	sub	sp, #24
 8003780:	af00      	add	r7, sp, #0
 8003782:	60f8      	str	r0, [r7, #12]
 8003784:	60b9      	str	r1, [r7, #8]
 8003786:	607a      	str	r2, [r7, #4]
 8003788:	603b      	str	r3, [r7, #0]
 800378a:	2030      	movs	r0, #48	; 0x30
 800378c:	f000 fa34 	bl	8003bf8 <__set_BASEPRI>
 8003790:	2300      	movs	r3, #0
 8003792:	617b      	str	r3, [r7, #20]
 8003794:	68fb      	ldr	r3, [r7, #12]
 8003796:	2b00      	cmp	r3, #0
 8003798:	db02      	blt.n	80037a0 <OS_Signal_Wait+0x24>
 800379a:	68fb      	ldr	r3, [r7, #12]
 800379c:	2b09      	cmp	r3, #9
 800379e:	dd05      	ble.n	80037ac <OS_Signal_Wait+0x30>
 80037a0:	2000      	movs	r0, #0
 80037a2:	f000 fa29 	bl	8003bf8 <__set_BASEPRI>
 80037a6:	f06f 0301 	mvn.w	r3, #1
 80037aa:	e088      	b.n	80038be <OS_Signal_Wait+0x142>
 80037ac:	f643 2298 	movw	r2, #15000	; 0x3a98
 80037b0:	f2c2 0200 	movt	r2, #8192	; 0x2000
 80037b4:	68f9      	ldr	r1, [r7, #12]
 80037b6:	460b      	mov	r3, r1
 80037b8:	005b      	lsls	r3, r3, #1
 80037ba:	440b      	add	r3, r1
 80037bc:	00db      	lsls	r3, r3, #3
 80037be:	4413      	add	r3, r2
 80037c0:	330c      	adds	r3, #12
 80037c2:	681a      	ldr	r2, [r3, #0]
 80037c4:	687b      	ldr	r3, [r7, #4]
 80037c6:	429a      	cmp	r2, r3
 80037c8:	d005      	beq.n	80037d6 <OS_Signal_Wait+0x5a>
 80037ca:	2000      	movs	r0, #0
 80037cc:	f000 fa14 	bl	8003bf8 <__set_BASEPRI>
 80037d0:	f06f 0303 	mvn.w	r3, #3
 80037d4:	e073      	b.n	80038be <OS_Signal_Wait+0x142>
 80037d6:	f643 3388 	movw	r3, #15240	; 0x3b88
 80037da:	f2c2 0300 	movt	r3, #8192	; 0x2000
 80037de:	681b      	ldr	r3, [r3, #0]
 80037e0:	6a9b      	ldr	r3, [r3, #40]	; 0x28
 80037e2:	2b02      	cmp	r3, #2
 80037e4:	d00c      	beq.n	8003800 <OS_Signal_Wait+0x84>
 80037e6:	f643 3388 	movw	r3, #15240	; 0x3b88
 80037ea:	f2c2 0300 	movt	r3, #8192	; 0x2000
 80037ee:	681b      	ldr	r3, [r3, #0]
 80037f0:	2201      	movs	r2, #1
 80037f2:	629a      	str	r2, [r3, #40]	; 0x28
 80037f4:	6838      	ldr	r0, [r7, #0]
 80037f6:	f000 f8e1 	bl	80039bc <OS_Block_Current_Task>
 80037fa:	2030      	movs	r0, #48	; 0x30
 80037fc:	f000 f9fc 	bl	8003bf8 <__set_BASEPRI>
 8003800:	f643 3388 	movw	r3, #15240	; 0x3b88
 8003804:	f2c2 0300 	movt	r3, #8192	; 0x2000
 8003808:	681b      	ldr	r3, [r3, #0]
 800380a:	6a9b      	ldr	r3, [r3, #40]	; 0x28
 800380c:	2b01      	cmp	r3, #1
 800380e:	d107      	bne.n	8003820 <OS_Signal_Wait+0xa4>
 8003810:	f04f 33ff 	mov.w	r3, #4294967295
 8003814:	617b      	str	r3, [r7, #20]
 8003816:	2000      	movs	r0, #0
 8003818:	f000 f9ee 	bl	8003bf8 <__set_BASEPRI>
 800381c:	697b      	ldr	r3, [r7, #20]
 800381e:	e04e      	b.n	80038be <OS_Signal_Wait+0x142>
 8003820:	f643 3388 	movw	r3, #15240	; 0x3b88
 8003824:	f2c2 0300 	movt	r3, #8192	; 0x2000
 8003828:	681b      	ldr	r3, [r3, #0]
 800382a:	6a9b      	ldr	r3, [r3, #40]	; 0x28
 800382c:	2b02      	cmp	r3, #2
 800382e:	d11d      	bne.n	800386c <OS_Signal_Wait+0xf0>
 8003830:	68fa      	ldr	r2, [r7, #12]
 8003832:	4613      	mov	r3, r2
 8003834:	005b      	lsls	r3, r3, #1
 8003836:	4413      	add	r3, r2
 8003838:	00db      	lsls	r3, r3, #3
 800383a:	f643 2298 	movw	r2, #15000	; 0x3a98
 800383e:	f2c2 0200 	movt	r2, #8192	; 0x2000
 8003842:	441a      	add	r2, r3
 8003844:	f643 3388 	movw	r3, #15240	; 0x3b88
 8003848:	f2c2 0300 	movt	r3, #8192	; 0x2000
 800384c:	681b      	ldr	r3, [r3, #0]
 800384e:	685b      	ldr	r3, [r3, #4]
 8003850:	4610      	mov	r0, r2
 8003852:	68b9      	ldr	r1, [r7, #8]
 8003854:	461a      	mov	r2, r3
 8003856:	f001 fe11 	bl	800547c <dequeue>
 800385a:	6178      	str	r0, [r7, #20]
 800385c:	697b      	ldr	r3, [r7, #20]
 800385e:	2b00      	cmp	r3, #0
 8003860:	d012      	beq.n	8003888 <OS_Signal_Wait+0x10c>
 8003862:	2000      	movs	r0, #0
 8003864:	f000 f9c8 	bl	8003bf8 <__set_BASEPRI>
 8003868:	697b      	ldr	r3, [r7, #20]
 800386a:	e028      	b.n	80038be <OS_Signal_Wait+0x142>
 800386c:	f24d 00a8 	movw	r0, #53416	; 0xd0a8
 8003870:	f6c0 0000 	movt	r0, #2048	; 0x800
 8003874:	f003 fa06 	bl	8006c84 <Uart1_Printf>
 8003878:	f06f 0301 	mvn.w	r3, #1
 800387c:	617b      	str	r3, [r7, #20]
 800387e:	2000      	movs	r0, #0
 8003880:	f000 f9ba 	bl	8003bf8 <__set_BASEPRI>
 8003884:	697b      	ldr	r3, [r7, #20]
 8003886:	e01a      	b.n	80038be <OS_Signal_Wait+0x142>
 8003888:	68fa      	ldr	r2, [r7, #12]
 800388a:	4613      	mov	r3, r2
 800388c:	005b      	lsls	r3, r3, #1
 800388e:	4413      	add	r3, r2
 8003890:	00db      	lsls	r3, r3, #3
 8003892:	f643 2298 	movw	r2, #15000	; 0x3a98
 8003896:	f2c2 0200 	movt	r2, #8192	; 0x2000
 800389a:	4413      	add	r3, r2
 800389c:	4618      	mov	r0, r3
 800389e:	f001 fe2d 	bl	80054fc <isEmpty>
 80038a2:	4603      	mov	r3, r0
 80038a4:	2b00      	cmp	r3, #0
 80038a6:	d006      	beq.n	80038b6 <OS_Signal_Wait+0x13a>
 80038a8:	f643 3388 	movw	r3, #15240	; 0x3b88
 80038ac:	f2c2 0300 	movt	r3, #8192	; 0x2000
 80038b0:	681b      	ldr	r3, [r3, #0]
 80038b2:	2200      	movs	r2, #0
 80038b4:	629a      	str	r2, [r3, #40]	; 0x28
 80038b6:	2000      	movs	r0, #0
 80038b8:	f000 f99e 	bl	8003bf8 <__set_BASEPRI>
 80038bc:	697b      	ldr	r3, [r7, #20]
 80038be:	4618      	mov	r0, r3
 80038c0:	3718      	adds	r7, #24
 80038c2:	46bd      	mov	sp, r7
 80038c4:	bd80      	pop	{r7, pc}
 80038c6:	bf00      	nop

080038c8 <OS_Signal_Send>:
 80038c8:	b580      	push	{r7, lr}
 80038ca:	b084      	sub	sp, #16
 80038cc:	af00      	add	r7, sp, #0
 80038ce:	6078      	str	r0, [r7, #4]
 80038d0:	6039      	str	r1, [r7, #0]
 80038d2:	2030      	movs	r0, #48	; 0x30
 80038d4:	f000 f990 	bl	8003bf8 <__set_BASEPRI>
 80038d8:	687b      	ldr	r3, [r7, #4]
 80038da:	2b00      	cmp	r3, #0
 80038dc:	db02      	blt.n	80038e4 <OS_Signal_Send+0x1c>
 80038de:	687b      	ldr	r3, [r7, #4]
 80038e0:	2b09      	cmp	r3, #9
 80038e2:	dd00      	ble.n	80038e6 <OS_Signal_Send+0x1e>
 80038e4:	e066      	b.n	80039b4 <OS_Signal_Send+0xec>
 80038e6:	f643 2298 	movw	r2, #15000	; 0x3a98
 80038ea:	f2c2 0200 	movt	r2, #8192	; 0x2000
 80038ee:	6879      	ldr	r1, [r7, #4]
 80038f0:	460b      	mov	r3, r1
 80038f2:	005b      	lsls	r3, r3, #1
 80038f4:	440b      	add	r3, r1
 80038f6:	00db      	lsls	r3, r3, #3
 80038f8:	4413      	add	r3, r2
 80038fa:	3314      	adds	r3, #20
 80038fc:	681b      	ldr	r3, [r3, #0]
 80038fe:	2b00      	cmp	r3, #0
 8003900:	db55      	blt.n	80039ae <OS_Signal_Send+0xe6>
 8003902:	f643 2298 	movw	r2, #15000	; 0x3a98
 8003906:	f2c2 0200 	movt	r2, #8192	; 0x2000
 800390a:	6879      	ldr	r1, [r7, #4]
 800390c:	460b      	mov	r3, r1
 800390e:	005b      	lsls	r3, r3, #1
 8003910:	440b      	add	r3, r1
 8003912:	00db      	lsls	r3, r3, #3
 8003914:	4413      	add	r3, r2
 8003916:	3314      	adds	r3, #20
 8003918:	681b      	ldr	r3, [r3, #0]
 800391a:	2b3c      	cmp	r3, #60	; 0x3c
 800391c:	dc47      	bgt.n	80039ae <OS_Signal_Send+0xe6>
 800391e:	f643 2298 	movw	r2, #15000	; 0x3a98
 8003922:	f2c2 0200 	movt	r2, #8192	; 0x2000
 8003926:	6879      	ldr	r1, [r7, #4]
 8003928:	460b      	mov	r3, r1
 800392a:	005b      	lsls	r3, r3, #1
 800392c:	440b      	add	r3, r1
 800392e:	00db      	lsls	r3, r3, #3
 8003930:	4413      	add	r3, r2
 8003932:	3314      	adds	r3, #20
 8003934:	681a      	ldr	r2, [r3, #0]
 8003936:	4613      	mov	r3, r2
 8003938:	005b      	lsls	r3, r3, #1
 800393a:	4413      	add	r3, r2
 800393c:	011b      	lsls	r3, r3, #4
 800393e:	f640 7228 	movw	r2, #3880	; 0xf28
 8003942:	f2c2 0200 	movt	r2, #8192	; 0x2000
 8003946:	4413      	add	r3, r2
 8003948:	60fb      	str	r3, [r7, #12]
 800394a:	68fb      	ldr	r3, [r7, #12]
 800394c:	6a9b      	ldr	r3, [r3, #40]	; 0x28
 800394e:	2b02      	cmp	r3, #2
 8003950:	d00c      	beq.n	800396c <OS_Signal_Send+0xa4>
 8003952:	68fb      	ldr	r3, [r7, #12]
 8003954:	6a9b      	ldr	r3, [r3, #40]	; 0x28
 8003956:	2b01      	cmp	r3, #1
 8003958:	d105      	bne.n	8003966 <OS_Signal_Send+0x9e>
 800395a:	68f8      	ldr	r0, [r7, #12]
 800395c:	f000 f880 	bl	8003a60 <OS_Unblock_Task>
 8003960:	2030      	movs	r0, #48	; 0x30
 8003962:	f000 f949 	bl	8003bf8 <__set_BASEPRI>
 8003966:	68fb      	ldr	r3, [r7, #12]
 8003968:	2202      	movs	r2, #2
 800396a:	629a      	str	r2, [r3, #40]	; 0x28
 800396c:	687a      	ldr	r2, [r7, #4]
 800396e:	4613      	mov	r3, r2
 8003970:	005b      	lsls	r3, r3, #1
 8003972:	4413      	add	r3, r2
 8003974:	00db      	lsls	r3, r3, #3
 8003976:	f643 2298 	movw	r2, #15000	; 0x3a98
 800397a:	f2c2 0200 	movt	r2, #8192	; 0x2000
 800397e:	4413      	add	r3, r2
 8003980:	4618      	mov	r0, r3
 8003982:	6839      	ldr	r1, [r7, #0]
 8003984:	f001 fd3c 	bl	8005400 <enqueue>
 8003988:	f643 2298 	movw	r2, #15000	; 0x3a98
 800398c:	f2c2 0200 	movt	r2, #8192	; 0x2000
 8003990:	6879      	ldr	r1, [r7, #4]
 8003992:	460b      	mov	r3, r1
 8003994:	005b      	lsls	r3, r3, #1
 8003996:	440b      	add	r3, r1
 8003998:	00db      	lsls	r3, r3, #3
 800399a:	4413      	add	r3, r2
 800399c:	3308      	adds	r3, #8
 800399e:	681b      	ldr	r3, [r3, #0]
 80039a0:	f24d 00c8 	movw	r0, #53448	; 0xd0c8
 80039a4:	f6c0 0000 	movt	r0, #2048	; 0x800
 80039a8:	4619      	mov	r1, r3
 80039aa:	f003 f96b 	bl	8006c84 <Uart1_Printf>
 80039ae:	2000      	movs	r0, #0
 80039b0:	f000 f922 	bl	8003bf8 <__set_BASEPRI>
 80039b4:	3710      	adds	r7, #16
 80039b6:	46bd      	mov	sp, r7
 80039b8:	bd80      	pop	{r7, pc}
 80039ba:	bf00      	nop

080039bc <OS_Block_Current_Task>:
 80039bc:	b590      	push	{r4, r7, lr}
 80039be:	b083      	sub	sp, #12
 80039c0:	af00      	add	r7, sp, #0
 80039c2:	6078      	str	r0, [r7, #4]
 80039c4:	2030      	movs	r0, #48	; 0x30
 80039c6:	f000 f917 	bl	8003bf8 <__set_BASEPRI>
 80039ca:	f643 3388 	movw	r3, #15240	; 0x3b88
 80039ce:	f2c2 0300 	movt	r3, #8192	; 0x2000
 80039d2:	681b      	ldr	r3, [r3, #0]
 80039d4:	f643 3090 	movw	r0, #15248	; 0x3b90
 80039d8:	f2c2 0000 	movt	r0, #8192	; 0x2000
 80039dc:	4619      	mov	r1, r3
 80039de:	f644 724d 	movw	r2, #20301	; 0x4f4d
 80039e2:	f6c0 0200 	movt	r2, #2048	; 0x800
 80039e6:	f001 fc0d 	bl	8005204 <pq_remove>
 80039ea:	f643 3388 	movw	r3, #15240	; 0x3b88
 80039ee:	f2c2 0300 	movt	r3, #8192	; 0x2000
 80039f2:	681b      	ldr	r3, [r3, #0]
 80039f4:	2201      	movs	r2, #1
 80039f6:	60da      	str	r2, [r3, #12]
 80039f8:	687b      	ldr	r3, [r7, #4]
 80039fa:	2b00      	cmp	r3, #0
 80039fc:	d104      	bne.n	8003a08 <OS_Block_Current_Task+0x4c>
 80039fe:	f44f 434a 	mov.w	r3, #51712	; 0xca00
 8003a02:	f6c3 339a 	movt	r3, #15258	; 0x3b9a
 8003a06:	607b      	str	r3, [r7, #4]
 8003a08:	f643 3388 	movw	r3, #15240	; 0x3b88
 8003a0c:	f2c2 0300 	movt	r3, #8192	; 0x2000
 8003a10:	681c      	ldr	r4, [r3, #0]
 8003a12:	687b      	ldr	r3, [r7, #4]
 8003a14:	4618      	mov	r0, r3
 8003a16:	ea4f 71e0 	mov.w	r1, r0, asr #31
 8003a1a:	f643 5380 	movw	r3, #15744	; 0x3d80
 8003a1e:	f2c2 0300 	movt	r3, #8192	; 0x2000
 8003a22:	e9d3 2300 	ldrd	r2, r3, [r3]
 8003a26:	1812      	adds	r2, r2, r0
 8003a28:	eb43 0301 	adc.w	r3, r3, r1
 8003a2c:	e9c4 2306 	strd	r2, r3, [r4, #24]
 8003a30:	f643 3388 	movw	r3, #15240	; 0x3b88
 8003a34:	f2c2 0300 	movt	r3, #8192	; 0x2000
 8003a38:	681b      	ldr	r3, [r3, #0]
 8003a3a:	f643 4088 	movw	r0, #15496	; 0x3c88
 8003a3e:	f2c2 0000 	movt	r0, #8192	; 0x2000
 8003a42:	4619      	mov	r1, r3
 8003a44:	f644 62f9 	movw	r2, #20217	; 0x4ef9
 8003a48:	f6c0 0200 	movt	r2, #2048	; 0x800
 8003a4c:	f001 fb6a 	bl	8005124 <pq_push>
 8003a50:	f000 f83a 	bl	8003ac8 <OS_Pend_Trigger>
 8003a54:	2000      	movs	r0, #0
 8003a56:	f000 f8cf 	bl	8003bf8 <__set_BASEPRI>
 8003a5a:	370c      	adds	r7, #12
 8003a5c:	46bd      	mov	sp, r7
 8003a5e:	bd90      	pop	{r4, r7, pc}

08003a60 <OS_Unblock_Task>:
 8003a60:	b580      	push	{r7, lr}
 8003a62:	b082      	sub	sp, #8
 8003a64:	af00      	add	r7, sp, #0
 8003a66:	6078      	str	r0, [r7, #4]
 8003a68:	2030      	movs	r0, #48	; 0x30
 8003a6a:	f000 f8c5 	bl	8003bf8 <__set_BASEPRI>
 8003a6e:	687b      	ldr	r3, [r7, #4]
 8003a70:	2b00      	cmp	r3, #0
 8003a72:	d100      	bne.n	8003a76 <OS_Unblock_Task+0x16>
 8003a74:	e024      	b.n	8003ac0 <OS_Unblock_Task+0x60>
 8003a76:	f643 4088 	movw	r0, #15496	; 0x3c88
 8003a7a:	f2c2 0000 	movt	r0, #8192	; 0x2000
 8003a7e:	6879      	ldr	r1, [r7, #4]
 8003a80:	f644 62f9 	movw	r2, #20217	; 0x4ef9
 8003a84:	f6c0 0200 	movt	r2, #2048	; 0x800
 8003a88:	f001 fbbc 	bl	8005204 <pq_remove>
 8003a8c:	687b      	ldr	r3, [r7, #4]
 8003a8e:	2200      	movs	r2, #0
 8003a90:	60da      	str	r2, [r3, #12]
 8003a92:	f643 5380 	movw	r3, #15744	; 0x3d80
 8003a96:	f2c2 0300 	movt	r3, #8192	; 0x2000
 8003a9a:	e9d3 2300 	ldrd	r2, r3, [r3]
 8003a9e:	6879      	ldr	r1, [r7, #4]
 8003aa0:	e9c1 2304 	strd	r2, r3, [r1, #16]
 8003aa4:	f643 3090 	movw	r0, #15248	; 0x3b90
 8003aa8:	f2c2 0000 	movt	r0, #8192	; 0x2000
 8003aac:	6879      	ldr	r1, [r7, #4]
 8003aae:	f644 724d 	movw	r2, #20301	; 0x4f4d
 8003ab2:	f6c0 0200 	movt	r2, #2048	; 0x800
 8003ab6:	f001 fb35 	bl	8005124 <pq_push>
 8003aba:	2000      	movs	r0, #0
 8003abc:	f000 f89c 	bl	8003bf8 <__set_BASEPRI>
 8003ac0:	3708      	adds	r7, #8
 8003ac2:	46bd      	mov	sp, r7
 8003ac4:	bd80      	pop	{r7, pc}
 8003ac6:	bf00      	nop

08003ac8 <OS_Pend_Trigger>:
 8003ac8:	b480      	push	{r7}
 8003aca:	af00      	add	r7, sp, #0
 8003acc:	f44f 436d 	mov.w	r3, #60672	; 0xed00
 8003ad0:	f2ce 0300 	movt	r3, #57344	; 0xe000
 8003ad4:	f44f 426d 	mov.w	r2, #60672	; 0xed00
 8003ad8:	f2ce 0200 	movt	r2, #57344	; 0xe000
 8003adc:	6852      	ldr	r2, [r2, #4]
 8003ade:	f042 5280 	orr.w	r2, r2, #268435456	; 0x10000000
 8003ae2:	605a      	str	r2, [r3, #4]
 8003ae4:	46bd      	mov	sp, r7
 8003ae6:	f85d 7b04 	ldr.w	r7, [sp], #4
 8003aea:	4770      	bx	lr

08003aec <PRINT_DUMMY>:
 8003aec:	b580      	push	{r7, lr}
 8003aee:	af00      	add	r7, sp, #0
 8003af0:	f24d 00d4 	movw	r0, #53460	; 0xd0d4
 8003af4:	f6c0 0000 	movt	r0, #2048	; 0x800
 8003af8:	f003 f8c4 	bl	8006c84 <Uart1_Printf>
 8003afc:	bd80      	pop	{r7, pc}
 8003afe:	bf00      	nop

08003b00 <Clock_Init>:
 8003b00:	b480      	push	{r7}
 8003b02:	af00      	add	r7, sp, #0
 8003b04:	f44f 5380 	mov.w	r3, #4096	; 0x1000
 8003b08:	f2c4 0302 	movt	r3, #16386	; 0x4002
 8003b0c:	2201      	movs	r2, #1
 8003b0e:	601a      	str	r2, [r3, #0]
 8003b10:	f44f 5380 	mov.w	r3, #4096	; 0x1000
 8003b14:	f2c4 0302 	movt	r3, #16386	; 0x4002
 8003b18:	f44f 5280 	mov.w	r2, #4096	; 0x1000
 8003b1c:	f2c4 0202 	movt	r2, #16386	; 0x4002
 8003b20:	6812      	ldr	r2, [r2, #0]
 8003b22:	f442 3280 	orr.w	r2, r2, #65536	; 0x10000
 8003b26:	601a      	str	r2, [r3, #0]
 8003b28:	f44f 5380 	mov.w	r3, #4096	; 0x1000
 8003b2c:	f2c4 0302 	movt	r3, #16386	; 0x4002
 8003b30:	f44f 6280 	mov.w	r2, #1024	; 0x400
 8003b34:	f2c0 021d 	movt	r2, #29
 8003b38:	605a      	str	r2, [r3, #4]
 8003b3a:	f44f 5380 	mov.w	r3, #4096	; 0x1000
 8003b3e:	f2c4 0302 	movt	r3, #16386	; 0x4002
 8003b42:	f44f 5280 	mov.w	r2, #4096	; 0x1000
 8003b46:	f2c4 0202 	movt	r2, #16386	; 0x4002
 8003b4a:	6812      	ldr	r2, [r2, #0]
 8003b4c:	f042 7280 	orr.w	r2, r2, #16777216	; 0x1000000
 8003b50:	601a      	str	r2, [r3, #0]
 8003b52:	bf00      	nop
 8003b54:	f44f 5380 	mov.w	r3, #4096	; 0x1000
 8003b58:	f2c4 0302 	movt	r3, #16386	; 0x4002
 8003b5c:	681b      	ldr	r3, [r3, #0]
 8003b5e:	f003 7300 	and.w	r3, r3, #33554432	; 0x2000000
 8003b62:	2b00      	cmp	r3, #0
 8003b64:	d0f6      	beq.n	8003b54 <Clock_Init+0x54>
 8003b66:	f44f 5300 	mov.w	r3, #8192	; 0x2000
 8003b6a:	f2c4 0302 	movt	r3, #16386	; 0x4002
 8003b6e:	f44f 5200 	mov.w	r2, #8192	; 0x2000
 8003b72:	f2c4 0202 	movt	r2, #16386	; 0x4002
 8003b76:	6812      	ldr	r2, [r2, #0]
 8003b78:	f022 0203 	bic.w	r2, r2, #3
 8003b7c:	f042 0202 	orr.w	r2, r2, #2
 8003b80:	601a      	str	r2, [r3, #0]
 8003b82:	f44f 5380 	mov.w	r3, #4096	; 0x1000
 8003b86:	f2c4 0302 	movt	r3, #16386	; 0x4002
 8003b8a:	f44f 5280 	mov.w	r2, #4096	; 0x1000
 8003b8e:	f2c4 0202 	movt	r2, #16386	; 0x4002
 8003b92:	6852      	ldr	r2, [r2, #4]
 8003b94:	f022 0203 	bic.w	r2, r2, #3
 8003b98:	f042 0202 	orr.w	r2, r2, #2
 8003b9c:	605a      	str	r2, [r3, #4]
 8003b9e:	46bd      	mov	sp, r7
 8003ba0:	f85d 7b04 	ldr.w	r7, [sp], #4
 8003ba4:	4770      	bx	lr
 8003ba6:	bf00      	nop

08003ba8 <__get_PSP>:
 8003ba8:	2400      	movs	r4, #0
 8003baa:	f3ef 8309 	mrs	r3, PSP
 8003bae:	4618      	mov	r0, r3
 8003bb0:	4770      	bx	lr
 8003bb2:	461c      	mov	r4, r3
 8003bb4:	4623      	mov	r3, r4
 8003bb6:	4618      	mov	r0, r3

08003bb8 <__set_PSP>:
 8003bb8:	4603      	mov	r3, r0
 8003bba:	f383 8809 	msr	PSP, r3
 8003bbe:	4770      	bx	lr

08003bc0 <__get_MSP>:
 8003bc0:	2400      	movs	r4, #0
 8003bc2:	f3ef 8308 	mrs	r3, MSP
 8003bc6:	4618      	mov	r0, r3
 8003bc8:	4770      	bx	lr
 8003bca:	461c      	mov	r4, r3
 8003bcc:	4623      	mov	r3, r4
 8003bce:	4618      	mov	r0, r3

08003bd0 <__set_MSP>:
 8003bd0:	4603      	mov	r3, r0
 8003bd2:	f383 8808 	msr	MSP, r3
 8003bd6:	4770      	bx	lr

08003bd8 <__get_BASEPRI>:
 8003bd8:	b480      	push	{r7}
 8003bda:	b083      	sub	sp, #12
 8003bdc:	af00      	add	r7, sp, #0
 8003bde:	2300      	movs	r3, #0
 8003be0:	607b      	str	r3, [r7, #4]
 8003be2:	f3ef 8312 	mrs	r3, BASEPRI_MAX
 8003be6:	607b      	str	r3, [r7, #4]
 8003be8:	687b      	ldr	r3, [r7, #4]
 8003bea:	4618      	mov	r0, r3
 8003bec:	370c      	adds	r7, #12
 8003bee:	46bd      	mov	sp, r7
 8003bf0:	f85d 7b04 	ldr.w	r7, [sp], #4
 8003bf4:	4770      	bx	lr
 8003bf6:	bf00      	nop

08003bf8 <__set_BASEPRI>:
 8003bf8:	b480      	push	{r7}
 8003bfa:	b083      	sub	sp, #12
 8003bfc:	af00      	add	r7, sp, #0
 8003bfe:	6078      	str	r0, [r7, #4]
 8003c00:	687b      	ldr	r3, [r7, #4]
 8003c02:	f383 8811 	msr	BASEPRI, r3
 8003c06:	370c      	adds	r7, #12
 8003c08:	46bd      	mov	sp, r7
 8003c0a:	f85d 7b04 	ldr.w	r7, [sp], #4
 8003c0e:	4770      	bx	lr

08003c10 <__get_PRIMASK>:
 8003c10:	b480      	push	{r7}
 8003c12:	b083      	sub	sp, #12
 8003c14:	af00      	add	r7, sp, #0
 8003c16:	2300      	movs	r3, #0
 8003c18:	607b      	str	r3, [r7, #4]
 8003c1a:	f3ef 8310 	mrs	r3, PRIMASK
 8003c1e:	607b      	str	r3, [r7, #4]
 8003c20:	687b      	ldr	r3, [r7, #4]
 8003c22:	4618      	mov	r0, r3
 8003c24:	370c      	adds	r7, #12
 8003c26:	46bd      	mov	sp, r7
 8003c28:	f85d 7b04 	ldr.w	r7, [sp], #4
 8003c2c:	4770      	bx	lr
 8003c2e:	bf00      	nop

08003c30 <__set_PRIMASK>:
 8003c30:	b480      	push	{r7}
 8003c32:	b083      	sub	sp, #12
 8003c34:	af00      	add	r7, sp, #0
 8003c36:	6078      	str	r0, [r7, #4]
 8003c38:	687b      	ldr	r3, [r7, #4]
 8003c3a:	f383 8810 	msr	PRIMASK, r3
 8003c3e:	370c      	adds	r7, #12
 8003c40:	46bd      	mov	sp, r7
 8003c42:	f85d 7b04 	ldr.w	r7, [sp], #4
 8003c46:	4770      	bx	lr

08003c48 <__get_FAULTMASK>:
 8003c48:	b480      	push	{r7}
 8003c4a:	b083      	sub	sp, #12
 8003c4c:	af00      	add	r7, sp, #0
 8003c4e:	2300      	movs	r3, #0
 8003c50:	607b      	str	r3, [r7, #4]
 8003c52:	f3ef 8313 	mrs	r3, FAULTMASK
 8003c56:	607b      	str	r3, [r7, #4]
 8003c58:	687b      	ldr	r3, [r7, #4]
 8003c5a:	4618      	mov	r0, r3
 8003c5c:	370c      	adds	r7, #12
 8003c5e:	46bd      	mov	sp, r7
 8003c60:	f85d 7b04 	ldr.w	r7, [sp], #4
 8003c64:	4770      	bx	lr
 8003c66:	bf00      	nop

08003c68 <__set_FAULTMASK>:
 8003c68:	b480      	push	{r7}
 8003c6a:	b083      	sub	sp, #12
 8003c6c:	af00      	add	r7, sp, #0
 8003c6e:	6078      	str	r0, [r7, #4]
 8003c70:	687b      	ldr	r3, [r7, #4]
 8003c72:	f383 8813 	msr	FAULTMASK, r3
 8003c76:	370c      	adds	r7, #12
 8003c78:	46bd      	mov	sp, r7
 8003c7a:	f85d 7b04 	ldr.w	r7, [sp], #4
 8003c7e:	4770      	bx	lr

08003c80 <__get_CONTROL>:
 8003c80:	b480      	push	{r7}
 8003c82:	b083      	sub	sp, #12
 8003c84:	af00      	add	r7, sp, #0
 8003c86:	2300      	movs	r3, #0
 8003c88:	607b      	str	r3, [r7, #4]
 8003c8a:	f3ef 8314 	mrs	r3, CONTROL
 8003c8e:	607b      	str	r3, [r7, #4]
 8003c90:	687b      	ldr	r3, [r7, #4]
 8003c92:	4618      	mov	r0, r3
 8003c94:	370c      	adds	r7, #12
 8003c96:	46bd      	mov	sp, r7
 8003c98:	f85d 7b04 	ldr.w	r7, [sp], #4
 8003c9c:	4770      	bx	lr
 8003c9e:	bf00      	nop

08003ca0 <__set_CONTROL>:
 8003ca0:	b480      	push	{r7}
 8003ca2:	b083      	sub	sp, #12
 8003ca4:	af00      	add	r7, sp, #0
 8003ca6:	6078      	str	r0, [r7, #4]
 8003ca8:	687b      	ldr	r3, [r7, #4]
 8003caa:	f383 8814 	msr	CONTROL, r3
 8003cae:	370c      	adds	r7, #12
 8003cb0:	46bd      	mov	sp, r7
 8003cb2:	f85d 7b04 	ldr.w	r7, [sp], #4
 8003cb6:	4770      	bx	lr

08003cb8 <__REV>:
 8003cb8:	b480      	push	{r7}
 8003cba:	b085      	sub	sp, #20
 8003cbc:	af00      	add	r7, sp, #0
 8003cbe:	6078      	str	r0, [r7, #4]
 8003cc0:	2300      	movs	r3, #0
 8003cc2:	60fb      	str	r3, [r7, #12]
 8003cc4:	687b      	ldr	r3, [r7, #4]
 8003cc6:	ba1b      	rev	r3, r3
 8003cc8:	60fb      	str	r3, [r7, #12]
 8003cca:	68fb      	ldr	r3, [r7, #12]
 8003ccc:	4618      	mov	r0, r3
 8003cce:	3714      	adds	r7, #20
 8003cd0:	46bd      	mov	sp, r7
 8003cd2:	f85d 7b04 	ldr.w	r7, [sp], #4
 8003cd6:	4770      	bx	lr

08003cd8 <__REV16>:
 8003cd8:	b480      	push	{r7}
 8003cda:	b085      	sub	sp, #20
 8003cdc:	af00      	add	r7, sp, #0
 8003cde:	4603      	mov	r3, r0
 8003ce0:	80fb      	strh	r3, [r7, #6]
 8003ce2:	2300      	movs	r3, #0
 8003ce4:	60fb      	str	r3, [r7, #12]
 8003ce6:	88fb      	ldrh	r3, [r7, #6]
 8003ce8:	ba5b      	rev16	r3, r3
 8003cea:	60fb      	str	r3, [r7, #12]
 8003cec:	68fb      	ldr	r3, [r7, #12]
 8003cee:	4618      	mov	r0, r3
 8003cf0:	3714      	adds	r7, #20
 8003cf2:	46bd      	mov	sp, r7
 8003cf4:	f85d 7b04 	ldr.w	r7, [sp], #4
 8003cf8:	4770      	bx	lr
 8003cfa:	bf00      	nop

08003cfc <__REVSH>:
 8003cfc:	b480      	push	{r7}
 8003cfe:	b085      	sub	sp, #20
 8003d00:	af00      	add	r7, sp, #0
 8003d02:	4603      	mov	r3, r0
 8003d04:	80fb      	strh	r3, [r7, #6]
 8003d06:	2300      	movs	r3, #0
 8003d08:	60fb      	str	r3, [r7, #12]
 8003d0a:	88fb      	ldrh	r3, [r7, #6]
 8003d0c:	badb      	revsh	r3, r3
 8003d0e:	60fb      	str	r3, [r7, #12]
 8003d10:	68fb      	ldr	r3, [r7, #12]
 8003d12:	4618      	mov	r0, r3
 8003d14:	3714      	adds	r7, #20
 8003d16:	46bd      	mov	sp, r7
 8003d18:	f85d 7b04 	ldr.w	r7, [sp], #4
 8003d1c:	4770      	bx	lr
 8003d1e:	bf00      	nop

08003d20 <__RBIT>:
 8003d20:	b480      	push	{r7}
 8003d22:	b085      	sub	sp, #20
 8003d24:	af00      	add	r7, sp, #0
 8003d26:	6078      	str	r0, [r7, #4]
 8003d28:	2300      	movs	r3, #0
 8003d2a:	60fb      	str	r3, [r7, #12]
 8003d2c:	687b      	ldr	r3, [r7, #4]
 8003d2e:	fa93 f3a3 	rbit	r3, r3
 8003d32:	60fb      	str	r3, [r7, #12]
 8003d34:	68fb      	ldr	r3, [r7, #12]
 8003d36:	4618      	mov	r0, r3
 8003d38:	3714      	adds	r7, #20
 8003d3a:	46bd      	mov	sp, r7
 8003d3c:	f85d 7b04 	ldr.w	r7, [sp], #4
 8003d40:	4770      	bx	lr
 8003d42:	bf00      	nop

08003d44 <__LDREXB>:
 8003d44:	b480      	push	{r7}
 8003d46:	b085      	sub	sp, #20
 8003d48:	af00      	add	r7, sp, #0
 8003d4a:	6078      	str	r0, [r7, #4]
 8003d4c:	2300      	movs	r3, #0
 8003d4e:	73fb      	strb	r3, [r7, #15]
 8003d50:	687b      	ldr	r3, [r7, #4]
 8003d52:	e8d3 3f4f 	ldrexb	r3, [r3]
 8003d56:	73fb      	strb	r3, [r7, #15]
 8003d58:	7bfb      	ldrb	r3, [r7, #15]
 8003d5a:	4618      	mov	r0, r3
 8003d5c:	3714      	adds	r7, #20
 8003d5e:	46bd      	mov	sp, r7
 8003d60:	f85d 7b04 	ldr.w	r7, [sp], #4
 8003d64:	4770      	bx	lr
 8003d66:	bf00      	nop

08003d68 <__LDREXH>:
 8003d68:	b480      	push	{r7}
 8003d6a:	b085      	sub	sp, #20
 8003d6c:	af00      	add	r7, sp, #0
 8003d6e:	6078      	str	r0, [r7, #4]
 8003d70:	2300      	movs	r3, #0
 8003d72:	81fb      	strh	r3, [r7, #14]
 8003d74:	687b      	ldr	r3, [r7, #4]
 8003d76:	e8d3 3f5f 	ldrexh	r3, [r3]
 8003d7a:	81fb      	strh	r3, [r7, #14]
 8003d7c:	89fb      	ldrh	r3, [r7, #14]
 8003d7e:	4618      	mov	r0, r3
 8003d80:	3714      	adds	r7, #20
 8003d82:	46bd      	mov	sp, r7
 8003d84:	f85d 7b04 	ldr.w	r7, [sp], #4
 8003d88:	4770      	bx	lr
 8003d8a:	bf00      	nop

08003d8c <__LDREXW>:
 8003d8c:	b480      	push	{r7}
 8003d8e:	b085      	sub	sp, #20
 8003d90:	af00      	add	r7, sp, #0
 8003d92:	6078      	str	r0, [r7, #4]
 8003d94:	2300      	movs	r3, #0
 8003d96:	60fb      	str	r3, [r7, #12]
 8003d98:	687b      	ldr	r3, [r7, #4]
 8003d9a:	e853 3f00 	ldrex	r3, [r3]
 8003d9e:	60fb      	str	r3, [r7, #12]
 8003da0:	68fb      	ldr	r3, [r7, #12]
 8003da2:	4618      	mov	r0, r3
 8003da4:	3714      	adds	r7, #20
 8003da6:	46bd      	mov	sp, r7
 8003da8:	f85d 7b04 	ldr.w	r7, [sp], #4
 8003dac:	4770      	bx	lr
 8003dae:	bf00      	nop

08003db0 <__STREXB>:
 8003db0:	b480      	push	{r7}
 8003db2:	b085      	sub	sp, #20
 8003db4:	af00      	add	r7, sp, #0
 8003db6:	4603      	mov	r3, r0
 8003db8:	6039      	str	r1, [r7, #0]
 8003dba:	71fb      	strb	r3, [r7, #7]
 8003dbc:	2300      	movs	r3, #0
 8003dbe:	60fb      	str	r3, [r7, #12]
 8003dc0:	683a      	ldr	r2, [r7, #0]
 8003dc2:	79f9      	ldrb	r1, [r7, #7]
 8003dc4:	e8c2 1f43 	strexb	r3, r1, [r2]
 8003dc8:	60fb      	str	r3, [r7, #12]
 8003dca:	68fb      	ldr	r3, [r7, #12]
 8003dcc:	4618      	mov	r0, r3
 8003dce:	3714      	adds	r7, #20
 8003dd0:	46bd      	mov	sp, r7
 8003dd2:	f85d 7b04 	ldr.w	r7, [sp], #4
 8003dd6:	4770      	bx	lr

08003dd8 <__STREXH>:
 8003dd8:	b480      	push	{r7}
 8003dda:	b085      	sub	sp, #20
 8003ddc:	af00      	add	r7, sp, #0
 8003dde:	4603      	mov	r3, r0
 8003de0:	6039      	str	r1, [r7, #0]
 8003de2:	80fb      	strh	r3, [r7, #6]
 8003de4:	2300      	movs	r3, #0
 8003de6:	60fb      	str	r3, [r7, #12]
 8003de8:	683a      	ldr	r2, [r7, #0]
 8003dea:	88f9      	ldrh	r1, [r7, #6]
 8003dec:	e8c2 1f53 	strexh	r3, r1, [r2]
 8003df0:	60fb      	str	r3, [r7, #12]
 8003df2:	68fb      	ldr	r3, [r7, #12]
 8003df4:	4618      	mov	r0, r3
 8003df6:	3714      	adds	r7, #20
 8003df8:	46bd      	mov	sp, r7
 8003dfa:	f85d 7b04 	ldr.w	r7, [sp], #4
 8003dfe:	4770      	bx	lr

08003e00 <__STREXW>:
 8003e00:	b480      	push	{r7}
 8003e02:	b085      	sub	sp, #20
 8003e04:	af00      	add	r7, sp, #0
 8003e06:	6078      	str	r0, [r7, #4]
 8003e08:	6039      	str	r1, [r7, #0]
 8003e0a:	2300      	movs	r3, #0
 8003e0c:	60fb      	str	r3, [r7, #12]
 8003e0e:	683b      	ldr	r3, [r7, #0]
 8003e10:	687a      	ldr	r2, [r7, #4]
 8003e12:	e843 2300 	strex	r3, r2, [r3]
 8003e16:	60fb      	str	r3, [r7, #12]
 8003e18:	68fb      	ldr	r3, [r7, #12]
 8003e1a:	4618      	mov	r0, r3
 8003e1c:	3714      	adds	r7, #20
 8003e1e:	46bd      	mov	sp, r7
 8003e20:	f85d 7b04 	ldr.w	r7, [sp], #4
 8003e24:	4770      	bx	lr
 8003e26:	bf00      	nop

08003e28 <NVIC_EnableIRQ>:
 8003e28:	b480      	push	{r7}
 8003e2a:	b083      	sub	sp, #12
 8003e2c:	af00      	add	r7, sp, #0
 8003e2e:	4603      	mov	r3, r0
 8003e30:	71fb      	strb	r3, [r7, #7]
 8003e32:	f44f 4361 	mov.w	r3, #57600	; 0xe100
 8003e36:	f2ce 0300 	movt	r3, #57344	; 0xe000
 8003e3a:	f997 2007 	ldrsb.w	r2, [r7, #7]
 8003e3e:	0952      	lsrs	r2, r2, #5
 8003e40:	79f9      	ldrb	r1, [r7, #7]
 8003e42:	f001 011f 	and.w	r1, r1, #31
 8003e46:	2001      	movs	r0, #1
 8003e48:	fa00 f101 	lsl.w	r1, r0, r1
 8003e4c:	f843 1022 	str.w	r1, [r3, r2, lsl #2]
 8003e50:	370c      	adds	r7, #12
 8003e52:	46bd      	mov	sp, r7
 8003e54:	f85d 7b04 	ldr.w	r7, [sp], #4
 8003e58:	4770      	bx	lr
 8003e5a:	bf00      	nop

08003e5c <NVIC_ClearPendingIRQ>:
 8003e5c:	b480      	push	{r7}
 8003e5e:	b083      	sub	sp, #12
 8003e60:	af00      	add	r7, sp, #0
 8003e62:	4603      	mov	r3, r0
 8003e64:	71fb      	strb	r3, [r7, #7]
 8003e66:	f44f 4361 	mov.w	r3, #57600	; 0xe100
 8003e6a:	f2ce 0300 	movt	r3, #57344	; 0xe000
 8003e6e:	f997 2007 	ldrsb.w	r2, [r7, #7]
 8003e72:	0952      	lsrs	r2, r2, #5
 8003e74:	79f9      	ldrb	r1, [r7, #7]
 8003e76:	f001 011f 	and.w	r1, r1, #31
 8003e7a:	2001      	movs	r0, #1
 8003e7c:	fa00 f101 	lsl.w	r1, r0, r1
 8003e80:	3260      	adds	r2, #96	; 0x60
 8003e82:	f843 1022 	str.w	r1, [r3, r2, lsl #2]
 8003e86:	370c      	adds	r7, #12
 8003e88:	46bd      	mov	sp, r7
 8003e8a:	f85d 7b04 	ldr.w	r7, [sp], #4
 8003e8e:	4770      	bx	lr

08003e90 <Key_Poll_Init>:
 8003e90:	b480      	push	{r7}
 8003e92:	af00      	add	r7, sp, #0
 8003e94:	f44f 5380 	mov.w	r3, #4096	; 0x1000
 8003e98:	f2c4 0302 	movt	r3, #16386	; 0x4002
 8003e9c:	f44f 5280 	mov.w	r2, #4096	; 0x1000
 8003ea0:	f2c4 0202 	movt	r2, #16386	; 0x4002
 8003ea4:	6992      	ldr	r2, [r2, #24]
 8003ea6:	f042 0201 	orr.w	r2, r2, #1
 8003eaa:	619a      	str	r2, [r3, #24]
 8003eac:	f44f 5380 	mov.w	r3, #4096	; 0x1000
 8003eb0:	f2c4 0302 	movt	r3, #16386	; 0x4002
 8003eb4:	f44f 5280 	mov.w	r2, #4096	; 0x1000
 8003eb8:	f2c4 0202 	movt	r2, #16386	; 0x4002
 8003ebc:	6992      	ldr	r2, [r2, #24]
 8003ebe:	f042 020c 	orr.w	r2, r2, #12
 8003ec2:	619a      	str	r2, [r3, #24]
 8003ec4:	2300      	movs	r3, #0
 8003ec6:	f2c4 0301 	movt	r3, #16385	; 0x4001
 8003eca:	2200      	movs	r2, #0
 8003ecc:	f2c4 0201 	movt	r2, #16385	; 0x4001
 8003ed0:	6852      	ldr	r2, [r2, #4]
 8003ed2:	f022 62e0 	bic.w	r2, r2, #117440512	; 0x7000000
 8003ed6:	f042 6280 	orr.w	r2, r2, #67108864	; 0x4000000
 8003eda:	605a      	str	r2, [r3, #4]
 8003edc:	f44f 6340 	mov.w	r3, #3072	; 0xc00
 8003ee0:	f2c4 0301 	movt	r3, #16385	; 0x4001
 8003ee4:	f44f 6240 	mov.w	r2, #3072	; 0xc00
 8003ee8:	f2c4 0201 	movt	r2, #16385	; 0x4001
 8003eec:	6812      	ldr	r2, [r2, #0]
 8003eee:	f422 4270 	bic.w	r2, r2, #61440	; 0xf000
 8003ef2:	f442 4200 	orr.w	r2, r2, #32768	; 0x8000
 8003ef6:	601a      	str	r2, [r3, #0]
 8003ef8:	f44f 6340 	mov.w	r3, #3072	; 0xc00
 8003efc:	f2c4 0301 	movt	r3, #16385	; 0x4001
 8003f00:	f44f 6240 	mov.w	r2, #3072	; 0xc00
 8003f04:	f2c4 0201 	movt	r2, #16385	; 0x4001
 8003f08:	68d2      	ldr	r2, [r2, #12]
 8003f0a:	f042 0208 	orr.w	r2, r2, #8
 8003f0e:	60da      	str	r2, [r3, #12]
 8003f10:	f44f 6340 	mov.w	r3, #3072	; 0xc00
 8003f14:	f2c4 0301 	movt	r3, #16385	; 0x4001
 8003f18:	f44f 6240 	mov.w	r2, #3072	; 0xc00
 8003f1c:	f2c4 0201 	movt	r2, #16385	; 0x4001
 8003f20:	6812      	ldr	r2, [r2, #0]
 8003f22:	f3c2 0213 	ubfx	r2, r2, #0, #20
 8003f26:	f042 4208 	orr.w	r2, r2, #2281701376	; 0x88000000
 8003f2a:	f442 0200 	orr.w	r2, r2, #8388608	; 0x800000
 8003f2e:	601a      	str	r2, [r3, #0]
 8003f30:	f44f 6340 	mov.w	r3, #3072	; 0xc00
 8003f34:	f2c4 0301 	movt	r3, #16385	; 0x4001
 8003f38:	f44f 6240 	mov.w	r2, #3072	; 0xc00
 8003f3c:	f2c4 0201 	movt	r2, #16385	; 0x4001
 8003f40:	68d2      	ldr	r2, [r2, #12]
 8003f42:	f042 02e0 	orr.w	r2, r2, #224	; 0xe0
 8003f46:	60da      	str	r2, [r3, #12]
 8003f48:	f44f 6300 	mov.w	r3, #2048	; 0x800
 8003f4c:	f2c4 0301 	movt	r3, #16385	; 0x4001
 8003f50:	f44f 6200 	mov.w	r2, #2048	; 0x800
 8003f54:	f2c4 0201 	movt	r2, #16385	; 0x4001
 8003f58:	6852      	ldr	r2, [r2, #4]
 8003f5a:	f022 627f 	bic.w	r2, r2, #267386880	; 0xff00000
 8003f5e:	f042 6208 	orr.w	r2, r2, #142606336	; 0x8800000
 8003f62:	605a      	str	r2, [r3, #4]
 8003f64:	f44f 6300 	mov.w	r3, #2048	; 0x800
 8003f68:	f2c4 0301 	movt	r3, #16385	; 0x4001
 8003f6c:	f44f 6200 	mov.w	r2, #2048	; 0x800
 8003f70:	f2c4 0201 	movt	r2, #16385	; 0x4001
 8003f74:	68d2      	ldr	r2, [r2, #12]
 8003f76:	f442 42c0 	orr.w	r2, r2, #24576	; 0x6000
 8003f7a:	60da      	str	r2, [r3, #12]
 8003f7c:	46bd      	mov	sp, r7
 8003f7e:	f85d 7b04 	ldr.w	r7, [sp], #4
 8003f82:	4770      	bx	lr

08003f84 <Key_Get_Pressed>:
 8003f84:	b480      	push	{r7}
 8003f86:	b083      	sub	sp, #12
 8003f88:	af00      	add	r7, sp, #0
 8003f8a:	2300      	movs	r3, #0
 8003f8c:	607b      	str	r3, [r7, #4]
 8003f8e:	f44f 6340 	mov.w	r3, #3072	; 0xc00
 8003f92:	f2c4 0301 	movt	r3, #16385	; 0x4001
 8003f96:	689b      	ldr	r3, [r3, #8]
 8003f98:	f003 0308 	and.w	r3, r3, #8
 8003f9c:	2b00      	cmp	r3, #0
 8003f9e:	bf14      	ite	ne
 8003fa0:	2300      	movne	r3, #0
 8003fa2:	2301      	moveq	r3, #1
 8003fa4:	b2db      	uxtb	r3, r3
 8003fa6:	607b      	str	r3, [r7, #4]
 8003fa8:	f44f 6340 	mov.w	r3, #3072	; 0xc00
 8003fac:	f2c4 0301 	movt	r3, #16385	; 0x4001
 8003fb0:	689b      	ldr	r3, [r3, #8]
 8003fb2:	43db      	mvns	r3, r3
 8003fb4:	095b      	lsrs	r3, r3, #5
 8003fb6:	f003 0307 	and.w	r3, r3, #7
 8003fba:	005a      	lsls	r2, r3, #1
 8003fbc:	687b      	ldr	r3, [r7, #4]
 8003fbe:	4313      	orrs	r3, r2
 8003fc0:	607b      	str	r3, [r7, #4]
 8003fc2:	f44f 6300 	mov.w	r3, #2048	; 0x800
 8003fc6:	f2c4 0301 	movt	r3, #16385	; 0x4001
 8003fca:	689b      	ldr	r3, [r3, #8]
 8003fcc:	43db      	mvns	r3, r3
 8003fce:	0b5b      	lsrs	r3, r3, #13
 8003fd0:	f003 0303 	and.w	r3, r3, #3
 8003fd4:	011a      	lsls	r2, r3, #4
 8003fd6:	687b      	ldr	r3, [r7, #4]
 8003fd8:	4313      	orrs	r3, r2
 8003fda:	607b      	str	r3, [r7, #4]
 8003fdc:	687b      	ldr	r3, [r7, #4]
 8003fde:	4618      	mov	r0, r3
 8003fe0:	370c      	adds	r7, #12
 8003fe2:	46bd      	mov	sp, r7
 8003fe4:	f85d 7b04 	ldr.w	r7, [sp], #4
 8003fe8:	4770      	bx	lr
 8003fea:	bf00      	nop

08003fec <Key_Wait_Key_Pressed>:
 8003fec:	b580      	push	{r7, lr}
 8003fee:	b082      	sub	sp, #8
 8003ff0:	af00      	add	r7, sp, #0
 8003ff2:	2300      	movs	r3, #0
 8003ff4:	607b      	str	r3, [r7, #4]
 8003ff6:	f7ff ffc5 	bl	8003f84 <Key_Get_Pressed>
 8003ffa:	6078      	str	r0, [r7, #4]
 8003ffc:	687b      	ldr	r3, [r7, #4]
 8003ffe:	2b00      	cmp	r3, #0
 8004000:	d0f9      	beq.n	8003ff6 <Key_Wait_Key_Pressed+0xa>
 8004002:	687b      	ldr	r3, [r7, #4]
 8004004:	4618      	mov	r0, r3
 8004006:	3708      	adds	r7, #8
 8004008:	46bd      	mov	sp, r7
 800400a:	bd80      	pop	{r7, pc}

0800400c <Key_Wait_Key_Released>:
 800400c:	b580      	push	{r7, lr}
 800400e:	af00      	add	r7, sp, #0
 8004010:	bf00      	nop
 8004012:	f7ff ffb7 	bl	8003f84 <Key_Get_Pressed>
 8004016:	4603      	mov	r3, r0
 8004018:	2b00      	cmp	r3, #0
 800401a:	d1fa      	bne.n	8004012 <Key_Wait_Key_Released+0x6>
 800401c:	bd80      	pop	{r7, pc}
 800401e:	bf00      	nop

08004020 <Key_ISR_Enable>:
 8004020:	b580      	push	{r7, lr}
 8004022:	b082      	sub	sp, #8
 8004024:	af00      	add	r7, sp, #0
 8004026:	6078      	str	r0, [r7, #4]
 8004028:	687b      	ldr	r3, [r7, #4]
 800402a:	2b00      	cmp	r3, #0
 800402c:	f000 80ac 	beq.w	8004188 <Key_ISR_Enable+0x168>
 8004030:	f44f 5380 	mov.w	r3, #4096	; 0x1000
 8004034:	f2c4 0302 	movt	r3, #16386	; 0x4002
 8004038:	f44f 5280 	mov.w	r2, #4096	; 0x1000
 800403c:	f2c4 0202 	movt	r2, #16386	; 0x4002
 8004040:	6992      	ldr	r2, [r2, #24]
 8004042:	f042 0208 	orr.w	r2, r2, #8
 8004046:	619a      	str	r2, [r3, #24]
 8004048:	f44f 5380 	mov.w	r3, #4096	; 0x1000
 800404c:	f2c4 0302 	movt	r3, #16386	; 0x4002
 8004050:	f44f 5280 	mov.w	r2, #4096	; 0x1000
 8004054:	f2c4 0202 	movt	r2, #16386	; 0x4002
 8004058:	6992      	ldr	r2, [r2, #24]
 800405a:	f042 0204 	orr.w	r2, r2, #4
 800405e:	619a      	str	r2, [r3, #24]
 8004060:	f44f 5380 	mov.w	r3, #4096	; 0x1000
 8004064:	f2c4 0302 	movt	r3, #16386	; 0x4002
 8004068:	f44f 5280 	mov.w	r2, #4096	; 0x1000
 800406c:	f2c4 0202 	movt	r2, #16386	; 0x4002
 8004070:	6992      	ldr	r2, [r2, #24]
 8004072:	f042 0201 	orr.w	r2, r2, #1
 8004076:	619a      	str	r2, [r3, #24]
 8004078:	2300      	movs	r3, #0
 800407a:	f2c4 0301 	movt	r3, #16385	; 0x4001
 800407e:	2200      	movs	r2, #0
 8004080:	f2c4 0201 	movt	r2, #16385	; 0x4001
 8004084:	6892      	ldr	r2, [r2, #8]
 8004086:	f422 4270 	bic.w	r2, r2, #61440	; 0xf000
 800408a:	f442 5280 	orr.w	r2, r2, #4096	; 0x1000
 800408e:	609a      	str	r2, [r3, #8]
 8004090:	2300      	movs	r3, #0
 8004092:	f2c4 0301 	movt	r3, #16385	; 0x4001
 8004096:	2200      	movs	r2, #0
 8004098:	f2c4 0201 	movt	r2, #16385	; 0x4001
 800409c:	68d2      	ldr	r2, [r2, #12]
 800409e:	f422 427f 	bic.w	r2, r2, #65280	; 0xff00
 80040a2:	f022 02f0 	bic.w	r2, r2, #240	; 0xf0
 80040a6:	f442 5288 	orr.w	r2, r2, #4352	; 0x1100
 80040aa:	f042 0210 	orr.w	r2, r2, #16
 80040ae:	60da      	str	r2, [r3, #12]
 80040b0:	2300      	movs	r3, #0
 80040b2:	f2c4 0301 	movt	r3, #16385	; 0x4001
 80040b6:	2200      	movs	r2, #0
 80040b8:	f2c4 0201 	movt	r2, #16385	; 0x4001
 80040bc:	6952      	ldr	r2, [r2, #20]
 80040be:	f422 627f 	bic.w	r2, r2, #4080	; 0xff0
 80040c2:	615a      	str	r2, [r3, #20]
 80040c4:	f44f 6380 	mov.w	r3, #1024	; 0x400
 80040c8:	f2c4 0301 	movt	r3, #16385	; 0x4001
 80040cc:	f44f 6280 	mov.w	r2, #1024	; 0x400
 80040d0:	f2c4 0201 	movt	r2, #16385	; 0x4001
 80040d4:	68d2      	ldr	r2, [r2, #12]
 80040d6:	f442 42c0 	orr.w	r2, r2, #24576	; 0x6000
 80040da:	60da      	str	r2, [r3, #12]
 80040dc:	f44f 6380 	mov.w	r3, #1024	; 0x400
 80040e0:	f2c4 0301 	movt	r3, #16385	; 0x4001
 80040e4:	f44f 6280 	mov.w	r2, #1024	; 0x400
 80040e8:	f2c4 0201 	movt	r2, #16385	; 0x4001
 80040ec:	68d2      	ldr	r2, [r2, #12]
 80040ee:	f042 02e0 	orr.w	r2, r2, #224	; 0xe0
 80040f2:	60da      	str	r2, [r3, #12]
 80040f4:	f44f 6380 	mov.w	r3, #1024	; 0x400
 80040f8:	f2c4 0301 	movt	r3, #16385	; 0x4001
 80040fc:	f44f 6280 	mov.w	r2, #1024	; 0x400
 8004100:	f2c4 0201 	movt	r2, #16385	; 0x4001
 8004104:	68d2      	ldr	r2, [r2, #12]
 8004106:	f042 0208 	orr.w	r2, r2, #8
 800410a:	60da      	str	r2, [r3, #12]
 800410c:	f44f 6380 	mov.w	r3, #1024	; 0x400
 8004110:	f2c4 0301 	movt	r3, #16385	; 0x4001
 8004114:	f246 02e8 	movw	r2, #24808	; 0x60e8
 8004118:	615a      	str	r2, [r3, #20]
 800411a:	2009      	movs	r0, #9
 800411c:	f7ff fe9e 	bl	8003e5c <NVIC_ClearPendingIRQ>
 8004120:	2017      	movs	r0, #23
 8004122:	f7ff fe9b 	bl	8003e5c <NVIC_ClearPendingIRQ>
 8004126:	2028      	movs	r0, #40	; 0x28
 8004128:	f7ff fe98 	bl	8003e5c <NVIC_ClearPendingIRQ>
 800412c:	f44f 6380 	mov.w	r3, #1024	; 0x400
 8004130:	f2c4 0301 	movt	r3, #16385	; 0x4001
 8004134:	f44f 6280 	mov.w	r2, #1024	; 0x400
 8004138:	f2c4 0201 	movt	r2, #16385	; 0x4001
 800413c:	6812      	ldr	r2, [r2, #0]
 800413e:	f042 02e0 	orr.w	r2, r2, #224	; 0xe0
 8004142:	601a      	str	r2, [r3, #0]
 8004144:	f44f 6380 	mov.w	r3, #1024	; 0x400
 8004148:	f2c4 0301 	movt	r3, #16385	; 0x4001
 800414c:	f44f 6280 	mov.w	r2, #1024	; 0x400
 8004150:	f2c4 0201 	movt	r2, #16385	; 0x4001
 8004154:	6812      	ldr	r2, [r2, #0]
 8004156:	f442 42c0 	orr.w	r2, r2, #24576	; 0x6000
 800415a:	601a      	str	r2, [r3, #0]
 800415c:	f44f 6380 	mov.w	r3, #1024	; 0x400
 8004160:	f2c4 0301 	movt	r3, #16385	; 0x4001
 8004164:	f44f 6280 	mov.w	r2, #1024	; 0x400
 8004168:	f2c4 0201 	movt	r2, #16385	; 0x4001
 800416c:	6812      	ldr	r2, [r2, #0]
 800416e:	f042 0208 	orr.w	r2, r2, #8
 8004172:	601a      	str	r2, [r3, #0]
 8004174:	2009      	movs	r0, #9
 8004176:	f7ff fe57 	bl	8003e28 <NVIC_EnableIRQ>
 800417a:	2017      	movs	r0, #23
 800417c:	f7ff fe54 	bl	8003e28 <NVIC_EnableIRQ>
 8004180:	2028      	movs	r0, #40	; 0x28
 8004182:	f7ff fe51 	bl	8003e28 <NVIC_EnableIRQ>
 8004186:	e02c      	b.n	80041e2 <Key_ISR_Enable+0x1c2>
 8004188:	2009      	movs	r0, #9
 800418a:	f7ff fe4d 	bl	8003e28 <NVIC_EnableIRQ>
 800418e:	2017      	movs	r0, #23
 8004190:	f7ff fe4a 	bl	8003e28 <NVIC_EnableIRQ>
 8004194:	2028      	movs	r0, #40	; 0x28
 8004196:	f7ff fe47 	bl	8003e28 <NVIC_EnableIRQ>
 800419a:	f44f 5380 	mov.w	r3, #4096	; 0x1000
 800419e:	f2c4 0302 	movt	r3, #16386	; 0x4002
 80041a2:	f44f 5280 	mov.w	r2, #4096	; 0x1000
 80041a6:	f2c4 0202 	movt	r2, #16386	; 0x4002
 80041aa:	6992      	ldr	r2, [r2, #24]
 80041ac:	f022 0208 	bic.w	r2, r2, #8
 80041b0:	619a      	str	r2, [r3, #24]
 80041b2:	f44f 5380 	mov.w	r3, #4096	; 0x1000
 80041b6:	f2c4 0302 	movt	r3, #16386	; 0x4002
 80041ba:	f44f 5280 	mov.w	r2, #4096	; 0x1000
 80041be:	f2c4 0202 	movt	r2, #16386	; 0x4002
 80041c2:	6992      	ldr	r2, [r2, #24]
 80041c4:	f022 0204 	bic.w	r2, r2, #4
 80041c8:	619a      	str	r2, [r3, #24]
 80041ca:	f44f 5380 	mov.w	r3, #4096	; 0x1000
 80041ce:	f2c4 0302 	movt	r3, #16386	; 0x4002
 80041d2:	f44f 5280 	mov.w	r2, #4096	; 0x1000
 80041d6:	f2c4 0202 	movt	r2, #16386	; 0x4002
 80041da:	6992      	ldr	r2, [r2, #24]
 80041dc:	f022 0201 	bic.w	r2, r2, #1
 80041e0:	619a      	str	r2, [r3, #24]
 80041e2:	3708      	adds	r7, #8
 80041e4:	46bd      	mov	sp, r7
 80041e6:	bd80      	pop	{r7, pc}

080041e8 <_SPI1_Init>:
 80041e8:	b480      	push	{r7}
 80041ea:	af00      	add	r7, sp, #0
 80041ec:	f44f 5380 	mov.w	r3, #4096	; 0x1000
 80041f0:	f2c4 0302 	movt	r3, #16386	; 0x4002
 80041f4:	f44f 5280 	mov.w	r2, #4096	; 0x1000
 80041f8:	f2c4 0202 	movt	r2, #16386	; 0x4002
 80041fc:	6992      	ldr	r2, [r2, #24]
 80041fe:	f042 0204 	orr.w	r2, r2, #4
 8004202:	619a      	str	r2, [r3, #24]
 8004204:	f44f 6300 	mov.w	r3, #2048	; 0x800
 8004208:	f2c4 0301 	movt	r3, #16385	; 0x4001
 800420c:	f44f 6200 	mov.w	r2, #2048	; 0x800
 8004210:	f2c4 0201 	movt	r2, #16385	; 0x4001
 8004214:	6812      	ldr	r2, [r2, #0]
 8004216:	b292      	uxth	r2, r2
 8004218:	f042 4234 	orr.w	r2, r2, #3019898880	; 0xb4000000
 800421c:	f442 0233 	orr.w	r2, r2, #11730944	; 0xb30000
 8004220:	601a      	str	r2, [r3, #0]
 8004222:	f44f 6300 	mov.w	r3, #2048	; 0x800
 8004226:	f2c4 0301 	movt	r3, #16385	; 0x4001
 800422a:	f44f 6200 	mov.w	r2, #2048	; 0x800
 800422e:	f2c4 0201 	movt	r2, #16385	; 0x4001
 8004232:	68d2      	ldr	r2, [r2, #12]
 8004234:	f042 0210 	orr.w	r2, r2, #16
 8004238:	60da      	str	r2, [r3, #12]
 800423a:	f44f 5380 	mov.w	r3, #4096	; 0x1000
 800423e:	f2c4 0302 	movt	r3, #16386	; 0x4002
 8004242:	f44f 5280 	mov.w	r2, #4096	; 0x1000
 8004246:	f2c4 0202 	movt	r2, #16386	; 0x4002
 800424a:	6992      	ldr	r2, [r2, #24]
 800424c:	f442 5280 	orr.w	r2, r2, #4096	; 0x1000
 8004250:	619a      	str	r2, [r3, #24]
 8004252:	f44f 5340 	mov.w	r3, #12288	; 0x3000
 8004256:	f2c4 0301 	movt	r3, #16385	; 0x4001
 800425a:	f44f 7241 	mov.w	r2, #772	; 0x304
 800425e:	801a      	strh	r2, [r3, #0]
 8004260:	f44f 5340 	mov.w	r3, #12288	; 0x3000
 8004264:	f2c4 0301 	movt	r3, #16385	; 0x4001
 8004268:	f44f 5240 	mov.w	r2, #12288	; 0x3000
 800426c:	f2c4 0201 	movt	r2, #16385	; 0x4001
 8004270:	8812      	ldrh	r2, [r2, #0]
 8004272:	b292      	uxth	r2, r2
 8004274:	f042 0240 	orr.w	r2, r2, #64	; 0x40
 8004278:	b292      	uxth	r2, r2
 800427a:	801a      	strh	r2, [r3, #0]
 800427c:	46bd      	mov	sp, r7
 800427e:	f85d 7b04 	ldr.w	r7, [sp], #4
 8004282:	4770      	bx	lr

08004284 <_SPI1_Write_Byte>:
 8004284:	b480      	push	{r7}
 8004286:	b083      	sub	sp, #12
 8004288:	af00      	add	r7, sp, #0
 800428a:	4603      	mov	r3, r0
 800428c:	71fb      	strb	r3, [r7, #7]
 800428e:	f44f 5340 	mov.w	r3, #12288	; 0x3000
 8004292:	f2c4 0301 	movt	r3, #16385	; 0x4001
 8004296:	79fa      	ldrb	r2, [r7, #7]
 8004298:	b292      	uxth	r2, r2
 800429a:	819a      	strh	r2, [r3, #12]
 800429c:	bf00      	nop
 800429e:	f44f 5340 	mov.w	r3, #12288	; 0x3000
 80042a2:	f2c4 0301 	movt	r3, #16385	; 0x4001
 80042a6:	891b      	ldrh	r3, [r3, #8]
 80042a8:	b29b      	uxth	r3, r3
 80042aa:	085b      	lsrs	r3, r3, #1
 80042ac:	b29b      	uxth	r3, r3
 80042ae:	f003 0301 	and.w	r3, r3, #1
 80042b2:	2b00      	cmp	r3, #0
 80042b4:	d0f3      	beq.n	800429e <_SPI1_Write_Byte+0x1a>
 80042b6:	bf00      	nop
 80042b8:	f44f 5340 	mov.w	r3, #12288	; 0x3000
 80042bc:	f2c4 0301 	movt	r3, #16385	; 0x4001
 80042c0:	891b      	ldrh	r3, [r3, #8]
 80042c2:	b29b      	uxth	r3, r3
 80042c4:	09db      	lsrs	r3, r3, #7
 80042c6:	b29b      	uxth	r3, r3
 80042c8:	f003 0301 	and.w	r3, r3, #1
 80042cc:	2b00      	cmp	r3, #0
 80042ce:	d1f3      	bne.n	80042b8 <_SPI1_Write_Byte+0x34>
 80042d0:	370c      	adds	r7, #12
 80042d2:	46bd      	mov	sp, r7
 80042d4:	f85d 7b04 	ldr.w	r7, [sp], #4
 80042d8:	4770      	bx	lr
 80042da:	bf00      	nop

080042dc <_Delay>:
 80042dc:	b480      	push	{r7}
 80042de:	b085      	sub	sp, #20
 80042e0:	af00      	add	r7, sp, #0
 80042e2:	6078      	str	r0, [r7, #4]
 80042e4:	2300      	movs	r3, #0
 80042e6:	60fb      	str	r3, [r7, #12]
 80042e8:	e002      	b.n	80042f0 <_Delay+0x14>
 80042ea:	68fb      	ldr	r3, [r7, #12]
 80042ec:	3301      	adds	r3, #1
 80042ee:	60fb      	str	r3, [r7, #12]
 80042f0:	687b      	ldr	r3, [r7, #4]
 80042f2:	031a      	lsls	r2, r3, #12
 80042f4:	68fb      	ldr	r3, [r7, #12]
 80042f6:	429a      	cmp	r2, r3
 80042f8:	dcf7      	bgt.n	80042ea <_Delay+0xe>
 80042fa:	3714      	adds	r7, #20
 80042fc:	46bd      	mov	sp, r7
 80042fe:	f85d 7b04 	ldr.w	r7, [sp], #4
 8004302:	4770      	bx	lr

08004304 <Lcd_GPIO_Init>:
 8004304:	b480      	push	{r7}
 8004306:	af00      	add	r7, sp, #0
 8004308:	f44f 6300 	mov.w	r3, #2048	; 0x800
 800430c:	f2c4 0301 	movt	r3, #16385	; 0x4001
 8004310:	f44f 6200 	mov.w	r2, #2048	; 0x800
 8004314:	f2c4 0201 	movt	r2, #16385	; 0x4001
 8004318:	6812      	ldr	r2, [r2, #0]
 800431a:	f422 2270 	bic.w	r2, r2, #983040	; 0xf0000
 800431e:	f442 3240 	orr.w	r2, r2, #196608	; 0x30000
 8004322:	601a      	str	r2, [r3, #0]
 8004324:	f44f 6300 	mov.w	r3, #2048	; 0x800
 8004328:	f2c4 0301 	movt	r3, #16385	; 0x4001
 800432c:	f44f 6200 	mov.w	r2, #2048	; 0x800
 8004330:	f2c4 0201 	movt	r2, #16385	; 0x4001
 8004334:	6852      	ldr	r2, [r2, #4]
 8004336:	f422 4270 	bic.w	r2, r2, #61440	; 0xf000
 800433a:	f442 5240 	orr.w	r2, r2, #12288	; 0x3000
 800433e:	605a      	str	r2, [r3, #4]
 8004340:	f44f 6340 	mov.w	r3, #3072	; 0xc00
 8004344:	f2c4 0301 	movt	r3, #16385	; 0x4001
 8004348:	f44f 6240 	mov.w	r2, #3072	; 0xc00
 800434c:	f2c4 0201 	movt	r2, #16385	; 0x4001
 8004350:	6812      	ldr	r2, [r2, #0]
 8004352:	f422 2270 	bic.w	r2, r2, #983040	; 0xf0000
 8004356:	f442 3240 	orr.w	r2, r2, #196608	; 0x30000
 800435a:	601a      	str	r2, [r3, #0]
 800435c:	f44f 6340 	mov.w	r3, #3072	; 0xc00
 8004360:	f2c4 0301 	movt	r3, #16385	; 0x4001
 8004364:	f44f 6240 	mov.w	r2, #3072	; 0xc00
 8004368:	f2c4 0201 	movt	r2, #16385	; 0x4001
 800436c:	6852      	ldr	r2, [r2, #4]
 800436e:	f022 02f0 	bic.w	r2, r2, #240	; 0xf0
 8004372:	f042 0230 	orr.w	r2, r2, #48	; 0x30
 8004376:	605a      	str	r2, [r3, #4]
 8004378:	46bd      	mov	sp, r7
 800437a:	f85d 7b04 	ldr.w	r7, [sp], #4
 800437e:	4770      	bx	lr

08004380 <Lcd_Write_Reg>:
 8004380:	b580      	push	{r7, lr}
 8004382:	b082      	sub	sp, #8
 8004384:	af00      	add	r7, sp, #0
 8004386:	4602      	mov	r2, r0
 8004388:	460b      	mov	r3, r1
 800438a:	71fa      	strb	r2, [r7, #7]
 800438c:	80bb      	strh	r3, [r7, #4]
 800438e:	79fb      	ldrb	r3, [r7, #7]
 8004390:	4618      	mov	r0, r3
 8004392:	f000 f8a9 	bl	80044e8 <Lcd_WR_REG>
 8004396:	88bb      	ldrh	r3, [r7, #4]
 8004398:	b2db      	uxtb	r3, r3
 800439a:	4618      	mov	r0, r3
 800439c:	f000 f8d4 	bl	8004548 <Lcd_WR_DATA>
 80043a0:	3708      	adds	r7, #8
 80043a2:	46bd      	mov	sp, r7
 80043a4:	bd80      	pop	{r7, pc}
 80043a6:	bf00      	nop

080043a8 <Lcd_Write_Data_16Bit>:
 80043a8:	b580      	push	{r7, lr}
 80043aa:	b082      	sub	sp, #8
 80043ac:	af00      	add	r7, sp, #0
 80043ae:	4603      	mov	r3, r0
 80043b0:	80fb      	strh	r3, [r7, #6]
 80043b2:	f44f 6300 	mov.w	r3, #2048	; 0x800
 80043b6:	f2c4 0301 	movt	r3, #16385	; 0x4001
 80043ba:	f44f 6200 	mov.w	r2, #2048	; 0x800
 80043be:	f2c4 0201 	movt	r2, #16385	; 0x4001
 80043c2:	68d2      	ldr	r2, [r2, #12]
 80043c4:	f022 0210 	bic.w	r2, r2, #16
 80043c8:	60da      	str	r2, [r3, #12]
 80043ca:	f44f 6340 	mov.w	r3, #3072	; 0xc00
 80043ce:	f2c4 0301 	movt	r3, #16385	; 0x4001
 80043d2:	f44f 6240 	mov.w	r2, #3072	; 0xc00
 80043d6:	f2c4 0201 	movt	r2, #16385	; 0x4001
 80043da:	68d2      	ldr	r2, [r2, #12]
 80043dc:	f442 7200 	orr.w	r2, r2, #512	; 0x200
 80043e0:	60da      	str	r2, [r3, #12]
 80043e2:	88fb      	ldrh	r3, [r7, #6]
 80043e4:	0a1b      	lsrs	r3, r3, #8
 80043e6:	b29b      	uxth	r3, r3
 80043e8:	b2db      	uxtb	r3, r3
 80043ea:	4618      	mov	r0, r3
 80043ec:	f7ff ff4a 	bl	8004284 <_SPI1_Write_Byte>
 80043f0:	88fb      	ldrh	r3, [r7, #6]
 80043f2:	b2db      	uxtb	r3, r3
 80043f4:	4618      	mov	r0, r3
 80043f6:	f7ff ff45 	bl	8004284 <_SPI1_Write_Byte>
 80043fa:	f44f 6300 	mov.w	r3, #2048	; 0x800
 80043fe:	f2c4 0301 	movt	r3, #16385	; 0x4001
 8004402:	f44f 6200 	mov.w	r2, #2048	; 0x800
 8004406:	f2c4 0201 	movt	r2, #16385	; 0x4001
 800440a:	68d2      	ldr	r2, [r2, #12]
 800440c:	f042 0210 	orr.w	r2, r2, #16
 8004410:	60da      	str	r2, [r3, #12]
 8004412:	3708      	adds	r7, #8
 8004414:	46bd      	mov	sp, r7
 8004416:	bd80      	pop	{r7, pc}

08004418 <Lcd_Fill>:
 8004418:	b580      	push	{r7, lr}
 800441a:	b084      	sub	sp, #16
 800441c:	af00      	add	r7, sp, #0
 800441e:	80f8      	strh	r0, [r7, #6]
 8004420:	80b9      	strh	r1, [r7, #4]
 8004422:	807a      	strh	r2, [r7, #2]
 8004424:	803b      	strh	r3, [r7, #0]
 8004426:	887a      	ldrh	r2, [r7, #2]
 8004428:	88fb      	ldrh	r3, [r7, #6]
 800442a:	1ad3      	subs	r3, r2, r3
 800442c:	b29b      	uxth	r3, r3
 800442e:	3301      	adds	r3, #1
 8004430:	817b      	strh	r3, [r7, #10]
 8004432:	883a      	ldrh	r2, [r7, #0]
 8004434:	88bb      	ldrh	r3, [r7, #4]
 8004436:	1ad3      	subs	r3, r2, r3
 8004438:	b29b      	uxth	r3, r3
 800443a:	3301      	adds	r3, #1
 800443c:	813b      	strh	r3, [r7, #8]
 800443e:	88f8      	ldrh	r0, [r7, #6]
 8004440:	88b9      	ldrh	r1, [r7, #4]
 8004442:	887a      	ldrh	r2, [r7, #2]
 8004444:	883b      	ldrh	r3, [r7, #0]
 8004446:	f000 f947 	bl	80046d8 <Lcd_Set_Windows>
 800444a:	2300      	movs	r3, #0
 800444c:	81fb      	strh	r3, [r7, #14]
 800444e:	e010      	b.n	8004472 <Lcd_Fill+0x5a>
 8004450:	2300      	movs	r3, #0
 8004452:	81bb      	strh	r3, [r7, #12]
 8004454:	e006      	b.n	8004464 <Lcd_Fill+0x4c>
 8004456:	8b3b      	ldrh	r3, [r7, #24]
 8004458:	4618      	mov	r0, r3
 800445a:	f7ff ffa5 	bl	80043a8 <Lcd_Write_Data_16Bit>
 800445e:	89bb      	ldrh	r3, [r7, #12]
 8004460:	3301      	adds	r3, #1
 8004462:	81bb      	strh	r3, [r7, #12]
 8004464:	89ba      	ldrh	r2, [r7, #12]
 8004466:	897b      	ldrh	r3, [r7, #10]
 8004468:	429a      	cmp	r2, r3
 800446a:	d3f4      	bcc.n	8004456 <Lcd_Fill+0x3e>
 800446c:	89fb      	ldrh	r3, [r7, #14]
 800446e:	3301      	adds	r3, #1
 8004470:	81fb      	strh	r3, [r7, #14]
 8004472:	89fa      	ldrh	r2, [r7, #14]
 8004474:	893b      	ldrh	r3, [r7, #8]
 8004476:	429a      	cmp	r2, r3
 8004478:	d3ea      	bcc.n	8004450 <Lcd_Fill+0x38>
 800447a:	f643 5390 	movw	r3, #15760	; 0x3d90
 800447e:	f2c2 0300 	movt	r3, #8192	; 0x2000
 8004482:	881b      	ldrh	r3, [r3, #0]
 8004484:	3b01      	subs	r3, #1
 8004486:	b29a      	uxth	r2, r3
 8004488:	f643 5390 	movw	r3, #15760	; 0x3d90
 800448c:	f2c2 0300 	movt	r3, #8192	; 0x2000
 8004490:	885b      	ldrh	r3, [r3, #2]
 8004492:	3b01      	subs	r3, #1
 8004494:	b29b      	uxth	r3, r3
 8004496:	2000      	movs	r0, #0
 8004498:	2100      	movs	r1, #0
 800449a:	f000 f91d 	bl	80046d8 <Lcd_Set_Windows>
 800449e:	3710      	adds	r7, #16
 80044a0:	46bd      	mov	sp, r7
 80044a2:	bd80      	pop	{r7, pc}

080044a4 <Lcd_Reset>:
 80044a4:	b580      	push	{r7, lr}
 80044a6:	af00      	add	r7, sp, #0
 80044a8:	f44f 6340 	mov.w	r3, #3072	; 0xc00
 80044ac:	f2c4 0301 	movt	r3, #16385	; 0x4001
 80044b0:	f44f 6240 	mov.w	r2, #3072	; 0xc00
 80044b4:	f2c4 0201 	movt	r2, #16385	; 0x4001
 80044b8:	68d2      	ldr	r2, [r2, #12]
 80044ba:	f022 0210 	bic.w	r2, r2, #16
 80044be:	60da      	str	r2, [r3, #12]
 80044c0:	2064      	movs	r0, #100	; 0x64
 80044c2:	f7ff ff0b 	bl	80042dc <_Delay>
 80044c6:	f44f 6340 	mov.w	r3, #3072	; 0xc00
 80044ca:	f2c4 0301 	movt	r3, #16385	; 0x4001
 80044ce:	f44f 6240 	mov.w	r2, #3072	; 0xc00
 80044d2:	f2c4 0201 	movt	r2, #16385	; 0x4001
 80044d6:	68d2      	ldr	r2, [r2, #12]
 80044d8:	f042 0210 	orr.w	r2, r2, #16
 80044dc:	60da      	str	r2, [r3, #12]
 80044de:	2032      	movs	r0, #50	; 0x32
 80044e0:	f7ff fefc 	bl	80042dc <_Delay>
 80044e4:	bd80      	pop	{r7, pc}
 80044e6:	bf00      	nop

080044e8 <Lcd_WR_REG>:
 80044e8:	b580      	push	{r7, lr}
 80044ea:	b082      	sub	sp, #8
 80044ec:	af00      	add	r7, sp, #0
 80044ee:	4603      	mov	r3, r0
 80044f0:	71fb      	strb	r3, [r7, #7]
 80044f2:	f44f 6300 	mov.w	r3, #2048	; 0x800
 80044f6:	f2c4 0301 	movt	r3, #16385	; 0x4001
 80044fa:	f44f 6200 	mov.w	r2, #2048	; 0x800
 80044fe:	f2c4 0201 	movt	r2, #16385	; 0x4001
 8004502:	68d2      	ldr	r2, [r2, #12]
 8004504:	f022 0210 	bic.w	r2, r2, #16
 8004508:	60da      	str	r2, [r3, #12]
 800450a:	f44f 6340 	mov.w	r3, #3072	; 0xc00
 800450e:	f2c4 0301 	movt	r3, #16385	; 0x4001
 8004512:	f44f 6240 	mov.w	r2, #3072	; 0xc00
 8004516:	f2c4 0201 	movt	r2, #16385	; 0x4001
 800451a:	68d2      	ldr	r2, [r2, #12]
 800451c:	f422 7200 	bic.w	r2, r2, #512	; 0x200
 8004520:	60da      	str	r2, [r3, #12]
 8004522:	79fb      	ldrb	r3, [r7, #7]
 8004524:	4618      	mov	r0, r3
 8004526:	f7ff fead 	bl	8004284 <_SPI1_Write_Byte>
 800452a:	f44f 6300 	mov.w	r3, #2048	; 0x800
 800452e:	f2c4 0301 	movt	r3, #16385	; 0x4001
 8004532:	f44f 6200 	mov.w	r2, #2048	; 0x800
 8004536:	f2c4 0201 	movt	r2, #16385	; 0x4001
 800453a:	68d2      	ldr	r2, [r2, #12]
 800453c:	f042 0210 	orr.w	r2, r2, #16
 8004540:	60da      	str	r2, [r3, #12]
 8004542:	3708      	adds	r7, #8
 8004544:	46bd      	mov	sp, r7
 8004546:	bd80      	pop	{r7, pc}

08004548 <Lcd_WR_DATA>:
 8004548:	b580      	push	{r7, lr}
 800454a:	b082      	sub	sp, #8
 800454c:	af00      	add	r7, sp, #0
 800454e:	4603      	mov	r3, r0
 8004550:	71fb      	strb	r3, [r7, #7]
 8004552:	f44f 6300 	mov.w	r3, #2048	; 0x800
 8004556:	f2c4 0301 	movt	r3, #16385	; 0x4001
 800455a:	f44f 6200 	mov.w	r2, #2048	; 0x800
 800455e:	f2c4 0201 	movt	r2, #16385	; 0x4001
 8004562:	68d2      	ldr	r2, [r2, #12]
 8004564:	f022 0210 	bic.w	r2, r2, #16
 8004568:	60da      	str	r2, [r3, #12]
 800456a:	f44f 6340 	mov.w	r3, #3072	; 0xc00
 800456e:	f2c4 0301 	movt	r3, #16385	; 0x4001
 8004572:	f44f 6240 	mov.w	r2, #3072	; 0xc00
 8004576:	f2c4 0201 	movt	r2, #16385	; 0x4001
 800457a:	68d2      	ldr	r2, [r2, #12]
 800457c:	f442 7200 	orr.w	r2, r2, #512	; 0x200
 8004580:	60da      	str	r2, [r3, #12]
 8004582:	79fb      	ldrb	r3, [r7, #7]
 8004584:	4618      	mov	r0, r3
 8004586:	f7ff fe7d 	bl	8004284 <_SPI1_Write_Byte>
 800458a:	f44f 6300 	mov.w	r3, #2048	; 0x800
 800458e:	f2c4 0301 	movt	r3, #16385	; 0x4001
 8004592:	f44f 6200 	mov.w	r2, #2048	; 0x800
 8004596:	f2c4 0201 	movt	r2, #16385	; 0x4001
 800459a:	68d2      	ldr	r2, [r2, #12]
 800459c:	f042 0210 	orr.w	r2, r2, #16
 80045a0:	60da      	str	r2, [r3, #12]
 80045a2:	3708      	adds	r7, #8
 80045a4:	46bd      	mov	sp, r7
 80045a6:	bd80      	pop	{r7, pc}

080045a8 <Lcd_Set_Display_Mode>:
 80045a8:	b580      	push	{r7, lr}
 80045aa:	b082      	sub	sp, #8
 80045ac:	af00      	add	r7, sp, #0
 80045ae:	6078      	str	r0, [r7, #4]
 80045b0:	687b      	ldr	r3, [r7, #4]
 80045b2:	b2da      	uxtb	r2, r3
 80045b4:	f643 5390 	movw	r3, #15760	; 0x3d90
 80045b8:	f2c2 0300 	movt	r3, #8192	; 0x2000
 80045bc:	711a      	strb	r2, [r3, #4]
 80045be:	f643 5390 	movw	r3, #15760	; 0x3d90
 80045c2:	f2c2 0300 	movt	r3, #8192	; 0x2000
 80045c6:	222a      	movs	r2, #42	; 0x2a
 80045c8:	811a      	strh	r2, [r3, #8]
 80045ca:	f643 5390 	movw	r3, #15760	; 0x3d90
 80045ce:	f2c2 0300 	movt	r3, #8192	; 0x2000
 80045d2:	222b      	movs	r2, #43	; 0x2b
 80045d4:	815a      	strh	r2, [r3, #10]
 80045d6:	f643 5390 	movw	r3, #15760	; 0x3d90
 80045da:	f2c2 0300 	movt	r3, #8192	; 0x2000
 80045de:	222c      	movs	r2, #44	; 0x2c
 80045e0:	80da      	strh	r2, [r3, #6]
 80045e2:	687b      	ldr	r3, [r7, #4]
 80045e4:	2b04      	cmp	r3, #4
 80045e6:	d867      	bhi.n	80046b8 <Lcd_Set_Display_Mode+0x110>
 80045e8:	a201      	add	r2, pc, #4	; (adr r2, 80045f0 <Lcd_Set_Display_Mode+0x48>)
 80045ea:	f852 f023 	ldr.w	pc, [r2, r3, lsl #2]
 80045ee:	bf00      	nop
 80045f0:	08004605 	stmdaeq	r0, {r0, r2, r9, sl, lr}
 80045f4:	08004629 	stmdaeq	r0, {r0, r3, r5, r9, sl, lr}
 80045f8:	0800464d 	stmdaeq	r0, {r0, r2, r3, r6, r9, sl, lr}
 80045fc:	08004671 	stmdaeq	r0, {r0, r4, r5, r6, r9, sl, lr}
 8004600:	08004695 	stmdaeq	r0, {r0, r2, r4, r7, r9, sl, lr}
 8004604:	f643 5390 	movw	r3, #15760	; 0x3d90
 8004608:	f2c2 0300 	movt	r3, #8192	; 0x2000
 800460c:	22f0      	movs	r2, #240	; 0xf0
 800460e:	801a      	strh	r2, [r3, #0]
 8004610:	f643 5390 	movw	r3, #15760	; 0x3d90
 8004614:	f2c2 0300 	movt	r3, #8192	; 0x2000
 8004618:	f44f 72a0 	mov.w	r2, #320	; 0x140
 800461c:	805a      	strh	r2, [r3, #2]
 800461e:	2036      	movs	r0, #54	; 0x36
 8004620:	2108      	movs	r1, #8
 8004622:	f7ff fead 	bl	8004380 <Lcd_Write_Reg>
 8004626:	e048      	b.n	80046ba <Lcd_Set_Display_Mode+0x112>
 8004628:	f643 5390 	movw	r3, #15760	; 0x3d90
 800462c:	f2c2 0300 	movt	r3, #8192	; 0x2000
 8004630:	f44f 72a0 	mov.w	r2, #320	; 0x140
 8004634:	801a      	strh	r2, [r3, #0]
 8004636:	f643 5390 	movw	r3, #15760	; 0x3d90
 800463a:	f2c2 0300 	movt	r3, #8192	; 0x2000
 800463e:	22f0      	movs	r2, #240	; 0xf0
 8004640:	805a      	strh	r2, [r3, #2]
 8004642:	2036      	movs	r0, #54	; 0x36
 8004644:	2168      	movs	r1, #104	; 0x68
 8004646:	f7ff fe9b 	bl	8004380 <Lcd_Write_Reg>
 800464a:	e036      	b.n	80046ba <Lcd_Set_Display_Mode+0x112>
 800464c:	f643 5390 	movw	r3, #15760	; 0x3d90
 8004650:	f2c2 0300 	movt	r3, #8192	; 0x2000
 8004654:	22f0      	movs	r2, #240	; 0xf0
 8004656:	801a      	strh	r2, [r3, #0]
 8004658:	f643 5390 	movw	r3, #15760	; 0x3d90
 800465c:	f2c2 0300 	movt	r3, #8192	; 0x2000
 8004660:	f44f 72a0 	mov.w	r2, #320	; 0x140
 8004664:	805a      	strh	r2, [r3, #2]
 8004666:	2036      	movs	r0, #54	; 0x36
 8004668:	21c8      	movs	r1, #200	; 0xc8
 800466a:	f7ff fe89 	bl	8004380 <Lcd_Write_Reg>
 800466e:	e024      	b.n	80046ba <Lcd_Set_Display_Mode+0x112>
 8004670:	f643 5390 	movw	r3, #15760	; 0x3d90
 8004674:	f2c2 0300 	movt	r3, #8192	; 0x2000
 8004678:	f44f 72a0 	mov.w	r2, #320	; 0x140
 800467c:	801a      	strh	r2, [r3, #0]
 800467e:	f643 5390 	movw	r3, #15760	; 0x3d90
 8004682:	f2c2 0300 	movt	r3, #8192	; 0x2000
 8004686:	22f0      	movs	r2, #240	; 0xf0
 8004688:	805a      	strh	r2, [r3, #2]
 800468a:	2036      	movs	r0, #54	; 0x36
 800468c:	21a8      	movs	r1, #168	; 0xa8
 800468e:	f7ff fe77 	bl	8004380 <Lcd_Write_Reg>
 8004692:	e012      	b.n	80046ba <Lcd_Set_Display_Mode+0x112>
 8004694:	f643 5390 	movw	r3, #15760	; 0x3d90
 8004698:	f2c2 0300 	movt	r3, #8192	; 0x2000
 800469c:	f44f 72a0 	mov.w	r2, #320	; 0x140
 80046a0:	801a      	strh	r2, [r3, #0]
 80046a2:	f643 5390 	movw	r3, #15760	; 0x3d90
 80046a6:	f2c2 0300 	movt	r3, #8192	; 0x2000
 80046aa:	22f0      	movs	r2, #240	; 0xf0
 80046ac:	805a      	strh	r2, [r3, #2]
 80046ae:	2036      	movs	r0, #54	; 0x36
 80046b0:	21e8      	movs	r1, #232	; 0xe8
 80046b2:	f7ff fe65 	bl	8004380 <Lcd_Write_Reg>
 80046b6:	e000      	b.n	80046ba <Lcd_Set_Display_Mode+0x112>
 80046b8:	bf00      	nop
 80046ba:	3708      	adds	r7, #8
 80046bc:	46bd      	mov	sp, r7
 80046be:	bd80      	pop	{r7, pc}

080046c0 <Lcd_Write_RAM_Prepare>:
 80046c0:	b580      	push	{r7, lr}
 80046c2:	af00      	add	r7, sp, #0
 80046c4:	f643 5390 	movw	r3, #15760	; 0x3d90
 80046c8:	f2c2 0300 	movt	r3, #8192	; 0x2000
 80046cc:	88db      	ldrh	r3, [r3, #6]
 80046ce:	b2db      	uxtb	r3, r3
 80046d0:	4618      	mov	r0, r3
 80046d2:	f7ff ff09 	bl	80044e8 <Lcd_WR_REG>
 80046d6:	bd80      	pop	{r7, pc}

080046d8 <Lcd_Set_Windows>:
 80046d8:	b580      	push	{r7, lr}
 80046da:	b082      	sub	sp, #8
 80046dc:	af00      	add	r7, sp, #0
 80046de:	80f8      	strh	r0, [r7, #6]
 80046e0:	80b9      	strh	r1, [r7, #4]
 80046e2:	807a      	strh	r2, [r7, #2]
 80046e4:	803b      	strh	r3, [r7, #0]
 80046e6:	f643 5390 	movw	r3, #15760	; 0x3d90
 80046ea:	f2c2 0300 	movt	r3, #8192	; 0x2000
 80046ee:	891b      	ldrh	r3, [r3, #8]
 80046f0:	b2db      	uxtb	r3, r3
 80046f2:	4618      	mov	r0, r3
 80046f4:	f7ff fef8 	bl	80044e8 <Lcd_WR_REG>
 80046f8:	88fb      	ldrh	r3, [r7, #6]
 80046fa:	0a1b      	lsrs	r3, r3, #8
 80046fc:	b29b      	uxth	r3, r3
 80046fe:	b2db      	uxtb	r3, r3
 8004700:	4618      	mov	r0, r3
 8004702:	f7ff ff21 	bl	8004548 <Lcd_WR_DATA>
 8004706:	88fb      	ldrh	r3, [r7, #6]
 8004708:	b2db      	uxtb	r3, r3
 800470a:	4618      	mov	r0, r3
 800470c:	f7ff ff1c 	bl	8004548 <Lcd_WR_DATA>
 8004710:	887b      	ldrh	r3, [r7, #2]
 8004712:	0a1b      	lsrs	r3, r3, #8
 8004714:	b29b      	uxth	r3, r3
 8004716:	b2db      	uxtb	r3, r3
 8004718:	4618      	mov	r0, r3
 800471a:	f7ff ff15 	bl	8004548 <Lcd_WR_DATA>
 800471e:	887b      	ldrh	r3, [r7, #2]
 8004720:	b2db      	uxtb	r3, r3
 8004722:	4618      	mov	r0, r3
 8004724:	f7ff ff10 	bl	8004548 <Lcd_WR_DATA>
 8004728:	f643 5390 	movw	r3, #15760	; 0x3d90
 800472c:	f2c2 0300 	movt	r3, #8192	; 0x2000
 8004730:	895b      	ldrh	r3, [r3, #10]
 8004732:	b2db      	uxtb	r3, r3
 8004734:	4618      	mov	r0, r3
 8004736:	f7ff fed7 	bl	80044e8 <Lcd_WR_REG>
 800473a:	88bb      	ldrh	r3, [r7, #4]
 800473c:	0a1b      	lsrs	r3, r3, #8
 800473e:	b29b      	uxth	r3, r3
 8004740:	b2db      	uxtb	r3, r3
 8004742:	4618      	mov	r0, r3
 8004744:	f7ff ff00 	bl	8004548 <Lcd_WR_DATA>
 8004748:	88bb      	ldrh	r3, [r7, #4]
 800474a:	b2db      	uxtb	r3, r3
 800474c:	4618      	mov	r0, r3
 800474e:	f7ff fefb 	bl	8004548 <Lcd_WR_DATA>
 8004752:	883b      	ldrh	r3, [r7, #0]
 8004754:	0a1b      	lsrs	r3, r3, #8
 8004756:	b29b      	uxth	r3, r3
 8004758:	b2db      	uxtb	r3, r3
 800475a:	4618      	mov	r0, r3
 800475c:	f7ff fef4 	bl	8004548 <Lcd_WR_DATA>
 8004760:	883b      	ldrh	r3, [r7, #0]
 8004762:	b2db      	uxtb	r3, r3
 8004764:	4618      	mov	r0, r3
 8004766:	f7ff feef 	bl	8004548 <Lcd_WR_DATA>
 800476a:	f7ff ffa9 	bl	80046c0 <Lcd_Write_RAM_Prepare>
 800476e:	3708      	adds	r7, #8
 8004770:	46bd      	mov	sp, r7
 8004772:	bd80      	pop	{r7, pc}

08004774 <Lcd_Set_Cursor>:
 8004774:	b580      	push	{r7, lr}
 8004776:	b082      	sub	sp, #8
 8004778:	af00      	add	r7, sp, #0
 800477a:	4602      	mov	r2, r0
 800477c:	460b      	mov	r3, r1
 800477e:	80fa      	strh	r2, [r7, #6]
 8004780:	80bb      	strh	r3, [r7, #4]
 8004782:	88f8      	ldrh	r0, [r7, #6]
 8004784:	88b9      	ldrh	r1, [r7, #4]
 8004786:	88fa      	ldrh	r2, [r7, #6]
 8004788:	88bb      	ldrh	r3, [r7, #4]
 800478a:	f7ff ffa5 	bl	80046d8 <Lcd_Set_Windows>
 800478e:	3708      	adds	r7, #8
 8004790:	46bd      	mov	sp, r7
 8004792:	bd80      	pop	{r7, pc}

08004794 <Lcd_Draw_Back_Color>:
 8004794:	b580      	push	{r7, lr}
 8004796:	b084      	sub	sp, #16
 8004798:	af00      	add	r7, sp, #0
 800479a:	4603      	mov	r3, r0
 800479c:	80fb      	strh	r3, [r7, #6]
 800479e:	88fb      	ldrh	r3, [r7, #6]
 80047a0:	0a1b      	lsrs	r3, r3, #8
 80047a2:	b29b      	uxth	r3, r3
 80047a4:	72fb      	strb	r3, [r7, #11]
 80047a6:	88fb      	ldrh	r3, [r7, #6]
 80047a8:	72bb      	strb	r3, [r7, #10]
 80047aa:	f643 5390 	movw	r3, #15760	; 0x3d90
 80047ae:	f2c2 0300 	movt	r3, #8192	; 0x2000
 80047b2:	881b      	ldrh	r3, [r3, #0]
 80047b4:	3b01      	subs	r3, #1
 80047b6:	b29a      	uxth	r2, r3
 80047b8:	f643 5390 	movw	r3, #15760	; 0x3d90
 80047bc:	f2c2 0300 	movt	r3, #8192	; 0x2000
 80047c0:	885b      	ldrh	r3, [r3, #2]
 80047c2:	3b01      	subs	r3, #1
 80047c4:	b29b      	uxth	r3, r3
 80047c6:	2000      	movs	r0, #0
 80047c8:	2100      	movs	r1, #0
 80047ca:	f7ff ff85 	bl	80046d8 <Lcd_Set_Windows>
 80047ce:	f44f 6300 	mov.w	r3, #2048	; 0x800
 80047d2:	f2c4 0301 	movt	r3, #16385	; 0x4001
 80047d6:	f44f 6200 	mov.w	r2, #2048	; 0x800
 80047da:	f2c4 0201 	movt	r2, #16385	; 0x4001
 80047de:	68d2      	ldr	r2, [r2, #12]
 80047e0:	f022 0210 	bic.w	r2, r2, #16
 80047e4:	60da      	str	r2, [r3, #12]
 80047e6:	f44f 6340 	mov.w	r3, #3072	; 0xc00
 80047ea:	f2c4 0301 	movt	r3, #16385	; 0x4001
 80047ee:	f44f 6240 	mov.w	r2, #3072	; 0xc00
 80047f2:	f2c4 0201 	movt	r2, #16385	; 0x4001
 80047f6:	68d2      	ldr	r2, [r2, #12]
 80047f8:	f442 7200 	orr.w	r2, r2, #512	; 0x200
 80047fc:	60da      	str	r2, [r3, #12]
 80047fe:	2300      	movs	r3, #0
 8004800:	60fb      	str	r3, [r7, #12]
 8004802:	e00a      	b.n	800481a <Lcd_Draw_Back_Color+0x86>
 8004804:	7afb      	ldrb	r3, [r7, #11]
 8004806:	4618      	mov	r0, r3
 8004808:	f7ff fd3c 	bl	8004284 <_SPI1_Write_Byte>
 800480c:	7abb      	ldrb	r3, [r7, #10]
 800480e:	4618      	mov	r0, r3
 8004810:	f7ff fd38 	bl	8004284 <_SPI1_Write_Byte>
 8004814:	68fb      	ldr	r3, [r7, #12]
 8004816:	3301      	adds	r3, #1
 8004818:	60fb      	str	r3, [r7, #12]
 800481a:	f643 5390 	movw	r3, #15760	; 0x3d90
 800481e:	f2c2 0300 	movt	r3, #8192	; 0x2000
 8004822:	885b      	ldrh	r3, [r3, #2]
 8004824:	461a      	mov	r2, r3
 8004826:	f643 5390 	movw	r3, #15760	; 0x3d90
 800482a:	f2c2 0300 	movt	r3, #8192	; 0x2000
 800482e:	881b      	ldrh	r3, [r3, #0]
 8004830:	fb03 f302 	mul.w	r3, r3, r2
 8004834:	461a      	mov	r2, r3
 8004836:	68fb      	ldr	r3, [r7, #12]
 8004838:	429a      	cmp	r2, r3
 800483a:	d8e3      	bhi.n	8004804 <Lcd_Draw_Back_Color+0x70>
 800483c:	f44f 6300 	mov.w	r3, #2048	; 0x800
 8004840:	f2c4 0301 	movt	r3, #16385	; 0x4001
 8004844:	f44f 6200 	mov.w	r2, #2048	; 0x800
 8004848:	f2c4 0201 	movt	r2, #16385	; 0x4001
 800484c:	68d2      	ldr	r2, [r2, #12]
 800484e:	f042 0210 	orr.w	r2, r2, #16
 8004852:	60da      	str	r2, [r3, #12]
 8004854:	3710      	adds	r7, #16
 8004856:	46bd      	mov	sp, r7
 8004858:	bd80      	pop	{r7, pc}
 800485a:	bf00      	nop

0800485c <Lcd_Clr_Screen>:
 800485c:	b580      	push	{r7, lr}
 800485e:	af00      	add	r7, sp, #0
 8004860:	2000      	movs	r0, #0
 8004862:	f7ff ff97 	bl	8004794 <Lcd_Draw_Back_Color>
 8004866:	bd80      	pop	{r7, pc}

08004868 <Lcd_Draw_Box>:
 8004868:	b580      	push	{r7, lr}
 800486a:	b088      	sub	sp, #32
 800486c:	af00      	add	r7, sp, #0
 800486e:	60f8      	str	r0, [r7, #12]
 8004870:	60b9      	str	r1, [r7, #8]
 8004872:	607a      	str	r2, [r7, #4]
 8004874:	603b      	str	r3, [r7, #0]
 8004876:	8d3b      	ldrh	r3, [r7, #40]	; 0x28
 8004878:	0a1b      	lsrs	r3, r3, #8
 800487a:	b29b      	uxth	r3, r3
 800487c:	75fb      	strb	r3, [r7, #23]
 800487e:	8d3b      	ldrh	r3, [r7, #40]	; 0x28
 8004880:	75bb      	strb	r3, [r7, #22]
 8004882:	68fa      	ldr	r2, [r7, #12]
 8004884:	687b      	ldr	r3, [r7, #4]
 8004886:	4413      	add	r3, r2
 8004888:	3b01      	subs	r3, #1
 800488a:	61bb      	str	r3, [r7, #24]
 800488c:	68ba      	ldr	r2, [r7, #8]
 800488e:	683b      	ldr	r3, [r7, #0]
 8004890:	4413      	add	r3, r2
 8004892:	3b01      	subs	r3, #1
 8004894:	613b      	str	r3, [r7, #16]
 8004896:	69bb      	ldr	r3, [r7, #24]
 8004898:	f5b3 7fa0 	cmp.w	r3, #320	; 0x140
 800489c:	db02      	blt.n	80048a4 <Lcd_Draw_Box+0x3c>
 800489e:	f240 133f 	movw	r3, #319	; 0x13f
 80048a2:	61bb      	str	r3, [r7, #24]
 80048a4:	693b      	ldr	r3, [r7, #16]
 80048a6:	2bef      	cmp	r3, #239	; 0xef
 80048a8:	dd01      	ble.n	80048ae <Lcd_Draw_Box+0x46>
 80048aa:	23ef      	movs	r3, #239	; 0xef
 80048ac:	61bb      	str	r3, [r7, #24]
 80048ae:	68fb      	ldr	r3, [r7, #12]
 80048b0:	b298      	uxth	r0, r3
 80048b2:	68bb      	ldr	r3, [r7, #8]
 80048b4:	b299      	uxth	r1, r3
 80048b6:	69bb      	ldr	r3, [r7, #24]
 80048b8:	b29a      	uxth	r2, r3
 80048ba:	693b      	ldr	r3, [r7, #16]
 80048bc:	b29b      	uxth	r3, r3
 80048be:	f7ff ff0b 	bl	80046d8 <Lcd_Set_Windows>
 80048c2:	f44f 6300 	mov.w	r3, #2048	; 0x800
 80048c6:	f2c4 0301 	movt	r3, #16385	; 0x4001
 80048ca:	f44f 6200 	mov.w	r2, #2048	; 0x800
 80048ce:	f2c4 0201 	movt	r2, #16385	; 0x4001
 80048d2:	68d2      	ldr	r2, [r2, #12]
 80048d4:	f022 0210 	bic.w	r2, r2, #16
 80048d8:	60da      	str	r2, [r3, #12]
 80048da:	f44f 6340 	mov.w	r3, #3072	; 0xc00
 80048de:	f2c4 0301 	movt	r3, #16385	; 0x4001
 80048e2:	f44f 6240 	mov.w	r2, #3072	; 0xc00
 80048e6:	f2c4 0201 	movt	r2, #16385	; 0x4001
 80048ea:	68d2      	ldr	r2, [r2, #12]
 80048ec:	f442 7200 	orr.w	r2, r2, #512	; 0x200
 80048f0:	60da      	str	r2, [r3, #12]
 80048f2:	2300      	movs	r3, #0
 80048f4:	61fb      	str	r3, [r7, #28]
 80048f6:	e00a      	b.n	800490e <Lcd_Draw_Box+0xa6>
 80048f8:	7dfb      	ldrb	r3, [r7, #23]
 80048fa:	4618      	mov	r0, r3
 80048fc:	f7ff fcc2 	bl	8004284 <_SPI1_Write_Byte>
 8004900:	7dbb      	ldrb	r3, [r7, #22]
 8004902:	4618      	mov	r0, r3
 8004904:	f7ff fcbe 	bl	8004284 <_SPI1_Write_Byte>
 8004908:	69fb      	ldr	r3, [r7, #28]
 800490a:	3301      	adds	r3, #1
 800490c:	61fb      	str	r3, [r7, #28]
 800490e:	69ba      	ldr	r2, [r7, #24]
 8004910:	68fb      	ldr	r3, [r7, #12]
 8004912:	1ad3      	subs	r3, r2, r3
 8004914:	3301      	adds	r3, #1
 8004916:	6939      	ldr	r1, [r7, #16]
 8004918:	68ba      	ldr	r2, [r7, #8]
 800491a:	1a8a      	subs	r2, r1, r2
 800491c:	3201      	adds	r2, #1
 800491e:	fb02 f303 	mul.w	r3, r2, r3
 8004922:	461a      	mov	r2, r3
 8004924:	69fb      	ldr	r3, [r7, #28]
 8004926:	429a      	cmp	r2, r3
 8004928:	d8e6      	bhi.n	80048f8 <Lcd_Draw_Box+0x90>
 800492a:	f44f 6300 	mov.w	r3, #2048	; 0x800
 800492e:	f2c4 0301 	movt	r3, #16385	; 0x4001
 8004932:	f44f 6200 	mov.w	r2, #2048	; 0x800
 8004936:	f2c4 0201 	movt	r2, #16385	; 0x4001
 800493a:	68d2      	ldr	r2, [r2, #12]
 800493c:	f042 0210 	orr.w	r2, r2, #16
 8004940:	60da      	str	r2, [r3, #12]
 8004942:	3720      	adds	r7, #32
 8004944:	46bd      	mov	sp, r7
 8004946:	bd80      	pop	{r7, pc}

08004948 <Lcd_Init>:
 8004948:	b580      	push	{r7, lr}
 800494a:	af00      	add	r7, sp, #0
 800494c:	f7ff fc4c 	bl	80041e8 <_SPI1_Init>
 8004950:	f7ff fcd8 	bl	8004304 <Lcd_GPIO_Init>
 8004954:	f44f 6300 	mov.w	r3, #2048	; 0x800
 8004958:	f2c4 0301 	movt	r3, #16385	; 0x4001
 800495c:	f44f 6200 	mov.w	r2, #2048	; 0x800
 8004960:	f2c4 0201 	movt	r2, #16385	; 0x4001
 8004964:	68d2      	ldr	r2, [r2, #12]
 8004966:	f422 6200 	bic.w	r2, r2, #2048	; 0x800
 800496a:	60da      	str	r2, [r3, #12]
 800496c:	f7ff fd9a 	bl	80044a4 <Lcd_Reset>
 8004970:	20cf      	movs	r0, #207	; 0xcf
 8004972:	f7ff fdb9 	bl	80044e8 <Lcd_WR_REG>
 8004976:	2000      	movs	r0, #0
 8004978:	f7ff fde6 	bl	8004548 <Lcd_WR_DATA>
 800497c:	20d9      	movs	r0, #217	; 0xd9
 800497e:	f7ff fde3 	bl	8004548 <Lcd_WR_DATA>
 8004982:	2030      	movs	r0, #48	; 0x30
 8004984:	f7ff fde0 	bl	8004548 <Lcd_WR_DATA>
 8004988:	20ed      	movs	r0, #237	; 0xed
 800498a:	f7ff fdad 	bl	80044e8 <Lcd_WR_REG>
 800498e:	2064      	movs	r0, #100	; 0x64
 8004990:	f7ff fdda 	bl	8004548 <Lcd_WR_DATA>
 8004994:	2003      	movs	r0, #3
 8004996:	f7ff fdd7 	bl	8004548 <Lcd_WR_DATA>
 800499a:	2012      	movs	r0, #18
 800499c:	f7ff fdd4 	bl	8004548 <Lcd_WR_DATA>
 80049a0:	2081      	movs	r0, #129	; 0x81
 80049a2:	f7ff fdd1 	bl	8004548 <Lcd_WR_DATA>
 80049a6:	20e8      	movs	r0, #232	; 0xe8
 80049a8:	f7ff fd9e 	bl	80044e8 <Lcd_WR_REG>
 80049ac:	2085      	movs	r0, #133	; 0x85
 80049ae:	f7ff fdcb 	bl	8004548 <Lcd_WR_DATA>
 80049b2:	2010      	movs	r0, #16
 80049b4:	f7ff fdc8 	bl	8004548 <Lcd_WR_DATA>
 80049b8:	207a      	movs	r0, #122	; 0x7a
 80049ba:	f7ff fdc5 	bl	8004548 <Lcd_WR_DATA>
 80049be:	20cb      	movs	r0, #203	; 0xcb
 80049c0:	f7ff fd92 	bl	80044e8 <Lcd_WR_REG>
 80049c4:	2039      	movs	r0, #57	; 0x39
 80049c6:	f7ff fdbf 	bl	8004548 <Lcd_WR_DATA>
 80049ca:	202c      	movs	r0, #44	; 0x2c
 80049cc:	f7ff fdbc 	bl	8004548 <Lcd_WR_DATA>
 80049d0:	2000      	movs	r0, #0
 80049d2:	f7ff fdb9 	bl	8004548 <Lcd_WR_DATA>
 80049d6:	2034      	movs	r0, #52	; 0x34
 80049d8:	f7ff fdb6 	bl	8004548 <Lcd_WR_DATA>
 80049dc:	2002      	movs	r0, #2
 80049de:	f7ff fdb3 	bl	8004548 <Lcd_WR_DATA>
 80049e2:	20f7      	movs	r0, #247	; 0xf7
 80049e4:	f7ff fd80 	bl	80044e8 <Lcd_WR_REG>
 80049e8:	2020      	movs	r0, #32
 80049ea:	f7ff fdad 	bl	8004548 <Lcd_WR_DATA>
 80049ee:	20ea      	movs	r0, #234	; 0xea
 80049f0:	f7ff fd7a 	bl	80044e8 <Lcd_WR_REG>
 80049f4:	2000      	movs	r0, #0
 80049f6:	f7ff fda7 	bl	8004548 <Lcd_WR_DATA>
 80049fa:	2000      	movs	r0, #0
 80049fc:	f7ff fda4 	bl	8004548 <Lcd_WR_DATA>
 8004a00:	20c0      	movs	r0, #192	; 0xc0
 8004a02:	f7ff fd71 	bl	80044e8 <Lcd_WR_REG>
 8004a06:	201b      	movs	r0, #27
 8004a08:	f7ff fd9e 	bl	8004548 <Lcd_WR_DATA>
 8004a0c:	20c1      	movs	r0, #193	; 0xc1
 8004a0e:	f7ff fd6b 	bl	80044e8 <Lcd_WR_REG>
 8004a12:	2012      	movs	r0, #18
 8004a14:	f7ff fd98 	bl	8004548 <Lcd_WR_DATA>
 8004a18:	20c5      	movs	r0, #197	; 0xc5
 8004a1a:	f7ff fd65 	bl	80044e8 <Lcd_WR_REG>
 8004a1e:	2008      	movs	r0, #8
 8004a20:	f7ff fd92 	bl	8004548 <Lcd_WR_DATA>
 8004a24:	2026      	movs	r0, #38	; 0x26
 8004a26:	f7ff fd8f 	bl	8004548 <Lcd_WR_DATA>
 8004a2a:	20c7      	movs	r0, #199	; 0xc7
 8004a2c:	f7ff fd5c 	bl	80044e8 <Lcd_WR_REG>
 8004a30:	20b7      	movs	r0, #183	; 0xb7
 8004a32:	f7ff fd89 	bl	8004548 <Lcd_WR_DATA>
 8004a36:	2036      	movs	r0, #54	; 0x36
 8004a38:	f7ff fd56 	bl	80044e8 <Lcd_WR_REG>
 8004a3c:	2008      	movs	r0, #8
 8004a3e:	f7ff fd83 	bl	8004548 <Lcd_WR_DATA>
 8004a42:	203a      	movs	r0, #58	; 0x3a
 8004a44:	f7ff fd50 	bl	80044e8 <Lcd_WR_REG>
 8004a48:	2055      	movs	r0, #85	; 0x55
 8004a4a:	f7ff fd7d 	bl	8004548 <Lcd_WR_DATA>
 8004a4e:	20b1      	movs	r0, #177	; 0xb1
 8004a50:	f7ff fd4a 	bl	80044e8 <Lcd_WR_REG>
 8004a54:	2000      	movs	r0, #0
 8004a56:	f7ff fd77 	bl	8004548 <Lcd_WR_DATA>
 8004a5a:	201a      	movs	r0, #26
 8004a5c:	f7ff fd74 	bl	8004548 <Lcd_WR_DATA>
 8004a60:	20b6      	movs	r0, #182	; 0xb6
 8004a62:	f7ff fd41 	bl	80044e8 <Lcd_WR_REG>
 8004a66:	200a      	movs	r0, #10
 8004a68:	f7ff fd6e 	bl	8004548 <Lcd_WR_DATA>
 8004a6c:	20a2      	movs	r0, #162	; 0xa2
 8004a6e:	f7ff fd6b 	bl	8004548 <Lcd_WR_DATA>
 8004a72:	20f2      	movs	r0, #242	; 0xf2
 8004a74:	f7ff fd38 	bl	80044e8 <Lcd_WR_REG>
 8004a78:	2000      	movs	r0, #0
 8004a7a:	f7ff fd65 	bl	8004548 <Lcd_WR_DATA>
 8004a7e:	2026      	movs	r0, #38	; 0x26
 8004a80:	f7ff fd32 	bl	80044e8 <Lcd_WR_REG>
 8004a84:	2001      	movs	r0, #1
 8004a86:	f7ff fd5f 	bl	8004548 <Lcd_WR_DATA>
 8004a8a:	20e0      	movs	r0, #224	; 0xe0
 8004a8c:	f7ff fd2c 	bl	80044e8 <Lcd_WR_REG>
 8004a90:	200f      	movs	r0, #15
 8004a92:	f7ff fd59 	bl	8004548 <Lcd_WR_DATA>
 8004a96:	201d      	movs	r0, #29
 8004a98:	f7ff fd56 	bl	8004548 <Lcd_WR_DATA>
 8004a9c:	201a      	movs	r0, #26
 8004a9e:	f7ff fd53 	bl	8004548 <Lcd_WR_DATA>
 8004aa2:	200a      	movs	r0, #10
 8004aa4:	f7ff fd50 	bl	8004548 <Lcd_WR_DATA>
 8004aa8:	200d      	movs	r0, #13
 8004aaa:	f7ff fd4d 	bl	8004548 <Lcd_WR_DATA>
 8004aae:	2007      	movs	r0, #7
 8004ab0:	f7ff fd4a 	bl	8004548 <Lcd_WR_DATA>
 8004ab4:	2049      	movs	r0, #73	; 0x49
 8004ab6:	f7ff fd47 	bl	8004548 <Lcd_WR_DATA>
 8004aba:	2066      	movs	r0, #102	; 0x66
 8004abc:	f7ff fd44 	bl	8004548 <Lcd_WR_DATA>
 8004ac0:	203b      	movs	r0, #59	; 0x3b
 8004ac2:	f7ff fd41 	bl	8004548 <Lcd_WR_DATA>
 8004ac6:	2007      	movs	r0, #7
 8004ac8:	f7ff fd3e 	bl	8004548 <Lcd_WR_DATA>
 8004acc:	2011      	movs	r0, #17
 8004ace:	f7ff fd3b 	bl	8004548 <Lcd_WR_DATA>
 8004ad2:	2001      	movs	r0, #1
 8004ad4:	f7ff fd38 	bl	8004548 <Lcd_WR_DATA>
 8004ad8:	2009      	movs	r0, #9
 8004ada:	f7ff fd35 	bl	8004548 <Lcd_WR_DATA>
 8004ade:	2005      	movs	r0, #5
 8004ae0:	f7ff fd32 	bl	8004548 <Lcd_WR_DATA>
 8004ae4:	2004      	movs	r0, #4
 8004ae6:	f7ff fd2f 	bl	8004548 <Lcd_WR_DATA>
 8004aea:	20e1      	movs	r0, #225	; 0xe1
 8004aec:	f7ff fcfc 	bl	80044e8 <Lcd_WR_REG>
 8004af0:	2000      	movs	r0, #0
 8004af2:	f7ff fd29 	bl	8004548 <Lcd_WR_DATA>
 8004af6:	2018      	movs	r0, #24
 8004af8:	f7ff fd26 	bl	8004548 <Lcd_WR_DATA>
 8004afc:	201d      	movs	r0, #29
 8004afe:	f7ff fd23 	bl	8004548 <Lcd_WR_DATA>
 8004b02:	2002      	movs	r0, #2
 8004b04:	f7ff fd20 	bl	8004548 <Lcd_WR_DATA>
 8004b08:	200f      	movs	r0, #15
 8004b0a:	f7ff fd1d 	bl	8004548 <Lcd_WR_DATA>
 8004b0e:	2004      	movs	r0, #4
 8004b10:	f7ff fd1a 	bl	8004548 <Lcd_WR_DATA>
 8004b14:	2036      	movs	r0, #54	; 0x36
 8004b16:	f7ff fd17 	bl	8004548 <Lcd_WR_DATA>
 8004b1a:	2013      	movs	r0, #19
 8004b1c:	f7ff fd14 	bl	8004548 <Lcd_WR_DATA>
 8004b20:	204c      	movs	r0, #76	; 0x4c
 8004b22:	f7ff fd11 	bl	8004548 <Lcd_WR_DATA>
 8004b26:	2007      	movs	r0, #7
 8004b28:	f7ff fd0e 	bl	8004548 <Lcd_WR_DATA>
 8004b2c:	2013      	movs	r0, #19
 8004b2e:	f7ff fd0b 	bl	8004548 <Lcd_WR_DATA>
 8004b32:	200f      	movs	r0, #15
 8004b34:	f7ff fd08 	bl	8004548 <Lcd_WR_DATA>
 8004b38:	202e      	movs	r0, #46	; 0x2e
 8004b3a:	f7ff fd05 	bl	8004548 <Lcd_WR_DATA>
 8004b3e:	202f      	movs	r0, #47	; 0x2f
 8004b40:	f7ff fd02 	bl	8004548 <Lcd_WR_DATA>
 8004b44:	2005      	movs	r0, #5
 8004b46:	f7ff fcff 	bl	8004548 <Lcd_WR_DATA>
 8004b4a:	202b      	movs	r0, #43	; 0x2b
 8004b4c:	f7ff fccc 	bl	80044e8 <Lcd_WR_REG>
 8004b50:	2000      	movs	r0, #0
 8004b52:	f7ff fcf9 	bl	8004548 <Lcd_WR_DATA>
 8004b56:	2000      	movs	r0, #0
 8004b58:	f7ff fcf6 	bl	8004548 <Lcd_WR_DATA>
 8004b5c:	2001      	movs	r0, #1
 8004b5e:	f7ff fcf3 	bl	8004548 <Lcd_WR_DATA>
 8004b62:	203f      	movs	r0, #63	; 0x3f
 8004b64:	f7ff fcf0 	bl	8004548 <Lcd_WR_DATA>
 8004b68:	202a      	movs	r0, #42	; 0x2a
 8004b6a:	f7ff fcbd 	bl	80044e8 <Lcd_WR_REG>
 8004b6e:	2000      	movs	r0, #0
 8004b70:	f7ff fcea 	bl	8004548 <Lcd_WR_DATA>
 8004b74:	2000      	movs	r0, #0
 8004b76:	f7ff fce7 	bl	8004548 <Lcd_WR_DATA>
 8004b7a:	2000      	movs	r0, #0
 8004b7c:	f7ff fce4 	bl	8004548 <Lcd_WR_DATA>
 8004b80:	20ef      	movs	r0, #239	; 0xef
 8004b82:	f7ff fce1 	bl	8004548 <Lcd_WR_DATA>
 8004b86:	2011      	movs	r0, #17
 8004b88:	f7ff fcae 	bl	80044e8 <Lcd_WR_REG>
 8004b8c:	2078      	movs	r0, #120	; 0x78
 8004b8e:	f7ff fba5 	bl	80042dc <_Delay>
 8004b92:	2029      	movs	r0, #41	; 0x29
 8004b94:	f7ff fca8 	bl	80044e8 <Lcd_WR_REG>
 8004b98:	2003      	movs	r0, #3
 8004b9a:	f7ff fd05 	bl	80045a8 <Lcd_Set_Display_Mode>
 8004b9e:	f7ff fe5d 	bl	800485c <Lcd_Clr_Screen>
 8004ba2:	f44f 7096 	mov.w	r0, #300	; 0x12c
 8004ba6:	f7ff fb99 	bl	80042dc <_Delay>
 8004baa:	f44f 6300 	mov.w	r3, #2048	; 0x800
 8004bae:	f2c4 0301 	movt	r3, #16385	; 0x4001
 8004bb2:	f44f 6200 	mov.w	r2, #2048	; 0x800
 8004bb6:	f2c4 0201 	movt	r2, #16385	; 0x4001
 8004bba:	68d2      	ldr	r2, [r2, #12]
 8004bbc:	f442 6200 	orr.w	r2, r2, #2048	; 0x800
 8004bc0:	60da      	str	r2, [r3, #12]
 8004bc2:	bd80      	pop	{r7, pc}

08004bc4 <Lcd_Put_Pixel>:
 8004bc4:	b580      	push	{r7, lr}
 8004bc6:	b082      	sub	sp, #8
 8004bc8:	af00      	add	r7, sp, #0
 8004bca:	4613      	mov	r3, r2
 8004bcc:	4602      	mov	r2, r0
 8004bce:	80fa      	strh	r2, [r7, #6]
 8004bd0:	460a      	mov	r2, r1
 8004bd2:	80ba      	strh	r2, [r7, #4]
 8004bd4:	807b      	strh	r3, [r7, #2]
 8004bd6:	88fa      	ldrh	r2, [r7, #6]
 8004bd8:	88bb      	ldrh	r3, [r7, #4]
 8004bda:	4610      	mov	r0, r2
 8004bdc:	4619      	mov	r1, r3
 8004bde:	f7ff fdc9 	bl	8004774 <Lcd_Set_Cursor>
 8004be2:	887b      	ldrh	r3, [r7, #2]
 8004be4:	4618      	mov	r0, r3
 8004be6:	f7ff fbdf 	bl	80043a8 <Lcd_Write_Data_16Bit>
 8004bea:	3708      	adds	r7, #8
 8004bec:	46bd      	mov	sp, r7
 8004bee:	bd80      	pop	{r7, pc}

08004bf0 <LED_Init>:
 8004bf0:	b480      	push	{r7}
 8004bf2:	af00      	add	r7, sp, #0
 8004bf4:	f44f 5380 	mov.w	r3, #4096	; 0x1000
 8004bf8:	f2c4 0302 	movt	r3, #16386	; 0x4002
 8004bfc:	f44f 5280 	mov.w	r2, #4096	; 0x1000
 8004c00:	f2c4 0202 	movt	r2, #16386	; 0x4002
 8004c04:	6992      	ldr	r2, [r2, #24]
 8004c06:	f042 0208 	orr.w	r2, r2, #8
 8004c0a:	619a      	str	r2, [r3, #24]
 8004c0c:	f44f 6340 	mov.w	r3, #3072	; 0xc00
 8004c10:	f2c4 0301 	movt	r3, #16385	; 0x4001
 8004c14:	f44f 6240 	mov.w	r2, #3072	; 0xc00
 8004c18:	f2c4 0201 	movt	r2, #16385	; 0x4001
 8004c1c:	6852      	ldr	r2, [r2, #4]
 8004c1e:	f022 02ff 	bic.w	r2, r2, #255	; 0xff
 8004c22:	f042 0266 	orr.w	r2, r2, #102	; 0x66
 8004c26:	605a      	str	r2, [r3, #4]
 8004c28:	f44f 6340 	mov.w	r3, #3072	; 0xc00
 8004c2c:	f2c4 0301 	movt	r3, #16385	; 0x4001
 8004c30:	f44f 6240 	mov.w	r2, #3072	; 0xc00
 8004c34:	f2c4 0201 	movt	r2, #16385	; 0x4001
 8004c38:	68d2      	ldr	r2, [r2, #12]
 8004c3a:	f442 7240 	orr.w	r2, r2, #768	; 0x300
 8004c3e:	60da      	str	r2, [r3, #12]
 8004c40:	46bd      	mov	sp, r7
 8004c42:	f85d 7b04 	ldr.w	r7, [sp], #4
 8004c46:	4770      	bx	lr

08004c48 <LED_Display>:
 8004c48:	b480      	push	{r7}
 8004c4a:	b083      	sub	sp, #12
 8004c4c:	af00      	add	r7, sp, #0
 8004c4e:	6078      	str	r0, [r7, #4]
 8004c50:	f44f 6340 	mov.w	r3, #3072	; 0xc00
 8004c54:	f2c4 0301 	movt	r3, #16385	; 0x4001
 8004c58:	f44f 6240 	mov.w	r2, #3072	; 0xc00
 8004c5c:	f2c4 0201 	movt	r2, #16385	; 0x4001
 8004c60:	68d2      	ldr	r2, [r2, #12]
 8004c62:	f422 7140 	bic.w	r1, r2, #768	; 0x300
 8004c66:	687a      	ldr	r2, [r7, #4]
 8004c68:	43d2      	mvns	r2, r2
 8004c6a:	f002 0203 	and.w	r2, r2, #3
 8004c6e:	0212      	lsls	r2, r2, #8
 8004c70:	430a      	orrs	r2, r1
 8004c72:	60da      	str	r2, [r3, #12]
 8004c74:	370c      	adds	r7, #12
 8004c76:	46bd      	mov	sp, r7
 8004c78:	f85d 7b04 	ldr.w	r7, [sp], #4
 8004c7c:	4770      	bx	lr
 8004c7e:	bf00      	nop

08004c80 <LED_All_On>:
 8004c80:	b480      	push	{r7}
 8004c82:	af00      	add	r7, sp, #0
 8004c84:	f44f 6340 	mov.w	r3, #3072	; 0xc00
 8004c88:	f2c4 0301 	movt	r3, #16385	; 0x4001
 8004c8c:	f44f 6240 	mov.w	r2, #3072	; 0xc00
 8004c90:	f2c4 0201 	movt	r2, #16385	; 0x4001
 8004c94:	68d2      	ldr	r2, [r2, #12]
 8004c96:	f422 7240 	bic.w	r2, r2, #768	; 0x300
 8004c9a:	60da      	str	r2, [r3, #12]
 8004c9c:	46bd      	mov	sp, r7
 8004c9e:	f85d 7b04 	ldr.w	r7, [sp], #4
 8004ca2:	4770      	bx	lr

08004ca4 <LED_All_Off>:
 8004ca4:	b480      	push	{r7}
 8004ca6:	af00      	add	r7, sp, #0
 8004ca8:	f44f 6340 	mov.w	r3, #3072	; 0xc00
 8004cac:	f2c4 0301 	movt	r3, #16385	; 0x4001
 8004cb0:	f44f 6240 	mov.w	r2, #3072	; 0xc00
 8004cb4:	f2c4 0201 	movt	r2, #16385	; 0x4001
 8004cb8:	68d2      	ldr	r2, [r2, #12]
 8004cba:	f442 7240 	orr.w	r2, r2, #768	; 0x300
 8004cbe:	60da      	str	r2, [r3, #12]
 8004cc0:	46bd      	mov	sp, r7
 8004cc2:	f85d 7b04 	ldr.w	r7, [sp], #4
 8004cc6:	4770      	bx	lr

08004cc8 <LED_0_Toggle>:
 8004cc8:	b480      	push	{r7}
 8004cca:	af00      	add	r7, sp, #0
 8004ccc:	f44f 6340 	mov.w	r3, #3072	; 0xc00
 8004cd0:	f2c4 0301 	movt	r3, #16385	; 0x4001
 8004cd4:	f44f 6240 	mov.w	r2, #3072	; 0xc00
 8004cd8:	f2c4 0201 	movt	r2, #16385	; 0x4001
 8004cdc:	68d2      	ldr	r2, [r2, #12]
 8004cde:	f482 7280 	eor.w	r2, r2, #256	; 0x100
 8004ce2:	60da      	str	r2, [r3, #12]
 8004ce4:	46bd      	mov	sp, r7
 8004ce6:	f85d 7b04 	ldr.w	r7, [sp], #4
 8004cea:	4770      	bx	lr

08004cec <LED_1_Toggle>:
 8004cec:	b480      	push	{r7}
 8004cee:	af00      	add	r7, sp, #0
 8004cf0:	f44f 6340 	mov.w	r3, #3072	; 0xc00
 8004cf4:	f2c4 0301 	movt	r3, #16385	; 0x4001
 8004cf8:	f44f 6240 	mov.w	r2, #3072	; 0xc00
 8004cfc:	f2c4 0201 	movt	r2, #16385	; 0x4001
 8004d00:	68d2      	ldr	r2, [r2, #12]
 8004d02:	f482 7200 	eor.w	r2, r2, #512	; 0x200
 8004d06:	60da      	str	r2, [r3, #12]
 8004d08:	46bd      	mov	sp, r7
 8004d0a:	f85d 7b04 	ldr.w	r7, [sp], #4
 8004d0e:	4770      	bx	lr

08004d10 <Task1>:
 8004d10:	b580      	push	{r7, lr}
 8004d12:	b082      	sub	sp, #8
 8004d14:	af00      	add	r7, sp, #0
 8004d16:	6078      	str	r0, [r7, #4]
 8004d18:	f7ff ffd6 	bl	8004cc8 <LED_0_Toggle>
 8004d1c:	f44f 70fa 	mov.w	r0, #500	; 0x1f4
 8004d20:	f7fe fe4c 	bl	80039bc <OS_Block_Current_Task>
 8004d24:	e7f8      	b.n	8004d18 <Task1+0x8>
 8004d26:	bf00      	nop

08004d28 <Task2>:
 8004d28:	b580      	push	{r7, lr}
 8004d2a:	b084      	sub	sp, #16
 8004d2c:	af00      	add	r7, sp, #0
 8004d2e:	6078      	str	r0, [r7, #4]
 8004d30:	2300      	movs	r3, #0
 8004d32:	60fb      	str	r3, [r7, #12]
 8004d34:	f7ff ffda 	bl	8004cec <LED_1_Toggle>
 8004d38:	2064      	movs	r0, #100	; 0x64
 8004d3a:	f7fe fe3f 	bl	80039bc <OS_Block_Current_Task>
 8004d3e:	e7f9      	b.n	8004d34 <Task2+0xc>

08004d40 <Task3>:
 8004d40:	b580      	push	{r7, lr}
 8004d42:	b090      	sub	sp, #64	; 0x40
 8004d44:	af00      	add	r7, sp, #0
 8004d46:	6078      	str	r0, [r7, #4]
 8004d48:	2300      	movs	r3, #0
 8004d4a:	63fb      	str	r3, [r7, #60]	; 0x3c
 8004d4c:	2004      	movs	r0, #4
 8004d4e:	210a      	movs	r1, #10
 8004d50:	f7fe fbb2 	bl	80034b8 <OS_Create_Queue>
 8004d54:	63b8      	str	r0, [r7, #56]	; 0x38
 8004d56:	2020      	movs	r0, #32
 8004d58:	2105      	movs	r1, #5
 8004d5a:	f7fe fbad 	bl	80034b8 <OS_Create_Queue>
 8004d5e:	6378      	str	r0, [r7, #52]	; 0x34
 8004d60:	6bfb      	ldr	r3, [r7, #60]	; 0x3c
 8004d62:	1c5a      	adds	r2, r3, #1
 8004d64:	63fa      	str	r2, [r7, #60]	; 0x3c
 8004d66:	f24d 00e0 	movw	r0, #53472	; 0xd0e0
 8004d6a:	f6c0 0000 	movt	r0, #2048	; 0x800
 8004d6e:	4619      	mov	r1, r3
 8004d70:	f001 ff88 	bl	8006c84 <Uart1_Printf>
 8004d74:	f04f 33ff 	mov.w	r3, #4294967295
 8004d78:	60bb      	str	r3, [r7, #8]
 8004d7a:	f107 0308 	add.w	r3, r7, #8
 8004d7e:	6bb8      	ldr	r0, [r7, #56]	; 0x38
 8004d80:	4619      	mov	r1, r3
 8004d82:	2204      	movs	r2, #4
 8004d84:	f241 3388 	movw	r3, #5000	; 0x1388
 8004d88:	f7fe fcf8 	bl	800377c <OS_Signal_Wait>
 8004d8c:	6338      	str	r0, [r7, #48]	; 0x30
 8004d8e:	f24d 00ec 	movw	r0, #53484	; 0xd0ec
 8004d92:	f6c0 0000 	movt	r0, #2048	; 0x800
 8004d96:	6b39      	ldr	r1, [r7, #48]	; 0x30
 8004d98:	f001 ff74 	bl	8006c84 <Uart1_Printf>
 8004d9c:	6b3b      	ldr	r3, [r7, #48]	; 0x30
 8004d9e:	f1b3 3fff 	cmp.w	r3, #4294967295
 8004da2:	d106      	bne.n	8004db2 <Task3+0x72>
 8004da4:	f24d 1000 	movw	r0, #53504	; 0xd100
 8004da8:	f6c0 0000 	movt	r0, #2048	; 0x800
 8004dac:	f001 ff6a 	bl	8006c84 <Uart1_Printf>
 8004db0:	e02b      	b.n	8004e0a <Task3+0xca>
 8004db2:	6b3b      	ldr	r3, [r7, #48]	; 0x30
 8004db4:	f113 0f02 	cmn.w	r3, #2
 8004db8:	d106      	bne.n	8004dc8 <Task3+0x88>
 8004dba:	f24d 1010 	movw	r0, #53520	; 0xd110
 8004dbe:	f6c0 0000 	movt	r0, #2048	; 0x800
 8004dc2:	f001 ff5f 	bl	8006c84 <Uart1_Printf>
 8004dc6:	e020      	b.n	8004e0a <Task3+0xca>
 8004dc8:	6b3b      	ldr	r3, [r7, #48]	; 0x30
 8004dca:	f113 0f03 	cmn.w	r3, #3
 8004dce:	d106      	bne.n	8004dde <Task3+0x9e>
 8004dd0:	f24d 102c 	movw	r0, #53548	; 0xd12c
 8004dd4:	f6c0 0000 	movt	r0, #2048	; 0x800
 8004dd8:	f001 ff54 	bl	8006c84 <Uart1_Printf>
 8004ddc:	e015      	b.n	8004e0a <Task3+0xca>
 8004dde:	6b3b      	ldr	r3, [r7, #48]	; 0x30
 8004de0:	f113 0f04 	cmn.w	r3, #4
 8004de4:	d106      	bne.n	8004df4 <Task3+0xb4>
 8004de6:	f24d 103c 	movw	r0, #53564	; 0xd13c
 8004dea:	f6c0 0000 	movt	r0, #2048	; 0x800
 8004dee:	f001 ff49 	bl	8006c84 <Uart1_Printf>
 8004df2:	e00a      	b.n	8004e0a <Task3+0xca>
 8004df4:	6b3b      	ldr	r3, [r7, #48]	; 0x30
 8004df6:	2b00      	cmp	r3, #0
 8004df8:	d107      	bne.n	8004e0a <Task3+0xca>
 8004dfa:	68bb      	ldr	r3, [r7, #8]
 8004dfc:	f24d 1050 	movw	r0, #53584	; 0xd150
 8004e00:	f6c0 0000 	movt	r0, #2048	; 0x800
 8004e04:	4619      	mov	r1, r3
 8004e06:	f001 ff3d 	bl	8006c84 <Uart1_Printf>
 8004e0a:	f107 030c 	add.w	r3, r7, #12
 8004e0e:	6b78      	ldr	r0, [r7, #52]	; 0x34
 8004e10:	4619      	mov	r1, r3
 8004e12:	2220      	movs	r2, #32
 8004e14:	f241 3388 	movw	r3, #5000	; 0x1388
 8004e18:	f7fe fcb0 	bl	800377c <OS_Signal_Wait>
 8004e1c:	62f8      	str	r0, [r7, #44]	; 0x2c
 8004e1e:	f24d 1068 	movw	r0, #53608	; 0xd168
 8004e22:	f6c0 0000 	movt	r0, #2048	; 0x800
 8004e26:	6af9      	ldr	r1, [r7, #44]	; 0x2c
 8004e28:	f001 ff2c 	bl	8006c84 <Uart1_Printf>
 8004e2c:	6afb      	ldr	r3, [r7, #44]	; 0x2c
 8004e2e:	f1b3 3fff 	cmp.w	r3, #4294967295
 8004e32:	d106      	bne.n	8004e42 <Task3+0x102>
 8004e34:	f24d 1000 	movw	r0, #53504	; 0xd100
 8004e38:	f6c0 0000 	movt	r0, #2048	; 0x800
 8004e3c:	f001 ff22 	bl	8006c84 <Uart1_Printf>
 8004e40:	e02c      	b.n	8004e9c <Task3+0x15c>
 8004e42:	6afb      	ldr	r3, [r7, #44]	; 0x2c
 8004e44:	f113 0f02 	cmn.w	r3, #2
 8004e48:	d106      	bne.n	8004e58 <Task3+0x118>
 8004e4a:	f24d 1010 	movw	r0, #53520	; 0xd110
 8004e4e:	f6c0 0000 	movt	r0, #2048	; 0x800
 8004e52:	f001 ff17 	bl	8006c84 <Uart1_Printf>
 8004e56:	e021      	b.n	8004e9c <Task3+0x15c>
 8004e58:	6afb      	ldr	r3, [r7, #44]	; 0x2c
 8004e5a:	f113 0f03 	cmn.w	r3, #3
 8004e5e:	d106      	bne.n	8004e6e <Task3+0x12e>
 8004e60:	f24d 102c 	movw	r0, #53548	; 0xd12c
 8004e64:	f6c0 0000 	movt	r0, #2048	; 0x800
 8004e68:	f001 ff0c 	bl	8006c84 <Uart1_Printf>
 8004e6c:	e016      	b.n	8004e9c <Task3+0x15c>
 8004e6e:	6afb      	ldr	r3, [r7, #44]	; 0x2c
 8004e70:	f113 0f04 	cmn.w	r3, #4
 8004e74:	d106      	bne.n	8004e84 <Task3+0x144>
 8004e76:	f24d 103c 	movw	r0, #53564	; 0xd13c
 8004e7a:	f6c0 0000 	movt	r0, #2048	; 0x800
 8004e7e:	f001 ff01 	bl	8006c84 <Uart1_Printf>
 8004e82:	e00b      	b.n	8004e9c <Task3+0x15c>
 8004e84:	6afb      	ldr	r3, [r7, #44]	; 0x2c
 8004e86:	2b00      	cmp	r3, #0
 8004e88:	d108      	bne.n	8004e9c <Task3+0x15c>
 8004e8a:	f107 030c 	add.w	r3, r7, #12
 8004e8e:	f24d 107c 	movw	r0, #53628	; 0xd17c
 8004e92:	f6c0 0000 	movt	r0, #2048	; 0x800
 8004e96:	4619      	mov	r1, r3
 8004e98:	f001 fef4 	bl	8006c84 <Uart1_Printf>
 8004e9c:	f44f 70fa 	mov.w	r0, #500	; 0x1f4
 8004ea0:	f7fe fd8c 	bl	80039bc <OS_Block_Current_Task>
 8004ea4:	e75c      	b.n	8004d60 <Task3+0x20>
 8004ea6:	bf00      	nop

08004ea8 <TaskDummy>:
 8004ea8:	b580      	push	{r7, lr}
 8004eaa:	b082      	sub	sp, #8
 8004eac:	af00      	add	r7, sp, #0
 8004eae:	6078      	str	r0, [r7, #4]
 8004eb0:	f640 30b8 	movw	r0, #3000	; 0xbb8
 8004eb4:	f7fe fd82 	bl	80039bc <OS_Block_Current_Task>
 8004eb8:	f44f 707a 	mov.w	r0, #1000	; 0x3e8
 8004ebc:	f7fe fd7e 	bl	80039bc <OS_Block_Current_Task>
 8004ec0:	e7fa      	b.n	8004eb8 <TaskDummy+0x10>
 8004ec2:	bf00      	nop

08004ec4 <Main>:
 8004ec4:	b580      	push	{r7, lr}
 8004ec6:	af00      	add	r7, sp, #0
 8004ec8:	f24d 1094 	movw	r0, #53652	; 0xd194
 8004ecc:	f6c0 0000 	movt	r0, #2048	; 0x800
 8004ed0:	f001 fed8 	bl	8006c84 <Uart1_Printf>
 8004ed4:	f000 fee4 	bl	8005ca0 <snake_game>
 8004ed8:	e7fe      	b.n	8004ed8 <Main+0x14>
 8004eda:	bf00      	nop

08004edc <pq_init>:
 8004edc:	b480      	push	{r7}
 8004ede:	b083      	sub	sp, #12
 8004ee0:	af00      	add	r7, sp, #0
 8004ee2:	6078      	str	r0, [r7, #4]
 8004ee4:	687b      	ldr	r3, [r7, #4]
 8004ee6:	2200      	movs	r2, #0
 8004ee8:	f8c3 20f4 	str.w	r2, [r3, #244]	; 0xf4
 8004eec:	370c      	adds	r7, #12
 8004eee:	46bd      	mov	sp, r7
 8004ef0:	f85d 7b04 	ldr.w	r7, [sp], #4
 8004ef4:	4770      	bx	lr
 8004ef6:	bf00      	nop

08004ef8 <pq_compare_delay>:
 8004ef8:	b480      	push	{r7}
 8004efa:	b083      	sub	sp, #12
 8004efc:	af00      	add	r7, sp, #0
 8004efe:	6078      	str	r0, [r7, #4]
 8004f00:	6039      	str	r1, [r7, #0]
 8004f02:	687b      	ldr	r3, [r7, #4]
 8004f04:	68db      	ldr	r3, [r3, #12]
 8004f06:	2b01      	cmp	r3, #1
 8004f08:	d106      	bne.n	8004f18 <pq_compare_delay+0x20>
 8004f0a:	683b      	ldr	r3, [r7, #0]
 8004f0c:	68db      	ldr	r3, [r3, #12]
 8004f0e:	2b01      	cmp	r3, #1
 8004f10:	d002      	beq.n	8004f18 <pq_compare_delay+0x20>
 8004f12:	f04f 33ff 	mov.w	r3, #4294967295
 8004f16:	e012      	b.n	8004f3e <pq_compare_delay+0x46>
 8004f18:	687b      	ldr	r3, [r7, #4]
 8004f1a:	68db      	ldr	r3, [r3, #12]
 8004f1c:	2b01      	cmp	r3, #1
 8004f1e:	d005      	beq.n	8004f2c <pq_compare_delay+0x34>
 8004f20:	683b      	ldr	r3, [r7, #0]
 8004f22:	68db      	ldr	r3, [r3, #12]
 8004f24:	2b01      	cmp	r3, #1
 8004f26:	d101      	bne.n	8004f2c <pq_compare_delay+0x34>
 8004f28:	2301      	movs	r3, #1
 8004f2a:	e008      	b.n	8004f3e <pq_compare_delay+0x46>
 8004f2c:	687b      	ldr	r3, [r7, #4]
 8004f2e:	e9d3 2306 	ldrd	r2, r3, [r3, #24]
 8004f32:	4611      	mov	r1, r2
 8004f34:	683b      	ldr	r3, [r7, #0]
 8004f36:	e9d3 2306 	ldrd	r2, r3, [r3, #24]
 8004f3a:	4613      	mov	r3, r2
 8004f3c:	1acb      	subs	r3, r1, r3
 8004f3e:	4618      	mov	r0, r3
 8004f40:	370c      	adds	r7, #12
 8004f42:	46bd      	mov	sp, r7
 8004f44:	f85d 7b04 	ldr.w	r7, [sp], #4
 8004f48:	4770      	bx	lr
 8004f4a:	bf00      	nop

08004f4c <pq_compare_ready>:
 8004f4c:	b480      	push	{r7}
 8004f4e:	b083      	sub	sp, #12
 8004f50:	af00      	add	r7, sp, #0
 8004f52:	6078      	str	r0, [r7, #4]
 8004f54:	6039      	str	r1, [r7, #0]
 8004f56:	687b      	ldr	r3, [r7, #4]
 8004f58:	68db      	ldr	r3, [r3, #12]
 8004f5a:	2b00      	cmp	r3, #0
 8004f5c:	d106      	bne.n	8004f6c <pq_compare_ready+0x20>
 8004f5e:	683b      	ldr	r3, [r7, #0]
 8004f60:	68db      	ldr	r3, [r3, #12]
 8004f62:	2b00      	cmp	r3, #0
 8004f64:	d002      	beq.n	8004f6c <pq_compare_ready+0x20>
 8004f66:	f04f 33ff 	mov.w	r3, #4294967295
 8004f6a:	e01e      	b.n	8004faa <pq_compare_ready+0x5e>
 8004f6c:	687b      	ldr	r3, [r7, #4]
 8004f6e:	68db      	ldr	r3, [r3, #12]
 8004f70:	2b00      	cmp	r3, #0
 8004f72:	d005      	beq.n	8004f80 <pq_compare_ready+0x34>
 8004f74:	683b      	ldr	r3, [r7, #0]
 8004f76:	68db      	ldr	r3, [r3, #12]
 8004f78:	2b00      	cmp	r3, #0
 8004f7a:	d101      	bne.n	8004f80 <pq_compare_ready+0x34>
 8004f7c:	2301      	movs	r3, #1
 8004f7e:	e014      	b.n	8004faa <pq_compare_ready+0x5e>
 8004f80:	687b      	ldr	r3, [r7, #4]
 8004f82:	689a      	ldr	r2, [r3, #8]
 8004f84:	683b      	ldr	r3, [r7, #0]
 8004f86:	689b      	ldr	r3, [r3, #8]
 8004f88:	429a      	cmp	r2, r3
 8004f8a:	d005      	beq.n	8004f98 <pq_compare_ready+0x4c>
 8004f8c:	687b      	ldr	r3, [r7, #4]
 8004f8e:	689a      	ldr	r2, [r3, #8]
 8004f90:	683b      	ldr	r3, [r7, #0]
 8004f92:	689b      	ldr	r3, [r3, #8]
 8004f94:	1ad3      	subs	r3, r2, r3
 8004f96:	e008      	b.n	8004faa <pq_compare_ready+0x5e>
 8004f98:	687b      	ldr	r3, [r7, #4]
 8004f9a:	e9d3 2304 	ldrd	r2, r3, [r3, #16]
 8004f9e:	4611      	mov	r1, r2
 8004fa0:	683b      	ldr	r3, [r7, #0]
 8004fa2:	e9d3 2304 	ldrd	r2, r3, [r3, #16]
 8004fa6:	4613      	mov	r3, r2
 8004fa8:	1acb      	subs	r3, r1, r3
 8004faa:	4618      	mov	r0, r3
 8004fac:	370c      	adds	r7, #12
 8004fae:	46bd      	mov	sp, r7
 8004fb0:	f85d 7b04 	ldr.w	r7, [sp], #4
 8004fb4:	4770      	bx	lr
 8004fb6:	bf00      	nop

08004fb8 <pq_swap>:
 8004fb8:	b480      	push	{r7}
 8004fba:	b085      	sub	sp, #20
 8004fbc:	af00      	add	r7, sp, #0
 8004fbe:	6078      	str	r0, [r7, #4]
 8004fc0:	6039      	str	r1, [r7, #0]
 8004fc2:	687b      	ldr	r3, [r7, #4]
 8004fc4:	681b      	ldr	r3, [r3, #0]
 8004fc6:	60fb      	str	r3, [r7, #12]
 8004fc8:	683b      	ldr	r3, [r7, #0]
 8004fca:	681a      	ldr	r2, [r3, #0]
 8004fcc:	687b      	ldr	r3, [r7, #4]
 8004fce:	601a      	str	r2, [r3, #0]
 8004fd0:	683b      	ldr	r3, [r7, #0]
 8004fd2:	68fa      	ldr	r2, [r7, #12]
 8004fd4:	601a      	str	r2, [r3, #0]
 8004fd6:	687b      	ldr	r3, [r7, #4]
 8004fd8:	681b      	ldr	r3, [r3, #0]
 8004fda:	6a1b      	ldr	r3, [r3, #32]
 8004fdc:	60bb      	str	r3, [r7, #8]
 8004fde:	687b      	ldr	r3, [r7, #4]
 8004fe0:	681b      	ldr	r3, [r3, #0]
 8004fe2:	683a      	ldr	r2, [r7, #0]
 8004fe4:	6812      	ldr	r2, [r2, #0]
 8004fe6:	6a12      	ldr	r2, [r2, #32]
 8004fe8:	621a      	str	r2, [r3, #32]
 8004fea:	683b      	ldr	r3, [r7, #0]
 8004fec:	681b      	ldr	r3, [r3, #0]
 8004fee:	68ba      	ldr	r2, [r7, #8]
 8004ff0:	621a      	str	r2, [r3, #32]
 8004ff2:	3714      	adds	r7, #20
 8004ff4:	46bd      	mov	sp, r7
 8004ff6:	f85d 7b04 	ldr.w	r7, [sp], #4
 8004ffa:	4770      	bx	lr

08004ffc <pq_heapify_up>:
 8004ffc:	b580      	push	{r7, lr}
 8004ffe:	b084      	sub	sp, #16
 8005000:	af00      	add	r7, sp, #0
 8005002:	60f8      	str	r0, [r7, #12]
 8005004:	60b9      	str	r1, [r7, #8]
 8005006:	607a      	str	r2, [r7, #4]
 8005008:	e015      	b.n	8005036 <pq_heapify_up+0x3a>
 800500a:	68bb      	ldr	r3, [r7, #8]
 800500c:	009b      	lsls	r3, r3, #2
 800500e:	68fa      	ldr	r2, [r7, #12]
 8005010:	441a      	add	r2, r3
 8005012:	68bb      	ldr	r3, [r7, #8]
 8005014:	3b01      	subs	r3, #1
 8005016:	0fd9      	lsrs	r1, r3, #31
 8005018:	440b      	add	r3, r1
 800501a:	105b      	asrs	r3, r3, #1
 800501c:	009b      	lsls	r3, r3, #2
 800501e:	68f9      	ldr	r1, [r7, #12]
 8005020:	440b      	add	r3, r1
 8005022:	4610      	mov	r0, r2
 8005024:	4619      	mov	r1, r3
 8005026:	f7ff ffc7 	bl	8004fb8 <pq_swap>
 800502a:	68bb      	ldr	r3, [r7, #8]
 800502c:	3b01      	subs	r3, #1
 800502e:	0fda      	lsrs	r2, r3, #31
 8005030:	4413      	add	r3, r2
 8005032:	105b      	asrs	r3, r3, #1
 8005034:	60bb      	str	r3, [r7, #8]
 8005036:	68bb      	ldr	r3, [r7, #8]
 8005038:	2b00      	cmp	r3, #0
 800503a:	dd13      	ble.n	8005064 <pq_heapify_up+0x68>
 800503c:	68fb      	ldr	r3, [r7, #12]
 800503e:	68ba      	ldr	r2, [r7, #8]
 8005040:	f853 1022 	ldr.w	r1, [r3, r2, lsl #2]
 8005044:	68bb      	ldr	r3, [r7, #8]
 8005046:	3b01      	subs	r3, #1
 8005048:	0fda      	lsrs	r2, r3, #31
 800504a:	4413      	add	r3, r2
 800504c:	105b      	asrs	r3, r3, #1
 800504e:	461a      	mov	r2, r3
 8005050:	68fb      	ldr	r3, [r7, #12]
 8005052:	f853 2022 	ldr.w	r2, [r3, r2, lsl #2]
 8005056:	687b      	ldr	r3, [r7, #4]
 8005058:	4608      	mov	r0, r1
 800505a:	4611      	mov	r1, r2
 800505c:	4798      	blx	r3
 800505e:	4603      	mov	r3, r0
 8005060:	2b00      	cmp	r3, #0
 8005062:	dbd2      	blt.n	800500a <pq_heapify_up+0xe>
 8005064:	3710      	adds	r7, #16
 8005066:	46bd      	mov	sp, r7
 8005068:	bd80      	pop	{r7, pc}
 800506a:	bf00      	nop

0800506c <pq_heapify_down>:
 800506c:	b580      	push	{r7, lr}
 800506e:	b088      	sub	sp, #32
 8005070:	af00      	add	r7, sp, #0
 8005072:	60f8      	str	r0, [r7, #12]
 8005074:	60b9      	str	r1, [r7, #8]
 8005076:	607a      	str	r2, [r7, #4]
 8005078:	68fb      	ldr	r3, [r7, #12]
 800507a:	f8d3 30f4 	ldr.w	r3, [r3, #244]	; 0xf4
 800507e:	61bb      	str	r3, [r7, #24]
 8005080:	e046      	b.n	8005110 <pq_heapify_down+0xa4>
 8005082:	68bb      	ldr	r3, [r7, #8]
 8005084:	61fb      	str	r3, [r7, #28]
 8005086:	68bb      	ldr	r3, [r7, #8]
 8005088:	005b      	lsls	r3, r3, #1
 800508a:	3301      	adds	r3, #1
 800508c:	617b      	str	r3, [r7, #20]
 800508e:	68bb      	ldr	r3, [r7, #8]
 8005090:	3301      	adds	r3, #1
 8005092:	005b      	lsls	r3, r3, #1
 8005094:	613b      	str	r3, [r7, #16]
 8005096:	697a      	ldr	r2, [r7, #20]
 8005098:	69bb      	ldr	r3, [r7, #24]
 800509a:	429a      	cmp	r2, r3
 800509c:	da10      	bge.n	80050c0 <pq_heapify_down+0x54>
 800509e:	68fb      	ldr	r3, [r7, #12]
 80050a0:	697a      	ldr	r2, [r7, #20]
 80050a2:	f853 1022 	ldr.w	r1, [r3, r2, lsl #2]
 80050a6:	68fb      	ldr	r3, [r7, #12]
 80050a8:	69fa      	ldr	r2, [r7, #28]
 80050aa:	f853 2022 	ldr.w	r2, [r3, r2, lsl #2]
 80050ae:	687b      	ldr	r3, [r7, #4]
 80050b0:	4608      	mov	r0, r1
 80050b2:	4611      	mov	r1, r2
 80050b4:	4798      	blx	r3
 80050b6:	4603      	mov	r3, r0
 80050b8:	2b00      	cmp	r3, #0
 80050ba:	da01      	bge.n	80050c0 <pq_heapify_down+0x54>
 80050bc:	697b      	ldr	r3, [r7, #20]
 80050be:	61fb      	str	r3, [r7, #28]
 80050c0:	693a      	ldr	r2, [r7, #16]
 80050c2:	69bb      	ldr	r3, [r7, #24]
 80050c4:	429a      	cmp	r2, r3
 80050c6:	da10      	bge.n	80050ea <pq_heapify_down+0x7e>
 80050c8:	68fb      	ldr	r3, [r7, #12]
 80050ca:	693a      	ldr	r2, [r7, #16]
 80050cc:	f853 1022 	ldr.w	r1, [r3, r2, lsl #2]
 80050d0:	68fb      	ldr	r3, [r7, #12]
 80050d2:	69fa      	ldr	r2, [r7, #28]
 80050d4:	f853 2022 	ldr.w	r2, [r3, r2, lsl #2]
 80050d8:	687b      	ldr	r3, [r7, #4]
 80050da:	4608      	mov	r0, r1
 80050dc:	4611      	mov	r1, r2
 80050de:	4798      	blx	r3
 80050e0:	4603      	mov	r3, r0
 80050e2:	2b00      	cmp	r3, #0
 80050e4:	da01      	bge.n	80050ea <pq_heapify_down+0x7e>
 80050e6:	693b      	ldr	r3, [r7, #16]
 80050e8:	61fb      	str	r3, [r7, #28]
 80050ea:	69fa      	ldr	r2, [r7, #28]
 80050ec:	68bb      	ldr	r3, [r7, #8]
 80050ee:	429a      	cmp	r2, r3
 80050f0:	d100      	bne.n	80050f4 <pq_heapify_down+0x88>
 80050f2:	e013      	b.n	800511c <pq_heapify_down+0xb0>
 80050f4:	68bb      	ldr	r3, [r7, #8]
 80050f6:	009b      	lsls	r3, r3, #2
 80050f8:	68fa      	ldr	r2, [r7, #12]
 80050fa:	441a      	add	r2, r3
 80050fc:	69fb      	ldr	r3, [r7, #28]
 80050fe:	009b      	lsls	r3, r3, #2
 8005100:	68f9      	ldr	r1, [r7, #12]
 8005102:	440b      	add	r3, r1
 8005104:	4610      	mov	r0, r2
 8005106:	4619      	mov	r1, r3
 8005108:	f7ff ff56 	bl	8004fb8 <pq_swap>
 800510c:	69fb      	ldr	r3, [r7, #28]
 800510e:	60bb      	str	r3, [r7, #8]
 8005110:	68bb      	ldr	r3, [r7, #8]
 8005112:	005b      	lsls	r3, r3, #1
 8005114:	1c5a      	adds	r2, r3, #1
 8005116:	69bb      	ldr	r3, [r7, #24]
 8005118:	429a      	cmp	r2, r3
 800511a:	dbb2      	blt.n	8005082 <pq_heapify_down+0x16>
 800511c:	3720      	adds	r7, #32
 800511e:	46bd      	mov	sp, r7
 8005120:	bd80      	pop	{r7, pc}
 8005122:	bf00      	nop

08005124 <pq_push>:
 8005124:	b580      	push	{r7, lr}
 8005126:	b084      	sub	sp, #16
 8005128:	af00      	add	r7, sp, #0
 800512a:	60f8      	str	r0, [r7, #12]
 800512c:	60b9      	str	r1, [r7, #8]
 800512e:	607a      	str	r2, [r7, #4]
 8005130:	68fb      	ldr	r3, [r7, #12]
 8005132:	f8d3 30f4 	ldr.w	r3, [r3, #244]	; 0xf4
 8005136:	2b3c      	cmp	r3, #60	; 0x3c
 8005138:	dd00      	ble.n	800513c <pq_push+0x18>
 800513a:	e019      	b.n	8005170 <pq_push+0x4c>
 800513c:	68fb      	ldr	r3, [r7, #12]
 800513e:	f8d3 20f4 	ldr.w	r2, [r3, #244]	; 0xf4
 8005142:	68fb      	ldr	r3, [r7, #12]
 8005144:	68b9      	ldr	r1, [r7, #8]
 8005146:	f843 1022 	str.w	r1, [r3, r2, lsl #2]
 800514a:	68fb      	ldr	r3, [r7, #12]
 800514c:	f8d3 20f4 	ldr.w	r2, [r3, #244]	; 0xf4
 8005150:	68bb      	ldr	r3, [r7, #8]
 8005152:	621a      	str	r2, [r3, #32]
 8005154:	68fb      	ldr	r3, [r7, #12]
 8005156:	f8d3 30f4 	ldr.w	r3, [r3, #244]	; 0xf4
 800515a:	1c5a      	adds	r2, r3, #1
 800515c:	68fb      	ldr	r3, [r7, #12]
 800515e:	f8c3 20f4 	str.w	r2, [r3, #244]	; 0xf4
 8005162:	68bb      	ldr	r3, [r7, #8]
 8005164:	6a1b      	ldr	r3, [r3, #32]
 8005166:	68f8      	ldr	r0, [r7, #12]
 8005168:	4619      	mov	r1, r3
 800516a:	687a      	ldr	r2, [r7, #4]
 800516c:	f7ff ff46 	bl	8004ffc <pq_heapify_up>
 8005170:	3710      	adds	r7, #16
 8005172:	46bd      	mov	sp, r7
 8005174:	bd80      	pop	{r7, pc}
 8005176:	bf00      	nop

08005178 <pq_pop>:
 8005178:	b580      	push	{r7, lr}
 800517a:	b084      	sub	sp, #16
 800517c:	af00      	add	r7, sp, #0
 800517e:	6078      	str	r0, [r7, #4]
 8005180:	6039      	str	r1, [r7, #0]
 8005182:	687b      	ldr	r3, [r7, #4]
 8005184:	f8d3 30f4 	ldr.w	r3, [r3, #244]	; 0xf4
 8005188:	2b00      	cmp	r3, #0
 800518a:	d101      	bne.n	8005190 <pq_pop+0x18>
 800518c:	2300      	movs	r3, #0
 800518e:	e020      	b.n	80051d2 <pq_pop+0x5a>
 8005190:	687b      	ldr	r3, [r7, #4]
 8005192:	681b      	ldr	r3, [r3, #0]
 8005194:	60fb      	str	r3, [r7, #12]
 8005196:	687b      	ldr	r3, [r7, #4]
 8005198:	f8d3 30f4 	ldr.w	r3, [r3, #244]	; 0xf4
 800519c:	1e5a      	subs	r2, r3, #1
 800519e:	687b      	ldr	r3, [r7, #4]
 80051a0:	f853 2022 	ldr.w	r2, [r3, r2, lsl #2]
 80051a4:	687b      	ldr	r3, [r7, #4]
 80051a6:	601a      	str	r2, [r3, #0]
 80051a8:	687b      	ldr	r3, [r7, #4]
 80051aa:	681b      	ldr	r3, [r3, #0]
 80051ac:	2200      	movs	r2, #0
 80051ae:	621a      	str	r2, [r3, #32]
 80051b0:	687b      	ldr	r3, [r7, #4]
 80051b2:	f8d3 30f4 	ldr.w	r3, [r3, #244]	; 0xf4
 80051b6:	1e5a      	subs	r2, r3, #1
 80051b8:	687b      	ldr	r3, [r7, #4]
 80051ba:	f8c3 20f4 	str.w	r2, [r3, #244]	; 0xf4
 80051be:	6878      	ldr	r0, [r7, #4]
 80051c0:	2100      	movs	r1, #0
 80051c2:	683a      	ldr	r2, [r7, #0]
 80051c4:	f7ff ff52 	bl	800506c <pq_heapify_down>
 80051c8:	68fb      	ldr	r3, [r7, #12]
 80051ca:	f04f 32ff 	mov.w	r2, #4294967295
 80051ce:	621a      	str	r2, [r3, #32]
 80051d0:	68fb      	ldr	r3, [r7, #12]
 80051d2:	4618      	mov	r0, r3
 80051d4:	3710      	adds	r7, #16
 80051d6:	46bd      	mov	sp, r7
 80051d8:	bd80      	pop	{r7, pc}
 80051da:	bf00      	nop

080051dc <pq_top>:
 80051dc:	b480      	push	{r7}
 80051de:	b083      	sub	sp, #12
 80051e0:	af00      	add	r7, sp, #0
 80051e2:	6078      	str	r0, [r7, #4]
 80051e4:	687b      	ldr	r3, [r7, #4]
 80051e6:	f8d3 30f4 	ldr.w	r3, [r3, #244]	; 0xf4
 80051ea:	2b00      	cmp	r3, #0
 80051ec:	d101      	bne.n	80051f2 <pq_top+0x16>
 80051ee:	2300      	movs	r3, #0
 80051f0:	e001      	b.n	80051f6 <pq_top+0x1a>
 80051f2:	687b      	ldr	r3, [r7, #4]
 80051f4:	681b      	ldr	r3, [r3, #0]
 80051f6:	4618      	mov	r0, r3
 80051f8:	370c      	adds	r7, #12
 80051fa:	46bd      	mov	sp, r7
 80051fc:	f85d 7b04 	ldr.w	r7, [sp], #4
 8005200:	4770      	bx	lr
 8005202:	bf00      	nop

08005204 <pq_remove>:
 8005204:	b580      	push	{r7, lr}
 8005206:	b086      	sub	sp, #24
 8005208:	af00      	add	r7, sp, #0
 800520a:	60f8      	str	r0, [r7, #12]
 800520c:	60b9      	str	r1, [r7, #8]
 800520e:	607a      	str	r2, [r7, #4]
 8005210:	68bb      	ldr	r3, [r7, #8]
 8005212:	6a1b      	ldr	r3, [r3, #32]
 8005214:	2b00      	cmp	r3, #0
 8005216:	db06      	blt.n	8005226 <pq_remove+0x22>
 8005218:	68bb      	ldr	r3, [r7, #8]
 800521a:	6a1a      	ldr	r2, [r3, #32]
 800521c:	68fb      	ldr	r3, [r7, #12]
 800521e:	f8d3 30f4 	ldr.w	r3, [r3, #244]	; 0xf4
 8005222:	429a      	cmp	r2, r3
 8005224:	db00      	blt.n	8005228 <pq_remove+0x24>
 8005226:	e028      	b.n	800527a <pq_remove+0x76>
 8005228:	68bb      	ldr	r3, [r7, #8]
 800522a:	6a1b      	ldr	r3, [r3, #32]
 800522c:	617b      	str	r3, [r7, #20]
 800522e:	68fb      	ldr	r3, [r7, #12]
 8005230:	f8d3 30f4 	ldr.w	r3, [r3, #244]	; 0xf4
 8005234:	1e5a      	subs	r2, r3, #1
 8005236:	68fb      	ldr	r3, [r7, #12]
 8005238:	f853 1022 	ldr.w	r1, [r3, r2, lsl #2]
 800523c:	68fb      	ldr	r3, [r7, #12]
 800523e:	697a      	ldr	r2, [r7, #20]
 8005240:	f843 1022 	str.w	r1, [r3, r2, lsl #2]
 8005244:	68fb      	ldr	r3, [r7, #12]
 8005246:	697a      	ldr	r2, [r7, #20]
 8005248:	f853 3022 	ldr.w	r3, [r3, r2, lsl #2]
 800524c:	697a      	ldr	r2, [r7, #20]
 800524e:	621a      	str	r2, [r3, #32]
 8005250:	68fb      	ldr	r3, [r7, #12]
 8005252:	f8d3 30f4 	ldr.w	r3, [r3, #244]	; 0xf4
 8005256:	1e5a      	subs	r2, r3, #1
 8005258:	68fb      	ldr	r3, [r7, #12]
 800525a:	f8c3 20f4 	str.w	r2, [r3, #244]	; 0xf4
 800525e:	68f8      	ldr	r0, [r7, #12]
 8005260:	6979      	ldr	r1, [r7, #20]
 8005262:	687a      	ldr	r2, [r7, #4]
 8005264:	f7ff feca 	bl	8004ffc <pq_heapify_up>
 8005268:	68f8      	ldr	r0, [r7, #12]
 800526a:	6979      	ldr	r1, [r7, #20]
 800526c:	687a      	ldr	r2, [r7, #4]
 800526e:	f7ff fefd 	bl	800506c <pq_heapify_down>
 8005272:	68bb      	ldr	r3, [r7, #8]
 8005274:	f04f 32ff 	mov.w	r2, #4294967295
 8005278:	621a      	str	r2, [r3, #32]
 800527a:	3718      	adds	r7, #24
 800527c:	46bd      	mov	sp, r7
 800527e:	bd80      	pop	{r7, pc}

08005280 <pq_update>:
 8005280:	b580      	push	{r7, lr}
 8005282:	b084      	sub	sp, #16
 8005284:	af00      	add	r7, sp, #0
 8005286:	60f8      	str	r0, [r7, #12]
 8005288:	60b9      	str	r1, [r7, #8]
 800528a:	607a      	str	r2, [r7, #4]
 800528c:	68bb      	ldr	r3, [r7, #8]
 800528e:	6a1b      	ldr	r3, [r3, #32]
 8005290:	2b00      	cmp	r3, #0
 8005292:	db06      	blt.n	80052a2 <pq_update+0x22>
 8005294:	68bb      	ldr	r3, [r7, #8]
 8005296:	6a1a      	ldr	r2, [r3, #32]
 8005298:	68fb      	ldr	r3, [r7, #12]
 800529a:	f8d3 30f4 	ldr.w	r3, [r3, #244]	; 0xf4
 800529e:	429a      	cmp	r2, r3
 80052a0:	db00      	blt.n	80052a4 <pq_update+0x24>
 80052a2:	e00d      	b.n	80052c0 <pq_update+0x40>
 80052a4:	68bb      	ldr	r3, [r7, #8]
 80052a6:	6a1b      	ldr	r3, [r3, #32]
 80052a8:	68f8      	ldr	r0, [r7, #12]
 80052aa:	4619      	mov	r1, r3
 80052ac:	687a      	ldr	r2, [r7, #4]
 80052ae:	f7ff fea5 	bl	8004ffc <pq_heapify_up>
 80052b2:	68bb      	ldr	r3, [r7, #8]
 80052b4:	6a1b      	ldr	r3, [r3, #32]
 80052b6:	68f8      	ldr	r0, [r7, #12]
 80052b8:	4619      	mov	r1, r3
 80052ba:	687a      	ldr	r2, [r7, #4]
 80052bc:	f7ff fed6 	bl	800506c <pq_heapify_down>
 80052c0:	3710      	adds	r7, #16
 80052c2:	46bd      	mov	sp, r7
 80052c4:	bd80      	pop	{r7, pc}
 80052c6:	bf00      	nop

080052c8 <_OS_Get_Buffer>:
 80052c8:	b480      	push	{r7}
 80052ca:	b083      	sub	sp, #12
 80052cc:	af00      	add	r7, sp, #0
 80052ce:	6078      	str	r0, [r7, #4]
 80052d0:	687b      	ldr	r3, [r7, #4]
 80052d2:	3307      	adds	r3, #7
 80052d4:	f023 0307 	bic.w	r3, r3, #7
 80052d8:	607b      	str	r3, [r7, #4]
 80052da:	f240 0310 	movw	r3, #16
 80052de:	f2c2 0300 	movt	r3, #8192	; 0x2000
 80052e2:	681a      	ldr	r2, [r3, #0]
 80052e4:	687b      	ldr	r3, [r7, #4]
 80052e6:	425b      	negs	r3, r3
 80052e8:	441a      	add	r2, r3
 80052ea:	f240 0314 	movw	r3, #20
 80052ee:	f2c2 0300 	movt	r3, #8192	; 0x2000
 80052f2:	681b      	ldr	r3, [r3, #0]
 80052f4:	429a      	cmp	r2, r3
 80052f6:	d201      	bcs.n	80052fc <_OS_Get_Buffer+0x34>
 80052f8:	2300      	movs	r3, #0
 80052fa:	e011      	b.n	8005320 <_OS_Get_Buffer+0x58>
 80052fc:	f240 0310 	movw	r3, #16
 8005300:	f2c2 0300 	movt	r3, #8192	; 0x2000
 8005304:	681a      	ldr	r2, [r3, #0]
 8005306:	687b      	ldr	r3, [r7, #4]
 8005308:	425b      	negs	r3, r3
 800530a:	441a      	add	r2, r3
 800530c:	f240 0310 	movw	r3, #16
 8005310:	f2c2 0300 	movt	r3, #8192	; 0x2000
 8005314:	601a      	str	r2, [r3, #0]
 8005316:	f240 0310 	movw	r3, #16
 800531a:	f2c2 0300 	movt	r3, #8192	; 0x2000
 800531e:	681b      	ldr	r3, [r3, #0]
 8005320:	4618      	mov	r0, r3
 8005322:	370c      	adds	r7, #12
 8005324:	46bd      	mov	sp, r7
 8005326:	f85d 7b04 	ldr.w	r7, [sp], #4
 800532a:	4770      	bx	lr

0800532c <createQueue>:
 800532c:	b580      	push	{r7, lr}
 800532e:	b086      	sub	sp, #24
 8005330:	af00      	add	r7, sp, #0
 8005332:	60f8      	str	r0, [r7, #12]
 8005334:	60b9      	str	r1, [r7, #8]
 8005336:	607a      	str	r2, [r7, #4]
 8005338:	603b      	str	r3, [r7, #0]
 800533a:	68fb      	ldr	r3, [r7, #12]
 800533c:	2200      	movs	r2, #0
 800533e:	601a      	str	r2, [r3, #0]
 8005340:	68fb      	ldr	r3, [r7, #12]
 8005342:	2200      	movs	r2, #0
 8005344:	605a      	str	r2, [r3, #4]
 8005346:	68fb      	ldr	r3, [r7, #12]
 8005348:	2200      	movs	r2, #0
 800534a:	609a      	str	r2, [r3, #8]
 800534c:	68fb      	ldr	r3, [r7, #12]
 800534e:	68ba      	ldr	r2, [r7, #8]
 8005350:	60da      	str	r2, [r3, #12]
 8005352:	68fb      	ldr	r3, [r7, #12]
 8005354:	683a      	ldr	r2, [r7, #0]
 8005356:	615a      	str	r2, [r3, #20]
 8005358:	2008      	movs	r0, #8
 800535a:	f7ff ffb5 	bl	80052c8 <_OS_Get_Buffer>
 800535e:	4602      	mov	r2, r0
 8005360:	68fb      	ldr	r3, [r7, #12]
 8005362:	611a      	str	r2, [r3, #16]
 8005364:	68fb      	ldr	r3, [r7, #12]
 8005366:	691b      	ldr	r3, [r3, #16]
 8005368:	2b00      	cmp	r3, #0
 800536a:	d102      	bne.n	8005372 <createQueue+0x46>
 800536c:	f04f 33ff 	mov.w	r3, #4294967295
 8005370:	e041      	b.n	80053f6 <createQueue+0xca>
 8005372:	687b      	ldr	r3, [r7, #4]
 8005374:	f1b3 3fff 	cmp.w	r3, #4294967295
 8005378:	d101      	bne.n	800537e <createQueue+0x52>
 800537a:	230a      	movs	r3, #10
 800537c:	607b      	str	r3, [r7, #4]
 800537e:	68fb      	ldr	r3, [r7, #12]
 8005380:	691b      	ldr	r3, [r3, #16]
 8005382:	617b      	str	r3, [r7, #20]
 8005384:	2300      	movs	r3, #0
 8005386:	613b      	str	r3, [r7, #16]
 8005388:	e01f      	b.n	80053ca <createQueue+0x9e>
 800538a:	68b8      	ldr	r0, [r7, #8]
 800538c:	f7ff ff9c 	bl	80052c8 <_OS_Get_Buffer>
 8005390:	4602      	mov	r2, r0
 8005392:	697b      	ldr	r3, [r7, #20]
 8005394:	601a      	str	r2, [r3, #0]
 8005396:	697b      	ldr	r3, [r7, #20]
 8005398:	681b      	ldr	r3, [r3, #0]
 800539a:	2b00      	cmp	r3, #0
 800539c:	d102      	bne.n	80053a4 <createQueue+0x78>
 800539e:	f04f 33ff 	mov.w	r3, #4294967295
 80053a2:	e028      	b.n	80053f6 <createQueue+0xca>
 80053a4:	2008      	movs	r0, #8
 80053a6:	f7ff ff8f 	bl	80052c8 <_OS_Get_Buffer>
 80053aa:	4602      	mov	r2, r0
 80053ac:	697b      	ldr	r3, [r7, #20]
 80053ae:	605a      	str	r2, [r3, #4]
 80053b0:	697b      	ldr	r3, [r7, #20]
 80053b2:	685b      	ldr	r3, [r3, #4]
 80053b4:	2b00      	cmp	r3, #0
 80053b6:	d102      	bne.n	80053be <createQueue+0x92>
 80053b8:	f04f 33ff 	mov.w	r3, #4294967295
 80053bc:	e01b      	b.n	80053f6 <createQueue+0xca>
 80053be:	697b      	ldr	r3, [r7, #20]
 80053c0:	685b      	ldr	r3, [r3, #4]
 80053c2:	617b      	str	r3, [r7, #20]
 80053c4:	693b      	ldr	r3, [r7, #16]
 80053c6:	3301      	adds	r3, #1
 80053c8:	613b      	str	r3, [r7, #16]
 80053ca:	687b      	ldr	r3, [r7, #4]
 80053cc:	1e5a      	subs	r2, r3, #1
 80053ce:	693b      	ldr	r3, [r7, #16]
 80053d0:	429a      	cmp	r2, r3
 80053d2:	dcda      	bgt.n	800538a <createQueue+0x5e>
 80053d4:	68b8      	ldr	r0, [r7, #8]
 80053d6:	f7ff ff77 	bl	80052c8 <_OS_Get_Buffer>
 80053da:	4602      	mov	r2, r0
 80053dc:	697b      	ldr	r3, [r7, #20]
 80053de:	601a      	str	r2, [r3, #0]
 80053e0:	697b      	ldr	r3, [r7, #20]
 80053e2:	681b      	ldr	r3, [r3, #0]
 80053e4:	2b00      	cmp	r3, #0
 80053e6:	d102      	bne.n	80053ee <createQueue+0xc2>
 80053e8:	f04f 33ff 	mov.w	r3, #4294967295
 80053ec:	e003      	b.n	80053f6 <createQueue+0xca>
 80053ee:	697b      	ldr	r3, [r7, #20]
 80053f0:	2200      	movs	r2, #0
 80053f2:	605a      	str	r2, [r3, #4]
 80053f4:	2300      	movs	r3, #0
 80053f6:	4618      	mov	r0, r3
 80053f8:	3718      	adds	r7, #24
 80053fa:	46bd      	mov	sp, r7
 80053fc:	bd80      	pop	{r7, pc}
 80053fe:	bf00      	nop

08005400 <enqueue>:
 8005400:	b580      	push	{r7, lr}
 8005402:	b084      	sub	sp, #16
 8005404:	af00      	add	r7, sp, #0
 8005406:	6078      	str	r0, [r7, #4]
 8005408:	6039      	str	r1, [r7, #0]
 800540a:	6878      	ldr	r0, [r7, #4]
 800540c:	f000 f888 	bl	8005520 <isFull>
 8005410:	4603      	mov	r3, r0
 8005412:	2b00      	cmp	r3, #0
 8005414:	d002      	beq.n	800541c <enqueue+0x1c>
 8005416:	f04f 33ff 	mov.w	r3, #4294967295
 800541a:	e02b      	b.n	8005474 <enqueue+0x74>
 800541c:	687b      	ldr	r3, [r7, #4]
 800541e:	691b      	ldr	r3, [r3, #16]
 8005420:	60fb      	str	r3, [r7, #12]
 8005422:	687b      	ldr	r3, [r7, #4]
 8005424:	691b      	ldr	r3, [r3, #16]
 8005426:	685a      	ldr	r2, [r3, #4]
 8005428:	687b      	ldr	r3, [r7, #4]
 800542a:	611a      	str	r2, [r3, #16]
 800542c:	68fb      	ldr	r3, [r7, #12]
 800542e:	681a      	ldr	r2, [r3, #0]
 8005430:	687b      	ldr	r3, [r7, #4]
 8005432:	68db      	ldr	r3, [r3, #12]
 8005434:	4610      	mov	r0, r2
 8005436:	6839      	ldr	r1, [r7, #0]
 8005438:	461a      	mov	r2, r3
 800543a:	f001 fd09 	bl	8006e50 <memcpy>
 800543e:	68fb      	ldr	r3, [r7, #12]
 8005440:	2200      	movs	r2, #0
 8005442:	605a      	str	r2, [r3, #4]
 8005444:	687b      	ldr	r3, [r7, #4]
 8005446:	685b      	ldr	r3, [r3, #4]
 8005448:	2b00      	cmp	r3, #0
 800544a:	d003      	beq.n	8005454 <enqueue+0x54>
 800544c:	687b      	ldr	r3, [r7, #4]
 800544e:	685b      	ldr	r3, [r3, #4]
 8005450:	68fa      	ldr	r2, [r7, #12]
 8005452:	605a      	str	r2, [r3, #4]
 8005454:	687b      	ldr	r3, [r7, #4]
 8005456:	68fa      	ldr	r2, [r7, #12]
 8005458:	605a      	str	r2, [r3, #4]
 800545a:	687b      	ldr	r3, [r7, #4]
 800545c:	681b      	ldr	r3, [r3, #0]
 800545e:	2b00      	cmp	r3, #0
 8005460:	d102      	bne.n	8005468 <enqueue+0x68>
 8005462:	687b      	ldr	r3, [r7, #4]
 8005464:	68fa      	ldr	r2, [r7, #12]
 8005466:	601a      	str	r2, [r3, #0]
 8005468:	687b      	ldr	r3, [r7, #4]
 800546a:	689b      	ldr	r3, [r3, #8]
 800546c:	1c5a      	adds	r2, r3, #1
 800546e:	687b      	ldr	r3, [r7, #4]
 8005470:	609a      	str	r2, [r3, #8]
 8005472:	2300      	movs	r3, #0
 8005474:	4618      	mov	r0, r3
 8005476:	3710      	adds	r7, #16
 8005478:	46bd      	mov	sp, r7
 800547a:	bd80      	pop	{r7, pc}

0800547c <dequeue>:
 800547c:	b580      	push	{r7, lr}
 800547e:	b086      	sub	sp, #24
 8005480:	af00      	add	r7, sp, #0
 8005482:	60f8      	str	r0, [r7, #12]
 8005484:	60b9      	str	r1, [r7, #8]
 8005486:	607a      	str	r2, [r7, #4]
 8005488:	68f8      	ldr	r0, [r7, #12]
 800548a:	f000 f837 	bl	80054fc <isEmpty>
 800548e:	4603      	mov	r3, r0
 8005490:	2b00      	cmp	r3, #0
 8005492:	d002      	beq.n	800549a <dequeue+0x1e>
 8005494:	f06f 0302 	mvn.w	r3, #2
 8005498:	e02c      	b.n	80054f4 <dequeue+0x78>
 800549a:	68fb      	ldr	r3, [r7, #12]
 800549c:	695a      	ldr	r2, [r3, #20]
 800549e:	687b      	ldr	r3, [r7, #4]
 80054a0:	429a      	cmp	r2, r3
 80054a2:	d002      	beq.n	80054aa <dequeue+0x2e>
 80054a4:	f06f 0301 	mvn.w	r3, #1
 80054a8:	e024      	b.n	80054f4 <dequeue+0x78>
 80054aa:	68fb      	ldr	r3, [r7, #12]
 80054ac:	681b      	ldr	r3, [r3, #0]
 80054ae:	617b      	str	r3, [r7, #20]
 80054b0:	697b      	ldr	r3, [r7, #20]
 80054b2:	681a      	ldr	r2, [r3, #0]
 80054b4:	68fb      	ldr	r3, [r7, #12]
 80054b6:	68db      	ldr	r3, [r3, #12]
 80054b8:	68b8      	ldr	r0, [r7, #8]
 80054ba:	4611      	mov	r1, r2
 80054bc:	461a      	mov	r2, r3
 80054be:	f001 fcc7 	bl	8006e50 <memcpy>
 80054c2:	68fb      	ldr	r3, [r7, #12]
 80054c4:	681b      	ldr	r3, [r3, #0]
 80054c6:	685a      	ldr	r2, [r3, #4]
 80054c8:	68fb      	ldr	r3, [r7, #12]
 80054ca:	601a      	str	r2, [r3, #0]
 80054cc:	68fb      	ldr	r3, [r7, #12]
 80054ce:	681b      	ldr	r3, [r3, #0]
 80054d0:	2b00      	cmp	r3, #0
 80054d2:	d102      	bne.n	80054da <dequeue+0x5e>
 80054d4:	68fb      	ldr	r3, [r7, #12]
 80054d6:	2200      	movs	r2, #0
 80054d8:	605a      	str	r2, [r3, #4]
 80054da:	68fb      	ldr	r3, [r7, #12]
 80054dc:	691a      	ldr	r2, [r3, #16]
 80054de:	697b      	ldr	r3, [r7, #20]
 80054e0:	605a      	str	r2, [r3, #4]
 80054e2:	68fb      	ldr	r3, [r7, #12]
 80054e4:	697a      	ldr	r2, [r7, #20]
 80054e6:	611a      	str	r2, [r3, #16]
 80054e8:	68fb      	ldr	r3, [r7, #12]
 80054ea:	689b      	ldr	r3, [r3, #8]
 80054ec:	1e5a      	subs	r2, r3, #1
 80054ee:	68fb      	ldr	r3, [r7, #12]
 80054f0:	609a      	str	r2, [r3, #8]
 80054f2:	2300      	movs	r3, #0
 80054f4:	4618      	mov	r0, r3
 80054f6:	3718      	adds	r7, #24
 80054f8:	46bd      	mov	sp, r7
 80054fa:	bd80      	pop	{r7, pc}

080054fc <isEmpty>:
 80054fc:	b480      	push	{r7}
 80054fe:	b083      	sub	sp, #12
 8005500:	af00      	add	r7, sp, #0
 8005502:	6078      	str	r0, [r7, #4]
 8005504:	687b      	ldr	r3, [r7, #4]
 8005506:	689b      	ldr	r3, [r3, #8]
 8005508:	2b00      	cmp	r3, #0
 800550a:	bf14      	ite	ne
 800550c:	2300      	movne	r3, #0
 800550e:	2301      	moveq	r3, #1
 8005510:	b2db      	uxtb	r3, r3
 8005512:	4618      	mov	r0, r3
 8005514:	370c      	adds	r7, #12
 8005516:	46bd      	mov	sp, r7
 8005518:	f85d 7b04 	ldr.w	r7, [sp], #4
 800551c:	4770      	bx	lr
 800551e:	bf00      	nop

08005520 <isFull>:
 8005520:	b480      	push	{r7}
 8005522:	b083      	sub	sp, #12
 8005524:	af00      	add	r7, sp, #0
 8005526:	6078      	str	r0, [r7, #4]
 8005528:	687b      	ldr	r3, [r7, #4]
 800552a:	689b      	ldr	r3, [r3, #8]
 800552c:	2b0a      	cmp	r3, #10
 800552e:	bf14      	ite	ne
 8005530:	2300      	movne	r3, #0
 8005532:	2301      	moveq	r3, #1
 8005534:	b2db      	uxtb	r3, r3
 8005536:	4618      	mov	r0, r3
 8005538:	370c      	adds	r7, #12
 800553a:	46bd      	mov	sp, r7
 800553c:	f85d 7b04 	ldr.w	r7, [sp], #4
 8005540:	4770      	bx	lr
 8005542:	bf00      	nop

08005544 <_sbrk>:
 8005544:	b480      	push	{r7}
 8005546:	b085      	sub	sp, #20
 8005548:	af00      	add	r7, sp, #0
 800554a:	6078      	str	r0, [r7, #4]
 800554c:	f244 53c8 	movw	r3, #17864	; 0x45c8
 8005550:	f2c2 0300 	movt	r3, #8192	; 0x2000
 8005554:	681b      	ldr	r3, [r3, #0]
 8005556:	2b00      	cmp	r3, #0
 8005558:	d10c      	bne.n	8005574 <_sbrk+0x30>
 800555a:	f644 4394 	movw	r3, #19604	; 0x4c94
 800555e:	f2c2 0300 	movt	r3, #8192	; 0x2000
 8005562:	3307      	adds	r3, #7
 8005564:	f023 0307 	bic.w	r3, r3, #7
 8005568:	461a      	mov	r2, r3
 800556a:	f244 53c8 	movw	r3, #17864	; 0x45c8
 800556e:	f2c2 0300 	movt	r3, #8192	; 0x2000
 8005572:	601a      	str	r2, [r3, #0]
 8005574:	f244 53c8 	movw	r3, #17864	; 0x45c8
 8005578:	f2c2 0300 	movt	r3, #8192	; 0x2000
 800557c:	681b      	ldr	r3, [r3, #0]
 800557e:	60fb      	str	r3, [r7, #12]
 8005580:	f244 53c8 	movw	r3, #17864	; 0x45c8
 8005584:	f2c2 0300 	movt	r3, #8192	; 0x2000
 8005588:	681b      	ldr	r3, [r3, #0]
 800558a:	461a      	mov	r2, r3
 800558c:	687b      	ldr	r3, [r7, #4]
 800558e:	4413      	add	r3, r2
 8005590:	3307      	adds	r3, #7
 8005592:	f023 0307 	bic.w	r3, r3, #7
 8005596:	60bb      	str	r3, [r7, #8]
 8005598:	68ba      	ldr	r2, [r7, #8]
 800559a:	f644 4394 	movw	r3, #19604	; 0x4c94
 800559e:	f2c2 0300 	movt	r3, #8192	; 0x2000
 80055a2:	3307      	adds	r3, #7
 80055a4:	f023 0307 	bic.w	r3, r3, #7
 80055a8:	f503 5380 	add.w	r3, r3, #4096	; 0x1000
 80055ac:	429a      	cmp	r2, r3
 80055ae:	d301      	bcc.n	80055b4 <_sbrk+0x70>
 80055b0:	2300      	movs	r3, #0
 80055b2:	e006      	b.n	80055c2 <_sbrk+0x7e>
 80055b4:	f244 53c8 	movw	r3, #17864	; 0x45c8
 80055b8:	f2c2 0300 	movt	r3, #8192	; 0x2000
 80055bc:	68ba      	ldr	r2, [r7, #8]
 80055be:	601a      	str	r2, [r3, #0]
 80055c0:	68fb      	ldr	r3, [r7, #12]
 80055c2:	4618      	mov	r0, r3
 80055c4:	3714      	adds	r7, #20
 80055c6:	46bd      	mov	sp, r7
 80055c8:	f85d 7b04 	ldr.w	r7, [sp], #4
 80055cc:	4770      	bx	lr
 80055ce:	bf00      	nop

080055d0 <System_Init>:
 80055d0:	b580      	push	{r7, lr}
 80055d2:	af00      	add	r7, sp, #0
 80055d4:	f44f 30e1 	mov.w	r0, #115200	; 0x1c200
 80055d8:	f001 fa58 	bl	8006a8c <Uart1_Init>
 80055dc:	2001      	movs	r0, #1
 80055de:	f001 fb6b 	bl	8006cb8 <Uart1_RX_Interrupt_Enable>
 80055e2:	f7fe fc55 	bl	8003e90 <Key_Poll_Init>
 80055e6:	2001      	movs	r0, #1
 80055e8:	f7fe fd1a 	bl	8004020 <Key_ISR_Enable>
 80055ec:	f7ff f9ac 	bl	8004948 <Lcd_Init>
 80055f0:	f7ff fafe 	bl	8004bf0 <LED_Init>
 80055f4:	f44f 436d 	mov.w	r3, #60672	; 0xed00
 80055f8:	f2ce 0300 	movt	r3, #57344	; 0xe000
 80055fc:	f44f 5240 	mov.w	r2, #12288	; 0x3000
 8005600:	f6c0 0200 	movt	r2, #2048	; 0x800
 8005604:	609a      	str	r2, [r3, #8]
 8005606:	f44f 436d 	mov.w	r3, #60672	; 0xed00
 800560a:	f2ce 0300 	movt	r3, #57344	; 0xe000
 800560e:	f44f 22e0 	mov.w	r2, #458752	; 0x70000
 8005612:	625a      	str	r2, [r3, #36]	; 0x24
 8005614:	f44f 436d 	mov.w	r3, #60672	; 0xed00
 8005618:	f2ce 0300 	movt	r3, #57344	; 0xe000
 800561c:	2200      	movs	r2, #0
 800561e:	f2c0 52fa 	movt	r2, #1530	; 0x5fa
 8005622:	60da      	str	r2, [r3, #12]
 8005624:	bd80      	pop	{r7, pc}
 8005626:	bf00      	nop

08005628 <setup>:
 8005628:	b580      	push	{r7, lr}
 800562a:	af00      	add	r7, sp, #0
 800562c:	f644 03ec 	movw	r3, #18668	; 0x48ec
 8005630:	f2c2 0300 	movt	r3, #8192	; 0x2000
 8005634:	2200      	movs	r2, #0
 8005636:	601a      	str	r2, [r3, #0]
 8005638:	f644 03f0 	movw	r3, #18672	; 0x48f0
 800563c:	f2c2 0300 	movt	r3, #8192	; 0x2000
 8005640:	2201      	movs	r2, #1
 8005642:	601a      	str	r2, [r3, #0]
 8005644:	f644 03f4 	movw	r3, #18676	; 0x48f4
 8005648:	f2c2 0300 	movt	r3, #8192	; 0x2000
 800564c:	2200      	movs	r2, #0
 800564e:	601a      	str	r2, [r3, #0]
 8005650:	f644 4328 	movw	r3, #19496	; 0x4c28
 8005654:	f2c2 0300 	movt	r3, #8192	; 0x2000
 8005658:	2200      	movs	r2, #0
 800565a:	701a      	strb	r2, [r3, #0]
 800565c:	f644 03f8 	movw	r3, #18680	; 0x48f8
 8005660:	f2c2 0300 	movt	r3, #8192	; 0x2000
 8005664:	2206      	movs	r2, #6
 8005666:	601a      	str	r2, [r3, #0]
 8005668:	f644 03f8 	movw	r3, #18680	; 0x48f8
 800566c:	f2c2 0300 	movt	r3, #8192	; 0x2000
 8005670:	2206      	movs	r2, #6
 8005672:	605a      	str	r2, [r3, #4]
 8005674:	f644 03f8 	movw	r3, #18680	; 0x48f8
 8005678:	f2c2 0300 	movt	r3, #8192	; 0x2000
 800567c:	2206      	movs	r2, #6
 800567e:	f8c3 2320 	str.w	r2, [r3, #800]	; 0x320
 8005682:	f644 03f8 	movw	r3, #18680	; 0x48f8
 8005686:	f2c2 0300 	movt	r3, #8192	; 0x2000
 800568a:	2206      	movs	r2, #6
 800568c:	f8c3 2324 	str.w	r2, [r3, #804]	; 0x324
 8005690:	2000      	movs	r0, #0
 8005692:	f001 fc31 	bl	8006ef8 <srand>
 8005696:	f644 4320 	movw	r3, #19488	; 0x4c20
 800569a:	f2c2 0300 	movt	r3, #8192	; 0x2000
 800569e:	2206      	movs	r2, #6
 80056a0:	601a      	str	r2, [r3, #0]
 80056a2:	f644 4320 	movw	r3, #19488	; 0x4c20
 80056a6:	f2c2 0300 	movt	r3, #8192	; 0x2000
 80056aa:	2203      	movs	r2, #3
 80056ac:	605a      	str	r2, [r3, #4]
 80056ae:	bd80      	pop	{r7, pc}

080056b0 <draw_init>:
 80056b0:	b580      	push	{r7, lr}
 80056b2:	b086      	sub	sp, #24
 80056b4:	af02      	add	r7, sp, #8
 80056b6:	2300      	movs	r3, #0
 80056b8:	60fb      	str	r3, [r7, #12]
 80056ba:	e03a      	b.n	8005732 <draw_init+0x82>
 80056bc:	68fa      	ldr	r2, [r7, #12]
 80056be:	4613      	mov	r3, r2
 80056c0:	009b      	lsls	r3, r3, #2
 80056c2:	4413      	add	r3, r2
 80056c4:	009b      	lsls	r3, r3, #2
 80056c6:	f64f 72ff 	movw	r2, #65535	; 0xffff
 80056ca:	9200      	str	r2, [sp, #0]
 80056cc:	4618      	mov	r0, r3
 80056ce:	2100      	movs	r1, #0
 80056d0:	2214      	movs	r2, #20
 80056d2:	2314      	movs	r3, #20
 80056d4:	f7ff f8c8 	bl	8004868 <Lcd_Draw_Box>
 80056d8:	68fa      	ldr	r2, [r7, #12]
 80056da:	4613      	mov	r3, r2
 80056dc:	009b      	lsls	r3, r3, #2
 80056de:	4413      	add	r3, r2
 80056e0:	009b      	lsls	r3, r3, #2
 80056e2:	f64f 72ff 	movw	r2, #65535	; 0xffff
 80056e6:	9200      	str	r2, [sp, #0]
 80056e8:	2000      	movs	r0, #0
 80056ea:	4619      	mov	r1, r3
 80056ec:	2214      	movs	r2, #20
 80056ee:	2314      	movs	r3, #20
 80056f0:	f7ff f8ba 	bl	8004868 <Lcd_Draw_Box>
 80056f4:	68fa      	ldr	r2, [r7, #12]
 80056f6:	4613      	mov	r3, r2
 80056f8:	009b      	lsls	r3, r3, #2
 80056fa:	4413      	add	r3, r2
 80056fc:	009b      	lsls	r3, r3, #2
 80056fe:	f64f 72ff 	movw	r2, #65535	; 0xffff
 8005702:	9200      	str	r2, [sp, #0]
 8005704:	4618      	mov	r0, r3
 8005706:	21dc      	movs	r1, #220	; 0xdc
 8005708:	2214      	movs	r2, #20
 800570a:	2314      	movs	r3, #20
 800570c:	f7ff f8ac 	bl	8004868 <Lcd_Draw_Box>
 8005710:	68fa      	ldr	r2, [r7, #12]
 8005712:	4613      	mov	r3, r2
 8005714:	009b      	lsls	r3, r3, #2
 8005716:	4413      	add	r3, r2
 8005718:	009b      	lsls	r3, r3, #2
 800571a:	f64f 72ff 	movw	r2, #65535	; 0xffff
 800571e:	9200      	str	r2, [sp, #0]
 8005720:	20dc      	movs	r0, #220	; 0xdc
 8005722:	4619      	mov	r1, r3
 8005724:	2214      	movs	r2, #20
 8005726:	2314      	movs	r3, #20
 8005728:	f7ff f89e 	bl	8004868 <Lcd_Draw_Box>
 800572c:	68fb      	ldr	r3, [r7, #12]
 800572e:	3301      	adds	r3, #1
 8005730:	60fb      	str	r3, [r7, #12]
 8005732:	68fb      	ldr	r3, [r7, #12]
 8005734:	2b0b      	cmp	r3, #11
 8005736:	ddc1      	ble.n	80056bc <draw_init+0xc>
 8005738:	2301      	movs	r3, #1
 800573a:	60fb      	str	r3, [r7, #12]
 800573c:	e081      	b.n	8005842 <draw_init+0x192>
 800573e:	2301      	movs	r3, #1
 8005740:	60bb      	str	r3, [r7, #8]
 8005742:	e078      	b.n	8005836 <draw_init+0x186>
 8005744:	2300      	movs	r3, #0
 8005746:	607b      	str	r3, [r7, #4]
 8005748:	2300      	movs	r3, #0
 800574a:	603b      	str	r3, [r7, #0]
 800574c:	f644 03f8 	movw	r3, #18680	; 0x48f8
 8005750:	f2c2 0300 	movt	r3, #8192	; 0x2000
 8005754:	681a      	ldr	r2, [r3, #0]
 8005756:	68bb      	ldr	r3, [r7, #8]
 8005758:	429a      	cmp	r2, r3
 800575a:	d120      	bne.n	800579e <draw_init+0xee>
 800575c:	f644 03f8 	movw	r3, #18680	; 0x48f8
 8005760:	f2c2 0300 	movt	r3, #8192	; 0x2000
 8005764:	685a      	ldr	r2, [r3, #4]
 8005766:	68fb      	ldr	r3, [r7, #12]
 8005768:	429a      	cmp	r2, r3
 800576a:	d118      	bne.n	800579e <draw_init+0xee>
 800576c:	68ba      	ldr	r2, [r7, #8]
 800576e:	4613      	mov	r3, r2
 8005770:	009b      	lsls	r3, r3, #2
 8005772:	4413      	add	r3, r2
 8005774:	009b      	lsls	r3, r3, #2
 8005776:	4619      	mov	r1, r3
 8005778:	68fa      	ldr	r2, [r7, #12]
 800577a:	4613      	mov	r3, r2
 800577c:	009b      	lsls	r3, r3, #2
 800577e:	4413      	add	r3, r2
 8005780:	009b      	lsls	r3, r3, #2
 8005782:	461a      	mov	r2, r3
 8005784:	f240 6358 	movw	r3, #1624	; 0x658
 8005788:	f2c2 0300 	movt	r3, #8192	; 0x2000
 800578c:	9300      	str	r3, [sp, #0]
 800578e:	4608      	mov	r0, r1
 8005790:	4611      	mov	r1, r2
 8005792:	2214      	movs	r2, #20
 8005794:	2314      	movs	r3, #20
 8005796:	f000 fbf7 	bl	8005f88 <Lcd_Draw_IMG>
 800579a:	2301      	movs	r3, #1
 800579c:	607b      	str	r3, [r7, #4]
 800579e:	687b      	ldr	r3, [r7, #4]
 80057a0:	2b00      	cmp	r3, #0
 80057a2:	d128      	bne.n	80057f6 <draw_init+0x146>
 80057a4:	f644 4320 	movw	r3, #19488	; 0x4c20
 80057a8:	f2c2 0300 	movt	r3, #8192	; 0x2000
 80057ac:	681a      	ldr	r2, [r3, #0]
 80057ae:	68bb      	ldr	r3, [r7, #8]
 80057b0:	429a      	cmp	r2, r3
 80057b2:	d120      	bne.n	80057f6 <draw_init+0x146>
 80057b4:	f644 4320 	movw	r3, #19488	; 0x4c20
 80057b8:	f2c2 0300 	movt	r3, #8192	; 0x2000
 80057bc:	685a      	ldr	r2, [r3, #4]
 80057be:	68fb      	ldr	r3, [r7, #12]
 80057c0:	429a      	cmp	r2, r3
 80057c2:	d118      	bne.n	80057f6 <draw_init+0x146>
 80057c4:	68ba      	ldr	r2, [r7, #8]
 80057c6:	4613      	mov	r3, r2
 80057c8:	009b      	lsls	r3, r3, #2
 80057ca:	4413      	add	r3, r2
 80057cc:	009b      	lsls	r3, r3, #2
 80057ce:	4619      	mov	r1, r3
 80057d0:	68fa      	ldr	r2, [r7, #12]
 80057d2:	4613      	mov	r3, r2
 80057d4:	009b      	lsls	r3, r3, #2
 80057d6:	4413      	add	r3, r2
 80057d8:	009b      	lsls	r3, r3, #2
 80057da:	461a      	mov	r2, r3
 80057dc:	f240 0318 	movw	r3, #24
 80057e0:	f2c2 0300 	movt	r3, #8192	; 0x2000
 80057e4:	9300      	str	r3, [sp, #0]
 80057e6:	4608      	mov	r0, r1
 80057e8:	4611      	mov	r1, r2
 80057ea:	2214      	movs	r2, #20
 80057ec:	2314      	movs	r3, #20
 80057ee:	f000 fbcb 	bl	8005f88 <Lcd_Draw_IMG>
 80057f2:	2301      	movs	r3, #1
 80057f4:	603b      	str	r3, [r7, #0]
 80057f6:	683b      	ldr	r3, [r7, #0]
 80057f8:	2b00      	cmp	r3, #0
 80057fa:	d119      	bne.n	8005830 <draw_init+0x180>
 80057fc:	687b      	ldr	r3, [r7, #4]
 80057fe:	2b00      	cmp	r3, #0
 8005800:	d116      	bne.n	8005830 <draw_init+0x180>
 8005802:	68ba      	ldr	r2, [r7, #8]
 8005804:	4613      	mov	r3, r2
 8005806:	009b      	lsls	r3, r3, #2
 8005808:	4413      	add	r3, r2
 800580a:	009b      	lsls	r3, r3, #2
 800580c:	4619      	mov	r1, r3
 800580e:	68fa      	ldr	r2, [r7, #12]
 8005810:	4613      	mov	r3, r2
 8005812:	009b      	lsls	r3, r3, #2
 8005814:	4413      	add	r3, r2
 8005816:	009b      	lsls	r3, r3, #2
 8005818:	461a      	mov	r2, r3
 800581a:	f240 3338 	movw	r3, #824	; 0x338
 800581e:	f2c2 0300 	movt	r3, #8192	; 0x2000
 8005822:	9300      	str	r3, [sp, #0]
 8005824:	4608      	mov	r0, r1
 8005826:	4611      	mov	r1, r2
 8005828:	2214      	movs	r2, #20
 800582a:	2314      	movs	r3, #20
 800582c:	f000 fbac 	bl	8005f88 <Lcd_Draw_IMG>
 8005830:	68bb      	ldr	r3, [r7, #8]
 8005832:	3301      	adds	r3, #1
 8005834:	60bb      	str	r3, [r7, #8]
 8005836:	68bb      	ldr	r3, [r7, #8]
 8005838:	2b0a      	cmp	r3, #10
 800583a:	dd83      	ble.n	8005744 <draw_init+0x94>
 800583c:	68fb      	ldr	r3, [r7, #12]
 800583e:	3301      	adds	r3, #1
 8005840:	60fb      	str	r3, [r7, #12]
 8005842:	68fb      	ldr	r3, [r7, #12]
 8005844:	2b0a      	cmp	r3, #10
 8005846:	f77f af7a 	ble.w	800573e <draw_init+0x8e>
 800584a:	3710      	adds	r7, #16
 800584c:	46bd      	mov	sp, r7
 800584e:	bd80      	pop	{r7, pc}

08005850 <draw>:
 8005850:	b580      	push	{r7, lr}
 8005852:	b084      	sub	sp, #16
 8005854:	af02      	add	r7, sp, #8
 8005856:	f644 03f0 	movw	r3, #18672	; 0x48f0
 800585a:	f2c2 0300 	movt	r3, #8192	; 0x2000
 800585e:	681b      	ldr	r3, [r3, #0]
 8005860:	2b00      	cmp	r3, #0
 8005862:	d021      	beq.n	80058a8 <draw+0x58>
 8005864:	f644 03f8 	movw	r3, #18680	; 0x48f8
 8005868:	f2c2 0300 	movt	r3, #8192	; 0x2000
 800586c:	f8d3 2320 	ldr.w	r2, [r3, #800]	; 0x320
 8005870:	4613      	mov	r3, r2
 8005872:	009b      	lsls	r3, r3, #2
 8005874:	4413      	add	r3, r2
 8005876:	009b      	lsls	r3, r3, #2
 8005878:	4619      	mov	r1, r3
 800587a:	f644 03f8 	movw	r3, #18680	; 0x48f8
 800587e:	f2c2 0300 	movt	r3, #8192	; 0x2000
 8005882:	f8d3 2324 	ldr.w	r2, [r3, #804]	; 0x324
 8005886:	4613      	mov	r3, r2
 8005888:	009b      	lsls	r3, r3, #2
 800588a:	4413      	add	r3, r2
 800588c:	009b      	lsls	r3, r3, #2
 800588e:	461a      	mov	r2, r3
 8005890:	f244 53cc 	movw	r3, #17868	; 0x45cc
 8005894:	f2c2 0300 	movt	r3, #8192	; 0x2000
 8005898:	9300      	str	r3, [sp, #0]
 800589a:	4608      	mov	r0, r1
 800589c:	4611      	mov	r1, r2
 800589e:	2214      	movs	r2, #20
 80058a0:	2314      	movs	r3, #20
 80058a2:	f000 fb71 	bl	8005f88 <Lcd_Draw_IMG>
 80058a6:	e020      	b.n	80058ea <draw+0x9a>
 80058a8:	f644 03f8 	movw	r3, #18680	; 0x48f8
 80058ac:	f2c2 0300 	movt	r3, #8192	; 0x2000
 80058b0:	f8d3 2320 	ldr.w	r2, [r3, #800]	; 0x320
 80058b4:	4613      	mov	r3, r2
 80058b6:	009b      	lsls	r3, r3, #2
 80058b8:	4413      	add	r3, r2
 80058ba:	009b      	lsls	r3, r3, #2
 80058bc:	4619      	mov	r1, r3
 80058be:	f644 03f8 	movw	r3, #18680	; 0x48f8
 80058c2:	f2c2 0300 	movt	r3, #8192	; 0x2000
 80058c6:	f8d3 2324 	ldr.w	r2, [r3, #804]	; 0x324
 80058ca:	4613      	mov	r3, r2
 80058cc:	009b      	lsls	r3, r3, #2
 80058ce:	4413      	add	r3, r2
 80058d0:	009b      	lsls	r3, r3, #2
 80058d2:	461a      	mov	r2, r3
 80058d4:	f240 3338 	movw	r3, #824	; 0x338
 80058d8:	f2c2 0300 	movt	r3, #8192	; 0x2000
 80058dc:	9300      	str	r3, [sp, #0]
 80058de:	4608      	mov	r0, r1
 80058e0:	4611      	mov	r1, r2
 80058e2:	2214      	movs	r2, #20
 80058e4:	2314      	movs	r3, #20
 80058e6:	f000 fb4f 	bl	8005f88 <Lcd_Draw_IMG>
 80058ea:	f644 4320 	movw	r3, #19488	; 0x4c20
 80058ee:	f2c2 0300 	movt	r3, #8192	; 0x2000
 80058f2:	681a      	ldr	r2, [r3, #0]
 80058f4:	4613      	mov	r3, r2
 80058f6:	009b      	lsls	r3, r3, #2
 80058f8:	4413      	add	r3, r2
 80058fa:	009b      	lsls	r3, r3, #2
 80058fc:	4619      	mov	r1, r3
 80058fe:	f644 4320 	movw	r3, #19488	; 0x4c20
 8005902:	f2c2 0300 	movt	r3, #8192	; 0x2000
 8005906:	685a      	ldr	r2, [r3, #4]
 8005908:	4613      	mov	r3, r2
 800590a:	009b      	lsls	r3, r3, #2
 800590c:	4413      	add	r3, r2
 800590e:	009b      	lsls	r3, r3, #2
 8005910:	461a      	mov	r2, r3
 8005912:	f240 0318 	movw	r3, #24
 8005916:	f2c2 0300 	movt	r3, #8192	; 0x2000
 800591a:	9300      	str	r3, [sp, #0]
 800591c:	4608      	mov	r0, r1
 800591e:	4611      	mov	r1, r2
 8005920:	2214      	movs	r2, #20
 8005922:	2314      	movs	r3, #20
 8005924:	f000 fb30 	bl	8005f88 <Lcd_Draw_IMG>
 8005928:	f240 6058 	movw	r0, #1624	; 0x658
 800592c:	f2c2 0000 	movt	r0, #8192	; 0x2000
 8005930:	2103      	movs	r1, #3
 8005932:	f000 f9e9 	bl	8005d08 <rotate_image_array>
 8005936:	f644 03f8 	movw	r3, #18680	; 0x48f8
 800593a:	f2c2 0300 	movt	r3, #8192	; 0x2000
 800593e:	681a      	ldr	r2, [r3, #0]
 8005940:	4613      	mov	r3, r2
 8005942:	009b      	lsls	r3, r3, #2
 8005944:	4413      	add	r3, r2
 8005946:	009b      	lsls	r3, r3, #2
 8005948:	4619      	mov	r1, r3
 800594a:	f644 03f8 	movw	r3, #18680	; 0x48f8
 800594e:	f2c2 0300 	movt	r3, #8192	; 0x2000
 8005952:	685a      	ldr	r2, [r3, #4]
 8005954:	4613      	mov	r3, r2
 8005956:	009b      	lsls	r3, r3, #2
 8005958:	4413      	add	r3, r2
 800595a:	009b      	lsls	r3, r3, #2
 800595c:	461a      	mov	r2, r3
 800595e:	f240 6358 	movw	r3, #1624	; 0x658
 8005962:	f2c2 0300 	movt	r3, #8192	; 0x2000
 8005966:	9300      	str	r3, [sp, #0]
 8005968:	4608      	mov	r0, r1
 800596a:	4611      	mov	r1, r2
 800596c:	2214      	movs	r2, #20
 800596e:	2314      	movs	r3, #20
 8005970:	f000 fb0a 	bl	8005f88 <Lcd_Draw_IMG>
 8005974:	2301      	movs	r3, #1
 8005976:	607b      	str	r3, [r7, #4]
 8005978:	e026      	b.n	80059c8 <draw+0x178>
 800597a:	f644 03f8 	movw	r3, #18680	; 0x48f8
 800597e:	f2c2 0300 	movt	r3, #8192	; 0x2000
 8005982:	687a      	ldr	r2, [r7, #4]
 8005984:	f853 2032 	ldr.w	r2, [r3, r2, lsl #3]
 8005988:	4613      	mov	r3, r2
 800598a:	009b      	lsls	r3, r3, #2
 800598c:	4413      	add	r3, r2
 800598e:	009b      	lsls	r3, r3, #2
 8005990:	4619      	mov	r1, r3
 8005992:	f644 02f8 	movw	r2, #18680	; 0x48f8
 8005996:	f2c2 0200 	movt	r2, #8192	; 0x2000
 800599a:	687b      	ldr	r3, [r7, #4]
 800599c:	00db      	lsls	r3, r3, #3
 800599e:	4413      	add	r3, r2
 80059a0:	685a      	ldr	r2, [r3, #4]
 80059a2:	4613      	mov	r3, r2
 80059a4:	009b      	lsls	r3, r3, #2
 80059a6:	4413      	add	r3, r2
 80059a8:	009b      	lsls	r3, r3, #2
 80059aa:	461a      	mov	r2, r3
 80059ac:	f244 53cc 	movw	r3, #17868	; 0x45cc
 80059b0:	f2c2 0300 	movt	r3, #8192	; 0x2000
 80059b4:	9300      	str	r3, [sp, #0]
 80059b6:	4608      	mov	r0, r1
 80059b8:	4611      	mov	r1, r2
 80059ba:	2214      	movs	r2, #20
 80059bc:	2314      	movs	r3, #20
 80059be:	f000 fae3 	bl	8005f88 <Lcd_Draw_IMG>
 80059c2:	687b      	ldr	r3, [r7, #4]
 80059c4:	3301      	adds	r3, #1
 80059c6:	607b      	str	r3, [r7, #4]
 80059c8:	f644 03f4 	movw	r3, #18676	; 0x48f4
 80059cc:	f2c2 0300 	movt	r3, #8192	; 0x2000
 80059d0:	681b      	ldr	r3, [r3, #0]
 80059d2:	1c5a      	adds	r2, r3, #1
 80059d4:	687b      	ldr	r3, [r7, #4]
 80059d6:	429a      	cmp	r2, r3
 80059d8:	dccf      	bgt.n	800597a <draw+0x12a>
 80059da:	3708      	adds	r7, #8
 80059dc:	46bd      	mov	sp, r7
 80059de:	bd80      	pop	{r7, pc}

080059e0 <input>:
 80059e0:	b480      	push	{r7}
 80059e2:	af00      	add	r7, sp, #0
 80059e4:	f644 4328 	movw	r3, #19496	; 0x4c28
 80059e8:	f2c2 0300 	movt	r3, #8192	; 0x2000
 80059ec:	2203      	movs	r2, #3
 80059ee:	701a      	strb	r2, [r3, #0]
 80059f0:	46bd      	mov	sp, r7
 80059f2:	f85d 7b04 	ldr.w	r7, [sp], #4
 80059f6:	4770      	bx	lr

080059f8 <logic>:
 80059f8:	b580      	push	{r7, lr}
 80059fa:	b082      	sub	sp, #8
 80059fc:	af00      	add	r7, sp, #0
 80059fe:	f644 03f4 	movw	r3, #18676	; 0x48f4
 8005a02:	f2c2 0300 	movt	r3, #8192	; 0x2000
 8005a06:	681b      	ldr	r3, [r3, #0]
 8005a08:	607b      	str	r3, [r7, #4]
 8005a0a:	2301      	movs	r3, #1
 8005a0c:	603b      	str	r3, [r7, #0]
 8005a0e:	f644 03f4 	movw	r3, #18676	; 0x48f4
 8005a12:	f2c2 0300 	movt	r3, #8192	; 0x2000
 8005a16:	681a      	ldr	r2, [r3, #0]
 8005a18:	f644 03f8 	movw	r3, #18680	; 0x48f8
 8005a1c:	f2c2 0300 	movt	r3, #8192	; 0x2000
 8005a20:	f853 2032 	ldr.w	r2, [r3, r2, lsl #3]
 8005a24:	f644 03f8 	movw	r3, #18680	; 0x48f8
 8005a28:	f2c2 0300 	movt	r3, #8192	; 0x2000
 8005a2c:	f8c3 2320 	str.w	r2, [r3, #800]	; 0x320
 8005a30:	f644 03f4 	movw	r3, #18676	; 0x48f4
 8005a34:	f2c2 0300 	movt	r3, #8192	; 0x2000
 8005a38:	681b      	ldr	r3, [r3, #0]
 8005a3a:	f644 02f8 	movw	r2, #18680	; 0x48f8
 8005a3e:	f2c2 0200 	movt	r2, #8192	; 0x2000
 8005a42:	00db      	lsls	r3, r3, #3
 8005a44:	4413      	add	r3, r2
 8005a46:	685a      	ldr	r2, [r3, #4]
 8005a48:	f644 03f8 	movw	r3, #18680	; 0x48f8
 8005a4c:	f2c2 0300 	movt	r3, #8192	; 0x2000
 8005a50:	f8c3 2324 	str.w	r2, [r3, #804]	; 0x324
 8005a54:	f644 03f4 	movw	r3, #18676	; 0x48f4
 8005a58:	f2c2 0300 	movt	r3, #8192	; 0x2000
 8005a5c:	681b      	ldr	r3, [r3, #0]
 8005a5e:	3301      	adds	r3, #1
 8005a60:	607b      	str	r3, [r7, #4]
 8005a62:	e022      	b.n	8005aaa <logic+0xb2>
 8005a64:	687b      	ldr	r3, [r7, #4]
 8005a66:	1e5a      	subs	r2, r3, #1
 8005a68:	f644 03f8 	movw	r3, #18680	; 0x48f8
 8005a6c:	f2c2 0300 	movt	r3, #8192	; 0x2000
 8005a70:	f853 1032 	ldr.w	r1, [r3, r2, lsl #3]
 8005a74:	f644 03f8 	movw	r3, #18680	; 0x48f8
 8005a78:	f2c2 0300 	movt	r3, #8192	; 0x2000
 8005a7c:	687a      	ldr	r2, [r7, #4]
 8005a7e:	f843 1032 	str.w	r1, [r3, r2, lsl #3]
 8005a82:	687b      	ldr	r3, [r7, #4]
 8005a84:	3b01      	subs	r3, #1
 8005a86:	f644 02f8 	movw	r2, #18680	; 0x48f8
 8005a8a:	f2c2 0200 	movt	r2, #8192	; 0x2000
 8005a8e:	00db      	lsls	r3, r3, #3
 8005a90:	4413      	add	r3, r2
 8005a92:	6859      	ldr	r1, [r3, #4]
 8005a94:	f644 02f8 	movw	r2, #18680	; 0x48f8
 8005a98:	f2c2 0200 	movt	r2, #8192	; 0x2000
 8005a9c:	687b      	ldr	r3, [r7, #4]
 8005a9e:	00db      	lsls	r3, r3, #3
 8005aa0:	4413      	add	r3, r2
 8005aa2:	6059      	str	r1, [r3, #4]
 8005aa4:	687b      	ldr	r3, [r7, #4]
 8005aa6:	3b01      	subs	r3, #1
 8005aa8:	607b      	str	r3, [r7, #4]
 8005aaa:	687b      	ldr	r3, [r7, #4]
 8005aac:	2b00      	cmp	r3, #0
 8005aae:	dcd9      	bgt.n	8005a64 <logic+0x6c>
 8005ab0:	f644 4328 	movw	r3, #19496	; 0x4c28
 8005ab4:	f2c2 0300 	movt	r3, #8192	; 0x2000
 8005ab8:	781b      	ldrb	r3, [r3, #0]
 8005aba:	3b01      	subs	r3, #1
 8005abc:	2b03      	cmp	r3, #3
 8005abe:	d83b      	bhi.n	8005b38 <logic+0x140>
 8005ac0:	a201      	add	r2, pc, #4	; (adr r2, 8005ac8 <logic+0xd0>)
 8005ac2:	f852 f023 	ldr.w	pc, [r2, r3, lsl #2]
 8005ac6:	bf00      	nop
 8005ac8:	08005ad9 	stmdaeq	r0, {r0, r3, r4, r6, r7, r9, fp, ip, lr}
 8005acc:	08005af1 	stmdaeq	r0, {r0, r4, r5, r6, r7, r9, fp, ip, lr}
 8005ad0:	08005b09 	stmdaeq	r0, {r0, r3, r8, r9, fp, ip, lr}
 8005ad4:	08005b21 	stmdaeq	r0, {r0, r5, r8, r9, fp, ip, lr}
 8005ad8:	f644 03f8 	movw	r3, #18680	; 0x48f8
 8005adc:	f2c2 0300 	movt	r3, #8192	; 0x2000
 8005ae0:	681b      	ldr	r3, [r3, #0]
 8005ae2:	1e5a      	subs	r2, r3, #1
 8005ae4:	f644 03f8 	movw	r3, #18680	; 0x48f8
 8005ae8:	f2c2 0300 	movt	r3, #8192	; 0x2000
 8005aec:	601a      	str	r2, [r3, #0]
 8005aee:	e023      	b.n	8005b38 <logic+0x140>
 8005af0:	f644 03f8 	movw	r3, #18680	; 0x48f8
 8005af4:	f2c2 0300 	movt	r3, #8192	; 0x2000
 8005af8:	681b      	ldr	r3, [r3, #0]
 8005afa:	1c5a      	adds	r2, r3, #1
 8005afc:	f644 03f8 	movw	r3, #18680	; 0x48f8
 8005b00:	f2c2 0300 	movt	r3, #8192	; 0x2000
 8005b04:	601a      	str	r2, [r3, #0]
 8005b06:	e017      	b.n	8005b38 <logic+0x140>
 8005b08:	f644 03f8 	movw	r3, #18680	; 0x48f8
 8005b0c:	f2c2 0300 	movt	r3, #8192	; 0x2000
 8005b10:	685b      	ldr	r3, [r3, #4]
 8005b12:	1e5a      	subs	r2, r3, #1
 8005b14:	f644 03f8 	movw	r3, #18680	; 0x48f8
 8005b18:	f2c2 0300 	movt	r3, #8192	; 0x2000
 8005b1c:	605a      	str	r2, [r3, #4]
 8005b1e:	e00b      	b.n	8005b38 <logic+0x140>
 8005b20:	f644 03f8 	movw	r3, #18680	; 0x48f8
 8005b24:	f2c2 0300 	movt	r3, #8192	; 0x2000
 8005b28:	685b      	ldr	r3, [r3, #4]
 8005b2a:	1c5a      	adds	r2, r3, #1
 8005b2c:	f644 03f8 	movw	r3, #18680	; 0x48f8
 8005b30:	f2c2 0300 	movt	r3, #8192	; 0x2000
 8005b34:	605a      	str	r2, [r3, #4]
 8005b36:	bf00      	nop
 8005b38:	f644 03f8 	movw	r3, #18680	; 0x48f8
 8005b3c:	f2c2 0300 	movt	r3, #8192	; 0x2000
 8005b40:	681b      	ldr	r3, [r3, #0]
 8005b42:	2b0a      	cmp	r3, #10
 8005b44:	dc14      	bgt.n	8005b70 <logic+0x178>
 8005b46:	f644 03f8 	movw	r3, #18680	; 0x48f8
 8005b4a:	f2c2 0300 	movt	r3, #8192	; 0x2000
 8005b4e:	681b      	ldr	r3, [r3, #0]
 8005b50:	2b00      	cmp	r3, #0
 8005b52:	dd0d      	ble.n	8005b70 <logic+0x178>
 8005b54:	f644 03f8 	movw	r3, #18680	; 0x48f8
 8005b58:	f2c2 0300 	movt	r3, #8192	; 0x2000
 8005b5c:	685b      	ldr	r3, [r3, #4]
 8005b5e:	2b0a      	cmp	r3, #10
 8005b60:	dc06      	bgt.n	8005b70 <logic+0x178>
 8005b62:	f644 03f8 	movw	r3, #18680	; 0x48f8
 8005b66:	f2c2 0300 	movt	r3, #8192	; 0x2000
 8005b6a:	685b      	ldr	r3, [r3, #4]
 8005b6c:	2b00      	cmp	r3, #0
 8005b6e:	dc05      	bgt.n	8005b7c <logic+0x184>
 8005b70:	f644 03ec 	movw	r3, #18668	; 0x48ec
 8005b74:	f2c2 0300 	movt	r3, #8192	; 0x2000
 8005b78:	2201      	movs	r2, #1
 8005b7a:	601a      	str	r2, [r3, #0]
 8005b7c:	2301      	movs	r3, #1
 8005b7e:	603b      	str	r3, [r7, #0]
 8005b80:	e025      	b.n	8005bce <logic+0x1d6>
 8005b82:	f644 03f8 	movw	r3, #18680	; 0x48f8
 8005b86:	f2c2 0300 	movt	r3, #8192	; 0x2000
 8005b8a:	681a      	ldr	r2, [r3, #0]
 8005b8c:	f644 03f8 	movw	r3, #18680	; 0x48f8
 8005b90:	f2c2 0300 	movt	r3, #8192	; 0x2000
 8005b94:	6839      	ldr	r1, [r7, #0]
 8005b96:	f853 3031 	ldr.w	r3, [r3, r1, lsl #3]
 8005b9a:	429a      	cmp	r2, r3
 8005b9c:	d114      	bne.n	8005bc8 <logic+0x1d0>
 8005b9e:	f644 03f8 	movw	r3, #18680	; 0x48f8
 8005ba2:	f2c2 0300 	movt	r3, #8192	; 0x2000
 8005ba6:	6859      	ldr	r1, [r3, #4]
 8005ba8:	f644 02f8 	movw	r2, #18680	; 0x48f8
 8005bac:	f2c2 0200 	movt	r2, #8192	; 0x2000
 8005bb0:	683b      	ldr	r3, [r7, #0]
 8005bb2:	00db      	lsls	r3, r3, #3
 8005bb4:	4413      	add	r3, r2
 8005bb6:	685b      	ldr	r3, [r3, #4]
 8005bb8:	4299      	cmp	r1, r3
 8005bba:	d105      	bne.n	8005bc8 <logic+0x1d0>
 8005bbc:	f644 03ec 	movw	r3, #18668	; 0x48ec
 8005bc0:	f2c2 0300 	movt	r3, #8192	; 0x2000
 8005bc4:	2201      	movs	r2, #1
 8005bc6:	601a      	str	r2, [r3, #0]
 8005bc8:	683b      	ldr	r3, [r7, #0]
 8005bca:	3301      	adds	r3, #1
 8005bcc:	603b      	str	r3, [r7, #0]
 8005bce:	f644 03f4 	movw	r3, #18676	; 0x48f4
 8005bd2:	f2c2 0300 	movt	r3, #8192	; 0x2000
 8005bd6:	681b      	ldr	r3, [r3, #0]
 8005bd8:	683a      	ldr	r2, [r7, #0]
 8005bda:	429a      	cmp	r2, r3
 8005bdc:	dbd1      	blt.n	8005b82 <logic+0x18a>
 8005bde:	f644 03f8 	movw	r3, #18680	; 0x48f8
 8005be2:	f2c2 0300 	movt	r3, #8192	; 0x2000
 8005be6:	681a      	ldr	r2, [r3, #0]
 8005be8:	f644 4320 	movw	r3, #19488	; 0x4c20
 8005bec:	f2c2 0300 	movt	r3, #8192	; 0x2000
 8005bf0:	681b      	ldr	r3, [r3, #0]
 8005bf2:	429a      	cmp	r2, r3
 8005bf4:	d14b      	bne.n	8005c8e <logic+0x296>
 8005bf6:	f644 03f8 	movw	r3, #18680	; 0x48f8
 8005bfa:	f2c2 0300 	movt	r3, #8192	; 0x2000
 8005bfe:	685a      	ldr	r2, [r3, #4]
 8005c00:	f644 4320 	movw	r3, #19488	; 0x4c20
 8005c04:	f2c2 0300 	movt	r3, #8192	; 0x2000
 8005c08:	685b      	ldr	r3, [r3, #4]
 8005c0a:	429a      	cmp	r2, r3
 8005c0c:	d13f      	bne.n	8005c8e <logic+0x296>
 8005c0e:	f644 03f0 	movw	r3, #18672	; 0x48f0
 8005c12:	f2c2 0300 	movt	r3, #8192	; 0x2000
 8005c16:	2201      	movs	r2, #1
 8005c18:	601a      	str	r2, [r3, #0]
 8005c1a:	f644 03f4 	movw	r3, #18676	; 0x48f4
 8005c1e:	f2c2 0300 	movt	r3, #8192	; 0x2000
 8005c22:	681b      	ldr	r3, [r3, #0]
 8005c24:	1c5a      	adds	r2, r3, #1
 8005c26:	f644 03f4 	movw	r3, #18676	; 0x48f4
 8005c2a:	f2c2 0300 	movt	r3, #8192	; 0x2000
 8005c2e:	601a      	str	r2, [r3, #0]
 8005c30:	f001 f990 	bl	8006f54 <rand>
 8005c34:	4601      	mov	r1, r0
 8005c36:	f246 6367 	movw	r3, #26215	; 0x6667
 8005c3a:	f2c6 6366 	movt	r3, #26214	; 0x6666
 8005c3e:	fb83 2301 	smull	r2, r3, r3, r1
 8005c42:	109a      	asrs	r2, r3, #2
 8005c44:	17cb      	asrs	r3, r1, #31
 8005c46:	1ad2      	subs	r2, r2, r3
 8005c48:	4613      	mov	r3, r2
 8005c4a:	009b      	lsls	r3, r3, #2
 8005c4c:	4413      	add	r3, r2
 8005c4e:	005b      	lsls	r3, r3, #1
 8005c50:	1aca      	subs	r2, r1, r3
 8005c52:	3201      	adds	r2, #1
 8005c54:	f644 4320 	movw	r3, #19488	; 0x4c20
 8005c58:	f2c2 0300 	movt	r3, #8192	; 0x2000
 8005c5c:	601a      	str	r2, [r3, #0]
 8005c5e:	f001 f979 	bl	8006f54 <rand>
 8005c62:	4601      	mov	r1, r0
 8005c64:	f246 6367 	movw	r3, #26215	; 0x6667
 8005c68:	f2c6 6366 	movt	r3, #26214	; 0x6666
 8005c6c:	fb83 2301 	smull	r2, r3, r3, r1
 8005c70:	109a      	asrs	r2, r3, #2
 8005c72:	17cb      	asrs	r3, r1, #31
 8005c74:	1ad2      	subs	r2, r2, r3
 8005c76:	4613      	mov	r3, r2
 8005c78:	009b      	lsls	r3, r3, #2
 8005c7a:	4413      	add	r3, r2
 8005c7c:	005b      	lsls	r3, r3, #1
 8005c7e:	1aca      	subs	r2, r1, r3
 8005c80:	3201      	adds	r2, #1
 8005c82:	f644 4320 	movw	r3, #19488	; 0x4c20
 8005c86:	f2c2 0300 	movt	r3, #8192	; 0x2000
 8005c8a:	605a      	str	r2, [r3, #4]
 8005c8c:	e005      	b.n	8005c9a <logic+0x2a2>
 8005c8e:	f644 03f0 	movw	r3, #18672	; 0x48f0
 8005c92:	f2c2 0300 	movt	r3, #8192	; 0x2000
 8005c96:	2200      	movs	r2, #0
 8005c98:	601a      	str	r2, [r3, #0]
 8005c9a:	3708      	adds	r7, #8
 8005c9c:	46bd      	mov	sp, r7
 8005c9e:	bd80      	pop	{r7, pc}

08005ca0 <snake_game>:
 8005ca0:	b580      	push	{r7, lr}
 8005ca2:	b082      	sub	sp, #8
 8005ca4:	af00      	add	r7, sp, #0
 8005ca6:	f7ff fcbf 	bl	8005628 <setup>
 8005caa:	f7ff fd01 	bl	80056b0 <draw_init>
 8005cae:	e01f      	b.n	8005cf0 <snake_game+0x50>
 8005cb0:	f7ff fdce 	bl	8005850 <draw>
 8005cb4:	f7ff fe94 	bl	80059e0 <input>
 8005cb8:	f7ff fe9e 	bl	80059f8 <logic>
 8005cbc:	f04f 0200 	mov.w	r2, #0
 8005cc0:	f04f 0300 	mov.w	r3, #0
 8005cc4:	e9c7 2300 	strd	r2, r3, [r7]
 8005cc8:	e006      	b.n	8005cd8 <snake_game+0x38>
 8005cca:	e9d7 2300 	ldrd	r2, r3, [r7]
 8005cce:	3201      	adds	r2, #1
 8005cd0:	f143 0300 	adc.w	r3, r3, #0
 8005cd4:	e9c7 2300 	strd	r2, r3, [r7]
 8005cd8:	e9d7 2300 	ldrd	r2, r3, [r7]
 8005cdc:	f24c 60bf 	movw	r0, #50879	; 0xc6bf
 8005ce0:	f2c0 002d 	movt	r0, #45	; 0x2d
 8005ce4:	f04f 0100 	mov.w	r1, #0
 8005ce8:	4290      	cmp	r0, r2
 8005cea:	eb71 0c03 	sbcs.w	ip, r1, r3
 8005cee:	daec      	bge.n	8005cca <snake_game+0x2a>
 8005cf0:	f644 03ec 	movw	r3, #18668	; 0x48ec
 8005cf4:	f2c2 0300 	movt	r3, #8192	; 0x2000
 8005cf8:	681b      	ldr	r3, [r3, #0]
 8005cfa:	2b00      	cmp	r3, #0
 8005cfc:	d0d8      	beq.n	8005cb0 <snake_game+0x10>
 8005cfe:	2300      	movs	r3, #0
 8005d00:	4618      	mov	r0, r3
 8005d02:	3708      	adds	r7, #8
 8005d04:	46bd      	mov	sp, r7
 8005d06:	bd80      	pop	{r7, pc}

08005d08 <rotate_image_array>:
 8005d08:	b480      	push	{r7}
 8005d0a:	f5ad 7d4d 	sub.w	sp, sp, #820	; 0x334
 8005d0e:	af00      	add	r7, sp, #0
 8005d10:	1d3b      	adds	r3, r7, #4
 8005d12:	6018      	str	r0, [r3, #0]
 8005d14:	463b      	mov	r3, r7
 8005d16:	6019      	str	r1, [r3, #0]
 8005d18:	463b      	mov	r3, r7
 8005d1a:	681b      	ldr	r3, [r3, #0]
 8005d1c:	3b01      	subs	r3, #1
 8005d1e:	2b03      	cmp	r3, #3
 8005d20:	f200 812a 	bhi.w	8005f78 <rotate_image_array+0x270>
 8005d24:	a201      	add	r2, pc, #4	; (adr r2, 8005d2c <rotate_image_array+0x24>)
 8005d26:	f852 f023 	ldr.w	pc, [r2, r3, lsl #2]
 8005d2a:	bf00      	nop
 8005d2c:	08005dad 	stmdaeq	r0, {r0, r2, r3, r5, r7, r8, sl, fp, ip, lr}
 8005d30:	08005e95 	stmdaeq	r0, {r0, r2, r4, r7, r9, sl, fp, ip, lr}
 8005d34:	08005d3d 	stmdaeq	r0, {r0, r2, r3, r4, r5, r8, sl, fp, ip, lr}
 8005d38:	08005e21 	stmdaeq	r0, {r0, r5, r9, sl, fp, ip, lr}
 8005d3c:	2300      	movs	r3, #0
 8005d3e:	f8c7 332c 	str.w	r3, [r7, #812]	; 0x32c
 8005d42:	e02e      	b.n	8005da2 <rotate_image_array+0x9a>
 8005d44:	2300      	movs	r3, #0
 8005d46:	f8c7 3328 	str.w	r3, [r7, #808]	; 0x328
 8005d4a:	e021      	b.n	8005d90 <rotate_image_array+0x88>
 8005d4c:	f8d7 232c 	ldr.w	r2, [r7, #812]	; 0x32c
 8005d50:	4613      	mov	r3, r2
 8005d52:	009b      	lsls	r3, r3, #2
 8005d54:	4413      	add	r3, r2
 8005d56:	009b      	lsls	r3, r3, #2
 8005d58:	461a      	mov	r2, r3
 8005d5a:	f8d7 3328 	ldr.w	r3, [r7, #808]	; 0x328
 8005d5e:	18d1      	adds	r1, r2, r3
 8005d60:	f8d7 232c 	ldr.w	r2, [r7, #812]	; 0x32c
 8005d64:	4613      	mov	r3, r2
 8005d66:	009b      	lsls	r3, r3, #2
 8005d68:	4413      	add	r3, r2
 8005d6a:	009b      	lsls	r3, r3, #2
 8005d6c:	461a      	mov	r2, r3
 8005d6e:	f8d7 3328 	ldr.w	r3, [r7, #808]	; 0x328
 8005d72:	4413      	add	r3, r2
 8005d74:	005b      	lsls	r3, r3, #1
 8005d76:	1d3a      	adds	r2, r7, #4
 8005d78:	6812      	ldr	r2, [r2, #0]
 8005d7a:	4413      	add	r3, r2
 8005d7c:	881a      	ldrh	r2, [r3, #0]
 8005d7e:	f107 0308 	add.w	r3, r7, #8
 8005d82:	f823 2011 	strh.w	r2, [r3, r1, lsl #1]
 8005d86:	f8d7 3328 	ldr.w	r3, [r7, #808]	; 0x328
 8005d8a:	3301      	adds	r3, #1
 8005d8c:	f8c7 3328 	str.w	r3, [r7, #808]	; 0x328
 8005d90:	f8d7 3328 	ldr.w	r3, [r7, #808]	; 0x328
 8005d94:	2b13      	cmp	r3, #19
 8005d96:	ddd9      	ble.n	8005d4c <rotate_image_array+0x44>
 8005d98:	f8d7 332c 	ldr.w	r3, [r7, #812]	; 0x32c
 8005d9c:	3301      	adds	r3, #1
 8005d9e:	f8c7 332c 	str.w	r3, [r7, #812]	; 0x32c
 8005da2:	f8d7 332c 	ldr.w	r3, [r7, #812]	; 0x32c
 8005da6:	2b13      	cmp	r3, #19
 8005da8:	ddcc      	ble.n	8005d44 <rotate_image_array+0x3c>
 8005daa:	e0ad      	b.n	8005f08 <rotate_image_array+0x200>
 8005dac:	2300      	movs	r3, #0
 8005dae:	f8c7 332c 	str.w	r3, [r7, #812]	; 0x32c
 8005db2:	e030      	b.n	8005e16 <rotate_image_array+0x10e>
 8005db4:	2300      	movs	r3, #0
 8005db6:	f8c7 3328 	str.w	r3, [r7, #808]	; 0x328
 8005dba:	e023      	b.n	8005e04 <rotate_image_array+0xfc>
 8005dbc:	f8d7 3328 	ldr.w	r3, [r7, #808]	; 0x328
 8005dc0:	1c5a      	adds	r2, r3, #1
 8005dc2:	4613      	mov	r3, r2
 8005dc4:	009b      	lsls	r3, r3, #2
 8005dc6:	4413      	add	r3, r2
 8005dc8:	009b      	lsls	r3, r3, #2
 8005dca:	1e5a      	subs	r2, r3, #1
 8005dcc:	f8d7 332c 	ldr.w	r3, [r7, #812]	; 0x32c
 8005dd0:	1ad1      	subs	r1, r2, r3
 8005dd2:	f8d7 332c 	ldr.w	r3, [r7, #812]	; 0x32c
 8005dd6:	1c5a      	adds	r2, r3, #1
 8005dd8:	4613      	mov	r3, r2
 8005dda:	009b      	lsls	r3, r3, #2
 8005ddc:	4413      	add	r3, r2
 8005dde:	009b      	lsls	r3, r3, #2
 8005de0:	461a      	mov	r2, r3
 8005de2:	f8d7 3328 	ldr.w	r3, [r7, #808]	; 0x328
 8005de6:	4413      	add	r3, r2
 8005de8:	005b      	lsls	r3, r3, #1
 8005dea:	1d3a      	adds	r2, r7, #4
 8005dec:	6812      	ldr	r2, [r2, #0]
 8005dee:	4413      	add	r3, r2
 8005df0:	881a      	ldrh	r2, [r3, #0]
 8005df2:	f107 0308 	add.w	r3, r7, #8
 8005df6:	f823 2011 	strh.w	r2, [r3, r1, lsl #1]
 8005dfa:	f8d7 3328 	ldr.w	r3, [r7, #808]	; 0x328
 8005dfe:	3301      	adds	r3, #1
 8005e00:	f8c7 3328 	str.w	r3, [r7, #808]	; 0x328
 8005e04:	f8d7 3328 	ldr.w	r3, [r7, #808]	; 0x328
 8005e08:	2b13      	cmp	r3, #19
 8005e0a:	ddd7      	ble.n	8005dbc <rotate_image_array+0xb4>
 8005e0c:	f8d7 332c 	ldr.w	r3, [r7, #812]	; 0x32c
 8005e10:	3301      	adds	r3, #1
 8005e12:	f8c7 332c 	str.w	r3, [r7, #812]	; 0x32c
 8005e16:	f8d7 332c 	ldr.w	r3, [r7, #812]	; 0x32c
 8005e1a:	2b13      	cmp	r3, #19
 8005e1c:	ddca      	ble.n	8005db4 <rotate_image_array+0xac>
 8005e1e:	e073      	b.n	8005f08 <rotate_image_array+0x200>
 8005e20:	2300      	movs	r3, #0
 8005e22:	f8c7 332c 	str.w	r3, [r7, #812]	; 0x32c
 8005e26:	e030      	b.n	8005e8a <rotate_image_array+0x182>
 8005e28:	2300      	movs	r3, #0
 8005e2a:	f8c7 3328 	str.w	r3, [r7, #808]	; 0x328
 8005e2e:	e023      	b.n	8005e78 <rotate_image_array+0x170>
 8005e30:	f8d7 332c 	ldr.w	r3, [r7, #812]	; 0x32c
 8005e34:	f1c3 0214 	rsb	r2, r3, #20
 8005e38:	4613      	mov	r3, r2
 8005e3a:	009b      	lsls	r3, r3, #2
 8005e3c:	4413      	add	r3, r2
 8005e3e:	009b      	lsls	r3, r3, #2
 8005e40:	1e5a      	subs	r2, r3, #1
 8005e42:	f8d7 3328 	ldr.w	r3, [r7, #808]	; 0x328
 8005e46:	1ad1      	subs	r1, r2, r3
 8005e48:	f8d7 232c 	ldr.w	r2, [r7, #812]	; 0x32c
 8005e4c:	4613      	mov	r3, r2
 8005e4e:	009b      	lsls	r3, r3, #2
 8005e50:	4413      	add	r3, r2
 8005e52:	009b      	lsls	r3, r3, #2
 8005e54:	461a      	mov	r2, r3
 8005e56:	f8d7 3328 	ldr.w	r3, [r7, #808]	; 0x328
 8005e5a:	4413      	add	r3, r2
 8005e5c:	005b      	lsls	r3, r3, #1
 8005e5e:	1d3a      	adds	r2, r7, #4
 8005e60:	6812      	ldr	r2, [r2, #0]
 8005e62:	4413      	add	r3, r2
 8005e64:	881a      	ldrh	r2, [r3, #0]
 8005e66:	f107 0308 	add.w	r3, r7, #8
 8005e6a:	f823 2011 	strh.w	r2, [r3, r1, lsl #1]
 8005e6e:	f8d7 3328 	ldr.w	r3, [r7, #808]	; 0x328
 8005e72:	3301      	adds	r3, #1
 8005e74:	f8c7 3328 	str.w	r3, [r7, #808]	; 0x328
 8005e78:	f8d7 3328 	ldr.w	r3, [r7, #808]	; 0x328
 8005e7c:	2b13      	cmp	r3, #19
 8005e7e:	ddd7      	ble.n	8005e30 <rotate_image_array+0x128>
 8005e80:	f8d7 332c 	ldr.w	r3, [r7, #812]	; 0x32c
 8005e84:	3301      	adds	r3, #1
 8005e86:	f8c7 332c 	str.w	r3, [r7, #812]	; 0x32c
 8005e8a:	f8d7 332c 	ldr.w	r3, [r7, #812]	; 0x32c
 8005e8e:	2b13      	cmp	r3, #19
 8005e90:	ddca      	ble.n	8005e28 <rotate_image_array+0x120>
 8005e92:	e039      	b.n	8005f08 <rotate_image_array+0x200>
 8005e94:	2300      	movs	r3, #0
 8005e96:	f8c7 332c 	str.w	r3, [r7, #812]	; 0x32c
 8005e9a:	e030      	b.n	8005efe <rotate_image_array+0x1f6>
 8005e9c:	2300      	movs	r3, #0
 8005e9e:	f8c7 3328 	str.w	r3, [r7, #808]	; 0x328
 8005ea2:	e023      	b.n	8005eec <rotate_image_array+0x1e4>
 8005ea4:	f8d7 3328 	ldr.w	r3, [r7, #808]	; 0x328
 8005ea8:	f1c3 0213 	rsb	r2, r3, #19
 8005eac:	4613      	mov	r3, r2
 8005eae:	009b      	lsls	r3, r3, #2
 8005eb0:	4413      	add	r3, r2
 8005eb2:	009b      	lsls	r3, r3, #2
 8005eb4:	461a      	mov	r2, r3
 8005eb6:	f8d7 332c 	ldr.w	r3, [r7, #812]	; 0x32c
 8005eba:	18d1      	adds	r1, r2, r3
 8005ebc:	f8d7 232c 	ldr.w	r2, [r7, #812]	; 0x32c
 8005ec0:	4613      	mov	r3, r2
 8005ec2:	009b      	lsls	r3, r3, #2
 8005ec4:	4413      	add	r3, r2
 8005ec6:	009b      	lsls	r3, r3, #2
 8005ec8:	461a      	mov	r2, r3
 8005eca:	f8d7 3328 	ldr.w	r3, [r7, #808]	; 0x328
 8005ece:	4413      	add	r3, r2
 8005ed0:	005b      	lsls	r3, r3, #1
 8005ed2:	1d3a      	adds	r2, r7, #4
 8005ed4:	6812      	ldr	r2, [r2, #0]
 8005ed6:	4413      	add	r3, r2
 8005ed8:	881a      	ldrh	r2, [r3, #0]
 8005eda:	f107 0308 	add.w	r3, r7, #8
 8005ede:	f823 2011 	strh.w	r2, [r3, r1, lsl #1]
 8005ee2:	f8d7 3328 	ldr.w	r3, [r7, #808]	; 0x328
 8005ee6:	3301      	adds	r3, #1
 8005ee8:	f8c7 3328 	str.w	r3, [r7, #808]	; 0x328
 8005eec:	f8d7 3328 	ldr.w	r3, [r7, #808]	; 0x328
 8005ef0:	2b13      	cmp	r3, #19
 8005ef2:	ddd7      	ble.n	8005ea4 <rotate_image_array+0x19c>
 8005ef4:	f8d7 332c 	ldr.w	r3, [r7, #812]	; 0x32c
 8005ef8:	3301      	adds	r3, #1
 8005efa:	f8c7 332c 	str.w	r3, [r7, #812]	; 0x32c
 8005efe:	f8d7 332c 	ldr.w	r3, [r7, #812]	; 0x32c
 8005f02:	2b13      	cmp	r3, #19
 8005f04:	ddca      	ble.n	8005e9c <rotate_image_array+0x194>
 8005f06:	bf00      	nop
 8005f08:	2300      	movs	r3, #0
 8005f0a:	f8c7 332c 	str.w	r3, [r7, #812]	; 0x32c
 8005f0e:	e02e      	b.n	8005f6e <rotate_image_array+0x266>
 8005f10:	2300      	movs	r3, #0
 8005f12:	f8c7 3328 	str.w	r3, [r7, #808]	; 0x328
 8005f16:	e021      	b.n	8005f5c <rotate_image_array+0x254>
 8005f18:	f8d7 232c 	ldr.w	r2, [r7, #812]	; 0x32c
 8005f1c:	4613      	mov	r3, r2
 8005f1e:	009b      	lsls	r3, r3, #2
 8005f20:	4413      	add	r3, r2
 8005f22:	009b      	lsls	r3, r3, #2
 8005f24:	461a      	mov	r2, r3
 8005f26:	f8d7 3328 	ldr.w	r3, [r7, #808]	; 0x328
 8005f2a:	4413      	add	r3, r2
 8005f2c:	005b      	lsls	r3, r3, #1
 8005f2e:	1d3a      	adds	r2, r7, #4
 8005f30:	6812      	ldr	r2, [r2, #0]
 8005f32:	18d1      	adds	r1, r2, r3
 8005f34:	f8d7 232c 	ldr.w	r2, [r7, #812]	; 0x32c
 8005f38:	4613      	mov	r3, r2
 8005f3a:	009b      	lsls	r3, r3, #2
 8005f3c:	4413      	add	r3, r2
 8005f3e:	009b      	lsls	r3, r3, #2
 8005f40:	461a      	mov	r2, r3
 8005f42:	f8d7 3328 	ldr.w	r3, [r7, #808]	; 0x328
 8005f46:	441a      	add	r2, r3
 8005f48:	f107 0308 	add.w	r3, r7, #8
 8005f4c:	f833 3012 	ldrh.w	r3, [r3, r2, lsl #1]
 8005f50:	800b      	strh	r3, [r1, #0]
 8005f52:	f8d7 3328 	ldr.w	r3, [r7, #808]	; 0x328
 8005f56:	3301      	adds	r3, #1
 8005f58:	f8c7 3328 	str.w	r3, [r7, #808]	; 0x328
 8005f5c:	f8d7 3328 	ldr.w	r3, [r7, #808]	; 0x328
 8005f60:	2b13      	cmp	r3, #19
 8005f62:	ddd9      	ble.n	8005f18 <rotate_image_array+0x210>
 8005f64:	f8d7 332c 	ldr.w	r3, [r7, #812]	; 0x32c
 8005f68:	3301      	adds	r3, #1
 8005f6a:	f8c7 332c 	str.w	r3, [r7, #812]	; 0x32c
 8005f6e:	f8d7 332c 	ldr.w	r3, [r7, #812]	; 0x32c
 8005f72:	2b13      	cmp	r3, #19
 8005f74:	ddcc      	ble.n	8005f10 <rotate_image_array+0x208>
 8005f76:	e000      	b.n	8005f7a <rotate_image_array+0x272>
 8005f78:	bf00      	nop
 8005f7a:	f507 774d 	add.w	r7, r7, #820	; 0x334
 8005f7e:	46bd      	mov	sp, r7
 8005f80:	f85d 7b04 	ldr.w	r7, [sp], #4
 8005f84:	4770      	bx	lr
 8005f86:	bf00      	nop

08005f88 <Lcd_Draw_IMG>:
 8005f88:	b580      	push	{r7, lr}
 8005f8a:	b088      	sub	sp, #32
 8005f8c:	af00      	add	r7, sp, #0
 8005f8e:	60f8      	str	r0, [r7, #12]
 8005f90:	60b9      	str	r1, [r7, #8]
 8005f92:	607a      	str	r2, [r7, #4]
 8005f94:	603b      	str	r3, [r7, #0]
 8005f96:	68fa      	ldr	r2, [r7, #12]
 8005f98:	687b      	ldr	r3, [r7, #4]
 8005f9a:	4413      	add	r3, r2
 8005f9c:	3b01      	subs	r3, #1
 8005f9e:	61bb      	str	r3, [r7, #24]
 8005fa0:	68ba      	ldr	r2, [r7, #8]
 8005fa2:	683b      	ldr	r3, [r7, #0]
 8005fa4:	4413      	add	r3, r2
 8005fa6:	3b01      	subs	r3, #1
 8005fa8:	617b      	str	r3, [r7, #20]
 8005faa:	69bb      	ldr	r3, [r7, #24]
 8005fac:	f5b3 7fa0 	cmp.w	r3, #320	; 0x140
 8005fb0:	db02      	blt.n	8005fb8 <Lcd_Draw_IMG+0x30>
 8005fb2:	f240 133f 	movw	r3, #319	; 0x13f
 8005fb6:	61bb      	str	r3, [r7, #24]
 8005fb8:	697b      	ldr	r3, [r7, #20]
 8005fba:	2bef      	cmp	r3, #239	; 0xef
 8005fbc:	dd01      	ble.n	8005fc2 <Lcd_Draw_IMG+0x3a>
 8005fbe:	23ef      	movs	r3, #239	; 0xef
 8005fc0:	61bb      	str	r3, [r7, #24]
 8005fc2:	68fb      	ldr	r3, [r7, #12]
 8005fc4:	b298      	uxth	r0, r3
 8005fc6:	68bb      	ldr	r3, [r7, #8]
 8005fc8:	b299      	uxth	r1, r3
 8005fca:	69bb      	ldr	r3, [r7, #24]
 8005fcc:	b29a      	uxth	r2, r3
 8005fce:	697b      	ldr	r3, [r7, #20]
 8005fd0:	b29b      	uxth	r3, r3
 8005fd2:	f7fe fb81 	bl	80046d8 <Lcd_Set_Windows>
 8005fd6:	f44f 6300 	mov.w	r3, #2048	; 0x800
 8005fda:	f2c4 0301 	movt	r3, #16385	; 0x4001
 8005fde:	f44f 6200 	mov.w	r2, #2048	; 0x800
 8005fe2:	f2c4 0201 	movt	r2, #16385	; 0x4001
 8005fe6:	68d2      	ldr	r2, [r2, #12]
 8005fe8:	f022 0210 	bic.w	r2, r2, #16
 8005fec:	60da      	str	r2, [r3, #12]
 8005fee:	f44f 6340 	mov.w	r3, #3072	; 0xc00
 8005ff2:	f2c4 0301 	movt	r3, #16385	; 0x4001
 8005ff6:	f44f 6240 	mov.w	r2, #3072	; 0xc00
 8005ffa:	f2c4 0201 	movt	r2, #16385	; 0x4001
 8005ffe:	68d2      	ldr	r2, [r2, #12]
 8006000:	f442 7200 	orr.w	r2, r2, #512	; 0x200
 8006004:	60da      	str	r2, [r3, #12]
 8006006:	2300      	movs	r3, #0
 8006008:	61fb      	str	r3, [r7, #28]
 800600a:	e013      	b.n	8006034 <Lcd_Draw_IMG+0xac>
 800600c:	6abb      	ldr	r3, [r7, #40]	; 0x28
 800600e:	881b      	ldrh	r3, [r3, #0]
 8006010:	0a1b      	lsrs	r3, r3, #8
 8006012:	b29b      	uxth	r3, r3
 8006014:	b2db      	uxtb	r3, r3
 8006016:	4618      	mov	r0, r3
 8006018:	f7fe f934 	bl	8004284 <_SPI1_Write_Byte>
 800601c:	6abb      	ldr	r3, [r7, #40]	; 0x28
 800601e:	881b      	ldrh	r3, [r3, #0]
 8006020:	b2db      	uxtb	r3, r3
 8006022:	4618      	mov	r0, r3
 8006024:	f7fe f92e 	bl	8004284 <_SPI1_Write_Byte>
 8006028:	6abb      	ldr	r3, [r7, #40]	; 0x28
 800602a:	3302      	adds	r3, #2
 800602c:	62bb      	str	r3, [r7, #40]	; 0x28
 800602e:	69fb      	ldr	r3, [r7, #28]
 8006030:	3301      	adds	r3, #1
 8006032:	61fb      	str	r3, [r7, #28]
 8006034:	69ba      	ldr	r2, [r7, #24]
 8006036:	68fb      	ldr	r3, [r7, #12]
 8006038:	1ad3      	subs	r3, r2, r3
 800603a:	3301      	adds	r3, #1
 800603c:	6979      	ldr	r1, [r7, #20]
 800603e:	68ba      	ldr	r2, [r7, #8]
 8006040:	1a8a      	subs	r2, r1, r2
 8006042:	3201      	adds	r2, #1
 8006044:	fb02 f303 	mul.w	r3, r2, r3
 8006048:	461a      	mov	r2, r3
 800604a:	69fb      	ldr	r3, [r7, #28]
 800604c:	429a      	cmp	r2, r3
 800604e:	d8dd      	bhi.n	800600c <Lcd_Draw_IMG+0x84>
 8006050:	f44f 6300 	mov.w	r3, #2048	; 0x800
 8006054:	f2c4 0301 	movt	r3, #16385	; 0x4001
 8006058:	f44f 6200 	mov.w	r2, #2048	; 0x800
 800605c:	f2c4 0201 	movt	r2, #16385	; 0x4001
 8006060:	68d2      	ldr	r2, [r2, #12]
 8006062:	f042 0210 	orr.w	r2, r2, #16
 8006066:	60da      	str	r2, [r3, #12]
 8006068:	3720      	adds	r7, #32
 800606a:	46bd      	mov	sp, r7
 800606c:	bd80      	pop	{r7, pc}
 800606e:	bf00      	nop

08006070 <NVIC_ClearPendingIRQ>:
 8006070:	b480      	push	{r7}
 8006072:	b083      	sub	sp, #12
 8006074:	af00      	add	r7, sp, #0
 8006076:	4603      	mov	r3, r0
 8006078:	71fb      	strb	r3, [r7, #7]
 800607a:	f44f 4361 	mov.w	r3, #57600	; 0xe100
 800607e:	f2ce 0300 	movt	r3, #57344	; 0xe000
 8006082:	f997 2007 	ldrsb.w	r2, [r7, #7]
 8006086:	0952      	lsrs	r2, r2, #5
 8006088:	79f9      	ldrb	r1, [r7, #7]
 800608a:	f001 011f 	and.w	r1, r1, #31
 800608e:	2001      	movs	r0, #1
 8006090:	fa00 f101 	lsl.w	r1, r0, r1
 8006094:	3260      	adds	r2, #96	; 0x60
 8006096:	f843 1022 	str.w	r1, [r3, r2, lsl #2]
 800609a:	370c      	adds	r7, #12
 800609c:	46bd      	mov	sp, r7
 800609e:	f85d 7b04 	ldr.w	r7, [sp], #4
 80060a2:	4770      	bx	lr

080060a4 <Invalid_ISR>:
 80060a4:	b580      	push	{r7, lr}
 80060a6:	af00      	add	r7, sp, #0
 80060a8:	f44f 436d 	mov.w	r3, #60672	; 0xed00
 80060ac:	f2ce 0300 	movt	r3, #57344	; 0xe000
 80060b0:	685b      	ldr	r3, [r3, #4]
 80060b2:	f3c3 0308 	ubfx	r3, r3, #0, #9
 80060b6:	f24d 10a4 	movw	r0, #53668	; 0xd1a4
 80060ba:	f6c0 0000 	movt	r0, #2048	; 0x800
 80060be:	4619      	mov	r1, r3
 80060c0:	f000 fde0 	bl	8006c84 <Uart1_Printf>
 80060c4:	f44f 436d 	mov.w	r3, #60672	; 0xed00
 80060c8:	f2ce 0300 	movt	r3, #57344	; 0xe000
 80060cc:	685b      	ldr	r3, [r3, #4]
 80060ce:	f3c3 0308 	ubfx	r3, r3, #0, #9
 80060d2:	3b10      	subs	r3, #16
 80060d4:	f24d 10bc 	movw	r0, #53692	; 0xd1bc
 80060d8:	f6c0 0000 	movt	r0, #2048	; 0x800
 80060dc:	4619      	mov	r1, r3
 80060de:	f000 fdd1 	bl	8006c84 <Uart1_Printf>
 80060e2:	e7fe      	b.n	80060e2 <Invalid_ISR+0x3e>

080060e4 <Stack_Dump>:
 80060e4:	b580      	push	{r7, lr}
 80060e6:	b086      	sub	sp, #24
 80060e8:	af02      	add	r7, sp, #8
 80060ea:	6078      	str	r0, [r7, #4]
 80060ec:	6039      	str	r1, [r7, #0]
 80060ee:	2300      	movs	r3, #0
 80060f0:	60fb      	str	r3, [r7, #12]
 80060f2:	e017      	b.n	8006124 <Stack_Dump+0x40>
 80060f4:	f24d 13f4 	movw	r3, #53748	; 0xd1f4
 80060f8:	f6c0 0300 	movt	r3, #2048	; 0x800
 80060fc:	68fa      	ldr	r2, [r7, #12]
 80060fe:	f853 3022 	ldr.w	r3, [r3, r2, lsl #2]
 8006102:	68fa      	ldr	r2, [r7, #12]
 8006104:	0092      	lsls	r2, r2, #2
 8006106:	6839      	ldr	r1, [r7, #0]
 8006108:	440a      	add	r2, r1
 800610a:	6812      	ldr	r2, [r2, #0]
 800610c:	9200      	str	r2, [sp, #0]
 800610e:	f24d 2014 	movw	r0, #53780	; 0xd214
 8006112:	f6c0 0000 	movt	r0, #2048	; 0x800
 8006116:	6879      	ldr	r1, [r7, #4]
 8006118:	68fa      	ldr	r2, [r7, #12]
 800611a:	f000 fdb3 	bl	8006c84 <Uart1_Printf>
 800611e:	68fb      	ldr	r3, [r7, #12]
 8006120:	3301      	adds	r3, #1
 8006122:	60fb      	str	r3, [r7, #12]
 8006124:	68fb      	ldr	r3, [r7, #12]
 8006126:	2b07      	cmp	r3, #7
 8006128:	d9e4      	bls.n	80060f4 <Stack_Dump+0x10>
 800612a:	3710      	adds	r7, #16
 800612c:	46bd      	mov	sp, r7
 800612e:	bd80      	pop	{r7, pc}

08006130 <Fault_Report>:
 8006130:	b580      	push	{r7, lr}
 8006132:	b084      	sub	sp, #16
 8006134:	af00      	add	r7, sp, #0
 8006136:	60f8      	str	r0, [r7, #12]
 8006138:	60b9      	str	r1, [r7, #8]
 800613a:	607a      	str	r2, [r7, #4]
 800613c:	f24d 2028 	movw	r0, #53800	; 0xd228
 8006140:	f6c0 0000 	movt	r0, #2048	; 0x800
 8006144:	68b9      	ldr	r1, [r7, #8]
 8006146:	f000 fd9d 	bl	8006c84 <Uart1_Printf>
 800614a:	f24d 2040 	movw	r0, #53824	; 0xd240
 800614e:	f6c0 0000 	movt	r0, #2048	; 0x800
 8006152:	68f9      	ldr	r1, [r7, #12]
 8006154:	f000 fd96 	bl	8006c84 <Uart1_Printf>
 8006158:	f24d 204c 	movw	r0, #53836	; 0xd24c
 800615c:	f6c0 0000 	movt	r0, #2048	; 0x800
 8006160:	6879      	ldr	r1, [r7, #4]
 8006162:	f000 fd8f 	bl	8006c84 <Uart1_Printf>
 8006166:	68ba      	ldr	r2, [r7, #8]
 8006168:	230f      	movs	r3, #15
 800616a:	f2cf 0300 	movt	r3, #61440	; 0xf000
 800616e:	4013      	ands	r3, r2
 8006170:	2209      	movs	r2, #9
 8006172:	f2cf 0200 	movt	r2, #61440	; 0xf000
 8006176:	4293      	cmp	r3, r2
 8006178:	d017      	beq.n	80061aa <Fault_Report+0x7a>
 800617a:	220d      	movs	r2, #13
 800617c:	f2cf 0200 	movt	r2, #61440	; 0xf000
 8006180:	4293      	cmp	r3, r2
 8006182:	d020      	beq.n	80061c6 <Fault_Report+0x96>
 8006184:	2201      	movs	r2, #1
 8006186:	f2cf 0200 	movt	r2, #61440	; 0xf000
 800618a:	4293      	cmp	r3, r2
 800618c:	d129      	bne.n	80061e2 <Fault_Report+0xb2>
 800618e:	f24d 2058 	movw	r0, #53848	; 0xd258
 8006192:	f6c0 0000 	movt	r0, #2048	; 0x800
 8006196:	f000 fd75 	bl	8006c84 <Uart1_Printf>
 800619a:	f24d 207c 	movw	r0, #53884	; 0xd27c
 800619e:	f6c0 0000 	movt	r0, #2048	; 0x800
 80061a2:	68f9      	ldr	r1, [r7, #12]
 80061a4:	f7ff ff9e 	bl	80060e4 <Stack_Dump>
 80061a8:	e026      	b.n	80061f8 <Fault_Report+0xc8>
 80061aa:	f24d 2080 	movw	r0, #53888	; 0xd280
 80061ae:	f6c0 0000 	movt	r0, #2048	; 0x800
 80061b2:	f000 fd67 	bl	8006c84 <Uart1_Printf>
 80061b6:	f24d 207c 	movw	r0, #53884	; 0xd27c
 80061ba:	f6c0 0000 	movt	r0, #2048	; 0x800
 80061be:	68f9      	ldr	r1, [r7, #12]
 80061c0:	f7ff ff90 	bl	80060e4 <Stack_Dump>
 80061c4:	e018      	b.n	80061f8 <Fault_Report+0xc8>
 80061c6:	f24d 20ac 	movw	r0, #53932	; 0xd2ac
 80061ca:	f6c0 0000 	movt	r0, #2048	; 0x800
 80061ce:	f000 fd59 	bl	8006c84 <Uart1_Printf>
 80061d2:	f24d 20d8 	movw	r0, #53976	; 0xd2d8
 80061d6:	f6c0 0000 	movt	r0, #2048	; 0x800
 80061da:	6879      	ldr	r1, [r7, #4]
 80061dc:	f7ff ff82 	bl	80060e4 <Stack_Dump>
 80061e0:	e00a      	b.n	80061f8 <Fault_Report+0xc8>
 80061e2:	68bb      	ldr	r3, [r7, #8]
 80061e4:	f003 030f 	and.w	r3, r3, #15
 80061e8:	f24d 20dc 	movw	r0, #53980	; 0xd2dc
 80061ec:	f6c0 0000 	movt	r0, #2048	; 0x800
 80061f0:	4619      	mov	r1, r3
 80061f2:	f000 fd47 	bl	8006c84 <Uart1_Printf>
 80061f6:	bf00      	nop
 80061f8:	f44f 436d 	mov.w	r3, #60672	; 0xed00
 80061fc:	f2ce 0300 	movt	r3, #57344	; 0xe000
 8006200:	6a5b      	ldr	r3, [r3, #36]	; 0x24
 8006202:	f24d 3008 	movw	r0, #54024	; 0xd308
 8006206:	f6c0 0000 	movt	r0, #2048	; 0x800
 800620a:	4619      	mov	r1, r3
 800620c:	f000 fd3a 	bl	8006c84 <Uart1_Printf>
 8006210:	f44f 436d 	mov.w	r3, #60672	; 0xed00
 8006214:	f2ce 0300 	movt	r3, #57344	; 0xe000
 8006218:	6a9b      	ldr	r3, [r3, #40]	; 0x28
 800621a:	f24d 3018 	movw	r0, #54040	; 0xd318
 800621e:	f6c0 0000 	movt	r0, #2048	; 0x800
 8006222:	4619      	mov	r1, r3
 8006224:	f000 fd2e 	bl	8006c84 <Uart1_Printf>
 8006228:	3710      	adds	r7, #16
 800622a:	46bd      	mov	sp, r7
 800622c:	bd80      	pop	{r7, pc}
 800622e:	bf00      	nop

08006230 <NMI_Handler>:
 8006230:	b580      	push	{r7, lr}
 8006232:	af00      	add	r7, sp, #0
 8006234:	f44f 73ae 	mov.w	r3, #348	; 0x15c
 8006238:	f2c4 2342 	movt	r3, #16962	; 0x4242
 800623c:	2201      	movs	r2, #1
 800623e:	601a      	str	r2, [r3, #0]
 8006240:	f24d 3038 	movw	r0, #54072	; 0xd338
 8006244:	f6c0 0000 	movt	r0, #2048	; 0x800
 8006248:	f000 fd1c 	bl	8006c84 <Uart1_Printf>
 800624c:	bd80      	pop	{r7, pc}
 800624e:	bf00      	nop

08006250 <HardFault_Handler>:
 8006250:	b580      	push	{r7, lr}
 8006252:	b084      	sub	sp, #16
 8006254:	af00      	add	r7, sp, #0
 8006256:	60f8      	str	r0, [r7, #12]
 8006258:	60b9      	str	r1, [r7, #8]
 800625a:	607a      	str	r2, [r7, #4]
 800625c:	f24d 3044 	movw	r0, #54084	; 0xd344
 8006260:	f6c0 0000 	movt	r0, #2048	; 0x800
 8006264:	f000 fd0e 	bl	8006c84 <Uart1_Printf>
 8006268:	68f8      	ldr	r0, [r7, #12]
 800626a:	68b9      	ldr	r1, [r7, #8]
 800626c:	687a      	ldr	r2, [r7, #4]
 800626e:	f7ff ff5f 	bl	8006130 <Fault_Report>
 8006272:	f44f 436d 	mov.w	r3, #60672	; 0xed00
 8006276:	f2ce 0300 	movt	r3, #57344	; 0xe000
 800627a:	6a9b      	ldr	r3, [r3, #40]	; 0x28
 800627c:	09db      	lsrs	r3, r3, #7
 800627e:	f003 0301 	and.w	r3, r3, #1
 8006282:	f24d 3054 	movw	r0, #54100	; 0xd354
 8006286:	f6c0 0000 	movt	r0, #2048	; 0x800
 800628a:	4619      	mov	r1, r3
 800628c:	f000 fcfa 	bl	8006c84 <Uart1_Printf>
 8006290:	f44f 436d 	mov.w	r3, #60672	; 0xed00
 8006294:	f2ce 0300 	movt	r3, #57344	; 0xe000
 8006298:	6b5b      	ldr	r3, [r3, #52]	; 0x34
 800629a:	f24d 3068 	movw	r0, #54120	; 0xd368
 800629e:	f6c0 0000 	movt	r0, #2048	; 0x800
 80062a2:	4619      	mov	r1, r3
 80062a4:	f000 fcee 	bl	8006c84 <Uart1_Printf>
 80062a8:	f44f 436d 	mov.w	r3, #60672	; 0xed00
 80062ac:	f2ce 0300 	movt	r3, #57344	; 0xe000
 80062b0:	6a9b      	ldr	r3, [r3, #40]	; 0x28
 80062b2:	0bdb      	lsrs	r3, r3, #15
 80062b4:	f003 0301 	and.w	r3, r3, #1
 80062b8:	f24d 3078 	movw	r0, #54136	; 0xd378
 80062bc:	f6c0 0000 	movt	r0, #2048	; 0x800
 80062c0:	4619      	mov	r1, r3
 80062c2:	f000 fcdf 	bl	8006c84 <Uart1_Printf>
 80062c6:	f44f 436d 	mov.w	r3, #60672	; 0xed00
 80062ca:	f2ce 0300 	movt	r3, #57344	; 0xe000
 80062ce:	6b9b      	ldr	r3, [r3, #56]	; 0x38
 80062d0:	f24d 308c 	movw	r0, #54156	; 0xd38c
 80062d4:	f6c0 0000 	movt	r0, #2048	; 0x800
 80062d8:	4619      	mov	r1, r3
 80062da:	f000 fcd3 	bl	8006c84 <Uart1_Printf>
 80062de:	f44f 436d 	mov.w	r3, #60672	; 0xed00
 80062e2:	f2ce 0300 	movt	r3, #57344	; 0xe000
 80062e6:	6adb      	ldr	r3, [r3, #44]	; 0x2c
 80062e8:	f24d 309c 	movw	r0, #54172	; 0xd39c
 80062ec:	f6c0 0000 	movt	r0, #2048	; 0x800
 80062f0:	4619      	mov	r1, r3
 80062f2:	f000 fcc7 	bl	8006c84 <Uart1_Printf>
 80062f6:	e7fe      	b.n	80062f6 <HardFault_Handler+0xa6>

080062f8 <MemManage_Handler>:
 80062f8:	b580      	push	{r7, lr}
 80062fa:	b084      	sub	sp, #16
 80062fc:	af00      	add	r7, sp, #0
 80062fe:	60f8      	str	r0, [r7, #12]
 8006300:	60b9      	str	r1, [r7, #8]
 8006302:	607a      	str	r2, [r7, #4]
 8006304:	f24d 30c0 	movw	r0, #54208	; 0xd3c0
 8006308:	f6c0 0000 	movt	r0, #2048	; 0x800
 800630c:	f000 fcba 	bl	8006c84 <Uart1_Printf>
 8006310:	68f8      	ldr	r0, [r7, #12]
 8006312:	68b9      	ldr	r1, [r7, #8]
 8006314:	687a      	ldr	r2, [r7, #4]
 8006316:	f7ff ff0b 	bl	8006130 <Fault_Report>
 800631a:	f44f 436d 	mov.w	r3, #60672	; 0xed00
 800631e:	f2ce 0300 	movt	r3, #57344	; 0xe000
 8006322:	6a9b      	ldr	r3, [r3, #40]	; 0x28
 8006324:	09db      	lsrs	r3, r3, #7
 8006326:	f003 0301 	and.w	r3, r3, #1
 800632a:	f24d 3054 	movw	r0, #54100	; 0xd354
 800632e:	f6c0 0000 	movt	r0, #2048	; 0x800
 8006332:	4619      	mov	r1, r3
 8006334:	f000 fca6 	bl	8006c84 <Uart1_Printf>
 8006338:	f44f 436d 	mov.w	r3, #60672	; 0xed00
 800633c:	f2ce 0300 	movt	r3, #57344	; 0xe000
 8006340:	6b5b      	ldr	r3, [r3, #52]	; 0x34
 8006342:	f24d 3068 	movw	r0, #54120	; 0xd368
 8006346:	f6c0 0000 	movt	r0, #2048	; 0x800
 800634a:	4619      	mov	r1, r3
 800634c:	f000 fc9a 	bl	8006c84 <Uart1_Printf>
 8006350:	e7fe      	b.n	8006350 <MemManage_Handler+0x58>
 8006352:	bf00      	nop

08006354 <BusFault_Handler>:
 8006354:	b580      	push	{r7, lr}
 8006356:	b084      	sub	sp, #16
 8006358:	af00      	add	r7, sp, #0
 800635a:	60f8      	str	r0, [r7, #12]
 800635c:	60b9      	str	r1, [r7, #8]
 800635e:	607a      	str	r2, [r7, #4]
 8006360:	f24d 30dc 	movw	r0, #54236	; 0xd3dc
 8006364:	f6c0 0000 	movt	r0, #2048	; 0x800
 8006368:	f000 fc8c 	bl	8006c84 <Uart1_Printf>
 800636c:	68f8      	ldr	r0, [r7, #12]
 800636e:	68b9      	ldr	r1, [r7, #8]
 8006370:	687a      	ldr	r2, [r7, #4]
 8006372:	f7ff fedd 	bl	8006130 <Fault_Report>
 8006376:	f44f 436d 	mov.w	r3, #60672	; 0xed00
 800637a:	f2ce 0300 	movt	r3, #57344	; 0xe000
 800637e:	6a9b      	ldr	r3, [r3, #40]	; 0x28
 8006380:	0bdb      	lsrs	r3, r3, #15
 8006382:	f003 0301 	and.w	r3, r3, #1
 8006386:	f24d 3078 	movw	r0, #54136	; 0xd378
 800638a:	f6c0 0000 	movt	r0, #2048	; 0x800
 800638e:	4619      	mov	r1, r3
 8006390:	f000 fc78 	bl	8006c84 <Uart1_Printf>
 8006394:	f44f 436d 	mov.w	r3, #60672	; 0xed00
 8006398:	f2ce 0300 	movt	r3, #57344	; 0xe000
 800639c:	6b9b      	ldr	r3, [r3, #56]	; 0x38
 800639e:	f24d 308c 	movw	r0, #54156	; 0xd38c
 80063a2:	f6c0 0000 	movt	r0, #2048	; 0x800
 80063a6:	4619      	mov	r1, r3
 80063a8:	f000 fc6c 	bl	8006c84 <Uart1_Printf>
 80063ac:	e7fe      	b.n	80063ac <BusFault_Handler+0x58>
 80063ae:	bf00      	nop

080063b0 <UsageFault_Handler>:
 80063b0:	b580      	push	{r7, lr}
 80063b2:	b084      	sub	sp, #16
 80063b4:	af00      	add	r7, sp, #0
 80063b6:	60f8      	str	r0, [r7, #12]
 80063b8:	60b9      	str	r1, [r7, #8]
 80063ba:	607a      	str	r2, [r7, #4]
 80063bc:	f24d 30e8 	movw	r0, #54248	; 0xd3e8
 80063c0:	f6c0 0000 	movt	r0, #2048	; 0x800
 80063c4:	f000 fc5e 	bl	8006c84 <Uart1_Printf>
 80063c8:	68f8      	ldr	r0, [r7, #12]
 80063ca:	68b9      	ldr	r1, [r7, #8]
 80063cc:	687a      	ldr	r2, [r7, #4]
 80063ce:	f7ff feaf 	bl	8006130 <Fault_Report>
 80063d2:	e7fe      	b.n	80063d2 <UsageFault_Handler+0x22>

080063d4 <DebugMon_Handler>:
 80063d4:	b580      	push	{r7, lr}
 80063d6:	af00      	add	r7, sp, #0
 80063d8:	f24d 30f8 	movw	r0, #54264	; 0xd3f8
 80063dc:	f6c0 0000 	movt	r0, #2048	; 0x800
 80063e0:	f000 fc50 	bl	8006c84 <Uart1_Printf>
 80063e4:	e7fe      	b.n	80063e4 <DebugMon_Handler+0x10>
 80063e6:	bf00      	nop

080063e8 <SysTick_Handler>:
 80063e8:	b580      	push	{r7, lr}
 80063ea:	af00      	add	r7, sp, #0
 80063ec:	f644 432c 	movw	r3, #19500	; 0x4c2c
 80063f0:	f2c2 0300 	movt	r3, #8192	; 0x2000
 80063f4:	2201      	movs	r2, #1
 80063f6:	601a      	str	r2, [r3, #0]
 80063f8:	f7fd f968 	bl	80036cc <OS_Tick>
 80063fc:	f7fd fb64 	bl	8003ac8 <OS_Pend_Trigger>
 8006400:	bd80      	pop	{r7, pc}
 8006402:	bf00      	nop

08006404 <WWDG_IRQHandler>:
 8006404:	b580      	push	{r7, lr}
 8006406:	af00      	add	r7, sp, #0
 8006408:	f7ff fe4c 	bl	80060a4 <Invalid_ISR>
 800640c:	bd80      	pop	{r7, pc}
 800640e:	bf00      	nop

08006410 <PVD_IRQHandler>:
 8006410:	b580      	push	{r7, lr}
 8006412:	af00      	add	r7, sp, #0
 8006414:	f7ff fe46 	bl	80060a4 <Invalid_ISR>
 8006418:	bd80      	pop	{r7, pc}
 800641a:	bf00      	nop

0800641c <TAMPER_IRQHandler>:
 800641c:	b580      	push	{r7, lr}
 800641e:	af00      	add	r7, sp, #0
 8006420:	f7ff fe40 	bl	80060a4 <Invalid_ISR>
 8006424:	bd80      	pop	{r7, pc}
 8006426:	bf00      	nop

08006428 <RTC_IRQHandler>:
 8006428:	b580      	push	{r7, lr}
 800642a:	af00      	add	r7, sp, #0
 800642c:	f7ff fe3a 	bl	80060a4 <Invalid_ISR>
 8006430:	bd80      	pop	{r7, pc}
 8006432:	bf00      	nop

08006434 <FLASH_IRQHandler>:
 8006434:	b580      	push	{r7, lr}
 8006436:	af00      	add	r7, sp, #0
 8006438:	f7ff fe34 	bl	80060a4 <Invalid_ISR>
 800643c:	bd80      	pop	{r7, pc}
 800643e:	bf00      	nop

08006440 <RCC_IRQHandler>:
 8006440:	b580      	push	{r7, lr}
 8006442:	af00      	add	r7, sp, #0
 8006444:	f7ff fe2e 	bl	80060a4 <Invalid_ISR>
 8006448:	bd80      	pop	{r7, pc}
 800644a:	bf00      	nop

0800644c <EXTI0_IRQHandler>:
 800644c:	b580      	push	{r7, lr}
 800644e:	af00      	add	r7, sp, #0
 8006450:	f7ff fe28 	bl	80060a4 <Invalid_ISR>
 8006454:	bd80      	pop	{r7, pc}
 8006456:	bf00      	nop

08006458 <EXTI1_IRQHandler>:
 8006458:	b580      	push	{r7, lr}
 800645a:	af00      	add	r7, sp, #0
 800645c:	f7ff fe22 	bl	80060a4 <Invalid_ISR>
 8006460:	bd80      	pop	{r7, pc}
 8006462:	bf00      	nop

08006464 <EXTI2_IRQHandler>:
 8006464:	b580      	push	{r7, lr}
 8006466:	af00      	add	r7, sp, #0
 8006468:	f7ff fe1c 	bl	80060a4 <Invalid_ISR>
 800646c:	bd80      	pop	{r7, pc}
 800646e:	bf00      	nop

08006470 <EXTI3_IRQHandler>:
 8006470:	b580      	push	{r7, lr}
 8006472:	af00      	add	r7, sp, #0
 8006474:	f44f 6380 	mov.w	r3, #1024	; 0x400
 8006478:	f2c4 0301 	movt	r3, #16385	; 0x4001
 800647c:	f44f 6280 	mov.w	r2, #1024	; 0x400
 8006480:	f2c4 0201 	movt	r2, #16385	; 0x4001
 8006484:	6952      	ldr	r2, [r2, #20]
 8006486:	f042 0208 	orr.w	r2, r2, #8
 800648a:	615a      	str	r2, [r3, #20]
 800648c:	2009      	movs	r0, #9
 800648e:	f7ff fdef 	bl	8006070 <NVIC_ClearPendingIRQ>
 8006492:	f644 4330 	movw	r3, #19504	; 0x4c30
 8006496:	f2c2 0300 	movt	r3, #8192	; 0x2000
 800649a:	2201      	movs	r2, #1
 800649c:	601a      	str	r2, [r3, #0]
 800649e:	2000      	movs	r0, #0
 80064a0:	f644 4130 	movw	r1, #19504	; 0x4c30
 80064a4:	f2c2 0100 	movt	r1, #8192	; 0x2000
 80064a8:	f7fd fa0e 	bl	80038c8 <OS_Signal_Send>
 80064ac:	bd80      	pop	{r7, pc}
 80064ae:	bf00      	nop

080064b0 <EXTI4_IRQHandler>:
 80064b0:	b580      	push	{r7, lr}
 80064b2:	af00      	add	r7, sp, #0
 80064b4:	f7ff fdf6 	bl	80060a4 <Invalid_ISR>
 80064b8:	bd80      	pop	{r7, pc}
 80064ba:	bf00      	nop

080064bc <DMA1_Channel1_IRQHandler>:
 80064bc:	b580      	push	{r7, lr}
 80064be:	af00      	add	r7, sp, #0
 80064c0:	f7ff fdf0 	bl	80060a4 <Invalid_ISR>
 80064c4:	bd80      	pop	{r7, pc}
 80064c6:	bf00      	nop

080064c8 <DMA1_Channel2_IRQHandler>:
 80064c8:	b580      	push	{r7, lr}
 80064ca:	af00      	add	r7, sp, #0
 80064cc:	f7ff fdea 	bl	80060a4 <Invalid_ISR>
 80064d0:	bd80      	pop	{r7, pc}
 80064d2:	bf00      	nop

080064d4 <DMA1_Channel3_IRQHandler>:
 80064d4:	b580      	push	{r7, lr}
 80064d6:	af00      	add	r7, sp, #0
 80064d8:	f7ff fde4 	bl	80060a4 <Invalid_ISR>
 80064dc:	bd80      	pop	{r7, pc}
 80064de:	bf00      	nop

080064e0 <DMA1_Channel4_IRQHandler>:
 80064e0:	b580      	push	{r7, lr}
 80064e2:	af00      	add	r7, sp, #0
 80064e4:	f7ff fdde 	bl	80060a4 <Invalid_ISR>
 80064e8:	bd80      	pop	{r7, pc}
 80064ea:	bf00      	nop

080064ec <DMA1_Channel5_IRQHandler>:
 80064ec:	b580      	push	{r7, lr}
 80064ee:	af00      	add	r7, sp, #0
 80064f0:	f7ff fdd8 	bl	80060a4 <Invalid_ISR>
 80064f4:	bd80      	pop	{r7, pc}
 80064f6:	bf00      	nop

080064f8 <DMA1_Channel6_IRQHandler>:
 80064f8:	b580      	push	{r7, lr}
 80064fa:	af00      	add	r7, sp, #0
 80064fc:	f7ff fdd2 	bl	80060a4 <Invalid_ISR>
 8006500:	bd80      	pop	{r7, pc}
 8006502:	bf00      	nop

08006504 <DMA1_Channel7_IRQHandler>:
 8006504:	b580      	push	{r7, lr}
 8006506:	af00      	add	r7, sp, #0
 8006508:	f7ff fdcc 	bl	80060a4 <Invalid_ISR>
 800650c:	bd80      	pop	{r7, pc}
 800650e:	bf00      	nop

08006510 <ADC1_2_IRQHandler>:
 8006510:	b580      	push	{r7, lr}
 8006512:	af00      	add	r7, sp, #0
 8006514:	f7ff fdc6 	bl	80060a4 <Invalid_ISR>
 8006518:	bd80      	pop	{r7, pc}
 800651a:	bf00      	nop

0800651c <USB_HP_CAN_TX_IRQHandler>:
 800651c:	b580      	push	{r7, lr}
 800651e:	af00      	add	r7, sp, #0
 8006520:	f7ff fdc0 	bl	80060a4 <Invalid_ISR>
 8006524:	bd80      	pop	{r7, pc}
 8006526:	bf00      	nop

08006528 <USB_LP_CAN_RX0_IRQHandler>:
 8006528:	b580      	push	{r7, lr}
 800652a:	af00      	add	r7, sp, #0
 800652c:	f7ff fdba 	bl	80060a4 <Invalid_ISR>
 8006530:	bd80      	pop	{r7, pc}
 8006532:	bf00      	nop

08006534 <CAN_RX1_IRQHandler>:
 8006534:	b580      	push	{r7, lr}
 8006536:	af00      	add	r7, sp, #0
 8006538:	f7ff fdb4 	bl	80060a4 <Invalid_ISR>
 800653c:	bd80      	pop	{r7, pc}
 800653e:	bf00      	nop

08006540 <CAN_SCE_IRQHandler>:
 8006540:	b580      	push	{r7, lr}
 8006542:	af00      	add	r7, sp, #0
 8006544:	f7ff fdae 	bl	80060a4 <Invalid_ISR>
 8006548:	bd80      	pop	{r7, pc}
 800654a:	bf00      	nop

0800654c <EXTI9_5_IRQHandler>:
 800654c:	b580      	push	{r7, lr}
 800654e:	b082      	sub	sp, #8
 8006550:	af00      	add	r7, sp, #0
 8006552:	f44f 6380 	mov.w	r3, #1024	; 0x400
 8006556:	f2c4 0301 	movt	r3, #16385	; 0x4001
 800655a:	695b      	ldr	r3, [r3, #20]
 800655c:	095b      	lsrs	r3, r3, #5
 800655e:	f003 0307 	and.w	r3, r3, #7
 8006562:	607b      	str	r3, [r7, #4]
 8006564:	f44f 6380 	mov.w	r3, #1024	; 0x400
 8006568:	f2c4 0301 	movt	r3, #16385	; 0x4001
 800656c:	22e0      	movs	r2, #224	; 0xe0
 800656e:	615a      	str	r2, [r3, #20]
 8006570:	2017      	movs	r0, #23
 8006572:	f7ff fd7d 	bl	8006070 <NVIC_ClearPendingIRQ>
 8006576:	f640 1378 	movw	r3, #2424	; 0x978
 800657a:	f2c2 0300 	movt	r3, #8192	; 0x2000
 800657e:	687a      	ldr	r2, [r7, #4]
 8006580:	f853 2022 	ldr.w	r2, [r3, r2, lsl #2]
 8006584:	f644 4330 	movw	r3, #19504	; 0x4c30
 8006588:	f2c2 0300 	movt	r3, #8192	; 0x2000
 800658c:	601a      	str	r2, [r3, #0]
 800658e:	2000      	movs	r0, #0
 8006590:	f644 4130 	movw	r1, #19504	; 0x4c30
 8006594:	f2c2 0100 	movt	r1, #8192	; 0x2000
 8006598:	f7fd f996 	bl	80038c8 <OS_Signal_Send>
 800659c:	3708      	adds	r7, #8
 800659e:	46bd      	mov	sp, r7
 80065a0:	bd80      	pop	{r7, pc}
 80065a2:	bf00      	nop

080065a4 <TIM1_BRK_IRQHandler>:
 80065a4:	b580      	push	{r7, lr}
 80065a6:	af00      	add	r7, sp, #0
 80065a8:	f7ff fd7c 	bl	80060a4 <Invalid_ISR>
 80065ac:	bd80      	pop	{r7, pc}
 80065ae:	bf00      	nop

080065b0 <TIM1_UP_IRQHandler>:
 80065b0:	b580      	push	{r7, lr}
 80065b2:	af00      	add	r7, sp, #0
 80065b4:	f7ff fd76 	bl	80060a4 <Invalid_ISR>
 80065b8:	bd80      	pop	{r7, pc}
 80065ba:	bf00      	nop

080065bc <TIM1_TRG_COM_IRQHandler>:
 80065bc:	b580      	push	{r7, lr}
 80065be:	af00      	add	r7, sp, #0
 80065c0:	f7ff fd70 	bl	80060a4 <Invalid_ISR>
 80065c4:	bd80      	pop	{r7, pc}
 80065c6:	bf00      	nop

080065c8 <TIM1_CC_IRQHandler>:
 80065c8:	b580      	push	{r7, lr}
 80065ca:	af00      	add	r7, sp, #0
 80065cc:	f7ff fd6a 	bl	80060a4 <Invalid_ISR>
 80065d0:	bd80      	pop	{r7, pc}
 80065d2:	bf00      	nop

080065d4 <TIM2_IRQHandler>:
 80065d4:	b580      	push	{r7, lr}
 80065d6:	af00      	add	r7, sp, #0
 80065d8:	f7ff fd64 	bl	80060a4 <Invalid_ISR>
 80065dc:	bd80      	pop	{r7, pc}
 80065de:	bf00      	nop

080065e0 <TIM3_IRQHandler>:
 80065e0:	b580      	push	{r7, lr}
 80065e2:	af00      	add	r7, sp, #0
 80065e4:	f7ff fd5e 	bl	80060a4 <Invalid_ISR>
 80065e8:	bd80      	pop	{r7, pc}
 80065ea:	bf00      	nop

080065ec <TIM4_IRQHandler>:
 80065ec:	b580      	push	{r7, lr}
 80065ee:	af00      	add	r7, sp, #0
 80065f0:	f44f 6300 	mov.w	r3, #2048	; 0x800
 80065f4:	f2c4 0300 	movt	r3, #16384	; 0x4000
 80065f8:	f44f 6200 	mov.w	r2, #2048	; 0x800
 80065fc:	f2c4 0200 	movt	r2, #16384	; 0x4000
 8006600:	8a12      	ldrh	r2, [r2, #16]
 8006602:	b292      	uxth	r2, r2
 8006604:	f022 0201 	bic.w	r2, r2, #1
 8006608:	b292      	uxth	r2, r2
 800660a:	821a      	strh	r2, [r3, #16]
 800660c:	201e      	movs	r0, #30
 800660e:	f7ff fd2f 	bl	8006070 <NVIC_ClearPendingIRQ>
 8006612:	f644 4334 	movw	r3, #19508	; 0x4c34
 8006616:	f2c2 0300 	movt	r3, #8192	; 0x2000
 800661a:	2201      	movs	r2, #1
 800661c:	601a      	str	r2, [r3, #0]
 800661e:	bd80      	pop	{r7, pc}

08006620 <I2C1_EV_IRQHandler>:
 8006620:	b580      	push	{r7, lr}
 8006622:	af00      	add	r7, sp, #0
 8006624:	f7ff fd3e 	bl	80060a4 <Invalid_ISR>
 8006628:	bd80      	pop	{r7, pc}
 800662a:	bf00      	nop

0800662c <I2C1_ER_IRQHandler>:
 800662c:	b580      	push	{r7, lr}
 800662e:	af00      	add	r7, sp, #0
 8006630:	f7ff fd38 	bl	80060a4 <Invalid_ISR>
 8006634:	bd80      	pop	{r7, pc}
 8006636:	bf00      	nop

08006638 <I2C2_EV_IRQHandler>:
 8006638:	b580      	push	{r7, lr}
 800663a:	af00      	add	r7, sp, #0
 800663c:	f7ff fd32 	bl	80060a4 <Invalid_ISR>
 8006640:	bd80      	pop	{r7, pc}
 8006642:	bf00      	nop

08006644 <I2C2_ER_IRQHandler>:
 8006644:	b580      	push	{r7, lr}
 8006646:	af00      	add	r7, sp, #0
 8006648:	f7ff fd2c 	bl	80060a4 <Invalid_ISR>
 800664c:	bd80      	pop	{r7, pc}
 800664e:	bf00      	nop

08006650 <SPI1_IRQHandler>:
 8006650:	b580      	push	{r7, lr}
 8006652:	af00      	add	r7, sp, #0
 8006654:	f7ff fd26 	bl	80060a4 <Invalid_ISR>
 8006658:	bd80      	pop	{r7, pc}
 800665a:	bf00      	nop

0800665c <SPI2_IRQHandler>:
 800665c:	b580      	push	{r7, lr}
 800665e:	af00      	add	r7, sp, #0
 8006660:	f7ff fd20 	bl	80060a4 <Invalid_ISR>
 8006664:	bd80      	pop	{r7, pc}
 8006666:	bf00      	nop

08006668 <USART1_IRQHandler>:
 8006668:	b580      	push	{r7, lr}
 800666a:	b082      	sub	sp, #8
 800666c:	af00      	add	r7, sp, #0
 800666e:	f44f 5360 	mov.w	r3, #14336	; 0x3800
 8006672:	f2c4 0301 	movt	r3, #16385	; 0x4001
 8006676:	889b      	ldrh	r3, [r3, #4]
 8006678:	b29b      	uxth	r3, r3
 800667a:	71fb      	strb	r3, [r7, #7]
 800667c:	2025      	movs	r0, #37	; 0x25
 800667e:	f7ff fcf7 	bl	8006070 <NVIC_ClearPendingIRQ>
 8006682:	f644 4350 	movw	r3, #19536	; 0x4c50
 8006686:	f2c2 0300 	movt	r3, #8192	; 0x2000
 800668a:	681b      	ldr	r3, [r3, #0]
 800668c:	461a      	mov	r2, r3
 800668e:	1c51      	adds	r1, r2, #1
 8006690:	f644 4350 	movw	r3, #19536	; 0x4c50
 8006694:	f2c2 0300 	movt	r3, #8192	; 0x2000
 8006698:	6019      	str	r1, [r3, #0]
 800669a:	f644 433c 	movw	r3, #19516	; 0x4c3c
 800669e:	f2c2 0300 	movt	r3, #8192	; 0x2000
 80066a2:	79f9      	ldrb	r1, [r7, #7]
 80066a4:	5499      	strb	r1, [r3, r2]
 80066a6:	79fb      	ldrb	r3, [r7, #7]
 80066a8:	2b0d      	cmp	r3, #13
 80066aa:	d006      	beq.n	80066ba <USART1_IRQHandler+0x52>
 80066ac:	f644 4350 	movw	r3, #19536	; 0x4c50
 80066b0:	f2c2 0300 	movt	r3, #8192	; 0x2000
 80066b4:	681b      	ldr	r3, [r3, #0]
 80066b6:	2b13      	cmp	r3, #19
 80066b8:	dd19      	ble.n	80066ee <USART1_IRQHandler+0x86>
 80066ba:	f644 4350 	movw	r3, #19536	; 0x4c50
 80066be:	f2c2 0300 	movt	r3, #8192	; 0x2000
 80066c2:	681a      	ldr	r2, [r3, #0]
 80066c4:	f644 433c 	movw	r3, #19516	; 0x4c3c
 80066c8:	f2c2 0300 	movt	r3, #8192	; 0x2000
 80066cc:	2100      	movs	r1, #0
 80066ce:	5499      	strb	r1, [r3, r2]
 80066d0:	f644 4350 	movw	r3, #19536	; 0x4c50
 80066d4:	f2c2 0300 	movt	r3, #8192	; 0x2000
 80066d8:	2200      	movs	r2, #0
 80066da:	601a      	str	r2, [r3, #0]
 80066dc:	2301      	movs	r3, #1
 80066de:	603b      	str	r3, [r7, #0]
 80066e0:	6838      	ldr	r0, [r7, #0]
 80066e2:	f644 413c 	movw	r1, #19516	; 0x4c3c
 80066e6:	f2c2 0100 	movt	r1, #8192	; 0x2000
 80066ea:	f7fd f8ed 	bl	80038c8 <OS_Signal_Send>
 80066ee:	f644 4338 	movw	r3, #19512	; 0x4c38
 80066f2:	f2c2 0300 	movt	r3, #8192	; 0x2000
 80066f6:	2201      	movs	r2, #1
 80066f8:	601a      	str	r2, [r3, #0]
 80066fa:	3708      	adds	r7, #8
 80066fc:	46bd      	mov	sp, r7
 80066fe:	bd80      	pop	{r7, pc}

08006700 <USART2_IRQHandler>:
 8006700:	b580      	push	{r7, lr}
 8006702:	af00      	add	r7, sp, #0
 8006704:	f7ff fcce 	bl	80060a4 <Invalid_ISR>
 8006708:	bd80      	pop	{r7, pc}
 800670a:	bf00      	nop

0800670c <USART3_IRQHandler>:
 800670c:	b580      	push	{r7, lr}
 800670e:	af00      	add	r7, sp, #0
 8006710:	f7ff fcc8 	bl	80060a4 <Invalid_ISR>
 8006714:	bd80      	pop	{r7, pc}
 8006716:	bf00      	nop

08006718 <EXTI15_10_IRQHandler>:
 8006718:	b580      	push	{r7, lr}
 800671a:	b082      	sub	sp, #8
 800671c:	af00      	add	r7, sp, #0
 800671e:	f44f 6380 	mov.w	r3, #1024	; 0x400
 8006722:	f2c4 0301 	movt	r3, #16385	; 0x4001
 8006726:	695b      	ldr	r3, [r3, #20]
 8006728:	0b5b      	lsrs	r3, r3, #13
 800672a:	f003 0303 	and.w	r3, r3, #3
 800672e:	607b      	str	r3, [r7, #4]
 8006730:	f44f 6380 	mov.w	r3, #1024	; 0x400
 8006734:	f2c4 0301 	movt	r3, #16385	; 0x4001
 8006738:	f44f 6280 	mov.w	r2, #1024	; 0x400
 800673c:	f2c4 0201 	movt	r2, #16385	; 0x4001
 8006740:	6952      	ldr	r2, [r2, #20]
 8006742:	f442 42c0 	orr.w	r2, r2, #24576	; 0x6000
 8006746:	615a      	str	r2, [r3, #20]
 8006748:	2028      	movs	r0, #40	; 0x28
 800674a:	f7ff fc91 	bl	8006070 <NVIC_ClearPendingIRQ>
 800674e:	f640 1398 	movw	r3, #2456	; 0x998
 8006752:	f2c2 0300 	movt	r3, #8192	; 0x2000
 8006756:	687a      	ldr	r2, [r7, #4]
 8006758:	f853 2022 	ldr.w	r2, [r3, r2, lsl #2]
 800675c:	f644 4330 	movw	r3, #19504	; 0x4c30
 8006760:	f2c2 0300 	movt	r3, #8192	; 0x2000
 8006764:	601a      	str	r2, [r3, #0]
 8006766:	2000      	movs	r0, #0
 8006768:	f644 4130 	movw	r1, #19504	; 0x4c30
 800676c:	f2c2 0100 	movt	r1, #8192	; 0x2000
 8006770:	f7fd f8aa 	bl	80038c8 <OS_Signal_Send>
 8006774:	3708      	adds	r7, #8
 8006776:	46bd      	mov	sp, r7
 8006778:	bd80      	pop	{r7, pc}
 800677a:	bf00      	nop

0800677c <RTCAlarm_IRQHandler>:
 800677c:	b580      	push	{r7, lr}
 800677e:	af00      	add	r7, sp, #0
 8006780:	f7ff fc90 	bl	80060a4 <Invalid_ISR>
 8006784:	bd80      	pop	{r7, pc}
 8006786:	bf00      	nop

08006788 <USBWakeUp_IRQHandler>:
 8006788:	b580      	push	{r7, lr}
 800678a:	af00      	add	r7, sp, #0
 800678c:	f7ff fc8a 	bl	80060a4 <Invalid_ISR>
 8006790:	bd80      	pop	{r7, pc}
 8006792:	bf00      	nop
 8006794:	0000      	movs	r0, r0
	...

08006798 <SysTick_OS_Tick>:
 8006798:	b590      	push	{r4, r7, lr}
 800679a:	b083      	sub	sp, #12
 800679c:	af00      	add	r7, sp, #0
 800679e:	6078      	str	r0, [r7, #4]
 80067a0:	f24e 0310 	movw	r3, #57360	; 0xe010
 80067a4:	f2ce 0300 	movt	r3, #57344	; 0xe000
 80067a8:	2202      	movs	r2, #2
 80067aa:	601a      	str	r2, [r3, #0]
 80067ac:	f24e 0410 	movw	r4, #57360	; 0xe010
 80067b0:	f2ce 0400 	movt	r4, #57344	; 0xe000
 80067b4:	6878      	ldr	r0, [r7, #4]
 80067b6:	f005 fd7b 	bl	800c2b0 <__aeabi_ui2d>
 80067ba:	4602      	mov	r2, r0
 80067bc:	460b      	mov	r3, r1
 80067be:	4610      	mov	r0, r2
 80067c0:	4619      	mov	r1, r3
 80067c2:	a317      	add	r3, pc, #92	; (adr r3, 8006820 <SysTick_OS_Tick+0x88>)
 80067c4:	e9d3 2300 	ldrd	r2, r3, [r3]
 80067c8:	f005 fde8 	bl	800c39c <__aeabi_dmul>
 80067cc:	4602      	mov	r2, r0
 80067ce:	460b      	mov	r3, r1
 80067d0:	4610      	mov	r0, r2
 80067d2:	4619      	mov	r1, r3
 80067d4:	f04f 0200 	mov.w	r2, #0
 80067d8:	f04f 0300 	mov.w	r3, #0
 80067dc:	f6c3 73e0 	movt	r3, #16352	; 0x3fe0
 80067e0:	f005 fc2a 	bl	800c038 <__adddf3>
 80067e4:	4602      	mov	r2, r0
 80067e6:	460b      	mov	r3, r1
 80067e8:	4610      	mov	r0, r2
 80067ea:	4619      	mov	r1, r3
 80067ec:	f006 f898 	bl	800c920 <__aeabi_d2uiz>
 80067f0:	4603      	mov	r3, r0
 80067f2:	6063      	str	r3, [r4, #4]
 80067f4:	f24e 0310 	movw	r3, #57360	; 0xe010
 80067f8:	f2ce 0300 	movt	r3, #57344	; 0xe000
 80067fc:	2200      	movs	r2, #0
 80067fe:	609a      	str	r2, [r3, #8]
 8006800:	f24e 0310 	movw	r3, #57360	; 0xe010
 8006804:	f2ce 0300 	movt	r3, #57344	; 0xe000
 8006808:	f24e 0210 	movw	r2, #57360	; 0xe010
 800680c:	f2ce 0200 	movt	r2, #57344	; 0xe000
 8006810:	6812      	ldr	r2, [r2, #0]
 8006812:	f042 0201 	orr.w	r2, r2, #1
 8006816:	601a      	str	r2, [r3, #0]
 8006818:	370c      	adds	r7, #12
 800681a:	46bd      	mov	sp, r7
 800681c:	bd90      	pop	{r4, r7, pc}
 800681e:	bf00      	nop
 8006820:	00000000 	andeq	r0, r0, r0
 8006824:	40c19400 	sbcmi	r9, r1, r0, lsl #8

08006828 <NVIC_EnableIRQ>:
 8006828:	b480      	push	{r7}
 800682a:	b083      	sub	sp, #12
 800682c:	af00      	add	r7, sp, #0
 800682e:	4603      	mov	r3, r0
 8006830:	71fb      	strb	r3, [r7, #7]
 8006832:	f44f 4361 	mov.w	r3, #57600	; 0xe100
 8006836:	f2ce 0300 	movt	r3, #57344	; 0xe000
 800683a:	f997 2007 	ldrsb.w	r2, [r7, #7]
 800683e:	0952      	lsrs	r2, r2, #5
 8006840:	79f9      	ldrb	r1, [r7, #7]
 8006842:	f001 011f 	and.w	r1, r1, #31
 8006846:	2001      	movs	r0, #1
 8006848:	fa00 f101 	lsl.w	r1, r0, r1
 800684c:	f843 1022 	str.w	r1, [r3, r2, lsl #2]
 8006850:	370c      	adds	r7, #12
 8006852:	46bd      	mov	sp, r7
 8006854:	f85d 7b04 	ldr.w	r7, [sp], #4
 8006858:	4770      	bx	lr
 800685a:	bf00      	nop

0800685c <NVIC_DisableIRQ>:
 800685c:	b480      	push	{r7}
 800685e:	b083      	sub	sp, #12
 8006860:	af00      	add	r7, sp, #0
 8006862:	4603      	mov	r3, r0
 8006864:	71fb      	strb	r3, [r7, #7]
 8006866:	f44f 4361 	mov.w	r3, #57600	; 0xe100
 800686a:	f2ce 0300 	movt	r3, #57344	; 0xe000
 800686e:	f997 2007 	ldrsb.w	r2, [r7, #7]
 8006872:	0952      	lsrs	r2, r2, #5
 8006874:	79f9      	ldrb	r1, [r7, #7]
 8006876:	f001 011f 	and.w	r1, r1, #31
 800687a:	2001      	movs	r0, #1
 800687c:	fa00 f101 	lsl.w	r1, r0, r1
 8006880:	3220      	adds	r2, #32
 8006882:	f843 1022 	str.w	r1, [r3, r2, lsl #2]
 8006886:	370c      	adds	r7, #12
 8006888:	46bd      	mov	sp, r7
 800688a:	f85d 7b04 	ldr.w	r7, [sp], #4
 800688e:	4770      	bx	lr

08006890 <NVIC_ClearPendingIRQ>:
 8006890:	b480      	push	{r7}
 8006892:	b083      	sub	sp, #12
 8006894:	af00      	add	r7, sp, #0
 8006896:	4603      	mov	r3, r0
 8006898:	71fb      	strb	r3, [r7, #7]
 800689a:	f44f 4361 	mov.w	r3, #57600	; 0xe100
 800689e:	f2ce 0300 	movt	r3, #57344	; 0xe000
 80068a2:	f997 2007 	ldrsb.w	r2, [r7, #7]
 80068a6:	0952      	lsrs	r2, r2, #5
 80068a8:	79f9      	ldrb	r1, [r7, #7]
 80068aa:	f001 011f 	and.w	r1, r1, #31
 80068ae:	2001      	movs	r0, #1
 80068b0:	fa00 f101 	lsl.w	r1, r0, r1
 80068b4:	3260      	adds	r2, #96	; 0x60
 80068b6:	f843 1022 	str.w	r1, [r3, r2, lsl #2]
 80068ba:	370c      	adds	r7, #12
 80068bc:	46bd      	mov	sp, r7
 80068be:	f85d 7b04 	ldr.w	r7, [sp], #4
 80068c2:	4770      	bx	lr

080068c4 <TIM4_Repeat_Interrupt_Enable>:
 80068c4:	b580      	push	{r7, lr}
 80068c6:	b082      	sub	sp, #8
 80068c8:	af00      	add	r7, sp, #0
 80068ca:	6078      	str	r0, [r7, #4]
 80068cc:	6039      	str	r1, [r7, #0]
 80068ce:	687b      	ldr	r3, [r7, #4]
 80068d0:	2b00      	cmp	r3, #0
 80068d2:	d06a      	beq.n	80069aa <TIM4_Repeat_Interrupt_Enable+0xe6>
 80068d4:	f44f 5380 	mov.w	r3, #4096	; 0x1000
 80068d8:	f2c4 0302 	movt	r3, #16386	; 0x4002
 80068dc:	f44f 5280 	mov.w	r2, #4096	; 0x1000
 80068e0:	f2c4 0202 	movt	r2, #16386	; 0x4002
 80068e4:	69d2      	ldr	r2, [r2, #28]
 80068e6:	f042 0204 	orr.w	r2, r2, #4
 80068ea:	61da      	str	r2, [r3, #28]
 80068ec:	f44f 6300 	mov.w	r3, #2048	; 0x800
 80068f0:	f2c4 0300 	movt	r3, #16384	; 0x4000
 80068f4:	2210      	movs	r2, #16
 80068f6:	801a      	strh	r2, [r3, #0]
 80068f8:	f44f 6300 	mov.w	r3, #2048	; 0x800
 80068fc:	f2c4 0300 	movt	r3, #16384	; 0x4000
 8006900:	f240 529f 	movw	r2, #1439	; 0x59f
 8006904:	851a      	strh	r2, [r3, #40]	; 0x28
 8006906:	f44f 6300 	mov.w	r3, #2048	; 0x800
 800690a:	f2c4 0300 	movt	r3, #16384	; 0x4000
 800690e:	683a      	ldr	r2, [r7, #0]
 8006910:	b292      	uxth	r2, r2
 8006912:	4611      	mov	r1, r2
 8006914:	0089      	lsls	r1, r1, #2
 8006916:	440a      	add	r2, r1
 8006918:	4611      	mov	r1, r2
 800691a:	0088      	lsls	r0, r1, #2
 800691c:	4611      	mov	r1, r2
 800691e:	4602      	mov	r2, r0
 8006920:	440a      	add	r2, r1
 8006922:	0052      	lsls	r2, r2, #1
 8006924:	b292      	uxth	r2, r2
 8006926:	3a01      	subs	r2, #1
 8006928:	b292      	uxth	r2, r2
 800692a:	859a      	strh	r2, [r3, #44]	; 0x2c
 800692c:	f44f 6300 	mov.w	r3, #2048	; 0x800
 8006930:	f2c4 0300 	movt	r3, #16384	; 0x4000
 8006934:	f44f 6200 	mov.w	r2, #2048	; 0x800
 8006938:	f2c4 0200 	movt	r2, #16384	; 0x4000
 800693c:	8a92      	ldrh	r2, [r2, #20]
 800693e:	b292      	uxth	r2, r2
 8006940:	f042 0201 	orr.w	r2, r2, #1
 8006944:	b292      	uxth	r2, r2
 8006946:	829a      	strh	r2, [r3, #20]
 8006948:	f44f 6300 	mov.w	r3, #2048	; 0x800
 800694c:	f2c4 0300 	movt	r3, #16384	; 0x4000
 8006950:	f44f 6200 	mov.w	r2, #2048	; 0x800
 8006954:	f2c4 0200 	movt	r2, #16384	; 0x4000
 8006958:	8a12      	ldrh	r2, [r2, #16]
 800695a:	b292      	uxth	r2, r2
 800695c:	f022 0201 	bic.w	r2, r2, #1
 8006960:	b292      	uxth	r2, r2
 8006962:	821a      	strh	r2, [r3, #16]
 8006964:	201e      	movs	r0, #30
 8006966:	f7ff ff93 	bl	8006890 <NVIC_ClearPendingIRQ>
 800696a:	f44f 6300 	mov.w	r3, #2048	; 0x800
 800696e:	f2c4 0300 	movt	r3, #16384	; 0x4000
 8006972:	f44f 6200 	mov.w	r2, #2048	; 0x800
 8006976:	f2c4 0200 	movt	r2, #16384	; 0x4000
 800697a:	8992      	ldrh	r2, [r2, #12]
 800697c:	b292      	uxth	r2, r2
 800697e:	f042 0201 	orr.w	r2, r2, #1
 8006982:	b292      	uxth	r2, r2
 8006984:	819a      	strh	r2, [r3, #12]
 8006986:	201e      	movs	r0, #30
 8006988:	f7ff ff4e 	bl	8006828 <NVIC_EnableIRQ>
 800698c:	f44f 6300 	mov.w	r3, #2048	; 0x800
 8006990:	f2c4 0300 	movt	r3, #16384	; 0x4000
 8006994:	f44f 6200 	mov.w	r2, #2048	; 0x800
 8006998:	f2c4 0200 	movt	r2, #16384	; 0x4000
 800699c:	8812      	ldrh	r2, [r2, #0]
 800699e:	b292      	uxth	r2, r2
 80069a0:	f042 0201 	orr.w	r2, r2, #1
 80069a4:	b292      	uxth	r2, r2
 80069a6:	801a      	strh	r2, [r3, #0]
 80069a8:	e01e      	b.n	80069e8 <TIM4_Repeat_Interrupt_Enable+0x124>
 80069aa:	201e      	movs	r0, #30
 80069ac:	f7ff ff56 	bl	800685c <NVIC_DisableIRQ>
 80069b0:	f44f 6300 	mov.w	r3, #2048	; 0x800
 80069b4:	f2c4 0300 	movt	r3, #16384	; 0x4000
 80069b8:	f44f 6200 	mov.w	r2, #2048	; 0x800
 80069bc:	f2c4 0200 	movt	r2, #16384	; 0x4000
 80069c0:	8812      	ldrh	r2, [r2, #0]
 80069c2:	b292      	uxth	r2, r2
 80069c4:	f022 0201 	bic.w	r2, r2, #1
 80069c8:	b292      	uxth	r2, r2
 80069ca:	801a      	strh	r2, [r3, #0]
 80069cc:	f44f 6300 	mov.w	r3, #2048	; 0x800
 80069d0:	f2c4 0300 	movt	r3, #16384	; 0x4000
 80069d4:	f44f 6200 	mov.w	r2, #2048	; 0x800
 80069d8:	f2c4 0200 	movt	r2, #16384	; 0x4000
 80069dc:	8992      	ldrh	r2, [r2, #12]
 80069de:	b292      	uxth	r2, r2
 80069e0:	f022 0201 	bic.w	r2, r2, #1
 80069e4:	b292      	uxth	r2, r2
 80069e6:	819a      	strh	r2, [r3, #12]
 80069e8:	3708      	adds	r7, #8
 80069ea:	46bd      	mov	sp, r7
 80069ec:	bd80      	pop	{r7, pc}
 80069ee:	bf00      	nop

080069f0 <NVIC_EnableIRQ>:
 80069f0:	b480      	push	{r7}
 80069f2:	b083      	sub	sp, #12
 80069f4:	af00      	add	r7, sp, #0
 80069f6:	4603      	mov	r3, r0
 80069f8:	71fb      	strb	r3, [r7, #7]
 80069fa:	f44f 4361 	mov.w	r3, #57600	; 0xe100
 80069fe:	f2ce 0300 	movt	r3, #57344	; 0xe000
 8006a02:	f997 2007 	ldrsb.w	r2, [r7, #7]
 8006a06:	0952      	lsrs	r2, r2, #5
 8006a08:	79f9      	ldrb	r1, [r7, #7]
 8006a0a:	f001 011f 	and.w	r1, r1, #31
 8006a0e:	2001      	movs	r0, #1
 8006a10:	fa00 f101 	lsl.w	r1, r0, r1
 8006a14:	f843 1022 	str.w	r1, [r3, r2, lsl #2]
 8006a18:	370c      	adds	r7, #12
 8006a1a:	46bd      	mov	sp, r7
 8006a1c:	f85d 7b04 	ldr.w	r7, [sp], #4
 8006a20:	4770      	bx	lr
 8006a22:	bf00      	nop

08006a24 <NVIC_DisableIRQ>:
 8006a24:	b480      	push	{r7}
 8006a26:	b083      	sub	sp, #12
 8006a28:	af00      	add	r7, sp, #0
 8006a2a:	4603      	mov	r3, r0
 8006a2c:	71fb      	strb	r3, [r7, #7]
 8006a2e:	f44f 4361 	mov.w	r3, #57600	; 0xe100
 8006a32:	f2ce 0300 	movt	r3, #57344	; 0xe000
 8006a36:	f997 2007 	ldrsb.w	r2, [r7, #7]
 8006a3a:	0952      	lsrs	r2, r2, #5
 8006a3c:	79f9      	ldrb	r1, [r7, #7]
 8006a3e:	f001 011f 	and.w	r1, r1, #31
 8006a42:	2001      	movs	r0, #1
 8006a44:	fa00 f101 	lsl.w	r1, r0, r1
 8006a48:	3220      	adds	r2, #32
 8006a4a:	f843 1022 	str.w	r1, [r3, r2, lsl #2]
 8006a4e:	370c      	adds	r7, #12
 8006a50:	46bd      	mov	sp, r7
 8006a52:	f85d 7b04 	ldr.w	r7, [sp], #4
 8006a56:	4770      	bx	lr

08006a58 <NVIC_ClearPendingIRQ>:
 8006a58:	b480      	push	{r7}
 8006a5a:	b083      	sub	sp, #12
