
.\rom_0x08003000.elf:     file format elf32-littlearm
.\rom_0x08003000.elf
architecture: arm, flags 0x00000112:
EXEC_P, HAS_SYMS, D_PAGED
start address 0x08003000

Program Header:
0x70000001 off    0x0000e700 vaddr 0x0800e700 paddr 0x0800e700 align 2**2
         filesz 0x00000008 memsz 0x00000008 flags r--
    LOAD off    0x00000000 vaddr 0x08000000 paddr 0x08000000 align 2**15
         filesz 0x00011890 memsz 0x00011890 flags r-x
    LOAD off    0x00018000 vaddr 0x20000000 paddr 0x08011890 align 2**15
         filesz 0x000005dc memsz 0x00004408 flags rw-
private flags = 5000202: [Version5 EABI] [soft-float ABI] [has entry point]

Sections:
Idx Name          Size      VMA       LMA       File off  Algn
  0 .text         0000b700  08003000  08003000  00003000  2**4
                  CONTENTS, ALLOC, LOAD, READONLY, CODE
  1 .ARM.exidx    00000008  0800e700  0800e700  0000e700  2**2
                  CONTENTS, ALLOC, LOAD, READONLY, DATA
  2 .rodata       00003188  0800e708  0800e708  0000e708  2**3
                  CONTENTS, ALLOC, LOAD, READONLY, DATA
  3 .data         000005dc  20000000  08011890  00018000  2**2
                  CONTENTS, ALLOC, LOAD, DATA
  4 .bss          00003e28  200005e0  08011e70  000185dc  2**3
                  ALLOC
  5 .comment      00000030  00000000  00000000  000185dc  2**0
                  CONTENTS, READONLY
  6 .ARM.attributes 00000031  00000000  00000000  0001860c  2**0
                  CONTENTS, READONLY
  7 .debug_frame  0000082c  00000000  00000000  00018640  2**2
                  CONTENTS, READONLY, DEBUGGING
SYMBOL TABLE:
08003000 l    d  .text	00000000 .text
0800e700 l    d  .ARM.exidx	00000000 .ARM.exidx
0800e708 l    d  .rodata	00000000 .rodata
20000000 l    d  .data	00000000 .data
200005e0 l    d  .bss	00000000 .bss
00000000 l    d  .comment	00000000 .comment
00000000 l    d  .ARM.attributes	00000000 .ARM.attributes
00000000 l    d  .debug_frame	00000000 .debug_frame
00000000 l    df *ABS*	00000000 crt0.o
20004fff l       *ABS*	00000000 RAM_END
20004c00 l       *ABS*	00000000 PSP_BASE
20004c00 l       *ABS*	00000000 MSP_LIMIT
20005000 l       *ABS*	00000000 MSP_BASE
00000400 l       *ABS*	00000000 MSP_SIZE
00000000 l    df *ABS*	00000000 OS.c
0800313c l     F .text	00000056 NVIC_SetPriority
0800e70c l       .rodata	00000000 .LC0
0800e71c l       .rodata	00000000 .LC1
0800e730 l       .rodata	00000000 .LC2
20000008 l     O .data	00000004 pstack.5612
2000000c l     O .data	00000004 stack_limit.5611
0800e740 l       .rodata	00000000 .LC3
0800e75c l       .rodata	00000000 .LC4
20002b28 l       .bss	00000000 idx_tcb.5621
0800e784 l       .rodata	00000000 .LC5
0800e79c l       .rodata	00000000 .LC6
0800e7b0 l       .rodata	00000000 .LC7
0800e7c4 l       .rodata	00000000 .LC8
0800e7e4 l       .rodata	00000000 .LC9
00000000 l    df *ABS*	00000000 bgm.c
0800e7f0 l       .rodata	00000000 .LC0
00000000 l    df *ABS*	00000000 clock.c
00000000 l    df *ABS*	00000000 core_cm3.c
00000000 l    df *ABS*	00000000 define.c
00000000 l    df *ABS*	00000000 joy_key.c
08004060 l     F .text	00000032 NVIC_EnableIRQ
08004094 l     F .text	00000034 NVIC_ClearPendingIRQ
00000000 l    df *ABS*	00000000 lcd.c
08004420 l     F .text	0000009c _SPI1_Init
08004514 l     F .text	00000028 _Delay
00000000 l    df *ABS*	00000000 led.c
00000000 l    df *ABS*	00000000 main.c
080111f0 l       .rodata	00000000 .LC1
08011200 l       .rodata	00000000 .LC2
0801121c l       .rodata	00000000 .LC3
0801122c l       .rodata	00000000 .LC4
08011240 l       .rodata	00000000 .LC5
08011250 l       .rodata	00000000 .LC6
0801125c l       .rodata	00000000 .LC7
08011264 l       .rodata	00000000 .LC8
0801126c l       .rodata	00000000 .LC9
08011274 l       .rodata	00000000 .LC10
08011284 l       .rodata	00000000 .LC11
080112a4 l       .rodata	00000000 .LC17
080112b8 l       .rodata	00000000 .LC18
080112d0 l       .rodata	00000000 .LC19
080112e4 l       .rodata	00000000 .LC20
080112f8 l       .rodata	00000000 .LC21
0801130c l       .rodata	00000000 .LC22
08011324 l       .rodata	00000000 .LC12
08011344 l       .rodata	00000000 .LC13
08011364 l       .rodata	00000000 .LC14
08011384 l       .rodata	00000000 .LC15
080113a4 l       .rodata	00000000 .LC16
080113c4 l       .rodata	00000000 .LC0
080113cc l       .rodata	00000000 .LC23
080113dc l       .rodata	00000000 .LC24
080113f0 l       .rodata	00000000 .LC25
00000000 l    df *ABS*	00000000 mutex.c
20002f94 l       .bss	00000000 initialized.5576
20000014 l     O .data	00000004 pbuffer.5589
20000018 l     O .data	00000004 buffer_limit.5588
00000000 l    df *ABS*	00000000 priority_queue.c
00000000 l    df *ABS*	00000000 queue.c
2000001c l     O .data	00000004 pbuffer.5016
20000020 l     O .data	00000004 buffer_limit.5015
00000000 l    df *ABS*	00000000 runtime.c
20004398 l       .bss	00000000 heap.4798
00000000 l    df *ABS*	00000000 snake.c
20000024 l     O .data	00000004 snaek_mutex_id
08011400 l       .rodata	00000000 .LC0
08011408 l       .rodata	00000000 .LC1
08011410 l       .rodata	00000000 .LC2
08011418 l       .rodata	00000000 .LC3
08011420 l       .rodata	00000000 .LC4
08011428 l       .rodata	00000000 .LC5
08011430 l       .rodata	00000000 .LC6
08011444 l       .rodata	00000000 .LC7
00000000 l    df *ABS*	00000000 stm32f10x_it.c
08007608 l     F .text	00000034 NVIC_ClearPendingIRQ
08011454 l       .rodata	00000000 .LC0
0801146c l       .rodata	00000000 .LC1
080114a4 l     O .rodata	00000020 Stack_reg
080114c4 l       .rodata	00000000 .LC10
0800767c l     F .text	0000004c Stack_Dump
080114d8 l       .rodata	00000000 .LC11
080114f0 l       .rodata	00000000 .LC12
080114fc l       .rodata	00000000 .LC13
08011508 l       .rodata	00000000 .LC14
0801152c l       .rodata	00000000 .LC15
08011530 l       .rodata	00000000 .LC16
0801155c l       .rodata	00000000 .LC17
08011588 l       .rodata	00000000 .LC18
0801158c l       .rodata	00000000 .LC19
080115b8 l       .rodata	00000000 .LC20
080115c8 l       .rodata	00000000 .LC21
080076c8 l     F .text	000000fe Fault_Report
080115e8 l       .rodata	00000000 .LC22
080115f4 l       .rodata	00000000 .LC23
08011604 l       .rodata	00000000 .LC24
08011618 l       .rodata	00000000 .LC25
08011628 l       .rodata	00000000 .LC26
0801163c l       .rodata	00000000 .LC27
0801164c l       .rodata	00000000 .LC28
08011670 l       .rodata	00000000 .LC29
0801168c l       .rodata	00000000 .LC30
08011698 l       .rodata	00000000 .LC31
080116a8 l       .rodata	00000000 .LC32
00000000 l    df *ABS*	00000000 systick.c
00000000 l    df *ABS*	00000000 timer.c
08007e60 l     F .text	00000032 NVIC_EnableIRQ
08007e94 l     F .text	00000034 NVIC_DisableIRQ
08007ec8 l     F .text	00000034 NVIC_ClearPendingIRQ
00000000 l    df *ABS*	00000000 uart.c
08008028 l     F .text	00000032 NVIC_EnableIRQ
0800805c l     F .text	00000034 NVIC_DisableIRQ
08008090 l     F .text	00000034 NVIC_ClearPendingIRQ
20000058 l     O .data	00000004 uart_mutex_id
00000000 l    df *ABS*	00000000 exp_handler.o
08008439 l       .text	00000000 _PSR
080083fa l       .text	00000000 _loop
0800842c l       .text	00000000 fmt
0800843d l       .text	00000000 _r0
08008441 l       .text	00000000 _r1
08008445 l       .text	00000000 _r2
08008449 l       .text	00000000 _r3
0800844d l       .text	00000000 _r4
08008451 l       .text	00000000 _r5
08008455 l       .text	00000000 _r6
08008459 l       .text	00000000 _r7
0800845d l       .text	00000000 _r8
08008461 l       .text	00000000 _r9
08008465 l       .text	00000000 _r10
08008469 l       .text	00000000 _r11
0800846d l       .text	00000000 _r12
08008471 l       .text	00000000 _PSP
00000000 l    df *ABS*	00000000 scheduler.o
00000000 l    df *ABS*	00000000 memcpy-stub.c
00000000 l    df *ABS*	00000000 memset.c
00000000 l    df *ABS*	00000000 rand.c
00000000 l    df *ABS*	00000000 vsprintf.c
00000000 l    df *ABS*	00000000 impure.c
20000060 l     O .data	000000f0 impure_data
00000000 l    df *ABS*	00000000 malloc.c
00000000 l    df *ABS*	00000000 mallocr.c
20000150 l       .data	00000000 .LANCHOR0
200043c4 l       .bss	00000000 .LANCHOR1
00000000 l    df *ABS*	00000000 mlock.c
00000000 l    df *ABS*	00000000 sbrkr.c
00000000 l    df *ABS*	00000000 vfprintf.c
080116bc l       .rodata	00000000 .LANCHOR0
080116bc l     O .rodata	00000010 blanks.6752
080116cc l     O .rodata	00000010 zeroes.6753
00000000 l    df *ABS*	00000000 dtoa.c
0800a218 l     F .text	0000014a quorem
00000000 l    df *ABS*	00000000 mallocr.c
00000000 l    df *ABS*	00000000 locale.c
20000560 l       .data	00000000 .LANCHOR0
20000560 l     O .data	00000020 lc_ctype_charset
20000584 l     O .data	00000020 lc_message_charset
200005a4 l     O .data	00000038 lconv
00000000 l    df *ABS*	00000000 memchr-stub.c
00000000 l    df *ABS*	00000000 mprec.c
080116e0 l       .rodata	00000000 .LANCHOR0
080116e0 l     O .rodata	0000000c p05.5301
00000000 l    df *ABS*	00000000 reent.c
00000000 l    df *ABS*	00000000 s_fpclassify.c
00000000 l    df *ABS*	00000000 lib_a-strcmp.o
00000000 l    df *ABS*	00000000 strlen.c
00000000 l    df *ABS*	00000000 vfprintf.c
08011808 l       .rodata	00000000 .LANCHOR0
08011808 l     O .rodata	00000010 blanks.6696
08011818 l     O .rodata	00000010 zeroes.6697
00000000 l    df *ABS*	00000000 mallocr.c
00000000 l    df *ABS*	00000000 memmove.c
00000000 l    df *ABS*	00000000 mallocr.c
00000000 l    df *ABS*	00000000 _udivsi3.o
0800d470 l       .text	00000000 .udivsi3_skip_div0_test
00000000 l       *ABS*	00000000 shift
00000000 l    df *ABS*	00000000 _dvmd_tls.o
00000000 l    df *ABS*	00000000 _arm_addsubdf3.o
00000000 l    df *ABS*	00000000 _arm_muldivdf3.o
00000000 l    df *ABS*	00000000 _arm_cmpdf2.o
00000000 l    df *ABS*	00000000 _arm_fixdfsi.o
00000000 l    df *ABS*	00000000 _arm_fixunsdfsi.o
00000000 l    df *ABS*	00000000 _aeabi_uldivmod.o
00000000 l    df *ABS*	00000000 bpabi.c
00000000 l    df *ABS*	00000000 libgcc2.c
00000000 l    df *ABS*	00000000 libgcc2.c
00000000 l    df *ABS*	00000000 
080079fc g     F .text	0000000a EXTI2_IRQHandler
20002850 g     O .bss	00000004 current_tcb
08003e68 g     F .text	00000018 __set_PRIMASK
0800beb4 g     F .text	00000034 _mprec_log10
080070dc g     F .text	00000054 Add_Snake_Position
0800bf30 g     F .text	0000005e __any_on
080117b8 g     O .rodata	00000028 __mprec_tinytens
0800df54 g     F .text	00000012 .hidden __aeabi_dcmple
0800bf90 g     F .text	0000001a cleanup_glue
0800e07c g     F .text	00000030 .hidden __gnu_uldivmod_helper
080040c8 g     F .text	000000f4 Key_Poll_Init
0800de90 g     F .text	0000007a .hidden __cmpdf2
0800796c g     F .text	00000012 DebugMon_Handler
0800de90 g     F .text	0000007a .hidden __eqdf2
20000010 g     O .data	00000002 BACK_COLOR
0800e0ac g     F .text	00000352 .hidden __divdi3
20002b18 g     O .bss	00000004 snake_mode
0800da00 g     F .text	0000005a .hidden __floatdidf
08008784 g     F .text	0000001a vsprintf
08007b70 g     F .text	0000000a TIM1_CC_IRQHandler
080077e8 g     F .text	000000a8 HardFault_Handler
0800b52c g     F .text	00000052 _setlocale_r
08008d34 g     F .text	00000002 __malloc_unlock
080048f8 g     F .text	00000018 Lcd_Write_RAM_Prepare
08008500 g     F .text	00000000 _OS_Start_First_Task
08003e80 g     F .text	0000001e __get_FAULTMASK
08007980 g     F .text	0000001a SysTick_Handler
200005e0 g     O .bss	00000d58 tcb
08003ef0 g     F .text	00000020 __REV
080079a8 g     F .text	0000000a PVD_IRQHandler
08005d94 g     F .text	0000021a Take_Mutex
0800cfb4 g     F .text	000000ce memmove
080046dc g     F .text	00000042 Lcd_Reset
08006300 g     F .text	000000b6 pq_heapify_down
080084d0 g     F .text	00000000 PendSV_Handler
20002f90 g     O .bss	00000004 scheduler_flag
080077c8 g     F .text	0000001e NMI_Handler
0800b658 g     F .text	0000006c _Balloc
08007a08 g     F .text	00000048 EXTI3_IRQHandler
08006170 g     F .text	0000001a pq_init
20000048 g     O .data	00000010 EXTI15_10_LUT
0801078c g     O .rodata	00000474 asc2_1206
0800de80 g     F .text	0000008a .hidden __gtdf2
080061e0 g     F .text	0000006a pq_compare_ready
080035cc g     F .text	0000009a OS_Scheduler_Start
08004038 g     F .text	00000026 __STREXW
0800f7ec g     O .rodata	00000320 snake_right_img
08003fc4 g     F .text	00000022 __LDREXW
20004404 g     O .bss	00000004 errno
08007520 g     F .text	000000e6 Lcd_Draw_IMG
0800df1c g     F .text	00000010 .hidden __aeabi_cdcmple
20002b3c g     O .bss	00000002 POINT_COLOR
08005b24 g     F .text	00000086 Main
20002b10 g     O .bss	00000004 ModeChangeIndex
08006290 g     F .text	0000006e pq_heapify_up
08004720 g     F .text	00000060 Lcd_WR_REG
08003668 g     F .text	000000bc OS_Scheduler
08008510 g     F .text	000000a6 memcpy
0800df0c g     F .text	00000020 .hidden __aeabi_cdrcmple
08005100 g     F .text	00000036 LED_Display
200043a0 g     O .bss	00000004 key_value
08004a94 g     F .text	0000000c Lcd_Clr_Screen
08008d60 g     F .text	000014b4 _svfprintf_r
0800d990 g     F .text	00000022 .hidden __floatsidf
0800de88 g     F .text	00000082 .hidden __ltdf2
08007abc g     F .text	0000000a USB_HP_CAN_TX_IRQHandler
08004780 g     F .text	00000060 Lcd_WR_DATA
080079e4 g     F .text	0000000a EXTI0_IRQHandler
0800515c g     F .text	00000024 LED_All_Off
08007bf8 g     F .text	0000000a I2C2_EV_IRQHandler
0800e020 g     F .text	00000000 .hidden __aeabi_uldivmod
0800c084 g     F .text	00000050 __fpclassifyd
0800be54 g     F .text	0000005e __ratio
200043a8 g     O .bss	00000004 uart_rx_in
08003f58 g     F .text	00000022 __RBIT
0800e84c g     O .rodata	00000320 apple_img
20000000 g       .data	00000000 __RW_BASE__
080087a0 g     F .text	00000010 malloc
0800d470 g     F .text	0000025c .hidden __udivsi3
20002950 g     O .bss	000000f8 blocked_queue
080116f0 g     O .rodata	000000c8 __mprec_tens
08007948 g     F .text	00000024 UsageFault_Handler
08003ea0 g     F .text	00000018 __set_FAULTMASK
0800b580 g     F .text	0000000a __locale_charset
0800dfe0 g     F .text	00000040 .hidden __fixunsdfsi
08007ab0 g     F .text	0000000a ADC1_2_IRQHandler
200043c4 g     O .bss	00000004 __malloc_top_pad
08005270 g     F .text	0000005e my_strcasecmp
20000580 g     O .data	00000004 __mb_cur_max
0800d970 g     F .text	0000001e .hidden __aeabi_ui2d
20002b90 g     O .bss	00000400 mutex_buffer
0800b5a4 g     F .text	00000008 _localeconv_r
080067c0 g     F .text	00000026 isFull
0800b8b4 g     F .text	00000012 __i2b
08004650 g     F .text	0000008c Lcd_Fill
08005bac g     F .text	00000104 Mutex_Init
08005fb0 g     F .text	000001a6 Give_Mutex
08007c10 g     F .text	0000000a SPI1_IRQHandler
08007ae0 g     F .text	0000000a CAN_SCE_IRQHandler
0800d6ec g     F .text	00000000 .hidden __aeabi_drsub
08008d38 g     F .text	00000026 _sbrk_r
0800730c g     F .text	000000fe Check_Snake_Position
080079b4 g     F .text	0000000a TAMPER_IRQHandler
080050a8 g     F .text	00000058 LED_Init
20002f98 g     O .bss	00001400 queue_buffer
08003c68 g     F .text	00000044 TIM3_Out_Stop
0800df40 g     F .text	00000012 .hidden __aeabi_dcmplt
08003d38 g     F .text	000000a6 Clock_Init
200043f0 g     O .bss	00000004 __malloc_max_sbrked_mem
08003194 g     F .text	0000001e IdleTask
0800d9b4 g     F .text	0000003a .hidden __extendsfdf2
0800dcb0 g     F .text	000001d0 .hidden __aeabi_ddiv
0800d6f8 g     F .text	00000276 .hidden __adddf3
200005dc g       .data	00000000 __RW_LIMIT__
080082cc g     F .text	00000058 Uart1_Printf
0800bcec g     F .text	000000ac __b2d
0800da5c g     F .text	00000254 .hidden __aeabi_dmul
08003eb8 g     F .text	0000001e __get_CONTROL
080116b8 g     O .rodata	00000004 _global_impure_ptr
0800d084 g     F .text	000003ea _realloc_r
20001338 g     O .bss	00001400 stack
0800e400 g     F .text	00000300 .hidden __udivdi3
08007a80 g     F .text	0000000a DMA1_Channel4_IRQHandler
080117e0 g     O .rodata	00000028 __mprec_bigtens
0800b788 g     F .text	00000098 __s2b
0800d970 g     F .text	0000001e .hidden __floatunsidf
080067e8 g     F .text	0000008a _sbrk
0800bb78 g     F .text	00000042 __mcmp
0800618c g     F .text	00000052 pq_compare_delay
08004dfc g     F .text	0000002c Lcd_Put_Pixel
0800837c g     F .text	00000060 Uart1_RX_Interrupt_Enable
08007d40 g     F .text	0000000a USART3_IRQHandler
080079c0 g     F .text	0000000a RTC_IRQHandler
08003de0 g     F .text	00000010 __get_PSP
08004258 g     F .text	000001c8 Key_ISR_Enable
08003df0 g     F .text	00000008 __set_PSP
08007aa4 g     F .text	0000000a DMA1_Channel7_IRQHandler
0800bfac g     F .text	000000d6 _reclaim_reent
0800b820 g     F .text	0000003c __hi0bits
0800f4cc g     O .rodata	00000320 snake_left_img
0800df90 g     F .text	0000004e .hidden __fixdfsi
08004aa0 g     F .text	000000e0 Lcd_Draw_Box
080033e4 g     F .text	00000128 OS_Create_Task_Simple
08003b1c g     F .text	00000012 PRINT_DUMMY
20002738 g     O .bss	00000118 queues
080047e0 g     F .text	00000118 Lcd_Set_Display_Mode
08007b94 g     F .text	0000004c TIM4_IRQHandler
0800d6f8 g     F .text	00000276 .hidden __aeabi_dadd
0800de88 g     F .text	00000082 .hidden __ledf2
08005030 g     F .text	00000078 LCD_Show_String
20002b40 g     O .bss	00000028 dummyParams
08007ad4 g     F .text	0000000a CAN_RX1_IRQHandler
0800ba08 g     F .text	000000b8 __pow5mult
0800d9f0 g     F .text	0000006a .hidden __aeabi_ul2d
20004400 g     O .bss	00000004 __nlocale_changed
20002a54 g     O .bss	000000b8 snake_object
080052d0 g     F .text	000000fe Task1
00000000  w      *UND*	00000000 __sf_fake_stderr
08008478 g     F .text	00000000 _HardFault_Handler
20002858 g     O .bss	000000f8 ready_queue
08007be0 g     F .text	0000000a I2C1_EV_IRQHandler
080030ec g     F .text	00000000 __start
08003f7c g     F .text	00000022 __LDREXB
080045b8 g     F .text	00000026 Lcd_Write_Reg
080039ec g     F .text	000000a4 OS_Block_Current_Task
08007198 g     F .text	00000174 Move_Snake_Position
08003cac g     F .text	00000038 play_tone
08006c70 g     F .text	000002cc Lcd_Draw_Snake
0800df7c g     F .text	00000012 .hidden __aeabi_dcmpgt
08007a98 g     F .text	0000000a DMA1_Channel6_IRQHandler
0800b5c8 g     F .text	00000090 memchr
20002b1c g     O .bss	00000004 UsartReceiverIndex
0800b394 g     F .text	00000198 _free_r
08008324 g     F .text	00000058 Uart1_Printf_From_Task
080065c0 g     F .text	000000d8 createQueue
080063b8 g     F .text	00000052 pq_push
08007b88 g     F .text	0000000a TIM3_IRQHandler
080079d8 g     F .text	0000000a RCC_IRQHandler
0800b58c g     F .text	0000000c __locale_mb_cur_max
08004910 g     F .text	0000009c Lcd_Set_Windows
0800df68 g     F .text	00000012 .hidden __aeabi_dcmpge
08007b64 g     F .text	0000000a TIM1_TRG_COM_IRQHandler
08007a5c g     F .text	0000000a DMA1_Channel1_IRQHandler
08003e48 g     F .text	0000001e __get_PRIMASK
200043fc g     O .bss	00000004 __mlocale_changed
0800d6f4 g     F .text	0000027a .hidden __aeabi_dsub
20000558 g     O .data	00000004 __malloc_sbrk_base
000005dc g       *ABS*	00000000 __RW_SIZE__
0800d9f0 g     F .text	0000006a .hidden __floatundidf
080086b4 g     F .text	0000009c rand
0800bac0 g     F .text	000000b6 __lshift
0800848c g     F .text	00000000 _MemManage_Handler
0800c370 g     F .text	00000104 __ssprint_r
08007d4c g     F .text	0000006c EXTI15_10_IRQHandler
08006158 g     F .text	00000018 Set_Mutex_Scheduler_Flag
08011890 g       *ABS*	00000000 __RW_LOAD_ADDR__
08003f34 g     F .text	00000022 __REVSH
08003ce4 g     F .text	00000052 play_melody
0800b8c8 g     F .text	00000140 __multiply
200043c8 g     O .bss	00000028 __malloc_current_mallinfo
0800bd98 g     F .text	000000ba __d2b
20000028 g     O .data	00000020 EXTI9_5_LUT
08004e28 g     F .text	00000208 LCD_Show_Char
0800e708 g     O .rodata	00000004 default_delay
08004244 g     F .text	00000012 Key_Wait_Key_Released
080031b4 g     F .text	000001ce OS_Init
080045e0 g     F .text	00000070 Lcd_Write_Data_16Bit
0800d990 g     F .text	00000022 .hidden __aeabi_i2d
0800655c g     F .text	00000064 _OS_Get_Buffer
0800640c g     F .text	00000062 pq_pop
0800e708 g       .rodata	00000000 __RO_BASE__
20002b24 g     O .bss	00000004 KeyControlFlag
0800d6e8  w    F .text	00000002 .hidden __aeabi_ldiv0
08007aec g     F .text	00000060 EXTI9_5_IRQHandler
0800dcb0 g     F .text	000001d0 .hidden __divdf3
0800bee8 g     F .text	00000046 __copybits
20000150 g     O .data	00000408 __malloc_av_
0800da5c g     F .text	00000254 .hidden __muldf3
0800eb6c g     O .rodata	00000320 grass_img
08008d30 g     F .text	00000002 __malloc_lock
080051a4 g     F .text	00000024 LED_1_Toggle
08006470 g     F .text	00000026 pq_top
0800cf50 g     F .text	00000062 _calloc_r
080084a0 g     F .text	00000000 _BusFault_Handler
08005a50 g     F .text	000000b6 Task5
08007c1c g     F .text	0000000a SPI2_IRQHandler
00000000  w      *UND*	00000000 __sf_fake_stdin
08006514 g     F .text	00000046 pq_update
08005180 g     F .text	00000024 LED_0_Toggle
08007ac8 g     F .text	0000000a USB_LP_CAN_RX0_IRQHandler
080085b8 g     F .text	0000009e memset
20002b68 g     O .bss	00000028 mutex_list
08007890 g     F .text	0000005a MemManage_Handler
08010c00 g     O .rodata	000005f0 asc2_1608
200043f4 g     O .bss	00000004 __malloc_max_total_mem
080056e0 g     F .text	0000036e Task3
08008658 g     F .text	0000005a srand
20000004 g     O .data	00000004 TimerGap
20004404 g       .bss	00000000 __ZI_LIMIT__
08006874 g     F .text	00000056 System_Init
0800d470 g     F .text	00000000 .hidden __aeabi_uidiv
080084ec g     F .text	00000000 SVC_Handler
08007dd0 g     F .text	00000090 SysTick_OS_Tick
08003ed8 g     F .text	00000018 __set_CONTROL
0800a364 g     F .text	00000f8a _dtoa_r
080087c0 g     F .text	0000056e _malloc_r
0800da00 g     F .text	0000005a .hidden __aeabi_l2d
080082a4 g     F .text	00000026 Uart1_Send_String
08008238 g     F .text	0000006a Uart1_Send_Byte
080041bc g     F .text	00000066 Key_Get_Pressed
08003b30 g     F .text	00000088 TIM3_Out_Init
2000439c g     O .bss	00000004 systick_flag
08005138 g     F .text	00000024 LED_All_On
0800350c g     F .text	000000c0 OS_Create_Queue
08007a8c g     F .text	0000000a DMA1_Channel5_IRQHandler
08007a50 g     F .text	0000000a EXTI4_IRQHandler
0800b2f0 g     F .text	000000a2 _malloc_trim_r
08003af8 g     F .text	00000024 OS_Pend_Trigger
080037d4 g     F .text	0000014a OS_Signal_Wait
0800c0d4 g     F .text	00000000 strcmp
08003df8 g     F .text	00000010 __get_MSP
08003724 g     F .text	000000b0 OS_Tick
08011890 g       .rodata	00000000 __RO_LIMIT__
200043a4 g     O .bss	00000004 tim4_timeout
0800de90 g     F .text	0000007a .hidden __nedf2
08005220 g     F .text	00000050 my_tolower_str
080051c8 g     F .text	00000028 my_tolower
200043f8 g     O .bss	00000004 _PathLocale
20002b30 g     O .bss	0000000c lcddev
080049ac g     F .text	00000020 Lcd_Set_Cursor
08008750 g     F .text	00000032 _vsprintf_r
08007a74 g     F .text	0000000a DMA1_Channel3_IRQHandler
0800b5ac g     F .text	00000012 setlocale
08003f10 g     F .text	00000022 __REV16
2000005c g     O .data	00000004 _impure_ptr
08007b58 g     F .text	0000000a TIM1_UP_IRQHandler
0800b5a0 g     F .text	00000004 __locale_cjk_lang
08003384 g     F .text	00000060 _OS_Get_Stack
0800c474 g     F .text	00000adc _svfiprintf_r
00003e28 g       *ABS*	00000000 __ZI_SIZE__
0800799c g     F .text	0000000a WWDG_IRQHandler
08005b08 g     F .text	0000001a TaskDummy
08003e08 g     F .text	00000008 __set_MSP
0800bca8 g     F .text	00000042 __ulp
20002b0c g     O .bss	00000004 KeyValueReceiverIndex
080053d0 g     F .text	00000310 Task2
08004b80 g     F .text	0000027c Lcd_Init
200043c0 g     O .bss	00000004 uart_rx_index
08007b7c g     F .text	0000000a TIM2_IRQHandler
08006498 g     F .text	0000007c pq_remove
0800453c g     F .text	0000007c Lcd_GPIO_Init
0800dfe0 g     F .text	00000040 .hidden __aeabi_d2uiz
08006698 g     F .text	0000007c enqueue
20002a48 g     O .bss	00000008 system_tick
08005d14 g     F .text	00000080 Create_Mutex
200005e0 g       .bss	00000000 __ZI_BASE__
0800b5c0 g     F .text	00000008 localeconv
08007b4c g     F .text	0000000a TIM1_BRK_IRQHandler
0800d6cc g     F .text	0000001a .hidden __aeabi_uidivmod
080079f0 g     F .text	0000000a EXTI1_IRQHandler
08006f3c g     F .text	0000019e rotate_image_array
08003e30 g     F .text	00000018 __set_BASEPRI
0800df2c g     F .text	00000012 .hidden __aeabi_dcmpeq
080068cc g     F .text	00000220 Snake_Init
08006714 g     F .text	00000088 dequeue
08004224 g     F .text	00000020 Key_Wait_Key_Pressed
0800740c g     F .text	00000114 Make_Target
08006aec g     F .text	0000000e draw_init
08007130 g     F .text	00000068 Remove_Snake_Position
080080c4 g     F .text	00000174 Uart1_Init
0800f1ac g     O .rodata	00000320 snake_up_img
0800624c g     F .text	00000044 pq_swap
08007db8 g     F .text	0000000a RTCAlarm_IRQHandler
0800fb0c g     O .rodata	00000c80 big_apple_img
20002b20 g     O .bss	00000004 IncredibleFlag
08007d34 g     F .text	0000000a USART2_IRQHandler
2000055c g     O .data	00000004 __malloc_trim_threshold
0800b598 g     F .text	00000008 __locale_msgcharset
08004010 g     F .text	00000028 __STREXH
0800bbbc g     F .text	000000ea __mdiff
0800df90 g     F .text	0000004e .hidden __aeabi_d2iz
08003fa0 g     F .text	00000022 __LDREXH
08007c04 g     F .text	0000000a I2C2_ER_IRQHandler
08006afc g     F .text	000000e2 Lcd_Draw_Grass
08007a68 g     F .text	0000000a DMA1_Channel2_IRQHandler
20002854 g     O .bss	00000004 next_tcb
00000000  w      *UND*	00000000 __sf_fake_stdout
0800d6e8  w    F .text	00000002 .hidden __aeabi_idiv0
08003a90 g     F .text	00000066 OS_Unblock_Task
080079cc g     F .text	0000000a FLASH_IRQHandler
080049cc g     F .text	000000c6 Lcd_Draw_Back_Color
080078ec g     F .text	0000005a BusFault_Handler
08007c28 g     F .text	0000010c USART1_IRQHandler
0800ee8c g     O .rodata	00000320 snake_head_img
080044bc g     F .text	00000056 _SPI1_Write_Byte
0800c310 g     F .text	0000005e strlen
08007efc g     F .text	0000012a TIM4_Repeat_Interrupt_Enable
08003920 g     F .text	000000cc OS_Signal_Send
0800679c g     F .text	00000022 isEmpty
080084b4 g     F .text	00000000 _UsageFault_Handler
08003e10 g     F .text	0000001e __get_BASEPRI
0800df1c g     F .text	00000010 .hidden __aeabi_cdcmpeq
0800de80 g     F .text	0000008a .hidden __gedf2
0800e04c g     F .text	00000030 .hidden __gnu_ldivmod_helper
08007bec g     F .text	0000000a I2C1_ER_IRQHandler
08003bb8 g     F .text	000000b0 TIM3_Out_Freq_Generation
200043ac g     O .bss	00000014 uart_rx_buffer
08006be0 g     F .text	0000008e Lcd_Draw_Border
0800d9b4 g     F .text	0000003a .hidden __aeabi_f2d
08003fe8 g     F .text	00000028 __STREXB
08005cb0 g     F .text	00000064 _Mutex_Get_Buffer
0800d6f4 g     F .text	0000027a .hidden __subdf3
20002a50 g     O .bss	00000004 os_mutex_id
080083e6 g     F .text	00000000 _Print_Reg
20000000 g     O .data	00000004 interrupt_period
0800b85c g     F .text	00000056 __lo0bits
0800763c g     F .text	00000040 Invalid_ISR
20002b14 g     O .bss	00000004 UpdateLcdIndex
08007dc4 g     F .text	0000000a USBWakeUp_IRQHandler
080087b0 g     F .text	00000010 free
0800b6fc g     F .text	0000008c __multadd
080083e0 g     F .text	00000000 __get_IPSR
0800b6c4 g     F .text	00000036 _Bfree
080051f0 g     F .text	0000002e my_strlen



Disassembly of section .text:

08003000 <__start-0xec>:
 8003000:	20005000 	andcs	r5, r0, r0
 8003004:	080030ed 	stmdaeq	r0, {r0, r2, r3, r5, r6, r7, ip, sp}
 8003008:	080077c9 	stmdaeq	r0, {r0, r3, r6, r7, r8, r9, sl, ip, sp, lr}
 800300c:	08008479 	stmdaeq	r0, {r0, r3, r4, r5, r6, sl, pc}
 8003010:	0800848d 	stmdaeq	r0, {r0, r2, r3, r7, sl, pc}
 8003014:	080084a1 	stmdaeq	r0, {r0, r5, r7, sl, pc}
 8003018:	080084b5 	stmdaeq	r0, {r0, r2, r4, r5, r7, sl, pc}
	...
 800302c:	080084ed 	stmdaeq	r0, {r0, r2, r3, r5, r6, r7, sl, pc}
 8003030:	0800796d 	stmdaeq	r0, {r0, r2, r3, r5, r6, r8, fp, ip, sp, lr}
 8003034:	00000000 	andeq	r0, r0, r0
 8003038:	080084d1 	stmdaeq	r0, {r0, r4, r6, r7, sl, pc}
 800303c:	08007981 	stmdaeq	r0, {r0, r7, r8, fp, ip, sp, lr}
 8003040:	0800799d 	stmdaeq	r0, {r0, r2, r3, r4, r7, r8, fp, ip, sp, lr}
 8003044:	080079a9 	stmdaeq	r0, {r0, r3, r5, r7, r8, fp, ip, sp, lr}
 8003048:	080079b5 	stmdaeq	r0, {r0, r2, r4, r5, r7, r8, fp, ip, sp, lr}
 800304c:	080079c1 	stmdaeq	r0, {r0, r6, r7, r8, fp, ip, sp, lr}
 8003050:	080079cd 	stmdaeq	r0, {r0, r2, r3, r6, r7, r8, fp, ip, sp, lr}
 8003054:	080079d9 	stmdaeq	r0, {r0, r3, r4, r6, r7, r8, fp, ip, sp, lr}
 8003058:	080079e5 	stmdaeq	r0, {r0, r2, r5, r6, r7, r8, fp, ip, sp, lr}
 800305c:	080079f1 	stmdaeq	r0, {r0, r4, r5, r6, r7, r8, fp, ip, sp, lr}
 8003060:	080079fd 	stmdaeq	r0, {r0, r2, r3, r4, r5, r6, r7, r8, fp, ip, sp, lr}
 8003064:	08007a09 	stmdaeq	r0, {r0, r3, r9, fp, ip, sp, lr}
 8003068:	08007a51 	stmdaeq	r0, {r0, r4, r6, r9, fp, ip, sp, lr}
 800306c:	08007a5d 	stmdaeq	r0, {r0, r2, r3, r4, r6, r9, fp, ip, sp, lr}
 8003070:	08007a69 	stmdaeq	r0, {r0, r3, r5, r6, r9, fp, ip, sp, lr}
 8003074:	08007a75 	stmdaeq	r0, {r0, r2, r4, r5, r6, r9, fp, ip, sp, lr}
 8003078:	08007a81 	stmdaeq	r0, {r0, r7, r9, fp, ip, sp, lr}
 800307c:	08007a8d 	stmdaeq	r0, {r0, r2, r3, r7, r9, fp, ip, sp, lr}
 8003080:	08007a99 	stmdaeq	r0, {r0, r3, r4, r7, r9, fp, ip, sp, lr}
 8003084:	08007aa5 	stmdaeq	r0, {r0, r2, r5, r7, r9, fp, ip, sp, lr}
 8003088:	08007ab1 	stmdaeq	r0, {r0, r4, r5, r7, r9, fp, ip, sp, lr}
	...
 800309c:	08007aed 	stmdaeq	r0, {r0, r2, r3, r5, r6, r7, r9, fp, ip, sp, lr}
 80030a0:	08007b4d 	stmdaeq	r0, {r0, r2, r3, r6, r8, r9, fp, ip, sp, lr}
 80030a4:	08007b59 	stmdaeq	r0, {r0, r3, r4, r6, r8, r9, fp, ip, sp, lr}
 80030a8:	08007b65 	stmdaeq	r0, {r0, r2, r5, r6, r8, r9, fp, ip, sp, lr}
 80030ac:	08007b71 	stmdaeq	r0, {r0, r4, r5, r6, r8, r9, fp, ip, sp, lr}
 80030b0:	08007b7d 	stmdaeq	r0, {r0, r2, r3, r4, r5, r6, r8, r9, fp, ip, sp, lr}
 80030b4:	08007b89 	stmdaeq	r0, {r0, r3, r7, r8, r9, fp, ip, sp, lr}
 80030b8:	08007b95 	stmdaeq	r0, {r0, r2, r4, r7, r8, r9, fp, ip, sp, lr}
 80030bc:	08007be1 	stmdaeq	r0, {r0, r5, r6, r7, r8, r9, fp, ip, sp, lr}
 80030c0:	08007bed 	stmdaeq	r0, {r0, r2, r3, r5, r6, r7, r8, r9, fp, ip, sp, lr}
 80030c4:	08007bf9 	stmdaeq	r0, {r0, r3, r4, r5, r6, r7, r8, r9, fp, ip, sp, lr}
 80030c8:	08007c05 	stmdaeq	r0, {r0, r2, sl, fp, ip, sp, lr}
 80030cc:	08007c11 	stmdaeq	r0, {r0, r4, sl, fp, ip, sp, lr}
 80030d0:	08007c1d 	stmdaeq	r0, {r0, r2, r3, r4, sl, fp, ip, sp, lr}
 80030d4:	08007c29 	stmdaeq	r0, {r0, r3, r5, sl, fp, ip, sp, lr}
 80030d8:	08007d35 	stmdaeq	r0, {r0, r2, r4, r5, r8, sl, fp, ip, sp, lr}
 80030dc:	08007d41 	stmdaeq	r0, {r0, r6, r8, sl, fp, ip, sp, lr}
 80030e0:	08007d4d 	stmdaeq	r0, {r0, r2, r3, r6, r8, sl, fp, ip, sp, lr}
 80030e4:	08007db9 	stmdaeq	r0, {r0, r3, r4, r5, r7, r8, sl, fp, ip, sp, lr}
 80030e8:	08007dc5 	stmdaeq	r0, {r0, r2, r6, r7, r8, sl, fp, ip, sp, lr}

080030ec <__start>:
 80030ec:	480e      	ldr	r0, [pc, #56]	; (8003128 <__start+0x3c>)
 80030ee:	490f      	ldr	r1, [pc, #60]	; (800312c <__start+0x40>)
 80030f0:	4b0f      	ldr	r3, [pc, #60]	; (8003130 <__start+0x44>)
 80030f2:	4288      	cmp	r0, r1
 80030f4:	d006      	beq.n	8003104 <__start+0x18>
 80030f6:	4299      	cmp	r1, r3
 80030f8:	bf3e      	ittt	cc
 80030fa:	f850 2b04 	ldrcc.w	r2, [r0], #4
 80030fe:	f841 2b04 	strcc.w	r2, [r1], #4
 8003102:	e7f8      	bcc.n	80030f6 <__start+0xa>
 8003104:	490b      	ldr	r1, [pc, #44]	; (8003134 <__start+0x48>)
 8003106:	f04f 0200 	mov.w	r2, #0
 800310a:	428b      	cmp	r3, r1
 800310c:	bf3c      	itt	cc
 800310e:	f843 2b04 	strcc.w	r2, [r3], #4
 8003112:	e7fa      	bcc.n	800310a <__start+0x1e>
 8003114:	4808      	ldr	r0, [pc, #32]	; (8003138 <__start+0x4c>)
 8003116:	f380 8814 	msr	CONTROL, r0
 800311a:	f000 fe0d 	bl	8003d38 <Clock_Init>
 800311e:	f003 fba9 	bl	8006874 <System_Init>
 8003122:	f002 fcff 	bl	8005b24 <Main>
 8003126:	e7fe      	b.n	8003126 <__start+0x3a>
 8003128:	08011890 	stmdaeq	r1, {r4, r7, fp, ip}
 800312c:	20000000 	andcs	r0, r0, r0
 8003130:	200005e0 	andcs	r0, r0, r0, ror #11
 8003134:	20004404 	andcs	r4, r0, r4, lsl #8
 8003138:	00000000 	andeq	r0, r0, r0

0800313c <NVIC_SetPriority>:
 800313c:	b480      	push	{r7}
 800313e:	b083      	sub	sp, #12
 8003140:	af00      	add	r7, sp, #0
 8003142:	4603      	mov	r3, r0
 8003144:	6039      	str	r1, [r7, #0]
 8003146:	71fb      	strb	r3, [r7, #7]
 8003148:	f997 3007 	ldrsb.w	r3, [r7, #7]
 800314c:	2b00      	cmp	r3, #0
 800314e:	da0e      	bge.n	800316e <NVIC_SetPriority+0x32>
 8003150:	f44f 436d 	mov.w	r3, #60672	; 0xed00
 8003154:	f2ce 0300 	movt	r3, #57344	; 0xe000
 8003158:	79fa      	ldrb	r2, [r7, #7]
 800315a:	f002 020f 	and.w	r2, r2, #15
 800315e:	1f11      	subs	r1, r2, #4
 8003160:	683a      	ldr	r2, [r7, #0]
 8003162:	b2d2      	uxtb	r2, r2
 8003164:	0112      	lsls	r2, r2, #4
 8003166:	b2d2      	uxtb	r2, r2
 8003168:	440b      	add	r3, r1
 800316a:	761a      	strb	r2, [r3, #24]
 800316c:	e00c      	b.n	8003188 <NVIC_SetPriority+0x4c>
 800316e:	f44f 4361 	mov.w	r3, #57600	; 0xe100
 8003172:	f2ce 0300 	movt	r3, #57344	; 0xe000
 8003176:	f997 1007 	ldrsb.w	r1, [r7, #7]
 800317a:	683a      	ldr	r2, [r7, #0]
 800317c:	b2d2      	uxtb	r2, r2
 800317e:	0112      	lsls	r2, r2, #4
 8003180:	b2d2      	uxtb	r2, r2
 8003182:	440b      	add	r3, r1
 8003184:	f883 2300 	strb.w	r2, [r3, #768]	; 0x300
 8003188:	370c      	adds	r7, #12
 800318a:	46bd      	mov	sp, r7
 800318c:	f85d 7b04 	ldr.w	r7, [sp], #4
 8003190:	4770      	bx	lr
 8003192:	bf00      	nop

08003194 <IdleTask>:
 8003194:	b480      	push	{r7}
 8003196:	b085      	sub	sp, #20
 8003198:	af00      	add	r7, sp, #0
 800319a:	6078      	str	r0, [r7, #4]
 800319c:	2300      	movs	r3, #0
 800319e:	60fb      	str	r3, [r7, #12]
 80031a0:	e002      	b.n	80031a8 <IdleTask+0x14>
 80031a2:	68fb      	ldr	r3, [r7, #12]
 80031a4:	3301      	adds	r3, #1
 80031a6:	60fb      	str	r3, [r7, #12]
 80031a8:	68fb      	ldr	r3, [r7, #12]
 80031aa:	f1b3 7f80 	cmp.w	r3, #16777216	; 0x1000000
 80031ae:	dbf8      	blt.n	80031a2 <IdleTask+0xe>
 80031b0:	e7f4      	b.n	800319c <IdleTask+0x8>
 80031b2:	bf00      	nop

080031b4 <OS_Init>:
 80031b4:	b580      	push	{r7, lr}
 80031b6:	b082      	sub	sp, #8
 80031b8:	af00      	add	r7, sp, #0
 80031ba:	2030      	movs	r0, #48	; 0x30
 80031bc:	f000 fe38 	bl	8003e30 <__set_BASEPRI>
 80031c0:	2300      	movs	r3, #0
 80031c2:	607b      	str	r3, [r7, #4]
 80031c4:	e05a      	b.n	800327c <OS_Init+0xc8>
 80031c6:	f240 52e0 	movw	r2, #1504	; 0x5e0
 80031ca:	f2c2 0200 	movt	r2, #8192	; 0x2000
 80031ce:	6879      	ldr	r1, [r7, #4]
 80031d0:	460b      	mov	r3, r1
 80031d2:	00db      	lsls	r3, r3, #3
 80031d4:	1a5b      	subs	r3, r3, r1
 80031d6:	00db      	lsls	r3, r3, #3
 80031d8:	4413      	add	r3, r2
 80031da:	687a      	ldr	r2, [r7, #4]
 80031dc:	605a      	str	r2, [r3, #4]
 80031de:	f240 52e0 	movw	r2, #1504	; 0x5e0
 80031e2:	f2c2 0200 	movt	r2, #8192	; 0x2000
 80031e6:	6879      	ldr	r1, [r7, #4]
 80031e8:	460b      	mov	r3, r1
 80031ea:	00db      	lsls	r3, r3, #3
 80031ec:	1a5b      	subs	r3, r3, r1
 80031ee:	00db      	lsls	r3, r3, #3
 80031f0:	4413      	add	r3, r2
 80031f2:	3308      	adds	r3, #8
 80031f4:	2200      	movs	r2, #0
 80031f6:	605a      	str	r2, [r3, #4]
 80031f8:	f240 52e0 	movw	r2, #1504	; 0x5e0
 80031fc:	f2c2 0200 	movt	r2, #8192	; 0x2000
 8003200:	6879      	ldr	r1, [r7, #4]
 8003202:	460b      	mov	r3, r1
 8003204:	00db      	lsls	r3, r3, #3
 8003206:	1a5b      	subs	r3, r3, r1
 8003208:	00db      	lsls	r3, r3, #3
 800320a:	4413      	add	r3, r2
 800320c:	f103 0110 	add.w	r1, r3, #16
 8003210:	f04f 0200 	mov.w	r2, #0
 8003214:	f04f 0300 	mov.w	r3, #0
 8003218:	e9c1 2300 	strd	r2, r3, [r1]
 800321c:	f240 52e0 	movw	r2, #1504	; 0x5e0
 8003220:	f2c2 0200 	movt	r2, #8192	; 0x2000
 8003224:	6879      	ldr	r1, [r7, #4]
 8003226:	460b      	mov	r3, r1
 8003228:	00db      	lsls	r3, r3, #3
 800322a:	1a5b      	subs	r3, r3, r1
 800322c:	00db      	lsls	r3, r3, #3
 800322e:	4413      	add	r3, r2
 8003230:	f103 0118 	add.w	r1, r3, #24
 8003234:	f04f 0200 	mov.w	r2, #0
 8003238:	f04f 0300 	mov.w	r3, #0
 800323c:	e9c1 2300 	strd	r2, r3, [r1]
 8003240:	f240 52e0 	movw	r2, #1504	; 0x5e0
 8003244:	f2c2 0200 	movt	r2, #8192	; 0x2000
 8003248:	6879      	ldr	r1, [r7, #4]
 800324a:	460b      	mov	r3, r1
 800324c:	00db      	lsls	r3, r3, #3
 800324e:	1a5b      	subs	r3, r3, r1
 8003250:	00db      	lsls	r3, r3, #3
 8003252:	4413      	add	r3, r2
 8003254:	3320      	adds	r3, #32
 8003256:	f04f 32ff 	mov.w	r2, #4294967295
 800325a:	601a      	str	r2, [r3, #0]
 800325c:	f240 52e0 	movw	r2, #1504	; 0x5e0
 8003260:	f2c2 0200 	movt	r2, #8192	; 0x2000
 8003264:	6879      	ldr	r1, [r7, #4]
 8003266:	460b      	mov	r3, r1
 8003268:	00db      	lsls	r3, r3, #3
 800326a:	1a5b      	subs	r3, r3, r1
 800326c:	00db      	lsls	r3, r3, #3
 800326e:	4413      	add	r3, r2
 8003270:	3328      	adds	r3, #40	; 0x28
 8003272:	22ff      	movs	r2, #255	; 0xff
 8003274:	605a      	str	r2, [r3, #4]
 8003276:	687b      	ldr	r3, [r7, #4]
 8003278:	3301      	adds	r3, #1
 800327a:	607b      	str	r3, [r7, #4]
 800327c:	687b      	ldr	r3, [r7, #4]
 800327e:	2b3c      	cmp	r3, #60	; 0x3c
 8003280:	dda1      	ble.n	80031c6 <OS_Init+0x12>
 8003282:	f642 0058 	movw	r0, #10328	; 0x2858
 8003286:	f2c2 0000 	movt	r0, #8192	; 0x2000
 800328a:	f002 ff71 	bl	8006170 <pq_init>
 800328e:	f642 1050 	movw	r0, #10576	; 0x2950
 8003292:	f2c2 0000 	movt	r0, #8192	; 0x2000
 8003296:	f002 ff6b 	bl	8006170 <pq_init>
 800329a:	2300      	movs	r3, #0
 800329c:	607b      	str	r3, [r7, #4]
 800329e:	e042      	b.n	8003326 <OS_Init+0x172>
 80032a0:	f242 7238 	movw	r2, #10040	; 0x2738
 80032a4:	f2c2 0200 	movt	r2, #8192	; 0x2000
 80032a8:	6879      	ldr	r1, [r7, #4]
 80032aa:	460b      	mov	r3, r1
 80032ac:	00db      	lsls	r3, r3, #3
 80032ae:	1a5b      	subs	r3, r3, r1
 80032b0:	009b      	lsls	r3, r3, #2
 80032b2:	4413      	add	r3, r2
 80032b4:	2200      	movs	r2, #0
 80032b6:	601a      	str	r2, [r3, #0]
 80032b8:	f242 7238 	movw	r2, #10040	; 0x2738
 80032bc:	f2c2 0200 	movt	r2, #8192	; 0x2000
 80032c0:	6879      	ldr	r1, [r7, #4]
 80032c2:	460b      	mov	r3, r1
 80032c4:	00db      	lsls	r3, r3, #3
 80032c6:	1a5b      	subs	r3, r3, r1
 80032c8:	009b      	lsls	r3, r3, #2
 80032ca:	4413      	add	r3, r2
 80032cc:	3304      	adds	r3, #4
 80032ce:	2200      	movs	r2, #0
 80032d0:	601a      	str	r2, [r3, #0]
 80032d2:	f242 7238 	movw	r2, #10040	; 0x2738
 80032d6:	f2c2 0200 	movt	r2, #8192	; 0x2000
 80032da:	6879      	ldr	r1, [r7, #4]
 80032dc:	460b      	mov	r3, r1
 80032de:	00db      	lsls	r3, r3, #3
 80032e0:	1a5b      	subs	r3, r3, r1
 80032e2:	009b      	lsls	r3, r3, #2
 80032e4:	4413      	add	r3, r2
 80032e6:	3308      	adds	r3, #8
 80032e8:	2200      	movs	r2, #0
 80032ea:	601a      	str	r2, [r3, #0]
 80032ec:	f242 7238 	movw	r2, #10040	; 0x2738
 80032f0:	f2c2 0200 	movt	r2, #8192	; 0x2000
 80032f4:	6879      	ldr	r1, [r7, #4]
 80032f6:	460b      	mov	r3, r1
 80032f8:	00db      	lsls	r3, r3, #3
 80032fa:	1a5b      	subs	r3, r3, r1
 80032fc:	009b      	lsls	r3, r3, #2
 80032fe:	4413      	add	r3, r2
 8003300:	3310      	adds	r3, #16
 8003302:	2200      	movs	r2, #0
 8003304:	601a      	str	r2, [r3, #0]
 8003306:	f242 7238 	movw	r2, #10040	; 0x2738
 800330a:	f2c2 0200 	movt	r2, #8192	; 0x2000
 800330e:	6879      	ldr	r1, [r7, #4]
 8003310:	460b      	mov	r3, r1
 8003312:	00db      	lsls	r3, r3, #3
 8003314:	1a5b      	subs	r3, r3, r1
 8003316:	009b      	lsls	r3, r3, #2
 8003318:	4413      	add	r3, r2
 800331a:	3314      	adds	r3, #20
 800331c:	2200      	movs	r2, #0
 800331e:	601a      	str	r2, [r3, #0]
 8003320:	687b      	ldr	r3, [r7, #4]
 8003322:	3301      	adds	r3, #1
 8003324:	607b      	str	r3, [r7, #4]
 8003326:	687b      	ldr	r3, [r7, #4]
 8003328:	2b09      	cmp	r3, #9
 800332a:	ddb9      	ble.n	80032a0 <OS_Init+0xec>
 800332c:	2000      	movs	r0, #0
 800332e:	f000 fd7f 	bl	8003e30 <__set_BASEPRI>
 8003332:	f24e 700c 	movw	r0, #59148	; 0xe70c
 8003336:	f6c0 0000 	movt	r0, #2048	; 0x800
 800333a:	f004 ffc7 	bl	80082cc <Uart1_Printf>
 800333e:	f002 fc35 	bl	8005bac <Mutex_Init>
 8003342:	f002 fce7 	bl	8005d14 <Create_Mutex>
 8003346:	4602      	mov	r2, r0
 8003348:	f642 2350 	movw	r3, #10832	; 0x2a50
 800334c:	f2c2 0300 	movt	r3, #8192	; 0x2000
 8003350:	601a      	str	r2, [r3, #0]
 8003352:	f24e 701c 	movw	r0, #59164	; 0xe71c
 8003356:	f6c0 0000 	movt	r0, #2048	; 0x800
 800335a:	f004 ffb7 	bl	80082cc <Uart1_Printf>
 800335e:	f243 1095 	movw	r0, #12693	; 0x3195
 8003362:	f6c0 0000 	movt	r0, #2048	; 0x800
 8003366:	2100      	movs	r1, #0
 8003368:	22ff      	movs	r2, #255	; 0xff
 800336a:	2380      	movs	r3, #128	; 0x80
 800336c:	f000 f83a 	bl	80033e4 <OS_Create_Task_Simple>
 8003370:	f24e 7030 	movw	r0, #59184	; 0xe730
 8003374:	f6c0 0000 	movt	r0, #2048	; 0x800
 8003378:	f004 ffa8 	bl	80082cc <Uart1_Printf>
 800337c:	3708      	adds	r7, #8
 800337e:	46bd      	mov	sp, r7
 8003380:	bd80      	pop	{r7, pc}
 8003382:	bf00      	nop

08003384 <_OS_Get_Stack>:
 8003384:	b480      	push	{r7}
 8003386:	b085      	sub	sp, #20
 8003388:	af00      	add	r7, sp, #0
 800338a:	6078      	str	r0, [r7, #4]
 800338c:	f240 0308 	movw	r3, #8
 8003390:	f2c2 0300 	movt	r3, #8192	; 0x2000
 8003394:	681b      	ldr	r3, [r3, #0]
 8003396:	60fb      	str	r3, [r7, #12]
 8003398:	687b      	ldr	r3, [r7, #4]
 800339a:	3307      	adds	r3, #7
 800339c:	f023 0307 	bic.w	r3, r3, #7
 80033a0:	607b      	str	r3, [r7, #4]
 80033a2:	687b      	ldr	r3, [r7, #4]
 80033a4:	425b      	negs	r3, r3
 80033a6:	68fa      	ldr	r2, [r7, #12]
 80033a8:	441a      	add	r2, r3
 80033aa:	f240 030c 	movw	r3, #12
 80033ae:	f2c2 0300 	movt	r3, #8192	; 0x2000
 80033b2:	681b      	ldr	r3, [r3, #0]
 80033b4:	429a      	cmp	r2, r3
 80033b6:	d201      	bcs.n	80033bc <_OS_Get_Stack+0x38>
 80033b8:	2300      	movs	r3, #0
 80033ba:	e00d      	b.n	80033d8 <_OS_Get_Stack+0x54>
 80033bc:	f240 0308 	movw	r3, #8
 80033c0:	f2c2 0300 	movt	r3, #8192	; 0x2000
 80033c4:	681a      	ldr	r2, [r3, #0]
 80033c6:	687b      	ldr	r3, [r7, #4]
 80033c8:	425b      	negs	r3, r3
 80033ca:	441a      	add	r2, r3
 80033cc:	f240 0308 	movw	r3, #8
 80033d0:	f2c2 0300 	movt	r3, #8192	; 0x2000
 80033d4:	601a      	str	r2, [r3, #0]
 80033d6:	68fb      	ldr	r3, [r7, #12]
 80033d8:	4618      	mov	r0, r3
 80033da:	3714      	adds	r7, #20
 80033dc:	46bd      	mov	sp, r7
 80033de:	f85d 7b04 	ldr.w	r7, [sp], #4
 80033e2:	4770      	bx	lr

080033e4 <OS_Create_Task_Simple>:
 80033e4:	b580      	push	{r7, lr}
 80033e6:	b086      	sub	sp, #24
 80033e8:	af00      	add	r7, sp, #0
 80033ea:	60f8      	str	r0, [r7, #12]
 80033ec:	60b9      	str	r1, [r7, #8]
 80033ee:	607a      	str	r2, [r7, #4]
 80033f0:	603b      	str	r3, [r7, #0]
 80033f2:	2030      	movs	r0, #48	; 0x30
 80033f4:	f000 fd1c 	bl	8003e30 <__set_BASEPRI>
 80033f8:	f642 3328 	movw	r3, #11048	; 0x2b28
 80033fc:	f2c2 0300 	movt	r3, #8192	; 0x2000
 8003400:	681b      	ldr	r3, [r3, #0]
 8003402:	f24e 7040 	movw	r0, #59200	; 0xe740
 8003406:	f6c0 0000 	movt	r0, #2048	; 0x800
 800340a:	4619      	mov	r1, r3
 800340c:	f004 ff5e 	bl	80082cc <Uart1_Printf>
 8003410:	f642 3328 	movw	r3, #11048	; 0x2b28
 8003414:	f2c2 0300 	movt	r3, #8192	; 0x2000
 8003418:	681b      	ldr	r3, [r3, #0]
 800341a:	2b3c      	cmp	r3, #60	; 0x3c
 800341c:	dd02      	ble.n	8003424 <OS_Create_Task_Simple+0x40>
 800341e:	f04f 33ff 	mov.w	r3, #4294967295
 8003422:	e06f      	b.n	8003504 <OS_Create_Task_Simple+0x120>
 8003424:	f642 3328 	movw	r3, #11048	; 0x2b28
 8003428:	f2c2 0300 	movt	r3, #8192	; 0x2000
 800342c:	681a      	ldr	r2, [r3, #0]
 800342e:	4613      	mov	r3, r2
 8003430:	00db      	lsls	r3, r3, #3
 8003432:	1a9b      	subs	r3, r3, r2
 8003434:	00db      	lsls	r3, r3, #3
 8003436:	f240 52e0 	movw	r2, #1504	; 0x5e0
 800343a:	f2c2 0200 	movt	r2, #8192	; 0x2000
 800343e:	4413      	add	r3, r2
 8003440:	617b      	str	r3, [r7, #20]
 8003442:	6838      	ldr	r0, [r7, #0]
 8003444:	f7ff ff9e 	bl	8003384 <_OS_Get_Stack>
 8003448:	4602      	mov	r2, r0
 800344a:	697b      	ldr	r3, [r7, #20]
 800344c:	601a      	str	r2, [r3, #0]
 800344e:	697b      	ldr	r3, [r7, #20]
 8003450:	681b      	ldr	r3, [r3, #0]
 8003452:	2b00      	cmp	r3, #0
 8003454:	d102      	bne.n	800345c <OS_Create_Task_Simple+0x78>
 8003456:	f06f 0301 	mvn.w	r3, #1
 800345a:	e053      	b.n	8003504 <OS_Create_Task_Simple+0x120>
 800345c:	f642 3328 	movw	r3, #11048	; 0x2b28
 8003460:	f2c2 0300 	movt	r3, #8192	; 0x2000
 8003464:	681b      	ldr	r3, [r3, #0]
 8003466:	1c5a      	adds	r2, r3, #1
 8003468:	f642 3328 	movw	r3, #11048	; 0x2b28
 800346c:	f2c2 0300 	movt	r3, #8192	; 0x2000
 8003470:	601a      	str	r2, [r3, #0]
 8003472:	697b      	ldr	r3, [r7, #20]
 8003474:	681b      	ldr	r3, [r3, #0]
 8003476:	f1a3 0240 	sub.w	r2, r3, #64	; 0x40
 800347a:	697b      	ldr	r3, [r7, #20]
 800347c:	601a      	str	r2, [r3, #0]
 800347e:	697b      	ldr	r3, [r7, #20]
 8003480:	681b      	ldr	r3, [r3, #0]
 8003482:	3320      	adds	r3, #32
 8003484:	68ba      	ldr	r2, [r7, #8]
 8003486:	601a      	str	r2, [r3, #0]
 8003488:	697b      	ldr	r3, [r7, #20]
 800348a:	681b      	ldr	r3, [r3, #0]
 800348c:	3338      	adds	r3, #56	; 0x38
 800348e:	68fa      	ldr	r2, [r7, #12]
 8003490:	601a      	str	r2, [r3, #0]
 8003492:	697b      	ldr	r3, [r7, #20]
 8003494:	681b      	ldr	r3, [r3, #0]
 8003496:	333c      	adds	r3, #60	; 0x3c
 8003498:	f04f 7280 	mov.w	r2, #16777216	; 0x1000000
 800349c:	601a      	str	r2, [r3, #0]
 800349e:	697b      	ldr	r3, [r7, #20]
 80034a0:	687a      	ldr	r2, [r7, #4]
 80034a2:	609a      	str	r2, [r3, #8]
 80034a4:	697b      	ldr	r3, [r7, #20]
 80034a6:	2200      	movs	r2, #0
 80034a8:	60da      	str	r2, [r3, #12]
 80034aa:	f642 2348 	movw	r3, #10824	; 0x2a48
 80034ae:	f2c2 0300 	movt	r3, #8192	; 0x2000
 80034b2:	e9d3 2300 	ldrd	r2, r3, [r3]
 80034b6:	6979      	ldr	r1, [r7, #20]
 80034b8:	e9c1 2304 	strd	r2, r3, [r1, #16]
 80034bc:	697b      	ldr	r3, [r7, #20]
 80034be:	f04f 32ff 	mov.w	r2, #4294967295
 80034c2:	621a      	str	r2, [r3, #32]
 80034c4:	f642 0058 	movw	r0, #10328	; 0x2858
 80034c8:	f2c2 0000 	movt	r0, #8192	; 0x2000
 80034cc:	6979      	ldr	r1, [r7, #20]
 80034ce:	f246 12e1 	movw	r2, #25057	; 0x61e1
 80034d2:	f6c0 0200 	movt	r2, #2048	; 0x800
 80034d6:	f002 ff6f 	bl	80063b8 <pq_push>
 80034da:	f642 3328 	movw	r3, #11048	; 0x2b28
 80034de:	f2c2 0300 	movt	r3, #8192	; 0x2000
 80034e2:	681b      	ldr	r3, [r3, #0]
 80034e4:	1e5a      	subs	r2, r3, #1
 80034e6:	697b      	ldr	r3, [r7, #20]
 80034e8:	681b      	ldr	r3, [r3, #0]
 80034ea:	f24e 705c 	movw	r0, #59228	; 0xe75c
 80034ee:	f6c0 0000 	movt	r0, #2048	; 0x800
 80034f2:	4611      	mov	r1, r2
 80034f4:	461a      	mov	r2, r3
 80034f6:	f004 fee9 	bl	80082cc <Uart1_Printf>
 80034fa:	2000      	movs	r0, #0
 80034fc:	f000 fc98 	bl	8003e30 <__set_BASEPRI>
 8003500:	697b      	ldr	r3, [r7, #20]
 8003502:	685b      	ldr	r3, [r3, #4]
 8003504:	4618      	mov	r0, r3
 8003506:	3718      	adds	r7, #24
 8003508:	46bd      	mov	sp, r7
 800350a:	bd80      	pop	{r7, pc}

0800350c <OS_Create_Queue>:
 800350c:	b580      	push	{r7, lr}
 800350e:	b084      	sub	sp, #16
 8003510:	af00      	add	r7, sp, #0
 8003512:	6078      	str	r0, [r7, #4]
 8003514:	6039      	str	r1, [r7, #0]
 8003516:	2030      	movs	r0, #48	; 0x30
 8003518:	f000 fc8a 	bl	8003e30 <__set_BASEPRI>
 800351c:	2300      	movs	r3, #0
 800351e:	60fb      	str	r3, [r7, #12]
 8003520:	e041      	b.n	80035a6 <OS_Create_Queue+0x9a>
 8003522:	f242 7238 	movw	r2, #10040	; 0x2738
 8003526:	f2c2 0200 	movt	r2, #8192	; 0x2000
 800352a:	68f9      	ldr	r1, [r7, #12]
 800352c:	460b      	mov	r3, r1
 800352e:	00db      	lsls	r3, r3, #3
 8003530:	1a5b      	subs	r3, r3, r1
 8003532:	009b      	lsls	r3, r3, #2
 8003534:	4413      	add	r3, r2
 8003536:	3310      	adds	r3, #16
 8003538:	681b      	ldr	r3, [r3, #0]
 800353a:	2b00      	cmp	r3, #0
 800353c:	d130      	bne.n	80035a0 <OS_Create_Queue+0x94>
 800353e:	68fa      	ldr	r2, [r7, #12]
 8003540:	4613      	mov	r3, r2
 8003542:	00db      	lsls	r3, r3, #3
 8003544:	1a9b      	subs	r3, r3, r2
 8003546:	009b      	lsls	r3, r3, #2
 8003548:	f242 7238 	movw	r2, #10040	; 0x2738
 800354c:	f2c2 0200 	movt	r2, #8192	; 0x2000
 8003550:	441a      	add	r2, r3
 8003552:	f642 0350 	movw	r3, #10320	; 0x2850
 8003556:	f2c2 0300 	movt	r3, #8192	; 0x2000
 800355a:	681b      	ldr	r3, [r3, #0]
 800355c:	685b      	ldr	r3, [r3, #4]
 800355e:	4610      	mov	r0, r2
 8003560:	6879      	ldr	r1, [r7, #4]
 8003562:	683a      	ldr	r2, [r7, #0]
 8003564:	f003 f82c 	bl	80065c0 <createQueue>
 8003568:	4603      	mov	r3, r0
 800356a:	2b00      	cmp	r3, #0
 800356c:	d10b      	bne.n	8003586 <OS_Create_Queue+0x7a>
 800356e:	f24e 7084 	movw	r0, #59268	; 0xe784
 8003572:	f6c0 0000 	movt	r0, #2048	; 0x800
 8003576:	68f9      	ldr	r1, [r7, #12]
 8003578:	f004 fea8 	bl	80082cc <Uart1_Printf>
 800357c:	2000      	movs	r0, #0
 800357e:	f000 fc57 	bl	8003e30 <__set_BASEPRI>
 8003582:	68fb      	ldr	r3, [r7, #12]
 8003584:	e01e      	b.n	80035c4 <OS_Create_Queue+0xb8>
 8003586:	f24e 709c 	movw	r0, #59292	; 0xe79c
 800358a:	f6c0 0000 	movt	r0, #2048	; 0x800
 800358e:	68f9      	ldr	r1, [r7, #12]
 8003590:	f004 fe9c 	bl	80082cc <Uart1_Printf>
 8003594:	2000      	movs	r0, #0
 8003596:	f000 fc4b 	bl	8003e30 <__set_BASEPRI>
 800359a:	f06f 0302 	mvn.w	r3, #2
 800359e:	e011      	b.n	80035c4 <OS_Create_Queue+0xb8>
 80035a0:	68fb      	ldr	r3, [r7, #12]
 80035a2:	3301      	adds	r3, #1
 80035a4:	60fb      	str	r3, [r7, #12]
 80035a6:	68fb      	ldr	r3, [r7, #12]
 80035a8:	2b09      	cmp	r3, #9
 80035aa:	ddba      	ble.n	8003522 <OS_Create_Queue+0x16>
 80035ac:	f24e 70b0 	movw	r0, #59312	; 0xe7b0
 80035b0:	f6c0 0000 	movt	r0, #2048	; 0x800
 80035b4:	68f9      	ldr	r1, [r7, #12]
 80035b6:	f004 fe89 	bl	80082cc <Uart1_Printf>
 80035ba:	2000      	movs	r0, #0
 80035bc:	f000 fc38 	bl	8003e30 <__set_BASEPRI>
 80035c0:	f06f 0302 	mvn.w	r3, #2
 80035c4:	4618      	mov	r0, r3
 80035c6:	3710      	adds	r7, #16
 80035c8:	46bd      	mov	sp, r7
 80035ca:	bd80      	pop	{r7, pc}

080035cc <OS_Scheduler_Start>:
 80035cc:	b580      	push	{r7, lr}
 80035ce:	b082      	sub	sp, #8
 80035d0:	af00      	add	r7, sp, #0
 80035d2:	2030      	movs	r0, #48	; 0x30
 80035d4:	f000 fc2c 	bl	8003e30 <__set_BASEPRI>
 80035d8:	f642 0058 	movw	r0, #10328	; 0x2858
 80035dc:	f2c2 0000 	movt	r0, #8192	; 0x2000
 80035e0:	f246 11e1 	movw	r1, #25057	; 0x61e1
 80035e4:	f6c0 0100 	movt	r1, #2048	; 0x800
 80035e8:	f002 ff10 	bl	800640c <pq_pop>
 80035ec:	4602      	mov	r2, r0
 80035ee:	f642 0350 	movw	r3, #10320	; 0x2850
 80035f2:	f2c2 0300 	movt	r3, #8192	; 0x2000
 80035f6:	601a      	str	r2, [r3, #0]
 80035f8:	f44f 436d 	mov.w	r3, #60672	; 0xed00
 80035fc:	f2ce 0300 	movt	r3, #57344	; 0xe000
 8003600:	22f0      	movs	r2, #240	; 0xf0
 8003602:	f883 2023 	strb.w	r2, [r3, #35]	; 0x23
 8003606:	f44f 436d 	mov.w	r3, #60672	; 0xed00
 800360a:	f2ce 0300 	movt	r3, #57344	; 0xe000
 800360e:	22f0      	movs	r2, #240	; 0xf0
 8003610:	f883 2022 	strb.w	r2, [r3, #34]	; 0x22
 8003614:	2300      	movs	r3, #0
 8003616:	607b      	str	r3, [r7, #4]
 8003618:	e009      	b.n	800362e <OS_Scheduler_Start+0x62>
 800361a:	687b      	ldr	r3, [r7, #4]
 800361c:	b2db      	uxtb	r3, r3
 800361e:	b25b      	sxtb	r3, r3
 8003620:	4618      	mov	r0, r3
 8003622:	210e      	movs	r1, #14
 8003624:	f7ff fd8a 	bl	800313c <NVIC_SetPriority>
 8003628:	687b      	ldr	r3, [r7, #4]
 800362a:	3301      	adds	r3, #1
 800362c:	607b      	str	r3, [r7, #4]
 800362e:	687b      	ldr	r3, [r7, #4]
 8003630:	2b2a      	cmp	r3, #42	; 0x2a
 8003632:	ddf2      	ble.n	800361a <OS_Scheduler_Start+0x4e>
 8003634:	f642 0350 	movw	r3, #10320	; 0x2850
 8003638:	f2c2 0300 	movt	r3, #8192	; 0x2000
 800363c:	681b      	ldr	r3, [r3, #0]
 800363e:	2202      	movs	r2, #2
 8003640:	60da      	str	r2, [r3, #12]
 8003642:	f240 0300 	movw	r3, #0
 8003646:	f2c2 0300 	movt	r3, #8192	; 0x2000
 800364a:	681b      	ldr	r3, [r3, #0]
 800364c:	4618      	mov	r0, r3
 800364e:	f004 fbbf 	bl	8007dd0 <SysTick_OS_Tick>
 8003652:	2000      	movs	r0, #0
 8003654:	f000 fbec 	bl	8003e30 <__set_BASEPRI>
 8003658:	f002 fd7e 	bl	8006158 <Set_Mutex_Scheduler_Flag>
 800365c:	f004 ff50 	bl	8008500 <_OS_Start_First_Task>
 8003660:	3708      	adds	r7, #8
 8003662:	46bd      	mov	sp, r7
 8003664:	bd80      	pop	{r7, pc}
 8003666:	bf00      	nop

08003668 <OS_Scheduler>:
 8003668:	b580      	push	{r7, lr}
 800366a:	af00      	add	r7, sp, #0
 800366c:	f642 0350 	movw	r3, #10320	; 0x2850
 8003670:	f2c2 0300 	movt	r3, #8192	; 0x2000
 8003674:	681b      	ldr	r3, [r3, #0]
 8003676:	68db      	ldr	r3, [r3, #12]
 8003678:	2b02      	cmp	r3, #2
 800367a:	d123      	bne.n	80036c4 <OS_Scheduler+0x5c>
 800367c:	f642 0350 	movw	r3, #10320	; 0x2850
 8003680:	f2c2 0300 	movt	r3, #8192	; 0x2000
 8003684:	681b      	ldr	r3, [r3, #0]
 8003686:	2200      	movs	r2, #0
 8003688:	60da      	str	r2, [r3, #12]
 800368a:	f642 0350 	movw	r3, #10320	; 0x2850
 800368e:	f2c2 0300 	movt	r3, #8192	; 0x2000
 8003692:	6819      	ldr	r1, [r3, #0]
 8003694:	f642 2348 	movw	r3, #10824	; 0x2a48
 8003698:	f2c2 0300 	movt	r3, #8192	; 0x2000
 800369c:	e9d3 2300 	ldrd	r2, r3, [r3]
 80036a0:	e9c1 2304 	strd	r2, r3, [r1, #16]
 80036a4:	f642 0350 	movw	r3, #10320	; 0x2850
 80036a8:	f2c2 0300 	movt	r3, #8192	; 0x2000
 80036ac:	681b      	ldr	r3, [r3, #0]
 80036ae:	f642 0058 	movw	r0, #10328	; 0x2858
 80036b2:	f2c2 0000 	movt	r0, #8192	; 0x2000
 80036b6:	4619      	mov	r1, r3
 80036b8:	f246 12e1 	movw	r2, #25057	; 0x61e1
 80036bc:	f6c0 0200 	movt	r2, #2048	; 0x800
 80036c0:	f002 fe7a 	bl	80063b8 <pq_push>
 80036c4:	f642 0058 	movw	r0, #10328	; 0x2858
 80036c8:	f2c2 0000 	movt	r0, #8192	; 0x2000
 80036cc:	f002 fed0 	bl	8006470 <pq_top>
 80036d0:	4602      	mov	r2, r0
 80036d2:	f642 0354 	movw	r3, #10324	; 0x2854
 80036d6:	f2c2 0300 	movt	r3, #8192	; 0x2000
 80036da:	601a      	str	r2, [r3, #0]
 80036dc:	f642 0354 	movw	r3, #10324	; 0x2854
 80036e0:	f2c2 0300 	movt	r3, #8192	; 0x2000
 80036e4:	681b      	ldr	r3, [r3, #0]
 80036e6:	2b00      	cmp	r3, #0
 80036e8:	d100      	bne.n	80036ec <OS_Scheduler+0x84>
 80036ea:	e01a      	b.n	8003722 <OS_Scheduler+0xba>
 80036ec:	f642 0058 	movw	r0, #10328	; 0x2858
 80036f0:	f2c2 0000 	movt	r0, #8192	; 0x2000
 80036f4:	f246 11e1 	movw	r1, #25057	; 0x61e1
 80036f8:	f6c0 0100 	movt	r1, #2048	; 0x800
 80036fc:	f002 fe86 	bl	800640c <pq_pop>
 8003700:	f642 0354 	movw	r3, #10324	; 0x2854
 8003704:	f2c2 0300 	movt	r3, #8192	; 0x2000
 8003708:	681b      	ldr	r3, [r3, #0]
 800370a:	2202      	movs	r2, #2
 800370c:	60da      	str	r2, [r3, #12]
 800370e:	f642 0354 	movw	r3, #10324	; 0x2854
 8003712:	f2c2 0300 	movt	r3, #8192	; 0x2000
 8003716:	681a      	ldr	r2, [r3, #0]
 8003718:	f642 0350 	movw	r3, #10320	; 0x2850
 800371c:	f2c2 0300 	movt	r3, #8192	; 0x2000
 8003720:	601a      	str	r2, [r3, #0]
 8003722:	bd80      	pop	{r7, pc}

08003724 <OS_Tick>:
 8003724:	b580      	push	{r7, lr}
 8003726:	b082      	sub	sp, #8
 8003728:	af00      	add	r7, sp, #0
 800372a:	2030      	movs	r0, #48	; 0x30
 800372c:	f000 fb80 	bl	8003e30 <__set_BASEPRI>
 8003730:	f240 0300 	movw	r3, #0
 8003734:	f2c2 0300 	movt	r3, #8192	; 0x2000
 8003738:	681b      	ldr	r3, [r3, #0]
 800373a:	4618      	mov	r0, r3
 800373c:	ea4f 71e0 	mov.w	r1, r0, asr #31
 8003740:	f642 2348 	movw	r3, #10824	; 0x2a48
 8003744:	f2c2 0300 	movt	r3, #8192	; 0x2000
 8003748:	e9d3 2300 	ldrd	r2, r3, [r3]
 800374c:	1880      	adds	r0, r0, r2
 800374e:	eb41 0103 	adc.w	r1, r1, r3
 8003752:	f642 2348 	movw	r3, #10824	; 0x2a48
 8003756:	f2c2 0300 	movt	r3, #8192	; 0x2000
 800375a:	e9c3 0100 	strd	r0, r1, [r3]
 800375e:	e018      	b.n	8003792 <OS_Tick+0x6e>
 8003760:	f642 1050 	movw	r0, #10576	; 0x2950
 8003764:	f2c2 0000 	movt	r0, #8192	; 0x2000
 8003768:	f246 118d 	movw	r1, #24973	; 0x618d
 800376c:	f6c0 0100 	movt	r1, #2048	; 0x800
 8003770:	f002 fe4c 	bl	800640c <pq_pop>
 8003774:	6078      	str	r0, [r7, #4]
 8003776:	687b      	ldr	r3, [r7, #4]
 8003778:	2200      	movs	r2, #0
 800377a:	60da      	str	r2, [r3, #12]
 800377c:	f642 0058 	movw	r0, #10328	; 0x2858
 8003780:	f2c2 0000 	movt	r0, #8192	; 0x2000
 8003784:	6879      	ldr	r1, [r7, #4]
 8003786:	f246 12e1 	movw	r2, #25057	; 0x61e1
 800378a:	f6c0 0200 	movt	r2, #2048	; 0x800
 800378e:	f002 fe13 	bl	80063b8 <pq_push>
 8003792:	f642 1350 	movw	r3, #10576	; 0x2950
 8003796:	f2c2 0300 	movt	r3, #8192	; 0x2000
 800379a:	f8d3 30f4 	ldr.w	r3, [r3, #244]	; 0xf4
 800379e:	2b00      	cmp	r3, #0
 80037a0:	dd12      	ble.n	80037c8 <OS_Tick+0xa4>
 80037a2:	f642 1050 	movw	r0, #10576	; 0x2950
 80037a6:	f2c2 0000 	movt	r0, #8192	; 0x2000
 80037aa:	f002 fe61 	bl	8006470 <pq_top>
 80037ae:	4603      	mov	r3, r0
 80037b0:	e9d3 0106 	ldrd	r0, r1, [r3, #24]
 80037b4:	f642 2348 	movw	r3, #10824	; 0x2a48
 80037b8:	f2c2 0300 	movt	r3, #8192	; 0x2000
 80037bc:	e9d3 2300 	ldrd	r2, r3, [r3]
 80037c0:	4282      	cmp	r2, r0
 80037c2:	eb73 0c01 	sbcs.w	ip, r3, r1
 80037c6:	dacb      	bge.n	8003760 <OS_Tick+0x3c>
 80037c8:	2000      	movs	r0, #0
 80037ca:	f000 fb31 	bl	8003e30 <__set_BASEPRI>
 80037ce:	3708      	adds	r7, #8
 80037d0:	46bd      	mov	sp, r7
 80037d2:	bd80      	pop	{r7, pc}

080037d4 <OS_Signal_Wait>:
 80037d4:	b580      	push	{r7, lr}
 80037d6:	b086      	sub	sp, #24
 80037d8:	af00      	add	r7, sp, #0
 80037da:	60f8      	str	r0, [r7, #12]
 80037dc:	60b9      	str	r1, [r7, #8]
 80037de:	607a      	str	r2, [r7, #4]
 80037e0:	603b      	str	r3, [r7, #0]
 80037e2:	2030      	movs	r0, #48	; 0x30
 80037e4:	f000 fb24 	bl	8003e30 <__set_BASEPRI>
 80037e8:	2300      	movs	r3, #0
 80037ea:	617b      	str	r3, [r7, #20]
 80037ec:	68fb      	ldr	r3, [r7, #12]
 80037ee:	2b00      	cmp	r3, #0
 80037f0:	db02      	blt.n	80037f8 <OS_Signal_Wait+0x24>
 80037f2:	68fb      	ldr	r3, [r7, #12]
 80037f4:	2b09      	cmp	r3, #9
 80037f6:	dd05      	ble.n	8003804 <OS_Signal_Wait+0x30>
 80037f8:	2000      	movs	r0, #0
 80037fa:	f000 fb19 	bl	8003e30 <__set_BASEPRI>
 80037fe:	f06f 0301 	mvn.w	r3, #1
 8003802:	e088      	b.n	8003916 <OS_Signal_Wait+0x142>
 8003804:	f242 7238 	movw	r2, #10040	; 0x2738
 8003808:	f2c2 0200 	movt	r2, #8192	; 0x2000
 800380c:	68f9      	ldr	r1, [r7, #12]
 800380e:	460b      	mov	r3, r1
 8003810:	00db      	lsls	r3, r3, #3
 8003812:	1a5b      	subs	r3, r3, r1
 8003814:	009b      	lsls	r3, r3, #2
 8003816:	4413      	add	r3, r2
 8003818:	3310      	adds	r3, #16
 800381a:	681a      	ldr	r2, [r3, #0]
 800381c:	687b      	ldr	r3, [r7, #4]
 800381e:	429a      	cmp	r2, r3
 8003820:	d005      	beq.n	800382e <OS_Signal_Wait+0x5a>
 8003822:	2000      	movs	r0, #0
 8003824:	f000 fb04 	bl	8003e30 <__set_BASEPRI>
 8003828:	f06f 0303 	mvn.w	r3, #3
 800382c:	e073      	b.n	8003916 <OS_Signal_Wait+0x142>
 800382e:	f642 0350 	movw	r3, #10320	; 0x2850
 8003832:	f2c2 0300 	movt	r3, #8192	; 0x2000
 8003836:	681b      	ldr	r3, [r3, #0]
 8003838:	6a9b      	ldr	r3, [r3, #40]	; 0x28
 800383a:	2b02      	cmp	r3, #2
 800383c:	d00c      	beq.n	8003858 <OS_Signal_Wait+0x84>
 800383e:	f642 0350 	movw	r3, #10320	; 0x2850
 8003842:	f2c2 0300 	movt	r3, #8192	; 0x2000
 8003846:	681b      	ldr	r3, [r3, #0]
 8003848:	2201      	movs	r2, #1
 800384a:	629a      	str	r2, [r3, #40]	; 0x28
 800384c:	6838      	ldr	r0, [r7, #0]
 800384e:	f000 f8cd 	bl	80039ec <OS_Block_Current_Task>
 8003852:	2030      	movs	r0, #48	; 0x30
 8003854:	f000 faec 	bl	8003e30 <__set_BASEPRI>
 8003858:	f642 0350 	movw	r3, #10320	; 0x2850
 800385c:	f2c2 0300 	movt	r3, #8192	; 0x2000
 8003860:	681b      	ldr	r3, [r3, #0]
 8003862:	6a9b      	ldr	r3, [r3, #40]	; 0x28
 8003864:	2b01      	cmp	r3, #1
 8003866:	d107      	bne.n	8003878 <OS_Signal_Wait+0xa4>
 8003868:	f04f 33ff 	mov.w	r3, #4294967295
 800386c:	617b      	str	r3, [r7, #20]
 800386e:	2000      	movs	r0, #0
 8003870:	f000 fade 	bl	8003e30 <__set_BASEPRI>
 8003874:	697b      	ldr	r3, [r7, #20]
 8003876:	e04e      	b.n	8003916 <OS_Signal_Wait+0x142>
 8003878:	f642 0350 	movw	r3, #10320	; 0x2850
 800387c:	f2c2 0300 	movt	r3, #8192	; 0x2000
 8003880:	681b      	ldr	r3, [r3, #0]
 8003882:	6a9b      	ldr	r3, [r3, #40]	; 0x28
 8003884:	2b02      	cmp	r3, #2
 8003886:	d11d      	bne.n	80038c4 <OS_Signal_Wait+0xf0>
 8003888:	68fa      	ldr	r2, [r7, #12]
 800388a:	4613      	mov	r3, r2
 800388c:	00db      	lsls	r3, r3, #3
 800388e:	1a9b      	subs	r3, r3, r2
 8003890:	009b      	lsls	r3, r3, #2
 8003892:	f242 7238 	movw	r2, #10040	; 0x2738
 8003896:	f2c2 0200 	movt	r2, #8192	; 0x2000
 800389a:	441a      	add	r2, r3
 800389c:	f642 0350 	movw	r3, #10320	; 0x2850
 80038a0:	f2c2 0300 	movt	r3, #8192	; 0x2000
 80038a4:	681b      	ldr	r3, [r3, #0]
 80038a6:	685b      	ldr	r3, [r3, #4]
 80038a8:	4610      	mov	r0, r2
 80038aa:	68b9      	ldr	r1, [r7, #8]
 80038ac:	461a      	mov	r2, r3
 80038ae:	f002 ff31 	bl	8006714 <dequeue>
 80038b2:	6178      	str	r0, [r7, #20]
 80038b4:	697b      	ldr	r3, [r7, #20]
 80038b6:	2b00      	cmp	r3, #0
 80038b8:	d012      	beq.n	80038e0 <OS_Signal_Wait+0x10c>
 80038ba:	2000      	movs	r0, #0
 80038bc:	f000 fab8 	bl	8003e30 <__set_BASEPRI>
 80038c0:	697b      	ldr	r3, [r7, #20]
 80038c2:	e028      	b.n	8003916 <OS_Signal_Wait+0x142>
 80038c4:	f24e 70c4 	movw	r0, #59332	; 0xe7c4
 80038c8:	f6c0 0000 	movt	r0, #2048	; 0x800
 80038cc:	f004 fcfe 	bl	80082cc <Uart1_Printf>
 80038d0:	f06f 0301 	mvn.w	r3, #1
 80038d4:	617b      	str	r3, [r7, #20]
 80038d6:	2000      	movs	r0, #0
 80038d8:	f000 faaa 	bl	8003e30 <__set_BASEPRI>
 80038dc:	697b      	ldr	r3, [r7, #20]
 80038de:	e01a      	b.n	8003916 <OS_Signal_Wait+0x142>
 80038e0:	68fa      	ldr	r2, [r7, #12]
 80038e2:	4613      	mov	r3, r2
 80038e4:	00db      	lsls	r3, r3, #3
 80038e6:	1a9b      	subs	r3, r3, r2
 80038e8:	009b      	lsls	r3, r3, #2
 80038ea:	f242 7238 	movw	r2, #10040	; 0x2738
 80038ee:	f2c2 0200 	movt	r2, #8192	; 0x2000
 80038f2:	4413      	add	r3, r2
 80038f4:	4618      	mov	r0, r3
 80038f6:	f002 ff51 	bl	800679c <isEmpty>
 80038fa:	4603      	mov	r3, r0
 80038fc:	2b00      	cmp	r3, #0
 80038fe:	d006      	beq.n	800390e <OS_Signal_Wait+0x13a>
 8003900:	f642 0350 	movw	r3, #10320	; 0x2850
 8003904:	f2c2 0300 	movt	r3, #8192	; 0x2000
 8003908:	681b      	ldr	r3, [r3, #0]
 800390a:	2200      	movs	r2, #0
 800390c:	629a      	str	r2, [r3, #40]	; 0x28
 800390e:	2000      	movs	r0, #0
 8003910:	f000 fa8e 	bl	8003e30 <__set_BASEPRI>
 8003914:	697b      	ldr	r3, [r7, #20]
 8003916:	4618      	mov	r0, r3
 8003918:	3718      	adds	r7, #24
 800391a:	46bd      	mov	sp, r7
 800391c:	bd80      	pop	{r7, pc}
 800391e:	bf00      	nop

08003920 <OS_Signal_Send>:
 8003920:	b580      	push	{r7, lr}
 8003922:	b084      	sub	sp, #16
 8003924:	af00      	add	r7, sp, #0
 8003926:	6078      	str	r0, [r7, #4]
 8003928:	6039      	str	r1, [r7, #0]
 800392a:	2030      	movs	r0, #48	; 0x30
 800392c:	f000 fa80 	bl	8003e30 <__set_BASEPRI>
 8003930:	687b      	ldr	r3, [r7, #4]
 8003932:	2b00      	cmp	r3, #0
 8003934:	db02      	blt.n	800393c <OS_Signal_Send+0x1c>
 8003936:	687b      	ldr	r3, [r7, #4]
 8003938:	2b09      	cmp	r3, #9
 800393a:	dd00      	ble.n	800393e <OS_Signal_Send+0x1e>
 800393c:	e053      	b.n	80039e6 <OS_Signal_Send+0xc6>
 800393e:	f242 7238 	movw	r2, #10040	; 0x2738
 8003942:	f2c2 0200 	movt	r2, #8192	; 0x2000
 8003946:	6879      	ldr	r1, [r7, #4]
 8003948:	460b      	mov	r3, r1
 800394a:	00db      	lsls	r3, r3, #3
 800394c:	1a5b      	subs	r3, r3, r1
 800394e:	009b      	lsls	r3, r3, #2
 8003950:	4413      	add	r3, r2
 8003952:	3318      	adds	r3, #24
 8003954:	681b      	ldr	r3, [r3, #0]
 8003956:	2b00      	cmp	r3, #0
 8003958:	db42      	blt.n	80039e0 <OS_Signal_Send+0xc0>
 800395a:	f242 7238 	movw	r2, #10040	; 0x2738
 800395e:	f2c2 0200 	movt	r2, #8192	; 0x2000
 8003962:	6879      	ldr	r1, [r7, #4]
 8003964:	460b      	mov	r3, r1
 8003966:	00db      	lsls	r3, r3, #3
 8003968:	1a5b      	subs	r3, r3, r1
 800396a:	009b      	lsls	r3, r3, #2
 800396c:	4413      	add	r3, r2
 800396e:	3318      	adds	r3, #24
 8003970:	681b      	ldr	r3, [r3, #0]
 8003972:	2b3c      	cmp	r3, #60	; 0x3c
 8003974:	dc34      	bgt.n	80039e0 <OS_Signal_Send+0xc0>
 8003976:	f242 7238 	movw	r2, #10040	; 0x2738
 800397a:	f2c2 0200 	movt	r2, #8192	; 0x2000
 800397e:	6879      	ldr	r1, [r7, #4]
 8003980:	460b      	mov	r3, r1
 8003982:	00db      	lsls	r3, r3, #3
 8003984:	1a5b      	subs	r3, r3, r1
 8003986:	009b      	lsls	r3, r3, #2
 8003988:	4413      	add	r3, r2
 800398a:	3318      	adds	r3, #24
 800398c:	681a      	ldr	r2, [r3, #0]
 800398e:	4613      	mov	r3, r2
 8003990:	00db      	lsls	r3, r3, #3
 8003992:	1a9b      	subs	r3, r3, r2
 8003994:	00db      	lsls	r3, r3, #3
 8003996:	f240 52e0 	movw	r2, #1504	; 0x5e0
 800399a:	f2c2 0200 	movt	r2, #8192	; 0x2000
 800399e:	4413      	add	r3, r2
 80039a0:	60fb      	str	r3, [r7, #12]
 80039a2:	68fb      	ldr	r3, [r7, #12]
 80039a4:	6a9b      	ldr	r3, [r3, #40]	; 0x28
 80039a6:	2b02      	cmp	r3, #2
 80039a8:	d00c      	beq.n	80039c4 <OS_Signal_Send+0xa4>
 80039aa:	68fb      	ldr	r3, [r7, #12]
 80039ac:	6a9b      	ldr	r3, [r3, #40]	; 0x28
 80039ae:	2b01      	cmp	r3, #1
 80039b0:	d105      	bne.n	80039be <OS_Signal_Send+0x9e>
 80039b2:	68f8      	ldr	r0, [r7, #12]
 80039b4:	f000 f86c 	bl	8003a90 <OS_Unblock_Task>
 80039b8:	2030      	movs	r0, #48	; 0x30
 80039ba:	f000 fa39 	bl	8003e30 <__set_BASEPRI>
 80039be:	68fb      	ldr	r3, [r7, #12]
 80039c0:	2202      	movs	r2, #2
 80039c2:	629a      	str	r2, [r3, #40]	; 0x28
 80039c4:	687a      	ldr	r2, [r7, #4]
 80039c6:	4613      	mov	r3, r2
 80039c8:	00db      	lsls	r3, r3, #3
 80039ca:	1a9b      	subs	r3, r3, r2
 80039cc:	009b      	lsls	r3, r3, #2
 80039ce:	f242 7238 	movw	r2, #10040	; 0x2738
 80039d2:	f2c2 0200 	movt	r2, #8192	; 0x2000
 80039d6:	4413      	add	r3, r2
 80039d8:	4618      	mov	r0, r3
 80039da:	6839      	ldr	r1, [r7, #0]
 80039dc:	f002 fe5c 	bl	8006698 <enqueue>
 80039e0:	2000      	movs	r0, #0
 80039e2:	f000 fa25 	bl	8003e30 <__set_BASEPRI>
 80039e6:	3710      	adds	r7, #16
 80039e8:	46bd      	mov	sp, r7
 80039ea:	bd80      	pop	{r7, pc}

080039ec <OS_Block_Current_Task>:
 80039ec:	b590      	push	{r4, r7, lr}
 80039ee:	b083      	sub	sp, #12
 80039f0:	af00      	add	r7, sp, #0
 80039f2:	6078      	str	r0, [r7, #4]
 80039f4:	2030      	movs	r0, #48	; 0x30
 80039f6:	f000 fa1b 	bl	8003e30 <__set_BASEPRI>
 80039fa:	f642 0350 	movw	r3, #10320	; 0x2850
 80039fe:	f2c2 0300 	movt	r3, #8192	; 0x2000
 8003a02:	681b      	ldr	r3, [r3, #0]
 8003a04:	f642 0058 	movw	r0, #10328	; 0x2858
 8003a08:	f2c2 0000 	movt	r0, #8192	; 0x2000
 8003a0c:	4619      	mov	r1, r3
 8003a0e:	f246 12e1 	movw	r2, #25057	; 0x61e1
 8003a12:	f6c0 0200 	movt	r2, #2048	; 0x800
 8003a16:	f002 fd3f 	bl	8006498 <pq_remove>
 8003a1a:	f642 0350 	movw	r3, #10320	; 0x2850
 8003a1e:	f2c2 0300 	movt	r3, #8192	; 0x2000
 8003a22:	681b      	ldr	r3, [r3, #0]
 8003a24:	2201      	movs	r2, #1
 8003a26:	60da      	str	r2, [r3, #12]
 8003a28:	687b      	ldr	r3, [r7, #4]
 8003a2a:	2b00      	cmp	r3, #0
 8003a2c:	d104      	bne.n	8003a38 <OS_Block_Current_Task+0x4c>
 8003a2e:	f44f 434a 	mov.w	r3, #51712	; 0xca00
 8003a32:	f6c3 339a 	movt	r3, #15258	; 0x3b9a
 8003a36:	607b      	str	r3, [r7, #4]
 8003a38:	f642 0350 	movw	r3, #10320	; 0x2850
 8003a3c:	f2c2 0300 	movt	r3, #8192	; 0x2000
 8003a40:	681c      	ldr	r4, [r3, #0]
 8003a42:	687b      	ldr	r3, [r7, #4]
 8003a44:	4618      	mov	r0, r3
 8003a46:	ea4f 71e0 	mov.w	r1, r0, asr #31
 8003a4a:	f642 2348 	movw	r3, #10824	; 0x2a48
 8003a4e:	f2c2 0300 	movt	r3, #8192	; 0x2000
 8003a52:	e9d3 2300 	ldrd	r2, r3, [r3]
 8003a56:	1812      	adds	r2, r2, r0
 8003a58:	eb43 0301 	adc.w	r3, r3, r1
 8003a5c:	e9c4 2306 	strd	r2, r3, [r4, #24]
 8003a60:	f642 0350 	movw	r3, #10320	; 0x2850
 8003a64:	f2c2 0300 	movt	r3, #8192	; 0x2000
 8003a68:	681b      	ldr	r3, [r3, #0]
 8003a6a:	f642 1050 	movw	r0, #10576	; 0x2950
 8003a6e:	f2c2 0000 	movt	r0, #8192	; 0x2000
 8003a72:	4619      	mov	r1, r3
 8003a74:	f246 128d 	movw	r2, #24973	; 0x618d
 8003a78:	f6c0 0200 	movt	r2, #2048	; 0x800
 8003a7c:	f002 fc9c 	bl	80063b8 <pq_push>
 8003a80:	f000 f83a 	bl	8003af8 <OS_Pend_Trigger>
 8003a84:	2000      	movs	r0, #0
 8003a86:	f000 f9d3 	bl	8003e30 <__set_BASEPRI>
 8003a8a:	370c      	adds	r7, #12
 8003a8c:	46bd      	mov	sp, r7
 8003a8e:	bd90      	pop	{r4, r7, pc}

08003a90 <OS_Unblock_Task>:
 8003a90:	b580      	push	{r7, lr}
 8003a92:	b082      	sub	sp, #8
 8003a94:	af00      	add	r7, sp, #0
 8003a96:	6078      	str	r0, [r7, #4]
 8003a98:	2030      	movs	r0, #48	; 0x30
 8003a9a:	f000 f9c9 	bl	8003e30 <__set_BASEPRI>
 8003a9e:	687b      	ldr	r3, [r7, #4]
 8003aa0:	2b00      	cmp	r3, #0
 8003aa2:	d100      	bne.n	8003aa6 <OS_Unblock_Task+0x16>
 8003aa4:	e024      	b.n	8003af0 <OS_Unblock_Task+0x60>
 8003aa6:	f642 1050 	movw	r0, #10576	; 0x2950
 8003aaa:	f2c2 0000 	movt	r0, #8192	; 0x2000
 8003aae:	6879      	ldr	r1, [r7, #4]
 8003ab0:	f246 128d 	movw	r2, #24973	; 0x618d
 8003ab4:	f6c0 0200 	movt	r2, #2048	; 0x800
 8003ab8:	f002 fcee 	bl	8006498 <pq_remove>
 8003abc:	687b      	ldr	r3, [r7, #4]
 8003abe:	2200      	movs	r2, #0
 8003ac0:	60da      	str	r2, [r3, #12]
 8003ac2:	f642 2348 	movw	r3, #10824	; 0x2a48
 8003ac6:	f2c2 0300 	movt	r3, #8192	; 0x2000
 8003aca:	e9d3 2300 	ldrd	r2, r3, [r3]
 8003ace:	6879      	ldr	r1, [r7, #4]
 8003ad0:	e9c1 2304 	strd	r2, r3, [r1, #16]
 8003ad4:	f642 0058 	movw	r0, #10328	; 0x2858
 8003ad8:	f2c2 0000 	movt	r0, #8192	; 0x2000
 8003adc:	6879      	ldr	r1, [r7, #4]
 8003ade:	f246 12e1 	movw	r2, #25057	; 0x61e1
 8003ae2:	f6c0 0200 	movt	r2, #2048	; 0x800
 8003ae6:	f002 fc67 	bl	80063b8 <pq_push>
 8003aea:	2000      	movs	r0, #0
 8003aec:	f000 f9a0 	bl	8003e30 <__set_BASEPRI>
 8003af0:	3708      	adds	r7, #8
 8003af2:	46bd      	mov	sp, r7
 8003af4:	bd80      	pop	{r7, pc}
 8003af6:	bf00      	nop

08003af8 <OS_Pend_Trigger>:
 8003af8:	b480      	push	{r7}
 8003afa:	af00      	add	r7, sp, #0
 8003afc:	f44f 436d 	mov.w	r3, #60672	; 0xed00
 8003b00:	f2ce 0300 	movt	r3, #57344	; 0xe000
 8003b04:	f44f 426d 	mov.w	r2, #60672	; 0xed00
 8003b08:	f2ce 0200 	movt	r2, #57344	; 0xe000
 8003b0c:	6852      	ldr	r2, [r2, #4]
 8003b0e:	f042 5280 	orr.w	r2, r2, #268435456	; 0x10000000
 8003b12:	605a      	str	r2, [r3, #4]
 8003b14:	46bd      	mov	sp, r7
 8003b16:	f85d 7b04 	ldr.w	r7, [sp], #4
 8003b1a:	4770      	bx	lr

08003b1c <PRINT_DUMMY>:
 8003b1c:	b580      	push	{r7, lr}
 8003b1e:	af00      	add	r7, sp, #0
 8003b20:	f24e 70e4 	movw	r0, #59364	; 0xe7e4
 8003b24:	f6c0 0000 	movt	r0, #2048	; 0x800
 8003b28:	f004 fbd0 	bl	80082cc <Uart1_Printf>
 8003b2c:	bd80      	pop	{r7, pc}
 8003b2e:	bf00      	nop

08003b30 <TIM3_Out_Init>:
 8003b30:	b480      	push	{r7}
 8003b32:	af00      	add	r7, sp, #0
 8003b34:	f44f 5380 	mov.w	r3, #4096	; 0x1000
 8003b38:	f2c4 0302 	movt	r3, #16386	; 0x4002
 8003b3c:	f44f 5280 	mov.w	r2, #4096	; 0x1000
 8003b40:	f2c4 0202 	movt	r2, #16386	; 0x4002
 8003b44:	69d2      	ldr	r2, [r2, #28]
 8003b46:	f042 0202 	orr.w	r2, r2, #2
 8003b4a:	61da      	str	r2, [r3, #28]
 8003b4c:	f44f 5380 	mov.w	r3, #4096	; 0x1000
 8003b50:	f2c4 0302 	movt	r3, #16386	; 0x4002
 8003b54:	f44f 5280 	mov.w	r2, #4096	; 0x1000
 8003b58:	f2c4 0202 	movt	r2, #16386	; 0x4002
 8003b5c:	6992      	ldr	r2, [r2, #24]
 8003b5e:	f042 0208 	orr.w	r2, r2, #8
 8003b62:	619a      	str	r2, [r3, #24]
 8003b64:	f44f 6340 	mov.w	r3, #3072	; 0xc00
 8003b68:	f2c4 0301 	movt	r3, #16385	; 0x4001
 8003b6c:	f44f 6240 	mov.w	r2, #3072	; 0xc00
 8003b70:	f2c4 0201 	movt	r2, #16385	; 0x4001
 8003b74:	6812      	ldr	r2, [r2, #0]
 8003b76:	f022 020f 	bic.w	r2, r2, #15
 8003b7a:	f042 020b 	orr.w	r2, r2, #11
 8003b7e:	601a      	str	r2, [r3, #0]
 8003b80:	f44f 6380 	mov.w	r3, #1024	; 0x400
 8003b84:	f2c4 0300 	movt	r3, #16384	; 0x4000
 8003b88:	f44f 6280 	mov.w	r2, #1024	; 0x400
 8003b8c:	f2c4 0200 	movt	r2, #16384	; 0x4000
 8003b90:	8b92      	ldrh	r2, [r2, #28]
 8003b92:	b292      	uxth	r2, r2
 8003b94:	f022 0270 	bic.w	r2, r2, #112	; 0x70
 8003b98:	b292      	uxth	r2, r2
 8003b9a:	f042 0260 	orr.w	r2, r2, #96	; 0x60
 8003b9e:	b292      	uxth	r2, r2
 8003ba0:	839a      	strh	r2, [r3, #28]
 8003ba2:	f44f 6380 	mov.w	r3, #1024	; 0x400
 8003ba6:	f2c4 0300 	movt	r3, #16384	; 0x4000
 8003baa:	f44f 7280 	mov.w	r2, #256	; 0x100
 8003bae:	841a      	strh	r2, [r3, #32]
 8003bb0:	46bd      	mov	sp, r7
 8003bb2:	f85d 7b04 	ldr.w	r7, [sp], #4
 8003bb6:	4770      	bx	lr

08003bb8 <TIM3_Out_Freq_Generation>:
 8003bb8:	b590      	push	{r4, r7, lr}
 8003bba:	b083      	sub	sp, #12
 8003bbc:	af00      	add	r7, sp, #0
 8003bbe:	4603      	mov	r3, r0
 8003bc0:	80fb      	strh	r3, [r7, #6]
 8003bc2:	f44f 6380 	mov.w	r3, #1024	; 0x400
 8003bc6:	f2c4 0300 	movt	r3, #16384	; 0x4000
 8003bca:	2208      	movs	r2, #8
 8003bcc:	851a      	strh	r2, [r3, #40]	; 0x28
 8003bce:	f44f 6480 	mov.w	r4, #1024	; 0x400
 8003bd2:	f2c4 0400 	movt	r4, #16384	; 0x4000
 8003bd6:	88fb      	ldrh	r3, [r7, #6]
 8003bd8:	4618      	mov	r0, r3
 8003bda:	f009 fed9 	bl	800d990 <__aeabi_i2d>
 8003bde:	4602      	mov	r2, r0
 8003be0:	460b      	mov	r3, r1
 8003be2:	a11f      	add	r1, pc, #124	; (adr r1, 8003c60 <TIM3_Out_Freq_Generation+0xa8>)
 8003be4:	e9d1 0100 	ldrd	r0, r1, [r1]
 8003be8:	f00a f862 	bl	800dcb0 <__aeabi_ddiv>
 8003bec:	4602      	mov	r2, r0
 8003bee:	460b      	mov	r3, r1
 8003bf0:	4610      	mov	r0, r2
 8003bf2:	4619      	mov	r1, r3
 8003bf4:	f04f 0200 	mov.w	r2, #0
 8003bf8:	f04f 0300 	mov.w	r3, #0
 8003bfc:	f6c3 73f0 	movt	r3, #16368	; 0x3ff0
 8003c00:	f009 fd78 	bl	800d6f4 <__aeabi_dsub>
 8003c04:	4602      	mov	r2, r0
 8003c06:	460b      	mov	r3, r1
 8003c08:	4610      	mov	r0, r2
 8003c0a:	4619      	mov	r1, r3
 8003c0c:	f00a f9e8 	bl	800dfe0 <__aeabi_d2uiz>
 8003c10:	4603      	mov	r3, r0
 8003c12:	b29b      	uxth	r3, r3
 8003c14:	85a3      	strh	r3, [r4, #44]	; 0x2c
 8003c16:	f44f 6380 	mov.w	r3, #1024	; 0x400
 8003c1a:	f2c4 0300 	movt	r3, #16384	; 0x4000
 8003c1e:	f44f 6280 	mov.w	r2, #1024	; 0x400
 8003c22:	f2c4 0200 	movt	r2, #16384	; 0x4000
 8003c26:	8d92      	ldrh	r2, [r2, #44]	; 0x2c
 8003c28:	b292      	uxth	r2, r2
 8003c2a:	0852      	lsrs	r2, r2, #1
 8003c2c:	b292      	uxth	r2, r2
 8003c2e:	879a      	strh	r2, [r3, #60]	; 0x3c
 8003c30:	f44f 6380 	mov.w	r3, #1024	; 0x400
 8003c34:	f2c4 0300 	movt	r3, #16384	; 0x4000
 8003c38:	f44f 6280 	mov.w	r2, #1024	; 0x400
 8003c3c:	f2c4 0200 	movt	r2, #16384	; 0x4000
 8003c40:	8a92      	ldrh	r2, [r2, #20]
 8003c42:	b292      	uxth	r2, r2
 8003c44:	f042 0201 	orr.w	r2, r2, #1
 8003c48:	b292      	uxth	r2, r2
 8003c4a:	829a      	strh	r2, [r3, #20]
 8003c4c:	f44f 6380 	mov.w	r3, #1024	; 0x400
 8003c50:	f2c4 0300 	movt	r3, #16384	; 0x4000
 8003c54:	2211      	movs	r2, #17
 8003c56:	801a      	strh	r2, [r3, #0]
 8003c58:	370c      	adds	r7, #12
 8003c5a:	46bd      	mov	sp, r7
 8003c5c:	bd90      	pop	{r4, r7, pc}
 8003c5e:	bf00      	nop
 8003c60:	00000000 	andeq	r0, r0, r0
 8003c64:	415e8480 	cmpmi	lr, r0, lsl #9

08003c68 <TIM3_Out_Stop>:
 8003c68:	b480      	push	{r7}
 8003c6a:	af00      	add	r7, sp, #0
 8003c6c:	f44f 6380 	mov.w	r3, #1024	; 0x400
 8003c70:	f2c4 0300 	movt	r3, #16384	; 0x4000
 8003c74:	f44f 6280 	mov.w	r2, #1024	; 0x400
 8003c78:	f2c4 0200 	movt	r2, #16384	; 0x4000
 8003c7c:	8812      	ldrh	r2, [r2, #0]
 8003c7e:	b292      	uxth	r2, r2
 8003c80:	f022 0201 	bic.w	r2, r2, #1
 8003c84:	b292      	uxth	r2, r2
 8003c86:	801a      	strh	r2, [r3, #0]
 8003c88:	f44f 6380 	mov.w	r3, #1024	; 0x400
 8003c8c:	f2c4 0300 	movt	r3, #16384	; 0x4000
 8003c90:	f44f 6280 	mov.w	r2, #1024	; 0x400
 8003c94:	f2c4 0200 	movt	r2, #16384	; 0x4000
 8003c98:	8992      	ldrh	r2, [r2, #12]
 8003c9a:	b292      	uxth	r2, r2
 8003c9c:	f022 0201 	bic.w	r2, r2, #1
 8003ca0:	b292      	uxth	r2, r2
 8003ca2:	819a      	strh	r2, [r3, #12]
 8003ca4:	46bd      	mov	sp, r7
 8003ca6:	f85d 7b04 	ldr.w	r7, [sp], #4
 8003caa:	4770      	bx	lr

08003cac <play_tone>:
 8003cac:	b580      	push	{r7, lr}
 8003cae:	b082      	sub	sp, #8
 8003cb0:	af00      	add	r7, sp, #0
 8003cb2:	4603      	mov	r3, r0
 8003cb4:	6039      	str	r1, [r7, #0]
 8003cb6:	80fb      	strh	r3, [r7, #6]
 8003cb8:	88fb      	ldrh	r3, [r7, #6]
 8003cba:	2b00      	cmp	r3, #0
 8003cbc:	d102      	bne.n	8003cc4 <play_tone+0x18>
 8003cbe:	f7ff ffd3 	bl	8003c68 <TIM3_Out_Stop>
 8003cc2:	e003      	b.n	8003ccc <play_tone+0x20>
 8003cc4:	88fb      	ldrh	r3, [r7, #6]
 8003cc6:	4618      	mov	r0, r3
 8003cc8:	f7ff ff76 	bl	8003bb8 <TIM3_Out_Freq_Generation>
 8003ccc:	683b      	ldr	r3, [r7, #0]
 8003cce:	4618      	mov	r0, r3
 8003cd0:	f7ff fe8c 	bl	80039ec <OS_Block_Current_Task>
 8003cd4:	f7ff ffc8 	bl	8003c68 <TIM3_Out_Stop>
 8003cd8:	200a      	movs	r0, #10
 8003cda:	f7ff fe87 	bl	80039ec <OS_Block_Current_Task>
 8003cde:	3708      	adds	r7, #8
 8003ce0:	46bd      	mov	sp, r7
 8003ce2:	bd80      	pop	{r7, pc}

08003ce4 <play_melody>:
 8003ce4:	b580      	push	{r7, lr}
 8003ce6:	b09a      	sub	sp, #104	; 0x68
 8003ce8:	af00      	add	r7, sp, #0
 8003cea:	f24e 73f0 	movw	r3, #59376	; 0xe7f0
 8003cee:	f6c0 0300 	movt	r3, #2048	; 0x800
 8003cf2:	1d39      	adds	r1, r7, #4
 8003cf4:	461a      	mov	r2, r3
 8003cf6:	235c      	movs	r3, #92	; 0x5c
 8003cf8:	4608      	mov	r0, r1
 8003cfa:	4611      	mov	r1, r2
 8003cfc:	461a      	mov	r2, r3
 8003cfe:	f004 fc07 	bl	8008510 <memcpy>
 8003d02:	232e      	movs	r3, #46	; 0x2e
 8003d04:	663b      	str	r3, [r7, #96]	; 0x60
 8003d06:	2300      	movs	r3, #0
 8003d08:	667b      	str	r3, [r7, #100]	; 0x64
 8003d0a:	e00d      	b.n	8003d28 <play_melody+0x44>
 8003d0c:	6e7b      	ldr	r3, [r7, #100]	; 0x64
 8003d0e:	005b      	lsls	r3, r3, #1
 8003d10:	f107 0268 	add.w	r2, r7, #104	; 0x68
 8003d14:	4413      	add	r3, r2
 8003d16:	f833 3c64 	ldrh.w	r3, [r3, #-100]
 8003d1a:	4618      	mov	r0, r3
 8003d1c:	21c8      	movs	r1, #200	; 0xc8
 8003d1e:	f7ff ffc5 	bl	8003cac <play_tone>
 8003d22:	6e7b      	ldr	r3, [r7, #100]	; 0x64
 8003d24:	3301      	adds	r3, #1
 8003d26:	667b      	str	r3, [r7, #100]	; 0x64
 8003d28:	6e7a      	ldr	r2, [r7, #100]	; 0x64
 8003d2a:	6e3b      	ldr	r3, [r7, #96]	; 0x60
 8003d2c:	429a      	cmp	r2, r3
 8003d2e:	dbed      	blt.n	8003d0c <play_melody+0x28>
 8003d30:	3768      	adds	r7, #104	; 0x68
 8003d32:	46bd      	mov	sp, r7
 8003d34:	bd80      	pop	{r7, pc}
 8003d36:	bf00      	nop

08003d38 <Clock_Init>:
 8003d38:	b480      	push	{r7}
 8003d3a:	af00      	add	r7, sp, #0
 8003d3c:	f44f 5380 	mov.w	r3, #4096	; 0x1000
 8003d40:	f2c4 0302 	movt	r3, #16386	; 0x4002
 8003d44:	2201      	movs	r2, #1
 8003d46:	601a      	str	r2, [r3, #0]
 8003d48:	f44f 5380 	mov.w	r3, #4096	; 0x1000
 8003d4c:	f2c4 0302 	movt	r3, #16386	; 0x4002
 8003d50:	f44f 5280 	mov.w	r2, #4096	; 0x1000
 8003d54:	f2c4 0202 	movt	r2, #16386	; 0x4002
 8003d58:	6812      	ldr	r2, [r2, #0]
 8003d5a:	f442 3280 	orr.w	r2, r2, #65536	; 0x10000
 8003d5e:	601a      	str	r2, [r3, #0]
 8003d60:	f44f 5380 	mov.w	r3, #4096	; 0x1000
 8003d64:	f2c4 0302 	movt	r3, #16386	; 0x4002
 8003d68:	f44f 6280 	mov.w	r2, #1024	; 0x400
 8003d6c:	f2c0 021d 	movt	r2, #29
 8003d70:	605a      	str	r2, [r3, #4]
 8003d72:	f44f 5380 	mov.w	r3, #4096	; 0x1000
 8003d76:	f2c4 0302 	movt	r3, #16386	; 0x4002
 8003d7a:	f44f 5280 	mov.w	r2, #4096	; 0x1000
 8003d7e:	f2c4 0202 	movt	r2, #16386	; 0x4002
 8003d82:	6812      	ldr	r2, [r2, #0]
 8003d84:	f042 7280 	orr.w	r2, r2, #16777216	; 0x1000000
 8003d88:	601a      	str	r2, [r3, #0]
 8003d8a:	bf00      	nop
 8003d8c:	f44f 5380 	mov.w	r3, #4096	; 0x1000
 8003d90:	f2c4 0302 	movt	r3, #16386	; 0x4002
 8003d94:	681b      	ldr	r3, [r3, #0]
 8003d96:	f003 7300 	and.w	r3, r3, #33554432	; 0x2000000
 8003d9a:	2b00      	cmp	r3, #0
 8003d9c:	d0f6      	beq.n	8003d8c <Clock_Init+0x54>
 8003d9e:	f44f 5300 	mov.w	r3, #8192	; 0x2000
 8003da2:	f2c4 0302 	movt	r3, #16386	; 0x4002
 8003da6:	f44f 5200 	mov.w	r2, #8192	; 0x2000
 8003daa:	f2c4 0202 	movt	r2, #16386	; 0x4002
 8003dae:	6812      	ldr	r2, [r2, #0]
 8003db0:	f022 0203 	bic.w	r2, r2, #3
 8003db4:	f042 0202 	orr.w	r2, r2, #2
 8003db8:	601a      	str	r2, [r3, #0]
 8003dba:	f44f 5380 	mov.w	r3, #4096	; 0x1000
 8003dbe:	f2c4 0302 	movt	r3, #16386	; 0x4002
 8003dc2:	f44f 5280 	mov.w	r2, #4096	; 0x1000
 8003dc6:	f2c4 0202 	movt	r2, #16386	; 0x4002
 8003dca:	6852      	ldr	r2, [r2, #4]
 8003dcc:	f022 0203 	bic.w	r2, r2, #3
 8003dd0:	f042 0202 	orr.w	r2, r2, #2
 8003dd4:	605a      	str	r2, [r3, #4]
 8003dd6:	46bd      	mov	sp, r7
 8003dd8:	f85d 7b04 	ldr.w	r7, [sp], #4
 8003ddc:	4770      	bx	lr
 8003dde:	bf00      	nop

08003de0 <__get_PSP>:
 8003de0:	2400      	movs	r4, #0
 8003de2:	f3ef 8309 	mrs	r3, PSP
 8003de6:	4618      	mov	r0, r3
 8003de8:	4770      	bx	lr
 8003dea:	461c      	mov	r4, r3
 8003dec:	4623      	mov	r3, r4
 8003dee:	4618      	mov	r0, r3

08003df0 <__set_PSP>:
 8003df0:	4603      	mov	r3, r0
 8003df2:	f383 8809 	msr	PSP, r3
 8003df6:	4770      	bx	lr

08003df8 <__get_MSP>:
 8003df8:	2400      	movs	r4, #0
 8003dfa:	f3ef 8308 	mrs	r3, MSP
 8003dfe:	4618      	mov	r0, r3
 8003e00:	4770      	bx	lr
 8003e02:	461c      	mov	r4, r3
 8003e04:	4623      	mov	r3, r4
 8003e06:	4618      	mov	r0, r3

08003e08 <__set_MSP>:
 8003e08:	4603      	mov	r3, r0
 8003e0a:	f383 8808 	msr	MSP, r3
 8003e0e:	4770      	bx	lr

08003e10 <__get_BASEPRI>:
 8003e10:	b480      	push	{r7}
 8003e12:	b083      	sub	sp, #12
 8003e14:	af00      	add	r7, sp, #0
 8003e16:	2300      	movs	r3, #0
 8003e18:	607b      	str	r3, [r7, #4]
 8003e1a:	f3ef 8312 	mrs	r3, BASEPRI_MAX
 8003e1e:	607b      	str	r3, [r7, #4]
 8003e20:	687b      	ldr	r3, [r7, #4]
 8003e22:	4618      	mov	r0, r3
 8003e24:	370c      	adds	r7, #12
 8003e26:	46bd      	mov	sp, r7
 8003e28:	f85d 7b04 	ldr.w	r7, [sp], #4
 8003e2c:	4770      	bx	lr
 8003e2e:	bf00      	nop

08003e30 <__set_BASEPRI>:
 8003e30:	b480      	push	{r7}
 8003e32:	b083      	sub	sp, #12
 8003e34:	af00      	add	r7, sp, #0
 8003e36:	6078      	str	r0, [r7, #4]
 8003e38:	687b      	ldr	r3, [r7, #4]
 8003e3a:	f383 8811 	msr	BASEPRI, r3
 8003e3e:	370c      	adds	r7, #12
 8003e40:	46bd      	mov	sp, r7
 8003e42:	f85d 7b04 	ldr.w	r7, [sp], #4
 8003e46:	4770      	bx	lr

08003e48 <__get_PRIMASK>:
 8003e48:	b480      	push	{r7}
 8003e4a:	b083      	sub	sp, #12
 8003e4c:	af00      	add	r7, sp, #0
 8003e4e:	2300      	movs	r3, #0
 8003e50:	607b      	str	r3, [r7, #4]
 8003e52:	f3ef 8310 	mrs	r3, PRIMASK
 8003e56:	607b      	str	r3, [r7, #4]
 8003e58:	687b      	ldr	r3, [r7, #4]
 8003e5a:	4618      	mov	r0, r3
 8003e5c:	370c      	adds	r7, #12
 8003e5e:	46bd      	mov	sp, r7
 8003e60:	f85d 7b04 	ldr.w	r7, [sp], #4
 8003e64:	4770      	bx	lr
 8003e66:	bf00      	nop

08003e68 <__set_PRIMASK>:
 8003e68:	b480      	push	{r7}
 8003e6a:	b083      	sub	sp, #12
 8003e6c:	af00      	add	r7, sp, #0
 8003e6e:	6078      	str	r0, [r7, #4]
 8003e70:	687b      	ldr	r3, [r7, #4]
 8003e72:	f383 8810 	msr	PRIMASK, r3
 8003e76:	370c      	adds	r7, #12
 8003e78:	46bd      	mov	sp, r7
 8003e7a:	f85d 7b04 	ldr.w	r7, [sp], #4
 8003e7e:	4770      	bx	lr

08003e80 <__get_FAULTMASK>:
 8003e80:	b480      	push	{r7}
 8003e82:	b083      	sub	sp, #12
 8003e84:	af00      	add	r7, sp, #0
 8003e86:	2300      	movs	r3, #0
 8003e88:	607b      	str	r3, [r7, #4]
 8003e8a:	f3ef 8313 	mrs	r3, FAULTMASK
 8003e8e:	607b      	str	r3, [r7, #4]
 8003e90:	687b      	ldr	r3, [r7, #4]
 8003e92:	4618      	mov	r0, r3
 8003e94:	370c      	adds	r7, #12
 8003e96:	46bd      	mov	sp, r7
 8003e98:	f85d 7b04 	ldr.w	r7, [sp], #4
 8003e9c:	4770      	bx	lr
 8003e9e:	bf00      	nop

08003ea0 <__set_FAULTMASK>:
 8003ea0:	b480      	push	{r7}
 8003ea2:	b083      	sub	sp, #12
 8003ea4:	af00      	add	r7, sp, #0
 8003ea6:	6078      	str	r0, [r7, #4]
 8003ea8:	687b      	ldr	r3, [r7, #4]
 8003eaa:	f383 8813 	msr	FAULTMASK, r3
 8003eae:	370c      	adds	r7, #12
 8003eb0:	46bd      	mov	sp, r7
 8003eb2:	f85d 7b04 	ldr.w	r7, [sp], #4
 8003eb6:	4770      	bx	lr

08003eb8 <__get_CONTROL>:
 8003eb8:	b480      	push	{r7}
 8003eba:	b083      	sub	sp, #12
 8003ebc:	af00      	add	r7, sp, #0
 8003ebe:	2300      	movs	r3, #0
 8003ec0:	607b      	str	r3, [r7, #4]
 8003ec2:	f3ef 8314 	mrs	r3, CONTROL
 8003ec6:	607b      	str	r3, [r7, #4]
 8003ec8:	687b      	ldr	r3, [r7, #4]
 8003eca:	4618      	mov	r0, r3
 8003ecc:	370c      	adds	r7, #12
 8003ece:	46bd      	mov	sp, r7
 8003ed0:	f85d 7b04 	ldr.w	r7, [sp], #4
 8003ed4:	4770      	bx	lr
 8003ed6:	bf00      	nop

08003ed8 <__set_CONTROL>:
 8003ed8:	b480      	push	{r7}
 8003eda:	b083      	sub	sp, #12
 8003edc:	af00      	add	r7, sp, #0
 8003ede:	6078      	str	r0, [r7, #4]
 8003ee0:	687b      	ldr	r3, [r7, #4]
 8003ee2:	f383 8814 	msr	CONTROL, r3
 8003ee6:	370c      	adds	r7, #12
 8003ee8:	46bd      	mov	sp, r7
 8003eea:	f85d 7b04 	ldr.w	r7, [sp], #4
 8003eee:	4770      	bx	lr

08003ef0 <__REV>:
 8003ef0:	b480      	push	{r7}
 8003ef2:	b085      	sub	sp, #20
 8003ef4:	af00      	add	r7, sp, #0
 8003ef6:	6078      	str	r0, [r7, #4]
 8003ef8:	2300      	movs	r3, #0
 8003efa:	60fb      	str	r3, [r7, #12]
 8003efc:	687b      	ldr	r3, [r7, #4]
 8003efe:	ba1b      	rev	r3, r3
 8003f00:	60fb      	str	r3, [r7, #12]
 8003f02:	68fb      	ldr	r3, [r7, #12]
 8003f04:	4618      	mov	r0, r3
 8003f06:	3714      	adds	r7, #20
 8003f08:	46bd      	mov	sp, r7
 8003f0a:	f85d 7b04 	ldr.w	r7, [sp], #4
 8003f0e:	4770      	bx	lr

08003f10 <__REV16>:
 8003f10:	b480      	push	{r7}
 8003f12:	b085      	sub	sp, #20
 8003f14:	af00      	add	r7, sp, #0
 8003f16:	4603      	mov	r3, r0
 8003f18:	80fb      	strh	r3, [r7, #6]
 8003f1a:	2300      	movs	r3, #0
 8003f1c:	60fb      	str	r3, [r7, #12]
 8003f1e:	88fb      	ldrh	r3, [r7, #6]
 8003f20:	ba5b      	rev16	r3, r3
 8003f22:	60fb      	str	r3, [r7, #12]
 8003f24:	68fb      	ldr	r3, [r7, #12]
 8003f26:	4618      	mov	r0, r3
 8003f28:	3714      	adds	r7, #20
 8003f2a:	46bd      	mov	sp, r7
 8003f2c:	f85d 7b04 	ldr.w	r7, [sp], #4
 8003f30:	4770      	bx	lr
 8003f32:	bf00      	nop

08003f34 <__REVSH>:
 8003f34:	b480      	push	{r7}
 8003f36:	b085      	sub	sp, #20
 8003f38:	af00      	add	r7, sp, #0
 8003f3a:	4603      	mov	r3, r0
 8003f3c:	80fb      	strh	r3, [r7, #6]
 8003f3e:	2300      	movs	r3, #0
 8003f40:	60fb      	str	r3, [r7, #12]
 8003f42:	88fb      	ldrh	r3, [r7, #6]
 8003f44:	badb      	revsh	r3, r3
 8003f46:	60fb      	str	r3, [r7, #12]
 8003f48:	68fb      	ldr	r3, [r7, #12]
 8003f4a:	4618      	mov	r0, r3
 8003f4c:	3714      	adds	r7, #20
 8003f4e:	46bd      	mov	sp, r7
 8003f50:	f85d 7b04 	ldr.w	r7, [sp], #4
 8003f54:	4770      	bx	lr
 8003f56:	bf00      	nop

08003f58 <__RBIT>:
 8003f58:	b480      	push	{r7}
 8003f5a:	b085      	sub	sp, #20
 8003f5c:	af00      	add	r7, sp, #0
 8003f5e:	6078      	str	r0, [r7, #4]
 8003f60:	2300      	movs	r3, #0
 8003f62:	60fb      	str	r3, [r7, #12]
 8003f64:	687b      	ldr	r3, [r7, #4]
 8003f66:	fa93 f3a3 	rbit	r3, r3
 8003f6a:	60fb      	str	r3, [r7, #12]
 8003f6c:	68fb      	ldr	r3, [r7, #12]
 8003f6e:	4618      	mov	r0, r3
 8003f70:	3714      	adds	r7, #20
 8003f72:	46bd      	mov	sp, r7
 8003f74:	f85d 7b04 	ldr.w	r7, [sp], #4
 8003f78:	4770      	bx	lr
 8003f7a:	bf00      	nop

08003f7c <__LDREXB>:
 8003f7c:	b480      	push	{r7}
 8003f7e:	b085      	sub	sp, #20
 8003f80:	af00      	add	r7, sp, #0
 8003f82:	6078      	str	r0, [r7, #4]
 8003f84:	2300      	movs	r3, #0
 8003f86:	73fb      	strb	r3, [r7, #15]
 8003f88:	687b      	ldr	r3, [r7, #4]
 8003f8a:	e8d3 3f4f 	ldrexb	r3, [r3]
 8003f8e:	73fb      	strb	r3, [r7, #15]
 8003f90:	7bfb      	ldrb	r3, [r7, #15]
 8003f92:	4618      	mov	r0, r3
 8003f94:	3714      	adds	r7, #20
 8003f96:	46bd      	mov	sp, r7
 8003f98:	f85d 7b04 	ldr.w	r7, [sp], #4
 8003f9c:	4770      	bx	lr
 8003f9e:	bf00      	nop

08003fa0 <__LDREXH>:
 8003fa0:	b480      	push	{r7}
 8003fa2:	b085      	sub	sp, #20
 8003fa4:	af00      	add	r7, sp, #0
 8003fa6:	6078      	str	r0, [r7, #4]
 8003fa8:	2300      	movs	r3, #0
 8003faa:	81fb      	strh	r3, [r7, #14]
 8003fac:	687b      	ldr	r3, [r7, #4]
 8003fae:	e8d3 3f5f 	ldrexh	r3, [r3]
 8003fb2:	81fb      	strh	r3, [r7, #14]
 8003fb4:	89fb      	ldrh	r3, [r7, #14]
 8003fb6:	4618      	mov	r0, r3
 8003fb8:	3714      	adds	r7, #20
 8003fba:	46bd      	mov	sp, r7
 8003fbc:	f85d 7b04 	ldr.w	r7, [sp], #4
 8003fc0:	4770      	bx	lr
 8003fc2:	bf00      	nop

08003fc4 <__LDREXW>:
 8003fc4:	b480      	push	{r7}
 8003fc6:	b085      	sub	sp, #20
 8003fc8:	af00      	add	r7, sp, #0
 8003fca:	6078      	str	r0, [r7, #4]
 8003fcc:	2300      	movs	r3, #0
 8003fce:	60fb      	str	r3, [r7, #12]
 8003fd0:	687b      	ldr	r3, [r7, #4]
 8003fd2:	e853 3f00 	ldrex	r3, [r3]
 8003fd6:	60fb      	str	r3, [r7, #12]
 8003fd8:	68fb      	ldr	r3, [r7, #12]
 8003fda:	4618      	mov	r0, r3
 8003fdc:	3714      	adds	r7, #20
 8003fde:	46bd      	mov	sp, r7
 8003fe0:	f85d 7b04 	ldr.w	r7, [sp], #4
 8003fe4:	4770      	bx	lr
 8003fe6:	bf00      	nop

08003fe8 <__STREXB>:
 8003fe8:	b480      	push	{r7}
 8003fea:	b085      	sub	sp, #20
 8003fec:	af00      	add	r7, sp, #0
 8003fee:	4603      	mov	r3, r0
 8003ff0:	6039      	str	r1, [r7, #0]
 8003ff2:	71fb      	strb	r3, [r7, #7]
 8003ff4:	2300      	movs	r3, #0
 8003ff6:	60fb      	str	r3, [r7, #12]
 8003ff8:	683a      	ldr	r2, [r7, #0]
 8003ffa:	79f9      	ldrb	r1, [r7, #7]
 8003ffc:	e8c2 1f43 	strexb	r3, r1, [r2]
 8004000:	60fb      	str	r3, [r7, #12]
 8004002:	68fb      	ldr	r3, [r7, #12]
 8004004:	4618      	mov	r0, r3
 8004006:	3714      	adds	r7, #20
 8004008:	46bd      	mov	sp, r7
 800400a:	f85d 7b04 	ldr.w	r7, [sp], #4
 800400e:	4770      	bx	lr

08004010 <__STREXH>:
 8004010:	b480      	push	{r7}
 8004012:	b085      	sub	sp, #20
 8004014:	af00      	add	r7, sp, #0
 8004016:	4603      	mov	r3, r0
 8004018:	6039      	str	r1, [r7, #0]
 800401a:	80fb      	strh	r3, [r7, #6]
 800401c:	2300      	movs	r3, #0
 800401e:	60fb      	str	r3, [r7, #12]
 8004020:	683a      	ldr	r2, [r7, #0]
 8004022:	88f9      	ldrh	r1, [r7, #6]
 8004024:	e8c2 1f53 	strexh	r3, r1, [r2]
 8004028:	60fb      	str	r3, [r7, #12]
 800402a:	68fb      	ldr	r3, [r7, #12]
 800402c:	4618      	mov	r0, r3
 800402e:	3714      	adds	r7, #20
 8004030:	46bd      	mov	sp, r7
 8004032:	f85d 7b04 	ldr.w	r7, [sp], #4
 8004036:	4770      	bx	lr

08004038 <__STREXW>:
 8004038:	b480      	push	{r7}
 800403a:	b085      	sub	sp, #20
 800403c:	af00      	add	r7, sp, #0
 800403e:	6078      	str	r0, [r7, #4]
 8004040:	6039      	str	r1, [r7, #0]
 8004042:	2300      	movs	r3, #0
 8004044:	60fb      	str	r3, [r7, #12]
 8004046:	683b      	ldr	r3, [r7, #0]
 8004048:	687a      	ldr	r2, [r7, #4]
 800404a:	e843 2300 	strex	r3, r2, [r3]
 800404e:	60fb      	str	r3, [r7, #12]
 8004050:	68fb      	ldr	r3, [r7, #12]
 8004052:	4618      	mov	r0, r3
 8004054:	3714      	adds	r7, #20
 8004056:	46bd      	mov	sp, r7
 8004058:	f85d 7b04 	ldr.w	r7, [sp], #4
 800405c:	4770      	bx	lr
 800405e:	bf00      	nop

08004060 <NVIC_EnableIRQ>:
 8004060:	b480      	push	{r7}
 8004062:	b083      	sub	sp, #12
 8004064:	af00      	add	r7, sp, #0
 8004066:	4603      	mov	r3, r0
 8004068:	71fb      	strb	r3, [r7, #7]
 800406a:	f44f 4361 	mov.w	r3, #57600	; 0xe100
 800406e:	f2ce 0300 	movt	r3, #57344	; 0xe000
 8004072:	f997 2007 	ldrsb.w	r2, [r7, #7]
 8004076:	0952      	lsrs	r2, r2, #5
 8004078:	79f9      	ldrb	r1, [r7, #7]
 800407a:	f001 011f 	and.w	r1, r1, #31
 800407e:	2001      	movs	r0, #1
 8004080:	fa00 f101 	lsl.w	r1, r0, r1
 8004084:	f843 1022 	str.w	r1, [r3, r2, lsl #2]
 8004088:	370c      	adds	r7, #12
 800408a:	46bd      	mov	sp, r7
 800408c:	f85d 7b04 	ldr.w	r7, [sp], #4
 8004090:	4770      	bx	lr
 8004092:	bf00      	nop

08004094 <NVIC_ClearPendingIRQ>:
 8004094:	b480      	push	{r7}
 8004096:	b083      	sub	sp, #12
 8004098:	af00      	add	r7, sp, #0
 800409a:	4603      	mov	r3, r0
 800409c:	71fb      	strb	r3, [r7, #7]
 800409e:	f44f 4361 	mov.w	r3, #57600	; 0xe100
 80040a2:	f2ce 0300 	movt	r3, #57344	; 0xe000
 80040a6:	f997 2007 	ldrsb.w	r2, [r7, #7]
 80040aa:	0952      	lsrs	r2, r2, #5
 80040ac:	79f9      	ldrb	r1, [r7, #7]
 80040ae:	f001 011f 	and.w	r1, r1, #31
 80040b2:	2001      	movs	r0, #1
 80040b4:	fa00 f101 	lsl.w	r1, r0, r1
 80040b8:	3260      	adds	r2, #96	; 0x60
 80040ba:	f843 1022 	str.w	r1, [r3, r2, lsl #2]
 80040be:	370c      	adds	r7, #12
 80040c0:	46bd      	mov	sp, r7
 80040c2:	f85d 7b04 	ldr.w	r7, [sp], #4
 80040c6:	4770      	bx	lr

080040c8 <Key_Poll_Init>:
 80040c8:	b480      	push	{r7}
 80040ca:	af00      	add	r7, sp, #0
 80040cc:	f44f 5380 	mov.w	r3, #4096	; 0x1000
 80040d0:	f2c4 0302 	movt	r3, #16386	; 0x4002
 80040d4:	f44f 5280 	mov.w	r2, #4096	; 0x1000
 80040d8:	f2c4 0202 	movt	r2, #16386	; 0x4002
 80040dc:	6992      	ldr	r2, [r2, #24]
 80040de:	f042 0201 	orr.w	r2, r2, #1
 80040e2:	619a      	str	r2, [r3, #24]
 80040e4:	f44f 5380 	mov.w	r3, #4096	; 0x1000
 80040e8:	f2c4 0302 	movt	r3, #16386	; 0x4002
 80040ec:	f44f 5280 	mov.w	r2, #4096	; 0x1000
 80040f0:	f2c4 0202 	movt	r2, #16386	; 0x4002
 80040f4:	6992      	ldr	r2, [r2, #24]
 80040f6:	f042 020c 	orr.w	r2, r2, #12
 80040fa:	619a      	str	r2, [r3, #24]
 80040fc:	2300      	movs	r3, #0
 80040fe:	f2c4 0301 	movt	r3, #16385	; 0x4001
 8004102:	2200      	movs	r2, #0
 8004104:	f2c4 0201 	movt	r2, #16385	; 0x4001
 8004108:	6852      	ldr	r2, [r2, #4]
 800410a:	f022 62e0 	bic.w	r2, r2, #117440512	; 0x7000000
 800410e:	f042 6280 	orr.w	r2, r2, #67108864	; 0x4000000
 8004112:	605a      	str	r2, [r3, #4]
 8004114:	f44f 6340 	mov.w	r3, #3072	; 0xc00
 8004118:	f2c4 0301 	movt	r3, #16385	; 0x4001
 800411c:	f44f 6240 	mov.w	r2, #3072	; 0xc00
 8004120:	f2c4 0201 	movt	r2, #16385	; 0x4001
 8004124:	6812      	ldr	r2, [r2, #0]
 8004126:	f422 4270 	bic.w	r2, r2, #61440	; 0xf000
 800412a:	f442 4200 	orr.w	r2, r2, #32768	; 0x8000
 800412e:	601a      	str	r2, [r3, #0]
 8004130:	f44f 6340 	mov.w	r3, #3072	; 0xc00
 8004134:	f2c4 0301 	movt	r3, #16385	; 0x4001
 8004138:	f44f 6240 	mov.w	r2, #3072	; 0xc00
 800413c:	f2c4 0201 	movt	r2, #16385	; 0x4001
 8004140:	68d2      	ldr	r2, [r2, #12]
 8004142:	f042 0208 	orr.w	r2, r2, #8
 8004146:	60da      	str	r2, [r3, #12]
 8004148:	f44f 6340 	mov.w	r3, #3072	; 0xc00
 800414c:	f2c4 0301 	movt	r3, #16385	; 0x4001
 8004150:	f44f 6240 	mov.w	r2, #3072	; 0xc00
 8004154:	f2c4 0201 	movt	r2, #16385	; 0x4001
 8004158:	6812      	ldr	r2, [r2, #0]
 800415a:	f3c2 0213 	ubfx	r2, r2, #0, #20
 800415e:	f042 4208 	orr.w	r2, r2, #2281701376	; 0x88000000
 8004162:	f442 0200 	orr.w	r2, r2, #8388608	; 0x800000
 8004166:	601a      	str	r2, [r3, #0]
 8004168:	f44f 6340 	mov.w	r3, #3072	; 0xc00
 800416c:	f2c4 0301 	movt	r3, #16385	; 0x4001
 8004170:	f44f 6240 	mov.w	r2, #3072	; 0xc00
 8004174:	f2c4 0201 	movt	r2, #16385	; 0x4001
 8004178:	68d2      	ldr	r2, [r2, #12]
 800417a:	f042 02e0 	orr.w	r2, r2, #224	; 0xe0
 800417e:	60da      	str	r2, [r3, #12]
 8004180:	f44f 6300 	mov.w	r3, #2048	; 0x800
 8004184:	f2c4 0301 	movt	r3, #16385	; 0x4001
 8004188:	f44f 6200 	mov.w	r2, #2048	; 0x800
 800418c:	f2c4 0201 	movt	r2, #16385	; 0x4001
 8004190:	6852      	ldr	r2, [r2, #4]
 8004192:	f022 627f 	bic.w	r2, r2, #267386880	; 0xff00000
 8004196:	f042 6208 	orr.w	r2, r2, #142606336	; 0x8800000
 800419a:	605a      	str	r2, [r3, #4]
 800419c:	f44f 6300 	mov.w	r3, #2048	; 0x800
 80041a0:	f2c4 0301 	movt	r3, #16385	; 0x4001
 80041a4:	f44f 6200 	mov.w	r2, #2048	; 0x800
 80041a8:	f2c4 0201 	movt	r2, #16385	; 0x4001
 80041ac:	68d2      	ldr	r2, [r2, #12]
 80041ae:	f442 42c0 	orr.w	r2, r2, #24576	; 0x6000
 80041b2:	60da      	str	r2, [r3, #12]
 80041b4:	46bd      	mov	sp, r7
 80041b6:	f85d 7b04 	ldr.w	r7, [sp], #4
 80041ba:	4770      	bx	lr

080041bc <Key_Get_Pressed>:
 80041bc:	b480      	push	{r7}
 80041be:	b083      	sub	sp, #12
 80041c0:	af00      	add	r7, sp, #0
 80041c2:	2300      	movs	r3, #0
 80041c4:	607b      	str	r3, [r7, #4]
 80041c6:	f44f 6340 	mov.w	r3, #3072	; 0xc00
 80041ca:	f2c4 0301 	movt	r3, #16385	; 0x4001
 80041ce:	689b      	ldr	r3, [r3, #8]
 80041d0:	f003 0308 	and.w	r3, r3, #8
 80041d4:	2b00      	cmp	r3, #0
 80041d6:	bf14      	ite	ne
 80041d8:	2300      	movne	r3, #0
 80041da:	2301      	moveq	r3, #1
 80041dc:	b2db      	uxtb	r3, r3
 80041de:	607b      	str	r3, [r7, #4]
 80041e0:	f44f 6340 	mov.w	r3, #3072	; 0xc00
 80041e4:	f2c4 0301 	movt	r3, #16385	; 0x4001
 80041e8:	689b      	ldr	r3, [r3, #8]
 80041ea:	43db      	mvns	r3, r3
 80041ec:	095b      	lsrs	r3, r3, #5
 80041ee:	f003 0307 	and.w	r3, r3, #7
 80041f2:	005a      	lsls	r2, r3, #1
 80041f4:	687b      	ldr	r3, [r7, #4]
 80041f6:	4313      	orrs	r3, r2
 80041f8:	607b      	str	r3, [r7, #4]
 80041fa:	f44f 6300 	mov.w	r3, #2048	; 0x800
 80041fe:	f2c4 0301 	movt	r3, #16385	; 0x4001
 8004202:	689b      	ldr	r3, [r3, #8]
 8004204:	43db      	mvns	r3, r3
 8004206:	0b5b      	lsrs	r3, r3, #13
 8004208:	f003 0303 	and.w	r3, r3, #3
 800420c:	011a      	lsls	r2, r3, #4
 800420e:	687b      	ldr	r3, [r7, #4]
 8004210:	4313      	orrs	r3, r2
 8004212:	607b      	str	r3, [r7, #4]
 8004214:	687b      	ldr	r3, [r7, #4]
 8004216:	4618      	mov	r0, r3
 8004218:	370c      	adds	r7, #12
 800421a:	46bd      	mov	sp, r7
 800421c:	f85d 7b04 	ldr.w	r7, [sp], #4
 8004220:	4770      	bx	lr
 8004222:	bf00      	nop

08004224 <Key_Wait_Key_Pressed>:
 8004224:	b580      	push	{r7, lr}
 8004226:	b082      	sub	sp, #8
 8004228:	af00      	add	r7, sp, #0
 800422a:	2300      	movs	r3, #0
 800422c:	607b      	str	r3, [r7, #4]
 800422e:	f7ff ffc5 	bl	80041bc <Key_Get_Pressed>
 8004232:	6078      	str	r0, [r7, #4]
 8004234:	687b      	ldr	r3, [r7, #4]
 8004236:	2b00      	cmp	r3, #0
 8004238:	d0f9      	beq.n	800422e <Key_Wait_Key_Pressed+0xa>
 800423a:	687b      	ldr	r3, [r7, #4]
 800423c:	4618      	mov	r0, r3
 800423e:	3708      	adds	r7, #8
 8004240:	46bd      	mov	sp, r7
 8004242:	bd80      	pop	{r7, pc}

08004244 <Key_Wait_Key_Released>:
 8004244:	b580      	push	{r7, lr}
 8004246:	af00      	add	r7, sp, #0
 8004248:	bf00      	nop
 800424a:	f7ff ffb7 	bl	80041bc <Key_Get_Pressed>
 800424e:	4603      	mov	r3, r0
 8004250:	2b00      	cmp	r3, #0
 8004252:	d1fa      	bne.n	800424a <Key_Wait_Key_Released+0x6>
 8004254:	bd80      	pop	{r7, pc}
 8004256:	bf00      	nop

08004258 <Key_ISR_Enable>:
 8004258:	b580      	push	{r7, lr}
 800425a:	b082      	sub	sp, #8
 800425c:	af00      	add	r7, sp, #0
 800425e:	6078      	str	r0, [r7, #4]
 8004260:	687b      	ldr	r3, [r7, #4]
 8004262:	2b00      	cmp	r3, #0
 8004264:	f000 80ac 	beq.w	80043c0 <Key_ISR_Enable+0x168>
 8004268:	f44f 5380 	mov.w	r3, #4096	; 0x1000
 800426c:	f2c4 0302 	movt	r3, #16386	; 0x4002
 8004270:	f44f 5280 	mov.w	r2, #4096	; 0x1000
 8004274:	f2c4 0202 	movt	r2, #16386	; 0x4002
 8004278:	6992      	ldr	r2, [r2, #24]
 800427a:	f042 0208 	orr.w	r2, r2, #8
 800427e:	619a      	str	r2, [r3, #24]
 8004280:	f44f 5380 	mov.w	r3, #4096	; 0x1000
 8004284:	f2c4 0302 	movt	r3, #16386	; 0x4002
 8004288:	f44f 5280 	mov.w	r2, #4096	; 0x1000
 800428c:	f2c4 0202 	movt	r2, #16386	; 0x4002
 8004290:	6992      	ldr	r2, [r2, #24]
 8004292:	f042 0204 	orr.w	r2, r2, #4
 8004296:	619a      	str	r2, [r3, #24]
 8004298:	f44f 5380 	mov.w	r3, #4096	; 0x1000
 800429c:	f2c4 0302 	movt	r3, #16386	; 0x4002
 80042a0:	f44f 5280 	mov.w	r2, #4096	; 0x1000
 80042a4:	f2c4 0202 	movt	r2, #16386	; 0x4002
 80042a8:	6992      	ldr	r2, [r2, #24]
 80042aa:	f042 0201 	orr.w	r2, r2, #1
 80042ae:	619a      	str	r2, [r3, #24]
 80042b0:	2300      	movs	r3, #0
 80042b2:	f2c4 0301 	movt	r3, #16385	; 0x4001
 80042b6:	2200      	movs	r2, #0
 80042b8:	f2c4 0201 	movt	r2, #16385	; 0x4001
 80042bc:	6892      	ldr	r2, [r2, #8]
 80042be:	f422 4270 	bic.w	r2, r2, #61440	; 0xf000
 80042c2:	f442 5280 	orr.w	r2, r2, #4096	; 0x1000
 80042c6:	609a      	str	r2, [r3, #8]
 80042c8:	2300      	movs	r3, #0
 80042ca:	f2c4 0301 	movt	r3, #16385	; 0x4001
 80042ce:	2200      	movs	r2, #0
 80042d0:	f2c4 0201 	movt	r2, #16385	; 0x4001
 80042d4:	68d2      	ldr	r2, [r2, #12]
 80042d6:	f422 427f 	bic.w	r2, r2, #65280	; 0xff00
 80042da:	f022 02f0 	bic.w	r2, r2, #240	; 0xf0
 80042de:	f442 5288 	orr.w	r2, r2, #4352	; 0x1100
 80042e2:	f042 0210 	orr.w	r2, r2, #16
 80042e6:	60da      	str	r2, [r3, #12]
 80042e8:	2300      	movs	r3, #0
 80042ea:	f2c4 0301 	movt	r3, #16385	; 0x4001
 80042ee:	2200      	movs	r2, #0
 80042f0:	f2c4 0201 	movt	r2, #16385	; 0x4001
 80042f4:	6952      	ldr	r2, [r2, #20]
 80042f6:	f422 627f 	bic.w	r2, r2, #4080	; 0xff0
 80042fa:	615a      	str	r2, [r3, #20]
 80042fc:	f44f 6380 	mov.w	r3, #1024	; 0x400
 8004300:	f2c4 0301 	movt	r3, #16385	; 0x4001
 8004304:	f44f 6280 	mov.w	r2, #1024	; 0x400
 8004308:	f2c4 0201 	movt	r2, #16385	; 0x4001
 800430c:	68d2      	ldr	r2, [r2, #12]
 800430e:	f442 42c0 	orr.w	r2, r2, #24576	; 0x6000
 8004312:	60da      	str	r2, [r3, #12]
 8004314:	f44f 6380 	mov.w	r3, #1024	; 0x400
 8004318:	f2c4 0301 	movt	r3, #16385	; 0x4001
 800431c:	f44f 6280 	mov.w	r2, #1024	; 0x400
 8004320:	f2c4 0201 	movt	r2, #16385	; 0x4001
 8004324:	68d2      	ldr	r2, [r2, #12]
 8004326:	f042 02e0 	orr.w	r2, r2, #224	; 0xe0
 800432a:	60da      	str	r2, [r3, #12]
 800432c:	f44f 6380 	mov.w	r3, #1024	; 0x400
 8004330:	f2c4 0301 	movt	r3, #16385	; 0x4001
 8004334:	f44f 6280 	mov.w	r2, #1024	; 0x400
 8004338:	f2c4 0201 	movt	r2, #16385	; 0x4001
 800433c:	68d2      	ldr	r2, [r2, #12]
 800433e:	f042 0208 	orr.w	r2, r2, #8
 8004342:	60da      	str	r2, [r3, #12]
 8004344:	f44f 6380 	mov.w	r3, #1024	; 0x400
 8004348:	f2c4 0301 	movt	r3, #16385	; 0x4001
 800434c:	f246 02e8 	movw	r2, #24808	; 0x60e8
 8004350:	615a      	str	r2, [r3, #20]
 8004352:	2009      	movs	r0, #9
 8004354:	f7ff fe9e 	bl	8004094 <NVIC_ClearPendingIRQ>
 8004358:	2017      	movs	r0, #23
 800435a:	f7ff fe9b 	bl	8004094 <NVIC_ClearPendingIRQ>
 800435e:	2028      	movs	r0, #40	; 0x28
 8004360:	f7ff fe98 	bl	8004094 <NVIC_ClearPendingIRQ>
 8004364:	f44f 6380 	mov.w	r3, #1024	; 0x400
 8004368:	f2c4 0301 	movt	r3, #16385	; 0x4001
 800436c:	f44f 6280 	mov.w	r2, #1024	; 0x400
 8004370:	f2c4 0201 	movt	r2, #16385	; 0x4001
 8004374:	6812      	ldr	r2, [r2, #0]
 8004376:	f042 02e0 	orr.w	r2, r2, #224	; 0xe0
 800437a:	601a      	str	r2, [r3, #0]
 800437c:	f44f 6380 	mov.w	r3, #1024	; 0x400
 8004380:	f2c4 0301 	movt	r3, #16385	; 0x4001
 8004384:	f44f 6280 	mov.w	r2, #1024	; 0x400
 8004388:	f2c4 0201 	movt	r2, #16385	; 0x4001
 800438c:	6812      	ldr	r2, [r2, #0]
 800438e:	f442 42c0 	orr.w	r2, r2, #24576	; 0x6000
 8004392:	601a      	str	r2, [r3, #0]
 8004394:	f44f 6380 	mov.w	r3, #1024	; 0x400
 8004398:	f2c4 0301 	movt	r3, #16385	; 0x4001
 800439c:	f44f 6280 	mov.w	r2, #1024	; 0x400
 80043a0:	f2c4 0201 	movt	r2, #16385	; 0x4001
 80043a4:	6812      	ldr	r2, [r2, #0]
 80043a6:	f042 0208 	orr.w	r2, r2, #8
 80043aa:	601a      	str	r2, [r3, #0]
 80043ac:	2009      	movs	r0, #9
 80043ae:	f7ff fe57 	bl	8004060 <NVIC_EnableIRQ>
 80043b2:	2017      	movs	r0, #23
 80043b4:	f7ff fe54 	bl	8004060 <NVIC_EnableIRQ>
 80043b8:	2028      	movs	r0, #40	; 0x28
 80043ba:	f7ff fe51 	bl	8004060 <NVIC_EnableIRQ>
 80043be:	e02c      	b.n	800441a <Key_ISR_Enable+0x1c2>
 80043c0:	2009      	movs	r0, #9
 80043c2:	f7ff fe4d 	bl	8004060 <NVIC_EnableIRQ>
 80043c6:	2017      	movs	r0, #23
 80043c8:	f7ff fe4a 	bl	8004060 <NVIC_EnableIRQ>
 80043cc:	2028      	movs	r0, #40	; 0x28
 80043ce:	f7ff fe47 	bl	8004060 <NVIC_EnableIRQ>
 80043d2:	f44f 5380 	mov.w	r3, #4096	; 0x1000
 80043d6:	f2c4 0302 	movt	r3, #16386	; 0x4002
 80043da:	f44f 5280 	mov.w	r2, #4096	; 0x1000
 80043de:	f2c4 0202 	movt	r2, #16386	; 0x4002
 80043e2:	6992      	ldr	r2, [r2, #24]
 80043e4:	f022 0208 	bic.w	r2, r2, #8
 80043e8:	619a      	str	r2, [r3, #24]
 80043ea:	f44f 5380 	mov.w	r3, #4096	; 0x1000
 80043ee:	f2c4 0302 	movt	r3, #16386	; 0x4002
 80043f2:	f44f 5280 	mov.w	r2, #4096	; 0x1000
 80043f6:	f2c4 0202 	movt	r2, #16386	; 0x4002
 80043fa:	6992      	ldr	r2, [r2, #24]
 80043fc:	f022 0204 	bic.w	r2, r2, #4
 8004400:	619a      	str	r2, [r3, #24]
 8004402:	f44f 5380 	mov.w	r3, #4096	; 0x1000
 8004406:	f2c4 0302 	movt	r3, #16386	; 0x4002
 800440a:	f44f 5280 	mov.w	r2, #4096	; 0x1000
 800440e:	f2c4 0202 	movt	r2, #16386	; 0x4002
 8004412:	6992      	ldr	r2, [r2, #24]
 8004414:	f022 0201 	bic.w	r2, r2, #1
 8004418:	619a      	str	r2, [r3, #24]
 800441a:	3708      	adds	r7, #8
 800441c:	46bd      	mov	sp, r7
 800441e:	bd80      	pop	{r7, pc}

08004420 <_SPI1_Init>:
 8004420:	b480      	push	{r7}
 8004422:	af00      	add	r7, sp, #0
 8004424:	f44f 5380 	mov.w	r3, #4096	; 0x1000
 8004428:	f2c4 0302 	movt	r3, #16386	; 0x4002
 800442c:	f44f 5280 	mov.w	r2, #4096	; 0x1000
 8004430:	f2c4 0202 	movt	r2, #16386	; 0x4002
 8004434:	6992      	ldr	r2, [r2, #24]
 8004436:	f042 0204 	orr.w	r2, r2, #4
 800443a:	619a      	str	r2, [r3, #24]
 800443c:	f44f 6300 	mov.w	r3, #2048	; 0x800
 8004440:	f2c4 0301 	movt	r3, #16385	; 0x4001
 8004444:	f44f 6200 	mov.w	r2, #2048	; 0x800
 8004448:	f2c4 0201 	movt	r2, #16385	; 0x4001
 800444c:	6812      	ldr	r2, [r2, #0]
 800444e:	b292      	uxth	r2, r2
 8004450:	f042 4234 	orr.w	r2, r2, #3019898880	; 0xb4000000
 8004454:	f442 0233 	orr.w	r2, r2, #11730944	; 0xb30000
 8004458:	601a      	str	r2, [r3, #0]
 800445a:	f44f 6300 	mov.w	r3, #2048	; 0x800
 800445e:	f2c4 0301 	movt	r3, #16385	; 0x4001
 8004462:	f44f 6200 	mov.w	r2, #2048	; 0x800
 8004466:	f2c4 0201 	movt	r2, #16385	; 0x4001
 800446a:	68d2      	ldr	r2, [r2, #12]
 800446c:	f042 0210 	orr.w	r2, r2, #16
 8004470:	60da      	str	r2, [r3, #12]
 8004472:	f44f 5380 	mov.w	r3, #4096	; 0x1000
 8004476:	f2c4 0302 	movt	r3, #16386	; 0x4002
 800447a:	f44f 5280 	mov.w	r2, #4096	; 0x1000
 800447e:	f2c4 0202 	movt	r2, #16386	; 0x4002
 8004482:	6992      	ldr	r2, [r2, #24]
 8004484:	f442 5280 	orr.w	r2, r2, #4096	; 0x1000
 8004488:	619a      	str	r2, [r3, #24]
 800448a:	f44f 5340 	mov.w	r3, #12288	; 0x3000
 800448e:	f2c4 0301 	movt	r3, #16385	; 0x4001
 8004492:	f44f 7241 	mov.w	r2, #772	; 0x304
 8004496:	801a      	strh	r2, [r3, #0]
 8004498:	f44f 5340 	mov.w	r3, #12288	; 0x3000
 800449c:	f2c4 0301 	movt	r3, #16385	; 0x4001
 80044a0:	f44f 5240 	mov.w	r2, #12288	; 0x3000
 80044a4:	f2c4 0201 	movt	r2, #16385	; 0x4001
 80044a8:	8812      	ldrh	r2, [r2, #0]
 80044aa:	b292      	uxth	r2, r2
 80044ac:	f042 0240 	orr.w	r2, r2, #64	; 0x40
 80044b0:	b292      	uxth	r2, r2
 80044b2:	801a      	strh	r2, [r3, #0]
 80044b4:	46bd      	mov	sp, r7
 80044b6:	f85d 7b04 	ldr.w	r7, [sp], #4
 80044ba:	4770      	bx	lr

080044bc <_SPI1_Write_Byte>:
 80044bc:	b480      	push	{r7}
 80044be:	b083      	sub	sp, #12
 80044c0:	af00      	add	r7, sp, #0
 80044c2:	4603      	mov	r3, r0
 80044c4:	71fb      	strb	r3, [r7, #7]
 80044c6:	f44f 5340 	mov.w	r3, #12288	; 0x3000
 80044ca:	f2c4 0301 	movt	r3, #16385	; 0x4001
 80044ce:	79fa      	ldrb	r2, [r7, #7]
 80044d0:	b292      	uxth	r2, r2
 80044d2:	819a      	strh	r2, [r3, #12]
 80044d4:	bf00      	nop
 80044d6:	f44f 5340 	mov.w	r3, #12288	; 0x3000
 80044da:	f2c4 0301 	movt	r3, #16385	; 0x4001
 80044de:	891b      	ldrh	r3, [r3, #8]
 80044e0:	b29b      	uxth	r3, r3
 80044e2:	085b      	lsrs	r3, r3, #1
 80044e4:	b29b      	uxth	r3, r3
 80044e6:	f003 0301 	and.w	r3, r3, #1
 80044ea:	2b00      	cmp	r3, #0
 80044ec:	d0f3      	beq.n	80044d6 <_SPI1_Write_Byte+0x1a>
 80044ee:	bf00      	nop
 80044f0:	f44f 5340 	mov.w	r3, #12288	; 0x3000
 80044f4:	f2c4 0301 	movt	r3, #16385	; 0x4001
 80044f8:	891b      	ldrh	r3, [r3, #8]
 80044fa:	b29b      	uxth	r3, r3
 80044fc:	09db      	lsrs	r3, r3, #7
 80044fe:	b29b      	uxth	r3, r3
 8004500:	f003 0301 	and.w	r3, r3, #1
 8004504:	2b00      	cmp	r3, #0
 8004506:	d1f3      	bne.n	80044f0 <_SPI1_Write_Byte+0x34>
 8004508:	370c      	adds	r7, #12
 800450a:	46bd      	mov	sp, r7
 800450c:	f85d 7b04 	ldr.w	r7, [sp], #4
 8004510:	4770      	bx	lr
 8004512:	bf00      	nop

08004514 <_Delay>:
 8004514:	b480      	push	{r7}
 8004516:	b085      	sub	sp, #20
 8004518:	af00      	add	r7, sp, #0
 800451a:	6078      	str	r0, [r7, #4]
 800451c:	2300      	movs	r3, #0
 800451e:	60fb      	str	r3, [r7, #12]
 8004520:	e002      	b.n	8004528 <_Delay+0x14>
 8004522:	68fb      	ldr	r3, [r7, #12]
 8004524:	3301      	adds	r3, #1
 8004526:	60fb      	str	r3, [r7, #12]
 8004528:	687b      	ldr	r3, [r7, #4]
 800452a:	031a      	lsls	r2, r3, #12
 800452c:	68fb      	ldr	r3, [r7, #12]
 800452e:	429a      	cmp	r2, r3
 8004530:	dcf7      	bgt.n	8004522 <_Delay+0xe>
 8004532:	3714      	adds	r7, #20
 8004534:	46bd      	mov	sp, r7
 8004536:	f85d 7b04 	ldr.w	r7, [sp], #4
 800453a:	4770      	bx	lr

0800453c <Lcd_GPIO_Init>:
 800453c:	b480      	push	{r7}
 800453e:	af00      	add	r7, sp, #0
 8004540:	f44f 6300 	mov.w	r3, #2048	; 0x800
 8004544:	f2c4 0301 	movt	r3, #16385	; 0x4001
 8004548:	f44f 6200 	mov.w	r2, #2048	; 0x800
 800454c:	f2c4 0201 	movt	r2, #16385	; 0x4001
 8004550:	6812      	ldr	r2, [r2, #0]
 8004552:	f422 2270 	bic.w	r2, r2, #983040	; 0xf0000
 8004556:	f442 3240 	orr.w	r2, r2, #196608	; 0x30000
 800455a:	601a      	str	r2, [r3, #0]
 800455c:	f44f 6300 	mov.w	r3, #2048	; 0x800
 8004560:	f2c4 0301 	movt	r3, #16385	; 0x4001
 8004564:	f44f 6200 	mov.w	r2, #2048	; 0x800
 8004568:	f2c4 0201 	movt	r2, #16385	; 0x4001
 800456c:	6852      	ldr	r2, [r2, #4]
 800456e:	f422 4270 	bic.w	r2, r2, #61440	; 0xf000
 8004572:	f442 5240 	orr.w	r2, r2, #12288	; 0x3000
 8004576:	605a      	str	r2, [r3, #4]
 8004578:	f44f 6340 	mov.w	r3, #3072	; 0xc00
 800457c:	f2c4 0301 	movt	r3, #16385	; 0x4001
 8004580:	f44f 6240 	mov.w	r2, #3072	; 0xc00
 8004584:	f2c4 0201 	movt	r2, #16385	; 0x4001
 8004588:	6812      	ldr	r2, [r2, #0]
 800458a:	f422 2270 	bic.w	r2, r2, #983040	; 0xf0000
 800458e:	f442 3240 	orr.w	r2, r2, #196608	; 0x30000
 8004592:	601a      	str	r2, [r3, #0]
 8004594:	f44f 6340 	mov.w	r3, #3072	; 0xc00
 8004598:	f2c4 0301 	movt	r3, #16385	; 0x4001
 800459c:	f44f 6240 	mov.w	r2, #3072	; 0xc00
 80045a0:	f2c4 0201 	movt	r2, #16385	; 0x4001
 80045a4:	6852      	ldr	r2, [r2, #4]
 80045a6:	f022 02f0 	bic.w	r2, r2, #240	; 0xf0
 80045aa:	f042 0230 	orr.w	r2, r2, #48	; 0x30
 80045ae:	605a      	str	r2, [r3, #4]
 80045b0:	46bd      	mov	sp, r7
 80045b2:	f85d 7b04 	ldr.w	r7, [sp], #4
 80045b6:	4770      	bx	lr

080045b8 <Lcd_Write_Reg>:
 80045b8:	b580      	push	{r7, lr}
 80045ba:	b082      	sub	sp, #8
 80045bc:	af00      	add	r7, sp, #0
 80045be:	4602      	mov	r2, r0
 80045c0:	460b      	mov	r3, r1
 80045c2:	71fa      	strb	r2, [r7, #7]
 80045c4:	80bb      	strh	r3, [r7, #4]
 80045c6:	79fb      	ldrb	r3, [r7, #7]
 80045c8:	4618      	mov	r0, r3
 80045ca:	f000 f8a9 	bl	8004720 <Lcd_WR_REG>
 80045ce:	88bb      	ldrh	r3, [r7, #4]
 80045d0:	b2db      	uxtb	r3, r3
 80045d2:	4618      	mov	r0, r3
 80045d4:	f000 f8d4 	bl	8004780 <Lcd_WR_DATA>
 80045d8:	3708      	adds	r7, #8
 80045da:	46bd      	mov	sp, r7
 80045dc:	bd80      	pop	{r7, pc}
 80045de:	bf00      	nop

080045e0 <Lcd_Write_Data_16Bit>:
 80045e0:	b580      	push	{r7, lr}
 80045e2:	b082      	sub	sp, #8
 80045e4:	af00      	add	r7, sp, #0
 80045e6:	4603      	mov	r3, r0
 80045e8:	80fb      	strh	r3, [r7, #6]
 80045ea:	f44f 6300 	mov.w	r3, #2048	; 0x800
 80045ee:	f2c4 0301 	movt	r3, #16385	; 0x4001
 80045f2:	f44f 6200 	mov.w	r2, #2048	; 0x800
 80045f6:	f2c4 0201 	movt	r2, #16385	; 0x4001
 80045fa:	68d2      	ldr	r2, [r2, #12]
 80045fc:	f022 0210 	bic.w	r2, r2, #16
 8004600:	60da      	str	r2, [r3, #12]
 8004602:	f44f 6340 	mov.w	r3, #3072	; 0xc00
 8004606:	f2c4 0301 	movt	r3, #16385	; 0x4001
 800460a:	f44f 6240 	mov.w	r2, #3072	; 0xc00
 800460e:	f2c4 0201 	movt	r2, #16385	; 0x4001
 8004612:	68d2      	ldr	r2, [r2, #12]
 8004614:	f442 7200 	orr.w	r2, r2, #512	; 0x200
 8004618:	60da      	str	r2, [r3, #12]
 800461a:	88fb      	ldrh	r3, [r7, #6]
 800461c:	0a1b      	lsrs	r3, r3, #8
 800461e:	b29b      	uxth	r3, r3
 8004620:	b2db      	uxtb	r3, r3
 8004622:	4618      	mov	r0, r3
 8004624:	f7ff ff4a 	bl	80044bc <_SPI1_Write_Byte>
 8004628:	88fb      	ldrh	r3, [r7, #6]
 800462a:	b2db      	uxtb	r3, r3
 800462c:	4618      	mov	r0, r3
 800462e:	f7ff ff45 	bl	80044bc <_SPI1_Write_Byte>
 8004632:	f44f 6300 	mov.w	r3, #2048	; 0x800
 8004636:	f2c4 0301 	movt	r3, #16385	; 0x4001
 800463a:	f44f 6200 	mov.w	r2, #2048	; 0x800
 800463e:	f2c4 0201 	movt	r2, #16385	; 0x4001
 8004642:	68d2      	ldr	r2, [r2, #12]
 8004644:	f042 0210 	orr.w	r2, r2, #16
 8004648:	60da      	str	r2, [r3, #12]
 800464a:	3708      	adds	r7, #8
 800464c:	46bd      	mov	sp, r7
 800464e:	bd80      	pop	{r7, pc}

08004650 <Lcd_Fill>:
 8004650:	b580      	push	{r7, lr}
 8004652:	b084      	sub	sp, #16
 8004654:	af00      	add	r7, sp, #0
 8004656:	80f8      	strh	r0, [r7, #6]
 8004658:	80b9      	strh	r1, [r7, #4]
 800465a:	807a      	strh	r2, [r7, #2]
 800465c:	803b      	strh	r3, [r7, #0]
 800465e:	887a      	ldrh	r2, [r7, #2]
 8004660:	88fb      	ldrh	r3, [r7, #6]
 8004662:	1ad3      	subs	r3, r2, r3
 8004664:	b29b      	uxth	r3, r3
 8004666:	3301      	adds	r3, #1
 8004668:	817b      	strh	r3, [r7, #10]
 800466a:	883a      	ldrh	r2, [r7, #0]
 800466c:	88bb      	ldrh	r3, [r7, #4]
 800466e:	1ad3      	subs	r3, r2, r3
 8004670:	b29b      	uxth	r3, r3
 8004672:	3301      	adds	r3, #1
 8004674:	813b      	strh	r3, [r7, #8]
 8004676:	88f8      	ldrh	r0, [r7, #6]
 8004678:	88b9      	ldrh	r1, [r7, #4]
 800467a:	887a      	ldrh	r2, [r7, #2]
 800467c:	883b      	ldrh	r3, [r7, #0]
 800467e:	f000 f947 	bl	8004910 <Lcd_Set_Windows>
 8004682:	2300      	movs	r3, #0
 8004684:	81fb      	strh	r3, [r7, #14]
 8004686:	e010      	b.n	80046aa <Lcd_Fill+0x5a>
 8004688:	2300      	movs	r3, #0
 800468a:	81bb      	strh	r3, [r7, #12]
 800468c:	e006      	b.n	800469c <Lcd_Fill+0x4c>
 800468e:	8b3b      	ldrh	r3, [r7, #24]
 8004690:	4618      	mov	r0, r3
 8004692:	f7ff ffa5 	bl	80045e0 <Lcd_Write_Data_16Bit>
 8004696:	89bb      	ldrh	r3, [r7, #12]
 8004698:	3301      	adds	r3, #1
 800469a:	81bb      	strh	r3, [r7, #12]
 800469c:	89ba      	ldrh	r2, [r7, #12]
 800469e:	897b      	ldrh	r3, [r7, #10]
 80046a0:	429a      	cmp	r2, r3
 80046a2:	d3f4      	bcc.n	800468e <Lcd_Fill+0x3e>
 80046a4:	89fb      	ldrh	r3, [r7, #14]
 80046a6:	3301      	adds	r3, #1
 80046a8:	81fb      	strh	r3, [r7, #14]
 80046aa:	89fa      	ldrh	r2, [r7, #14]
 80046ac:	893b      	ldrh	r3, [r7, #8]
 80046ae:	429a      	cmp	r2, r3
 80046b0:	d3ea      	bcc.n	8004688 <Lcd_Fill+0x38>
 80046b2:	f642 3330 	movw	r3, #11056	; 0x2b30
 80046b6:	f2c2 0300 	movt	r3, #8192	; 0x2000
 80046ba:	881b      	ldrh	r3, [r3, #0]
 80046bc:	3b01      	subs	r3, #1
 80046be:	b29a      	uxth	r2, r3
 80046c0:	f642 3330 	movw	r3, #11056	; 0x2b30
 80046c4:	f2c2 0300 	movt	r3, #8192	; 0x2000
 80046c8:	885b      	ldrh	r3, [r3, #2]
 80046ca:	3b01      	subs	r3, #1
 80046cc:	b29b      	uxth	r3, r3
 80046ce:	2000      	movs	r0, #0
 80046d0:	2100      	movs	r1, #0
 80046d2:	f000 f91d 	bl	8004910 <Lcd_Set_Windows>
 80046d6:	3710      	adds	r7, #16
 80046d8:	46bd      	mov	sp, r7
 80046da:	bd80      	pop	{r7, pc}

080046dc <Lcd_Reset>:
 80046dc:	b580      	push	{r7, lr}
 80046de:	af00      	add	r7, sp, #0
 80046e0:	f44f 6340 	mov.w	r3, #3072	; 0xc00
 80046e4:	f2c4 0301 	movt	r3, #16385	; 0x4001
 80046e8:	f44f 6240 	mov.w	r2, #3072	; 0xc00
 80046ec:	f2c4 0201 	movt	r2, #16385	; 0x4001
 80046f0:	68d2      	ldr	r2, [r2, #12]
 80046f2:	f022 0210 	bic.w	r2, r2, #16
 80046f6:	60da      	str	r2, [r3, #12]
 80046f8:	2064      	movs	r0, #100	; 0x64
 80046fa:	f7ff ff0b 	bl	8004514 <_Delay>
 80046fe:	f44f 6340 	mov.w	r3, #3072	; 0xc00
 8004702:	f2c4 0301 	movt	r3, #16385	; 0x4001
 8004706:	f44f 6240 	mov.w	r2, #3072	; 0xc00
 800470a:	f2c4 0201 	movt	r2, #16385	; 0x4001
 800470e:	68d2      	ldr	r2, [r2, #12]
 8004710:	f042 0210 	orr.w	r2, r2, #16
 8004714:	60da      	str	r2, [r3, #12]
 8004716:	2032      	movs	r0, #50	; 0x32
 8004718:	f7ff fefc 	bl	8004514 <_Delay>
 800471c:	bd80      	pop	{r7, pc}
 800471e:	bf00      	nop

08004720 <Lcd_WR_REG>:
 8004720:	b580      	push	{r7, lr}
 8004722:	b082      	sub	sp, #8
 8004724:	af00      	add	r7, sp, #0
 8004726:	4603      	mov	r3, r0
 8004728:	71fb      	strb	r3, [r7, #7]
 800472a:	f44f 6300 	mov.w	r3, #2048	; 0x800
 800472e:	f2c4 0301 	movt	r3, #16385	; 0x4001
 8004732:	f44f 6200 	mov.w	r2, #2048	; 0x800
 8004736:	f2c4 0201 	movt	r2, #16385	; 0x4001
 800473a:	68d2      	ldr	r2, [r2, #12]
 800473c:	f022 0210 	bic.w	r2, r2, #16
 8004740:	60da      	str	r2, [r3, #12]
 8004742:	f44f 6340 	mov.w	r3, #3072	; 0xc00
 8004746:	f2c4 0301 	movt	r3, #16385	; 0x4001
 800474a:	f44f 6240 	mov.w	r2, #3072	; 0xc00
 800474e:	f2c4 0201 	movt	r2, #16385	; 0x4001
 8004752:	68d2      	ldr	r2, [r2, #12]
 8004754:	f422 7200 	bic.w	r2, r2, #512	; 0x200
 8004758:	60da      	str	r2, [r3, #12]
 800475a:	79fb      	ldrb	r3, [r7, #7]
 800475c:	4618      	mov	r0, r3
 800475e:	f7ff fead 	bl	80044bc <_SPI1_Write_Byte>
 8004762:	f44f 6300 	mov.w	r3, #2048	; 0x800
 8004766:	f2c4 0301 	movt	r3, #16385	; 0x4001
 800476a:	f44f 6200 	mov.w	r2, #2048	; 0x800
 800476e:	f2c4 0201 	movt	r2, #16385	; 0x4001
 8004772:	68d2      	ldr	r2, [r2, #12]
 8004774:	f042 0210 	orr.w	r2, r2, #16
 8004778:	60da      	str	r2, [r3, #12]
 800477a:	3708      	adds	r7, #8
 800477c:	46bd      	mov	sp, r7
 800477e:	bd80      	pop	{r7, pc}

08004780 <Lcd_WR_DATA>:
 8004780:	b580      	push	{r7, lr}
 8004782:	b082      	sub	sp, #8
 8004784:	af00      	add	r7, sp, #0
 8004786:	4603      	mov	r3, r0
 8004788:	71fb      	strb	r3, [r7, #7]
 800478a:	f44f 6300 	mov.w	r3, #2048	; 0x800
 800478e:	f2c4 0301 	movt	r3, #16385	; 0x4001
 8004792:	f44f 6200 	mov.w	r2, #2048	; 0x800
 8004796:	f2c4 0201 	movt	r2, #16385	; 0x4001
 800479a:	68d2      	ldr	r2, [r2, #12]
 800479c:	f022 0210 	bic.w	r2, r2, #16
 80047a0:	60da      	str	r2, [r3, #12]
 80047a2:	f44f 6340 	mov.w	r3, #3072	; 0xc00
 80047a6:	f2c4 0301 	movt	r3, #16385	; 0x4001
 80047aa:	f44f 6240 	mov.w	r2, #3072	; 0xc00
 80047ae:	f2c4 0201 	movt	r2, #16385	; 0x4001
 80047b2:	68d2      	ldr	r2, [r2, #12]
 80047b4:	f442 7200 	orr.w	r2, r2, #512	; 0x200
 80047b8:	60da      	str	r2, [r3, #12]
 80047ba:	79fb      	ldrb	r3, [r7, #7]
 80047bc:	4618      	mov	r0, r3
 80047be:	f7ff fe7d 	bl	80044bc <_SPI1_Write_Byte>
 80047c2:	f44f 6300 	mov.w	r3, #2048	; 0x800
 80047c6:	f2c4 0301 	movt	r3, #16385	; 0x4001
 80047ca:	f44f 6200 	mov.w	r2, #2048	; 0x800
 80047ce:	f2c4 0201 	movt	r2, #16385	; 0x4001
 80047d2:	68d2      	ldr	r2, [r2, #12]
 80047d4:	f042 0210 	orr.w	r2, r2, #16
 80047d8:	60da      	str	r2, [r3, #12]
 80047da:	3708      	adds	r7, #8
 80047dc:	46bd      	mov	sp, r7
 80047de:	bd80      	pop	{r7, pc}

080047e0 <Lcd_Set_Display_Mode>:
 80047e0:	b580      	push	{r7, lr}
 80047e2:	b082      	sub	sp, #8
 80047e4:	af00      	add	r7, sp, #0
 80047e6:	6078      	str	r0, [r7, #4]
 80047e8:	687b      	ldr	r3, [r7, #4]
 80047ea:	b2da      	uxtb	r2, r3
 80047ec:	f642 3330 	movw	r3, #11056	; 0x2b30
 80047f0:	f2c2 0300 	movt	r3, #8192	; 0x2000
 80047f4:	711a      	strb	r2, [r3, #4]
 80047f6:	f642 3330 	movw	r3, #11056	; 0x2b30
 80047fa:	f2c2 0300 	movt	r3, #8192	; 0x2000
 80047fe:	222a      	movs	r2, #42	; 0x2a
 8004800:	811a      	strh	r2, [r3, #8]
 8004802:	f642 3330 	movw	r3, #11056	; 0x2b30
 8004806:	f2c2 0300 	movt	r3, #8192	; 0x2000
 800480a:	222b      	movs	r2, #43	; 0x2b
 800480c:	815a      	strh	r2, [r3, #10]
 800480e:	f642 3330 	movw	r3, #11056	; 0x2b30
 8004812:	f2c2 0300 	movt	r3, #8192	; 0x2000
 8004816:	222c      	movs	r2, #44	; 0x2c
 8004818:	80da      	strh	r2, [r3, #6]
 800481a:	687b      	ldr	r3, [r7, #4]
 800481c:	2b04      	cmp	r3, #4
 800481e:	d867      	bhi.n	80048f0 <Lcd_Set_Display_Mode+0x110>
 8004820:	a201      	add	r2, pc, #4	; (adr r2, 8004828 <Lcd_Set_Display_Mode+0x48>)
 8004822:	f852 f023 	ldr.w	pc, [r2, r3, lsl #2]
 8004826:	bf00      	nop
 8004828:	0800483d 	stmdaeq	r0, {r0, r2, r3, r4, r5, fp, lr}
 800482c:	08004861 	stmdaeq	r0, {r0, r5, r6, fp, lr}
 8004830:	08004885 	stmdaeq	r0, {r0, r2, r7, fp, lr}
 8004834:	080048a9 	stmdaeq	r0, {r0, r3, r5, r7, fp, lr}
 8004838:	080048cd 	stmdaeq	r0, {r0, r2, r3, r6, r7, fp, lr}
 800483c:	f642 3330 	movw	r3, #11056	; 0x2b30
 8004840:	f2c2 0300 	movt	r3, #8192	; 0x2000
 8004844:	22f0      	movs	r2, #240	; 0xf0
 8004846:	801a      	strh	r2, [r3, #0]
 8004848:	f642 3330 	movw	r3, #11056	; 0x2b30
 800484c:	f2c2 0300 	movt	r3, #8192	; 0x2000
 8004850:	f44f 72a0 	mov.w	r2, #320	; 0x140
 8004854:	805a      	strh	r2, [r3, #2]
 8004856:	2036      	movs	r0, #54	; 0x36
 8004858:	2108      	movs	r1, #8
 800485a:	f7ff fead 	bl	80045b8 <Lcd_Write_Reg>
 800485e:	e048      	b.n	80048f2 <Lcd_Set_Display_Mode+0x112>
 8004860:	f642 3330 	movw	r3, #11056	; 0x2b30
 8004864:	f2c2 0300 	movt	r3, #8192	; 0x2000
 8004868:	f44f 72a0 	mov.w	r2, #320	; 0x140
 800486c:	801a      	strh	r2, [r3, #0]
 800486e:	f642 3330 	movw	r3, #11056	; 0x2b30
 8004872:	f2c2 0300 	movt	r3, #8192	; 0x2000
 8004876:	22f0      	movs	r2, #240	; 0xf0
 8004878:	805a      	strh	r2, [r3, #2]
 800487a:	2036      	movs	r0, #54	; 0x36
 800487c:	2168      	movs	r1, #104	; 0x68
 800487e:	f7ff fe9b 	bl	80045b8 <Lcd_Write_Reg>
 8004882:	e036      	b.n	80048f2 <Lcd_Set_Display_Mode+0x112>
 8004884:	f642 3330 	movw	r3, #11056	; 0x2b30
 8004888:	f2c2 0300 	movt	r3, #8192	; 0x2000
 800488c:	22f0      	movs	r2, #240	; 0xf0
 800488e:	801a      	strh	r2, [r3, #0]
 8004890:	f642 3330 	movw	r3, #11056	; 0x2b30
 8004894:	f2c2 0300 	movt	r3, #8192	; 0x2000
 8004898:	f44f 72a0 	mov.w	r2, #320	; 0x140
 800489c:	805a      	strh	r2, [r3, #2]
 800489e:	2036      	movs	r0, #54	; 0x36
 80048a0:	21c8      	movs	r1, #200	; 0xc8
 80048a2:	f7ff fe89 	bl	80045b8 <Lcd_Write_Reg>
 80048a6:	e024      	b.n	80048f2 <Lcd_Set_Display_Mode+0x112>
 80048a8:	f642 3330 	movw	r3, #11056	; 0x2b30
 80048ac:	f2c2 0300 	movt	r3, #8192	; 0x2000
 80048b0:	f44f 72a0 	mov.w	r2, #320	; 0x140
 80048b4:	801a      	strh	r2, [r3, #0]
 80048b6:	f642 3330 	movw	r3, #11056	; 0x2b30
 80048ba:	f2c2 0300 	movt	r3, #8192	; 0x2000
 80048be:	22f0      	movs	r2, #240	; 0xf0
 80048c0:	805a      	strh	r2, [r3, #2]
 80048c2:	2036      	movs	r0, #54	; 0x36
 80048c4:	21a8      	movs	r1, #168	; 0xa8
 80048c6:	f7ff fe77 	bl	80045b8 <Lcd_Write_Reg>
 80048ca:	e012      	b.n	80048f2 <Lcd_Set_Display_Mode+0x112>
 80048cc:	f642 3330 	movw	r3, #11056	; 0x2b30
 80048d0:	f2c2 0300 	movt	r3, #8192	; 0x2000
 80048d4:	f44f 72a0 	mov.w	r2, #320	; 0x140
 80048d8:	801a      	strh	r2, [r3, #0]
 80048da:	f642 3330 	movw	r3, #11056	; 0x2b30
 80048de:	f2c2 0300 	movt	r3, #8192	; 0x2000
 80048e2:	22f0      	movs	r2, #240	; 0xf0
 80048e4:	805a      	strh	r2, [r3, #2]
 80048e6:	2036      	movs	r0, #54	; 0x36
 80048e8:	21e8      	movs	r1, #232	; 0xe8
 80048ea:	f7ff fe65 	bl	80045b8 <Lcd_Write_Reg>
 80048ee:	e000      	b.n	80048f2 <Lcd_Set_Display_Mode+0x112>
 80048f0:	bf00      	nop
 80048f2:	3708      	adds	r7, #8
 80048f4:	46bd      	mov	sp, r7
 80048f6:	bd80      	pop	{r7, pc}

080048f8 <Lcd_Write_RAM_Prepare>:
 80048f8:	b580      	push	{r7, lr}
 80048fa:	af00      	add	r7, sp, #0
 80048fc:	f642 3330 	movw	r3, #11056	; 0x2b30
 8004900:	f2c2 0300 	movt	r3, #8192	; 0x2000
 8004904:	88db      	ldrh	r3, [r3, #6]
 8004906:	b2db      	uxtb	r3, r3
 8004908:	4618      	mov	r0, r3
 800490a:	f7ff ff09 	bl	8004720 <Lcd_WR_REG>
 800490e:	bd80      	pop	{r7, pc}

08004910 <Lcd_Set_Windows>:
 8004910:	b580      	push	{r7, lr}
 8004912:	b082      	sub	sp, #8
 8004914:	af00      	add	r7, sp, #0
 8004916:	80f8      	strh	r0, [r7, #6]
 8004918:	80b9      	strh	r1, [r7, #4]
 800491a:	807a      	strh	r2, [r7, #2]
 800491c:	803b      	strh	r3, [r7, #0]
 800491e:	f642 3330 	movw	r3, #11056	; 0x2b30
 8004922:	f2c2 0300 	movt	r3, #8192	; 0x2000
 8004926:	891b      	ldrh	r3, [r3, #8]
 8004928:	b2db      	uxtb	r3, r3
 800492a:	4618      	mov	r0, r3
 800492c:	f7ff fef8 	bl	8004720 <Lcd_WR_REG>
 8004930:	88fb      	ldrh	r3, [r7, #6]
 8004932:	0a1b      	lsrs	r3, r3, #8
 8004934:	b29b      	uxth	r3, r3
 8004936:	b2db      	uxtb	r3, r3
 8004938:	4618      	mov	r0, r3
 800493a:	f7ff ff21 	bl	8004780 <Lcd_WR_DATA>
 800493e:	88fb      	ldrh	r3, [r7, #6]
 8004940:	b2db      	uxtb	r3, r3
 8004942:	4618      	mov	r0, r3
 8004944:	f7ff ff1c 	bl	8004780 <Lcd_WR_DATA>
 8004948:	887b      	ldrh	r3, [r7, #2]
 800494a:	0a1b      	lsrs	r3, r3, #8
 800494c:	b29b      	uxth	r3, r3
 800494e:	b2db      	uxtb	r3, r3
 8004950:	4618      	mov	r0, r3
 8004952:	f7ff ff15 	bl	8004780 <Lcd_WR_DATA>
 8004956:	887b      	ldrh	r3, [r7, #2]
 8004958:	b2db      	uxtb	r3, r3
 800495a:	4618      	mov	r0, r3
 800495c:	f7ff ff10 	bl	8004780 <Lcd_WR_DATA>
 8004960:	f642 3330 	movw	r3, #11056	; 0x2b30
 8004964:	f2c2 0300 	movt	r3, #8192	; 0x2000
 8004968:	895b      	ldrh	r3, [r3, #10]
 800496a:	b2db      	uxtb	r3, r3
 800496c:	4618      	mov	r0, r3
 800496e:	f7ff fed7 	bl	8004720 <Lcd_WR_REG>
 8004972:	88bb      	ldrh	r3, [r7, #4]
 8004974:	0a1b      	lsrs	r3, r3, #8
 8004976:	b29b      	uxth	r3, r3
 8004978:	b2db      	uxtb	r3, r3
 800497a:	4618      	mov	r0, r3
 800497c:	f7ff ff00 	bl	8004780 <Lcd_WR_DATA>
 8004980:	88bb      	ldrh	r3, [r7, #4]
 8004982:	b2db      	uxtb	r3, r3
 8004984:	4618      	mov	r0, r3
 8004986:	f7ff fefb 	bl	8004780 <Lcd_WR_DATA>
 800498a:	883b      	ldrh	r3, [r7, #0]
 800498c:	0a1b      	lsrs	r3, r3, #8
 800498e:	b29b      	uxth	r3, r3
 8004990:	b2db      	uxtb	r3, r3
 8004992:	4618      	mov	r0, r3
 8004994:	f7ff fef4 	bl	8004780 <Lcd_WR_DATA>
 8004998:	883b      	ldrh	r3, [r7, #0]
 800499a:	b2db      	uxtb	r3, r3
 800499c:	4618      	mov	r0, r3
 800499e:	f7ff feef 	bl	8004780 <Lcd_WR_DATA>
 80049a2:	f7ff ffa9 	bl	80048f8 <Lcd_Write_RAM_Prepare>
 80049a6:	3708      	adds	r7, #8
 80049a8:	46bd      	mov	sp, r7
 80049aa:	bd80      	pop	{r7, pc}

080049ac <Lcd_Set_Cursor>:
 80049ac:	b580      	push	{r7, lr}
 80049ae:	b082      	sub	sp, #8
 80049b0:	af00      	add	r7, sp, #0
 80049b2:	4602      	mov	r2, r0
 80049b4:	460b      	mov	r3, r1
 80049b6:	80fa      	strh	r2, [r7, #6]
 80049b8:	80bb      	strh	r3, [r7, #4]
 80049ba:	88f8      	ldrh	r0, [r7, #6]
 80049bc:	88b9      	ldrh	r1, [r7, #4]
 80049be:	88fa      	ldrh	r2, [r7, #6]
 80049c0:	88bb      	ldrh	r3, [r7, #4]
 80049c2:	f7ff ffa5 	bl	8004910 <Lcd_Set_Windows>
 80049c6:	3708      	adds	r7, #8
 80049c8:	46bd      	mov	sp, r7
 80049ca:	bd80      	pop	{r7, pc}

080049cc <Lcd_Draw_Back_Color>:
 80049cc:	b580      	push	{r7, lr}
 80049ce:	b084      	sub	sp, #16
 80049d0:	af00      	add	r7, sp, #0
 80049d2:	4603      	mov	r3, r0
 80049d4:	80fb      	strh	r3, [r7, #6]
 80049d6:	88fb      	ldrh	r3, [r7, #6]
 80049d8:	0a1b      	lsrs	r3, r3, #8
 80049da:	b29b      	uxth	r3, r3
 80049dc:	72fb      	strb	r3, [r7, #11]
 80049de:	88fb      	ldrh	r3, [r7, #6]
 80049e0:	72bb      	strb	r3, [r7, #10]
 80049e2:	f642 3330 	movw	r3, #11056	; 0x2b30
 80049e6:	f2c2 0300 	movt	r3, #8192	; 0x2000
 80049ea:	881b      	ldrh	r3, [r3, #0]
 80049ec:	3b01      	subs	r3, #1
 80049ee:	b29a      	uxth	r2, r3
 80049f0:	f642 3330 	movw	r3, #11056	; 0x2b30
 80049f4:	f2c2 0300 	movt	r3, #8192	; 0x2000
 80049f8:	885b      	ldrh	r3, [r3, #2]
 80049fa:	3b01      	subs	r3, #1
 80049fc:	b29b      	uxth	r3, r3
 80049fe:	2000      	movs	r0, #0
 8004a00:	2100      	movs	r1, #0
 8004a02:	f7ff ff85 	bl	8004910 <Lcd_Set_Windows>
 8004a06:	f44f 6300 	mov.w	r3, #2048	; 0x800
 8004a0a:	f2c4 0301 	movt	r3, #16385	; 0x4001
 8004a0e:	f44f 6200 	mov.w	r2, #2048	; 0x800
 8004a12:	f2c4 0201 	movt	r2, #16385	; 0x4001
 8004a16:	68d2      	ldr	r2, [r2, #12]
 8004a18:	f022 0210 	bic.w	r2, r2, #16
 8004a1c:	60da      	str	r2, [r3, #12]
 8004a1e:	f44f 6340 	mov.w	r3, #3072	; 0xc00
 8004a22:	f2c4 0301 	movt	r3, #16385	; 0x4001
 8004a26:	f44f 6240 	mov.w	r2, #3072	; 0xc00
 8004a2a:	f2c4 0201 	movt	r2, #16385	; 0x4001
 8004a2e:	68d2      	ldr	r2, [r2, #12]
 8004a30:	f442 7200 	orr.w	r2, r2, #512	; 0x200
 8004a34:	60da      	str	r2, [r3, #12]
 8004a36:	2300      	movs	r3, #0
 8004a38:	60fb      	str	r3, [r7, #12]
 8004a3a:	e00a      	b.n	8004a52 <Lcd_Draw_Back_Color+0x86>
 8004a3c:	7afb      	ldrb	r3, [r7, #11]
 8004a3e:	4618      	mov	r0, r3
 8004a40:	f7ff fd3c 	bl	80044bc <_SPI1_Write_Byte>
 8004a44:	7abb      	ldrb	r3, [r7, #10]
 8004a46:	4618      	mov	r0, r3
 8004a48:	f7ff fd38 	bl	80044bc <_SPI1_Write_Byte>
 8004a4c:	68fb      	ldr	r3, [r7, #12]
 8004a4e:	3301      	adds	r3, #1
 8004a50:	60fb      	str	r3, [r7, #12]
 8004a52:	f642 3330 	movw	r3, #11056	; 0x2b30
 8004a56:	f2c2 0300 	movt	r3, #8192	; 0x2000
 8004a5a:	885b      	ldrh	r3, [r3, #2]
 8004a5c:	461a      	mov	r2, r3
 8004a5e:	f642 3330 	movw	r3, #11056	; 0x2b30
 8004a62:	f2c2 0300 	movt	r3, #8192	; 0x2000
 8004a66:	881b      	ldrh	r3, [r3, #0]
 8004a68:	fb03 f302 	mul.w	r3, r3, r2
 8004a6c:	461a      	mov	r2, r3
 8004a6e:	68fb      	ldr	r3, [r7, #12]
 8004a70:	429a      	cmp	r2, r3
 8004a72:	d8e3      	bhi.n	8004a3c <Lcd_Draw_Back_Color+0x70>
 8004a74:	f44f 6300 	mov.w	r3, #2048	; 0x800
 8004a78:	f2c4 0301 	movt	r3, #16385	; 0x4001
 8004a7c:	f44f 6200 	mov.w	r2, #2048	; 0x800
 8004a80:	f2c4 0201 	movt	r2, #16385	; 0x4001
 8004a84:	68d2      	ldr	r2, [r2, #12]
 8004a86:	f042 0210 	orr.w	r2, r2, #16
 8004a8a:	60da      	str	r2, [r3, #12]
 8004a8c:	3710      	adds	r7, #16
 8004a8e:	46bd      	mov	sp, r7
 8004a90:	bd80      	pop	{r7, pc}
 8004a92:	bf00      	nop

08004a94 <Lcd_Clr_Screen>:
 8004a94:	b580      	push	{r7, lr}
 8004a96:	af00      	add	r7, sp, #0
 8004a98:	2000      	movs	r0, #0
 8004a9a:	f7ff ff97 	bl	80049cc <Lcd_Draw_Back_Color>
 8004a9e:	bd80      	pop	{r7, pc}

08004aa0 <Lcd_Draw_Box>:
 8004aa0:	b580      	push	{r7, lr}
 8004aa2:	b088      	sub	sp, #32
 8004aa4:	af00      	add	r7, sp, #0
 8004aa6:	60f8      	str	r0, [r7, #12]
 8004aa8:	60b9      	str	r1, [r7, #8]
 8004aaa:	607a      	str	r2, [r7, #4]
 8004aac:	603b      	str	r3, [r7, #0]
 8004aae:	8d3b      	ldrh	r3, [r7, #40]	; 0x28
 8004ab0:	0a1b      	lsrs	r3, r3, #8
 8004ab2:	b29b      	uxth	r3, r3
 8004ab4:	75fb      	strb	r3, [r7, #23]
 8004ab6:	8d3b      	ldrh	r3, [r7, #40]	; 0x28
 8004ab8:	75bb      	strb	r3, [r7, #22]
 8004aba:	68fa      	ldr	r2, [r7, #12]
 8004abc:	687b      	ldr	r3, [r7, #4]
 8004abe:	4413      	add	r3, r2
 8004ac0:	3b01      	subs	r3, #1
 8004ac2:	61bb      	str	r3, [r7, #24]
 8004ac4:	68ba      	ldr	r2, [r7, #8]
 8004ac6:	683b      	ldr	r3, [r7, #0]
 8004ac8:	4413      	add	r3, r2
 8004aca:	3b01      	subs	r3, #1
 8004acc:	613b      	str	r3, [r7, #16]
 8004ace:	69bb      	ldr	r3, [r7, #24]
 8004ad0:	f5b3 7fa0 	cmp.w	r3, #320	; 0x140
 8004ad4:	db02      	blt.n	8004adc <Lcd_Draw_Box+0x3c>
 8004ad6:	f240 133f 	movw	r3, #319	; 0x13f
 8004ada:	61bb      	str	r3, [r7, #24]
 8004adc:	693b      	ldr	r3, [r7, #16]
 8004ade:	2bef      	cmp	r3, #239	; 0xef
 8004ae0:	dd01      	ble.n	8004ae6 <Lcd_Draw_Box+0x46>
 8004ae2:	23ef      	movs	r3, #239	; 0xef
 8004ae4:	61bb      	str	r3, [r7, #24]
 8004ae6:	68fb      	ldr	r3, [r7, #12]
 8004ae8:	b298      	uxth	r0, r3
 8004aea:	68bb      	ldr	r3, [r7, #8]
 8004aec:	b299      	uxth	r1, r3
 8004aee:	69bb      	ldr	r3, [r7, #24]
 8004af0:	b29a      	uxth	r2, r3
 8004af2:	693b      	ldr	r3, [r7, #16]
 8004af4:	b29b      	uxth	r3, r3
 8004af6:	f7ff ff0b 	bl	8004910 <Lcd_Set_Windows>
 8004afa:	f44f 6300 	mov.w	r3, #2048	; 0x800
 8004afe:	f2c4 0301 	movt	r3, #16385	; 0x4001
 8004b02:	f44f 6200 	mov.w	r2, #2048	; 0x800
 8004b06:	f2c4 0201 	movt	r2, #16385	; 0x4001
 8004b0a:	68d2      	ldr	r2, [r2, #12]
 8004b0c:	f022 0210 	bic.w	r2, r2, #16
 8004b10:	60da      	str	r2, [r3, #12]
 8004b12:	f44f 6340 	mov.w	r3, #3072	; 0xc00
 8004b16:	f2c4 0301 	movt	r3, #16385	; 0x4001
 8004b1a:	f44f 6240 	mov.w	r2, #3072	; 0xc00
 8004b1e:	f2c4 0201 	movt	r2, #16385	; 0x4001
 8004b22:	68d2      	ldr	r2, [r2, #12]
 8004b24:	f442 7200 	orr.w	r2, r2, #512	; 0x200
 8004b28:	60da      	str	r2, [r3, #12]
 8004b2a:	2300      	movs	r3, #0
 8004b2c:	61fb      	str	r3, [r7, #28]
 8004b2e:	e00a      	b.n	8004b46 <Lcd_Draw_Box+0xa6>
 8004b30:	7dfb      	ldrb	r3, [r7, #23]
 8004b32:	4618      	mov	r0, r3
 8004b34:	f7ff fcc2 	bl	80044bc <_SPI1_Write_Byte>
 8004b38:	7dbb      	ldrb	r3, [r7, #22]
 8004b3a:	4618      	mov	r0, r3
 8004b3c:	f7ff fcbe 	bl	80044bc <_SPI1_Write_Byte>
 8004b40:	69fb      	ldr	r3, [r7, #28]
 8004b42:	3301      	adds	r3, #1
 8004b44:	61fb      	str	r3, [r7, #28]
 8004b46:	69ba      	ldr	r2, [r7, #24]
 8004b48:	68fb      	ldr	r3, [r7, #12]
 8004b4a:	1ad3      	subs	r3, r2, r3
 8004b4c:	3301      	adds	r3, #1
 8004b4e:	6939      	ldr	r1, [r7, #16]
 8004b50:	68ba      	ldr	r2, [r7, #8]
 8004b52:	1a8a      	subs	r2, r1, r2
 8004b54:	3201      	adds	r2, #1
 8004b56:	fb02 f303 	mul.w	r3, r2, r3
 8004b5a:	461a      	mov	r2, r3
 8004b5c:	69fb      	ldr	r3, [r7, #28]
 8004b5e:	429a      	cmp	r2, r3
 8004b60:	d8e6      	bhi.n	8004b30 <Lcd_Draw_Box+0x90>
 8004b62:	f44f 6300 	mov.w	r3, #2048	; 0x800
 8004b66:	f2c4 0301 	movt	r3, #16385	; 0x4001
 8004b6a:	f44f 6200 	mov.w	r2, #2048	; 0x800
 8004b6e:	f2c4 0201 	movt	r2, #16385	; 0x4001
 8004b72:	68d2      	ldr	r2, [r2, #12]
 8004b74:	f042 0210 	orr.w	r2, r2, #16
 8004b78:	60da      	str	r2, [r3, #12]
 8004b7a:	3720      	adds	r7, #32
 8004b7c:	46bd      	mov	sp, r7
 8004b7e:	bd80      	pop	{r7, pc}

08004b80 <Lcd_Init>:
 8004b80:	b580      	push	{r7, lr}
 8004b82:	af00      	add	r7, sp, #0
 8004b84:	f7ff fc4c 	bl	8004420 <_SPI1_Init>
 8004b88:	f7ff fcd8 	bl	800453c <Lcd_GPIO_Init>
 8004b8c:	f44f 6300 	mov.w	r3, #2048	; 0x800
 8004b90:	f2c4 0301 	movt	r3, #16385	; 0x4001
 8004b94:	f44f 6200 	mov.w	r2, #2048	; 0x800
 8004b98:	f2c4 0201 	movt	r2, #16385	; 0x4001
 8004b9c:	68d2      	ldr	r2, [r2, #12]
 8004b9e:	f422 6200 	bic.w	r2, r2, #2048	; 0x800
 8004ba2:	60da      	str	r2, [r3, #12]
 8004ba4:	f7ff fd9a 	bl	80046dc <Lcd_Reset>
 8004ba8:	20cf      	movs	r0, #207	; 0xcf
 8004baa:	f7ff fdb9 	bl	8004720 <Lcd_WR_REG>
 8004bae:	2000      	movs	r0, #0
 8004bb0:	f7ff fde6 	bl	8004780 <Lcd_WR_DATA>
 8004bb4:	20d9      	movs	r0, #217	; 0xd9
 8004bb6:	f7ff fde3 	bl	8004780 <Lcd_WR_DATA>
 8004bba:	2030      	movs	r0, #48	; 0x30
 8004bbc:	f7ff fde0 	bl	8004780 <Lcd_WR_DATA>
 8004bc0:	20ed      	movs	r0, #237	; 0xed
 8004bc2:	f7ff fdad 	bl	8004720 <Lcd_WR_REG>
 8004bc6:	2064      	movs	r0, #100	; 0x64
 8004bc8:	f7ff fdda 	bl	8004780 <Lcd_WR_DATA>
 8004bcc:	2003      	movs	r0, #3
 8004bce:	f7ff fdd7 	bl	8004780 <Lcd_WR_DATA>
 8004bd2:	2012      	movs	r0, #18
 8004bd4:	f7ff fdd4 	bl	8004780 <Lcd_WR_DATA>
 8004bd8:	2081      	movs	r0, #129	; 0x81
 8004bda:	f7ff fdd1 	bl	8004780 <Lcd_WR_DATA>
 8004bde:	20e8      	movs	r0, #232	; 0xe8
 8004be0:	f7ff fd9e 	bl	8004720 <Lcd_WR_REG>
 8004be4:	2085      	movs	r0, #133	; 0x85
 8004be6:	f7ff fdcb 	bl	8004780 <Lcd_WR_DATA>
 8004bea:	2010      	movs	r0, #16
 8004bec:	f7ff fdc8 	bl	8004780 <Lcd_WR_DATA>
 8004bf0:	207a      	movs	r0, #122	; 0x7a
 8004bf2:	f7ff fdc5 	bl	8004780 <Lcd_WR_DATA>
 8004bf6:	20cb      	movs	r0, #203	; 0xcb
 8004bf8:	f7ff fd92 	bl	8004720 <Lcd_WR_REG>
 8004bfc:	2039      	movs	r0, #57	; 0x39
 8004bfe:	f7ff fdbf 	bl	8004780 <Lcd_WR_DATA>
 8004c02:	202c      	movs	r0, #44	; 0x2c
 8004c04:	f7ff fdbc 	bl	8004780 <Lcd_WR_DATA>
 8004c08:	2000      	movs	r0, #0
 8004c0a:	f7ff fdb9 	bl	8004780 <Lcd_WR_DATA>
 8004c0e:	2034      	movs	r0, #52	; 0x34
 8004c10:	f7ff fdb6 	bl	8004780 <Lcd_WR_DATA>
 8004c14:	2002      	movs	r0, #2
 8004c16:	f7ff fdb3 	bl	8004780 <Lcd_WR_DATA>
 8004c1a:	20f7      	movs	r0, #247	; 0xf7
 8004c1c:	f7ff fd80 	bl	8004720 <Lcd_WR_REG>
 8004c20:	2020      	movs	r0, #32
 8004c22:	f7ff fdad 	bl	8004780 <Lcd_WR_DATA>
 8004c26:	20ea      	movs	r0, #234	; 0xea
 8004c28:	f7ff fd7a 	bl	8004720 <Lcd_WR_REG>
 8004c2c:	2000      	movs	r0, #0
 8004c2e:	f7ff fda7 	bl	8004780 <Lcd_WR_DATA>
 8004c32:	2000      	movs	r0, #0
 8004c34:	f7ff fda4 	bl	8004780 <Lcd_WR_DATA>
 8004c38:	20c0      	movs	r0, #192	; 0xc0
 8004c3a:	f7ff fd71 	bl	8004720 <Lcd_WR_REG>
 8004c3e:	201b      	movs	r0, #27
 8004c40:	f7ff fd9e 	bl	8004780 <Lcd_WR_DATA>
 8004c44:	20c1      	movs	r0, #193	; 0xc1
 8004c46:	f7ff fd6b 	bl	8004720 <Lcd_WR_REG>
 8004c4a:	2012      	movs	r0, #18
 8004c4c:	f7ff fd98 	bl	8004780 <Lcd_WR_DATA>
 8004c50:	20c5      	movs	r0, #197	; 0xc5
 8004c52:	f7ff fd65 	bl	8004720 <Lcd_WR_REG>
 8004c56:	2008      	movs	r0, #8
 8004c58:	f7ff fd92 	bl	8004780 <Lcd_WR_DATA>
 8004c5c:	2026      	movs	r0, #38	; 0x26
 8004c5e:	f7ff fd8f 	bl	8004780 <Lcd_WR_DATA>
 8004c62:	20c7      	movs	r0, #199	; 0xc7
 8004c64:	f7ff fd5c 	bl	8004720 <Lcd_WR_REG>
 8004c68:	20b7      	movs	r0, #183	; 0xb7
 8004c6a:	f7ff fd89 	bl	8004780 <Lcd_WR_DATA>
 8004c6e:	2036      	movs	r0, #54	; 0x36
 8004c70:	f7ff fd56 	bl	8004720 <Lcd_WR_REG>
 8004c74:	2008      	movs	r0, #8
 8004c76:	f7ff fd83 	bl	8004780 <Lcd_WR_DATA>
 8004c7a:	203a      	movs	r0, #58	; 0x3a
 8004c7c:	f7ff fd50 	bl	8004720 <Lcd_WR_REG>
 8004c80:	2055      	movs	r0, #85	; 0x55
 8004c82:	f7ff fd7d 	bl	8004780 <Lcd_WR_DATA>
 8004c86:	20b1      	movs	r0, #177	; 0xb1
 8004c88:	f7ff fd4a 	bl	8004720 <Lcd_WR_REG>
 8004c8c:	2000      	movs	r0, #0
 8004c8e:	f7ff fd77 	bl	8004780 <Lcd_WR_DATA>
 8004c92:	201a      	movs	r0, #26
 8004c94:	f7ff fd74 	bl	8004780 <Lcd_WR_DATA>
 8004c98:	20b6      	movs	r0, #182	; 0xb6
 8004c9a:	f7ff fd41 	bl	8004720 <Lcd_WR_REG>
 8004c9e:	200a      	movs	r0, #10
 8004ca0:	f7ff fd6e 	bl	8004780 <Lcd_WR_DATA>
 8004ca4:	20a2      	movs	r0, #162	; 0xa2
 8004ca6:	f7ff fd6b 	bl	8004780 <Lcd_WR_DATA>
 8004caa:	20f2      	movs	r0, #242	; 0xf2
 8004cac:	f7ff fd38 	bl	8004720 <Lcd_WR_REG>
 8004cb0:	2000      	movs	r0, #0
 8004cb2:	f7ff fd65 	bl	8004780 <Lcd_WR_DATA>
 8004cb6:	2026      	movs	r0, #38	; 0x26
 8004cb8:	f7ff fd32 	bl	8004720 <Lcd_WR_REG>
 8004cbc:	2001      	movs	r0, #1
 8004cbe:	f7ff fd5f 	bl	8004780 <Lcd_WR_DATA>
 8004cc2:	20e0      	movs	r0, #224	; 0xe0
 8004cc4:	f7ff fd2c 	bl	8004720 <Lcd_WR_REG>
 8004cc8:	200f      	movs	r0, #15
 8004cca:	f7ff fd59 	bl	8004780 <Lcd_WR_DATA>
 8004cce:	201d      	movs	r0, #29
 8004cd0:	f7ff fd56 	bl	8004780 <Lcd_WR_DATA>
 8004cd4:	201a      	movs	r0, #26
 8004cd6:	f7ff fd53 	bl	8004780 <Lcd_WR_DATA>
 8004cda:	200a      	movs	r0, #10
 8004cdc:	f7ff fd50 	bl	8004780 <Lcd_WR_DATA>
 8004ce0:	200d      	movs	r0, #13
 8004ce2:	f7ff fd4d 	bl	8004780 <Lcd_WR_DATA>
 8004ce6:	2007      	movs	r0, #7
 8004ce8:	f7ff fd4a 	bl	8004780 <Lcd_WR_DATA>
 8004cec:	2049      	movs	r0, #73	; 0x49
 8004cee:	f7ff fd47 	bl	8004780 <Lcd_WR_DATA>
 8004cf2:	2066      	movs	r0, #102	; 0x66
 8004cf4:	f7ff fd44 	bl	8004780 <Lcd_WR_DATA>
 8004cf8:	203b      	movs	r0, #59	; 0x3b
 8004cfa:	f7ff fd41 	bl	8004780 <Lcd_WR_DATA>
 8004cfe:	2007      	movs	r0, #7
 8004d00:	f7ff fd3e 	bl	8004780 <Lcd_WR_DATA>
 8004d04:	2011      	movs	r0, #17
 8004d06:	f7ff fd3b 	bl	8004780 <Lcd_WR_DATA>
 8004d0a:	2001      	movs	r0, #1
 8004d0c:	f7ff fd38 	bl	8004780 <Lcd_WR_DATA>
 8004d10:	2009      	movs	r0, #9
 8004d12:	f7ff fd35 	bl	8004780 <Lcd_WR_DATA>
 8004d16:	2005      	movs	r0, #5
 8004d18:	f7ff fd32 	bl	8004780 <Lcd_WR_DATA>
 8004d1c:	2004      	movs	r0, #4
 8004d1e:	f7ff fd2f 	bl	8004780 <Lcd_WR_DATA>
 8004d22:	20e1      	movs	r0, #225	; 0xe1
 8004d24:	f7ff fcfc 	bl	8004720 <Lcd_WR_REG>
 8004d28:	2000      	movs	r0, #0
 8004d2a:	f7ff fd29 	bl	8004780 <Lcd_WR_DATA>
 8004d2e:	2018      	movs	r0, #24
 8004d30:	f7ff fd26 	bl	8004780 <Lcd_WR_DATA>
 8004d34:	201d      	movs	r0, #29
 8004d36:	f7ff fd23 	bl	8004780 <Lcd_WR_DATA>
 8004d3a:	2002      	movs	r0, #2
 8004d3c:	f7ff fd20 	bl	8004780 <Lcd_WR_DATA>
 8004d40:	200f      	movs	r0, #15
 8004d42:	f7ff fd1d 	bl	8004780 <Lcd_WR_DATA>
 8004d46:	2004      	movs	r0, #4
 8004d48:	f7ff fd1a 	bl	8004780 <Lcd_WR_DATA>
 8004d4c:	2036      	movs	r0, #54	; 0x36
 8004d4e:	f7ff fd17 	bl	8004780 <Lcd_WR_DATA>
 8004d52:	2013      	movs	r0, #19
 8004d54:	f7ff fd14 	bl	8004780 <Lcd_WR_DATA>
 8004d58:	204c      	movs	r0, #76	; 0x4c
 8004d5a:	f7ff fd11 	bl	8004780 <Lcd_WR_DATA>
 8004d5e:	2007      	movs	r0, #7
 8004d60:	f7ff fd0e 	bl	8004780 <Lcd_WR_DATA>
 8004d64:	2013      	movs	r0, #19
 8004d66:	f7ff fd0b 	bl	8004780 <Lcd_WR_DATA>
 8004d6a:	200f      	movs	r0, #15
 8004d6c:	f7ff fd08 	bl	8004780 <Lcd_WR_DATA>
 8004d70:	202e      	movs	r0, #46	; 0x2e
 8004d72:	f7ff fd05 	bl	8004780 <Lcd_WR_DATA>
 8004d76:	202f      	movs	r0, #47	; 0x2f
 8004d78:	f7ff fd02 	bl	8004780 <Lcd_WR_DATA>
 8004d7c:	2005      	movs	r0, #5
 8004d7e:	f7ff fcff 	bl	8004780 <Lcd_WR_DATA>
 8004d82:	202b      	movs	r0, #43	; 0x2b
 8004d84:	f7ff fccc 	bl	8004720 <Lcd_WR_REG>
 8004d88:	2000      	movs	r0, #0
 8004d8a:	f7ff fcf9 	bl	8004780 <Lcd_WR_DATA>
 8004d8e:	2000      	movs	r0, #0
 8004d90:	f7ff fcf6 	bl	8004780 <Lcd_WR_DATA>
 8004d94:	2001      	movs	r0, #1
 8004d96:	f7ff fcf3 	bl	8004780 <Lcd_WR_DATA>
 8004d9a:	203f      	movs	r0, #63	; 0x3f
 8004d9c:	f7ff fcf0 	bl	8004780 <Lcd_WR_DATA>
 8004da0:	202a      	movs	r0, #42	; 0x2a
 8004da2:	f7ff fcbd 	bl	8004720 <Lcd_WR_REG>
 8004da6:	2000      	movs	r0, #0
 8004da8:	f7ff fcea 	bl	8004780 <Lcd_WR_DATA>
 8004dac:	2000      	movs	r0, #0
 8004dae:	f7ff fce7 	bl	8004780 <Lcd_WR_DATA>
 8004db2:	2000      	movs	r0, #0
 8004db4:	f7ff fce4 	bl	8004780 <Lcd_WR_DATA>
 8004db8:	20ef      	movs	r0, #239	; 0xef
 8004dba:	f7ff fce1 	bl	8004780 <Lcd_WR_DATA>
 8004dbe:	2011      	movs	r0, #17
 8004dc0:	f7ff fcae 	bl	8004720 <Lcd_WR_REG>
 8004dc4:	2078      	movs	r0, #120	; 0x78
 8004dc6:	f7ff fba5 	bl	8004514 <_Delay>
 8004dca:	2029      	movs	r0, #41	; 0x29
 8004dcc:	f7ff fca8 	bl	8004720 <Lcd_WR_REG>
 8004dd0:	2003      	movs	r0, #3
 8004dd2:	f7ff fd05 	bl	80047e0 <Lcd_Set_Display_Mode>
 8004dd6:	f7ff fe5d 	bl	8004a94 <Lcd_Clr_Screen>
 8004dda:	f44f 7096 	mov.w	r0, #300	; 0x12c
 8004dde:	f7ff fb99 	bl	8004514 <_Delay>
 8004de2:	f44f 6300 	mov.w	r3, #2048	; 0x800
 8004de6:	f2c4 0301 	movt	r3, #16385	; 0x4001
 8004dea:	f44f 6200 	mov.w	r2, #2048	; 0x800
 8004dee:	f2c4 0201 	movt	r2, #16385	; 0x4001
 8004df2:	68d2      	ldr	r2, [r2, #12]
 8004df4:	f442 6200 	orr.w	r2, r2, #2048	; 0x800
 8004df8:	60da      	str	r2, [r3, #12]
 8004dfa:	bd80      	pop	{r7, pc}

08004dfc <Lcd_Put_Pixel>:
 8004dfc:	b580      	push	{r7, lr}
 8004dfe:	b082      	sub	sp, #8
 8004e00:	af00      	add	r7, sp, #0
 8004e02:	4613      	mov	r3, r2
 8004e04:	4602      	mov	r2, r0
 8004e06:	80fa      	strh	r2, [r7, #6]
 8004e08:	460a      	mov	r2, r1
 8004e0a:	80ba      	strh	r2, [r7, #4]
 8004e0c:	807b      	strh	r3, [r7, #2]
 8004e0e:	88fa      	ldrh	r2, [r7, #6]
 8004e10:	88bb      	ldrh	r3, [r7, #4]
 8004e12:	4610      	mov	r0, r2
 8004e14:	4619      	mov	r1, r3
 8004e16:	f7ff fdc9 	bl	80049ac <Lcd_Set_Cursor>
 8004e1a:	887b      	ldrh	r3, [r7, #2]
 8004e1c:	4618      	mov	r0, r3
 8004e1e:	f7ff fbdf 	bl	80045e0 <Lcd_Write_Data_16Bit>
 8004e22:	3708      	adds	r7, #8
 8004e24:	46bd      	mov	sp, r7
 8004e26:	bd80      	pop	{r7, pc}

08004e28 <LCD_Show_Char>:
 8004e28:	b580      	push	{r7, lr}
 8004e2a:	b084      	sub	sp, #16
 8004e2c:	af00      	add	r7, sp, #0
 8004e2e:	80f8      	strh	r0, [r7, #6]
 8004e30:	80b9      	strh	r1, [r7, #4]
 8004e32:	807a      	strh	r2, [r7, #2]
 8004e34:	803b      	strh	r3, [r7, #0]
 8004e36:	f642 333c 	movw	r3, #11068	; 0x2b3c
 8004e3a:	f2c2 0300 	movt	r3, #8192	; 0x2000
 8004e3e:	881b      	ldrh	r3, [r3, #0]
 8004e40:	817b      	strh	r3, [r7, #10]
 8004e42:	7e3b      	ldrb	r3, [r7, #24]
 8004e44:	3b20      	subs	r3, #32
 8004e46:	763b      	strb	r3, [r7, #24]
 8004e48:	7f3b      	ldrb	r3, [r7, #28]
 8004e4a:	085b      	lsrs	r3, r3, #1
 8004e4c:	b2db      	uxtb	r3, r3
 8004e4e:	461a      	mov	r2, r3
 8004e50:	88fb      	ldrh	r3, [r7, #6]
 8004e52:	4413      	add	r3, r2
 8004e54:	b29b      	uxth	r3, r3
 8004e56:	3b01      	subs	r3, #1
 8004e58:	b29a      	uxth	r2, r3
 8004e5a:	7f3b      	ldrb	r3, [r7, #28]
 8004e5c:	b299      	uxth	r1, r3
 8004e5e:	88bb      	ldrh	r3, [r7, #4]
 8004e60:	440b      	add	r3, r1
 8004e62:	b29b      	uxth	r3, r3
 8004e64:	3b01      	subs	r3, #1
 8004e66:	b29b      	uxth	r3, r3
 8004e68:	88f8      	ldrh	r0, [r7, #6]
 8004e6a:	88b9      	ldrh	r1, [r7, #4]
 8004e6c:	f7ff fd50 	bl	8004910 <Lcd_Set_Windows>
 8004e70:	f897 3020 	ldrb.w	r3, [r7, #32]
 8004e74:	2b00      	cmp	r3, #0
 8004e76:	d14f      	bne.n	8004f18 <LCD_Show_Char+0xf0>
 8004e78:	2300      	movs	r3, #0
 8004e7a:	73bb      	strb	r3, [r7, #14]
 8004e7c:	e046      	b.n	8004f0c <LCD_Show_Char+0xe4>
 8004e7e:	7f3b      	ldrb	r3, [r7, #28]
 8004e80:	2b0c      	cmp	r3, #12
 8004e82:	d111      	bne.n	8004ea8 <LCD_Show_Char+0x80>
 8004e84:	7e39      	ldrb	r1, [r7, #24]
 8004e86:	7bbb      	ldrb	r3, [r7, #14]
 8004e88:	085b      	lsrs	r3, r3, #1
 8004e8a:	b2db      	uxtb	r3, r3
 8004e8c:	4618      	mov	r0, r3
 8004e8e:	f240 728c 	movw	r2, #1932	; 0x78c
 8004e92:	f6c0 0201 	movt	r2, #2049	; 0x801
 8004e96:	460b      	mov	r3, r1
 8004e98:	005b      	lsls	r3, r3, #1
 8004e9a:	440b      	add	r3, r1
 8004e9c:	009b      	lsls	r3, r3, #2
 8004e9e:	4403      	add	r3, r0
 8004ea0:	4413      	add	r3, r2
 8004ea2:	781b      	ldrb	r3, [r3, #0]
 8004ea4:	73fb      	strb	r3, [r7, #15]
 8004ea6:	e00d      	b.n	8004ec4 <LCD_Show_Char+0x9c>
 8004ea8:	7e39      	ldrb	r1, [r7, #24]
 8004eaa:	7bbb      	ldrb	r3, [r7, #14]
 8004eac:	085b      	lsrs	r3, r3, #1
 8004eae:	b2db      	uxtb	r3, r3
 8004eb0:	461a      	mov	r2, r3
 8004eb2:	f640 4300 	movw	r3, #3072	; 0xc00
 8004eb6:	f6c0 0301 	movt	r3, #2049	; 0x801
 8004eba:	0109      	lsls	r1, r1, #4
 8004ebc:	440a      	add	r2, r1
 8004ebe:	4413      	add	r3, r2
 8004ec0:	781b      	ldrb	r3, [r3, #0]
 8004ec2:	73fb      	strb	r3, [r7, #15]
 8004ec4:	2300      	movs	r3, #0
 8004ec6:	737b      	strb	r3, [r7, #13]
 8004ec8:	e019      	b.n	8004efe <LCD_Show_Char+0xd6>
 8004eca:	7bfb      	ldrb	r3, [r7, #15]
 8004ecc:	f003 0301 	and.w	r3, r3, #1
 8004ed0:	2b00      	cmp	r3, #0
 8004ed2:	d004      	beq.n	8004ede <LCD_Show_Char+0xb6>
 8004ed4:	887b      	ldrh	r3, [r7, #2]
 8004ed6:	4618      	mov	r0, r3
 8004ed8:	f7ff fb82 	bl	80045e0 <Lcd_Write_Data_16Bit>
 8004edc:	e003      	b.n	8004ee6 <LCD_Show_Char+0xbe>
 8004ede:	883b      	ldrh	r3, [r7, #0]
 8004ee0:	4618      	mov	r0, r3
 8004ee2:	f7ff fb7d 	bl	80045e0 <Lcd_Write_Data_16Bit>
 8004ee6:	7b7b      	ldrb	r3, [r7, #13]
 8004ee8:	f003 0301 	and.w	r3, r3, #1
 8004eec:	b2db      	uxtb	r3, r3
 8004eee:	2b00      	cmp	r3, #0
 8004ef0:	d002      	beq.n	8004ef8 <LCD_Show_Char+0xd0>
 8004ef2:	7bfb      	ldrb	r3, [r7, #15]
 8004ef4:	085b      	lsrs	r3, r3, #1
 8004ef6:	73fb      	strb	r3, [r7, #15]
 8004ef8:	7b7b      	ldrb	r3, [r7, #13]
 8004efa:	3301      	adds	r3, #1
 8004efc:	737b      	strb	r3, [r7, #13]
 8004efe:	7b7a      	ldrb	r2, [r7, #13]
 8004f00:	7f3b      	ldrb	r3, [r7, #28]
 8004f02:	429a      	cmp	r2, r3
 8004f04:	d3e1      	bcc.n	8004eca <LCD_Show_Char+0xa2>
 8004f06:	7bbb      	ldrb	r3, [r7, #14]
 8004f08:	3301      	adds	r3, #1
 8004f0a:	73bb      	strb	r3, [r7, #14]
 8004f0c:	7bba      	ldrb	r2, [r7, #14]
 8004f0e:	7f3b      	ldrb	r3, [r7, #28]
 8004f10:	005b      	lsls	r3, r3, #1
 8004f12:	429a      	cmp	r2, r3
 8004f14:	dbb3      	blt.n	8004e7e <LCD_Show_Char+0x56>
 8004f16:	e070      	b.n	8004ffa <LCD_Show_Char+0x1d2>
 8004f18:	2300      	movs	r3, #0
 8004f1a:	73bb      	strb	r3, [r7, #14]
 8004f1c:	e068      	b.n	8004ff0 <LCD_Show_Char+0x1c8>
 8004f1e:	7f3b      	ldrb	r3, [r7, #28]
 8004f20:	2b0c      	cmp	r3, #12
 8004f22:	d111      	bne.n	8004f48 <LCD_Show_Char+0x120>
 8004f24:	7e39      	ldrb	r1, [r7, #24]
 8004f26:	7bbb      	ldrb	r3, [r7, #14]
 8004f28:	085b      	lsrs	r3, r3, #1
 8004f2a:	b2db      	uxtb	r3, r3
 8004f2c:	4618      	mov	r0, r3
 8004f2e:	f240 728c 	movw	r2, #1932	; 0x78c
 8004f32:	f6c0 0201 	movt	r2, #2049	; 0x801
 8004f36:	460b      	mov	r3, r1
 8004f38:	005b      	lsls	r3, r3, #1
 8004f3a:	440b      	add	r3, r1
 8004f3c:	009b      	lsls	r3, r3, #2
 8004f3e:	4403      	add	r3, r0
 8004f40:	4413      	add	r3, r2
 8004f42:	781b      	ldrb	r3, [r3, #0]
 8004f44:	73fb      	strb	r3, [r7, #15]
 8004f46:	e00d      	b.n	8004f64 <LCD_Show_Char+0x13c>
 8004f48:	7e39      	ldrb	r1, [r7, #24]
 8004f4a:	7bbb      	ldrb	r3, [r7, #14]
 8004f4c:	085b      	lsrs	r3, r3, #1
 8004f4e:	b2db      	uxtb	r3, r3
 8004f50:	461a      	mov	r2, r3
 8004f52:	f640 4300 	movw	r3, #3072	; 0xc00
 8004f56:	f6c0 0301 	movt	r3, #2049	; 0x801
 8004f5a:	0109      	lsls	r1, r1, #4
 8004f5c:	440a      	add	r2, r1
 8004f5e:	4413      	add	r3, r2
 8004f60:	781b      	ldrb	r3, [r3, #0]
 8004f62:	73fb      	strb	r3, [r7, #15]
 8004f64:	2300      	movs	r3, #0
 8004f66:	737b      	strb	r3, [r7, #13]
 8004f68:	e03b      	b.n	8004fe2 <LCD_Show_Char+0x1ba>
 8004f6a:	f642 333c 	movw	r3, #11068	; 0x2b3c
 8004f6e:	f2c2 0300 	movt	r3, #8192	; 0x2000
 8004f72:	887a      	ldrh	r2, [r7, #2]
 8004f74:	801a      	strh	r2, [r3, #0]
 8004f76:	7bfb      	ldrb	r3, [r7, #15]
 8004f78:	f003 0301 	and.w	r3, r3, #1
 8004f7c:	2b00      	cmp	r3, #0
 8004f7e:	d014      	beq.n	8004faa <LCD_Show_Char+0x182>
 8004f80:	7b7b      	ldrb	r3, [r7, #13]
 8004f82:	b29a      	uxth	r2, r3
 8004f84:	88fb      	ldrh	r3, [r7, #6]
 8004f86:	4413      	add	r3, r2
 8004f88:	b299      	uxth	r1, r3
 8004f8a:	7bbb      	ldrb	r3, [r7, #14]
 8004f8c:	b29a      	uxth	r2, r3
 8004f8e:	88bb      	ldrh	r3, [r7, #4]
 8004f90:	4413      	add	r3, r2
 8004f92:	b29a      	uxth	r2, r3
 8004f94:	f642 333c 	movw	r3, #11068	; 0x2b3c
 8004f98:	f2c2 0300 	movt	r3, #8192	; 0x2000
 8004f9c:	881b      	ldrh	r3, [r3, #0]
 8004f9e:	4608      	mov	r0, r1
 8004fa0:	4611      	mov	r1, r2
 8004fa2:	461a      	mov	r2, r3
 8004fa4:	f7ff ff2a 	bl	8004dfc <Lcd_Put_Pixel>
 8004fa8:	e00f      	b.n	8004fca <LCD_Show_Char+0x1a2>
 8004faa:	7b7b      	ldrb	r3, [r7, #13]
 8004fac:	b29a      	uxth	r2, r3
 8004fae:	88fb      	ldrh	r3, [r7, #6]
 8004fb0:	4413      	add	r3, r2
 8004fb2:	b299      	uxth	r1, r3
 8004fb4:	7bbb      	ldrb	r3, [r7, #14]
 8004fb6:	b29a      	uxth	r2, r3
 8004fb8:	88bb      	ldrh	r3, [r7, #4]
 8004fba:	4413      	add	r3, r2
 8004fbc:	b29a      	uxth	r2, r3
 8004fbe:	883b      	ldrh	r3, [r7, #0]
 8004fc0:	4608      	mov	r0, r1
 8004fc2:	4611      	mov	r1, r2
 8004fc4:	461a      	mov	r2, r3
 8004fc6:	f7ff ff19 	bl	8004dfc <Lcd_Put_Pixel>
 8004fca:	7b7b      	ldrb	r3, [r7, #13]
 8004fcc:	f003 0301 	and.w	r3, r3, #1
 8004fd0:	b2db      	uxtb	r3, r3
 8004fd2:	2b00      	cmp	r3, #0
 8004fd4:	d002      	beq.n	8004fdc <LCD_Show_Char+0x1b4>
 8004fd6:	7bfb      	ldrb	r3, [r7, #15]
 8004fd8:	085b      	lsrs	r3, r3, #1
 8004fda:	73fb      	strb	r3, [r7, #15]
 8004fdc:	7b7b      	ldrb	r3, [r7, #13]
 8004fde:	3301      	adds	r3, #1
 8004fe0:	737b      	strb	r3, [r7, #13]
 8004fe2:	7b7a      	ldrb	r2, [r7, #13]
 8004fe4:	7f3b      	ldrb	r3, [r7, #28]
 8004fe6:	429a      	cmp	r2, r3
 8004fe8:	d3bf      	bcc.n	8004f6a <LCD_Show_Char+0x142>
 8004fea:	7bbb      	ldrb	r3, [r7, #14]
 8004fec:	3301      	adds	r3, #1
 8004fee:	73bb      	strb	r3, [r7, #14]
 8004ff0:	7bba      	ldrb	r2, [r7, #14]
 8004ff2:	7f3b      	ldrb	r3, [r7, #28]
 8004ff4:	005b      	lsls	r3, r3, #1
 8004ff6:	429a      	cmp	r2, r3
 8004ff8:	db91      	blt.n	8004f1e <LCD_Show_Char+0xf6>
 8004ffa:	f642 333c 	movw	r3, #11068	; 0x2b3c
 8004ffe:	f2c2 0300 	movt	r3, #8192	; 0x2000
 8005002:	897a      	ldrh	r2, [r7, #10]
 8005004:	801a      	strh	r2, [r3, #0]
 8005006:	f642 3330 	movw	r3, #11056	; 0x2b30
 800500a:	f2c2 0300 	movt	r3, #8192	; 0x2000
 800500e:	881b      	ldrh	r3, [r3, #0]
 8005010:	3b01      	subs	r3, #1
 8005012:	b29a      	uxth	r2, r3
 8005014:	f642 3330 	movw	r3, #11056	; 0x2b30
 8005018:	f2c2 0300 	movt	r3, #8192	; 0x2000
 800501c:	885b      	ldrh	r3, [r3, #2]
 800501e:	3b01      	subs	r3, #1
 8005020:	b29b      	uxth	r3, r3
 8005022:	2000      	movs	r0, #0
 8005024:	2100      	movs	r1, #0
 8005026:	f7ff fc73 	bl	8004910 <Lcd_Set_Windows>
 800502a:	3710      	adds	r7, #16
 800502c:	46bd      	mov	sp, r7
 800502e:	bd80      	pop	{r7, pc}

08005030 <LCD_Show_String>:
 8005030:	b590      	push	{r4, r7, lr}
 8005032:	b087      	sub	sp, #28
 8005034:	af04      	add	r7, sp, #16
 8005036:	80f8      	strh	r0, [r7, #6]
 8005038:	80b9      	strh	r1, [r7, #4]
 800503a:	807a      	strh	r2, [r7, #2]
 800503c:	803b      	strh	r3, [r7, #0]
 800503e:	e028      	b.n	8005092 <LCD_Show_String+0x62>
 8005040:	88fa      	ldrh	r2, [r7, #6]
 8005042:	f642 3330 	movw	r3, #11056	; 0x2b30
 8005046:	f2c2 0300 	movt	r3, #8192	; 0x2000
 800504a:	881b      	ldrh	r3, [r3, #0]
 800504c:	3b01      	subs	r3, #1
 800504e:	429a      	cmp	r2, r3
 8005050:	dc08      	bgt.n	8005064 <LCD_Show_String+0x34>
 8005052:	88ba      	ldrh	r2, [r7, #4]
 8005054:	f642 3330 	movw	r3, #11056	; 0x2b30
 8005058:	f2c2 0300 	movt	r3, #8192	; 0x2000
 800505c:	885b      	ldrh	r3, [r3, #2]
 800505e:	3b01      	subs	r3, #1
 8005060:	429a      	cmp	r2, r3
 8005062:	dd00      	ble.n	8005066 <LCD_Show_String+0x36>
 8005064:	e01d      	b.n	80050a2 <LCD_Show_String+0x72>
 8005066:	69fb      	ldr	r3, [r7, #28]
 8005068:	781c      	ldrb	r4, [r3, #0]
 800506a:	88f8      	ldrh	r0, [r7, #6]
 800506c:	88b9      	ldrh	r1, [r7, #4]
 800506e:	887a      	ldrh	r2, [r7, #2]
 8005070:	883b      	ldrh	r3, [r7, #0]
 8005072:	9400      	str	r4, [sp, #0]
 8005074:	7e3c      	ldrb	r4, [r7, #24]
 8005076:	9401      	str	r4, [sp, #4]
 8005078:	f897 4020 	ldrb.w	r4, [r7, #32]
 800507c:	9402      	str	r4, [sp, #8]
 800507e:	f7ff fed3 	bl	8004e28 <LCD_Show_Char>
 8005082:	7e3b      	ldrb	r3, [r7, #24]
 8005084:	b29a      	uxth	r2, r3
 8005086:	88fb      	ldrh	r3, [r7, #6]
 8005088:	4413      	add	r3, r2
 800508a:	80fb      	strh	r3, [r7, #6]
 800508c:	69fb      	ldr	r3, [r7, #28]
 800508e:	3301      	adds	r3, #1
 8005090:	61fb      	str	r3, [r7, #28]
 8005092:	69fb      	ldr	r3, [r7, #28]
 8005094:	781b      	ldrb	r3, [r3, #0]
 8005096:	2b7e      	cmp	r3, #126	; 0x7e
 8005098:	d803      	bhi.n	80050a2 <LCD_Show_String+0x72>
 800509a:	69fb      	ldr	r3, [r7, #28]
 800509c:	781b      	ldrb	r3, [r3, #0]
 800509e:	2b1f      	cmp	r3, #31
 80050a0:	d8ce      	bhi.n	8005040 <LCD_Show_String+0x10>
 80050a2:	370c      	adds	r7, #12
 80050a4:	46bd      	mov	sp, r7
 80050a6:	bd90      	pop	{r4, r7, pc}

080050a8 <LED_Init>:
 80050a8:	b480      	push	{r7}
 80050aa:	af00      	add	r7, sp, #0
 80050ac:	f44f 5380 	mov.w	r3, #4096	; 0x1000
 80050b0:	f2c4 0302 	movt	r3, #16386	; 0x4002
 80050b4:	f44f 5280 	mov.w	r2, #4096	; 0x1000
 80050b8:	f2c4 0202 	movt	r2, #16386	; 0x4002
 80050bc:	6992      	ldr	r2, [r2, #24]
 80050be:	f042 0208 	orr.w	r2, r2, #8
 80050c2:	619a      	str	r2, [r3, #24]
 80050c4:	f44f 6340 	mov.w	r3, #3072	; 0xc00
 80050c8:	f2c4 0301 	movt	r3, #16385	; 0x4001
 80050cc:	f44f 6240 	mov.w	r2, #3072	; 0xc00
 80050d0:	f2c4 0201 	movt	r2, #16385	; 0x4001
 80050d4:	6852      	ldr	r2, [r2, #4]
 80050d6:	f022 02ff 	bic.w	r2, r2, #255	; 0xff
 80050da:	f042 0266 	orr.w	r2, r2, #102	; 0x66
 80050de:	605a      	str	r2, [r3, #4]
 80050e0:	f44f 6340 	mov.w	r3, #3072	; 0xc00
 80050e4:	f2c4 0301 	movt	r3, #16385	; 0x4001
 80050e8:	f44f 6240 	mov.w	r2, #3072	; 0xc00
 80050ec:	f2c4 0201 	movt	r2, #16385	; 0x4001
 80050f0:	68d2      	ldr	r2, [r2, #12]
 80050f2:	f442 7240 	orr.w	r2, r2, #768	; 0x300
 80050f6:	60da      	str	r2, [r3, #12]
 80050f8:	46bd      	mov	sp, r7
 80050fa:	f85d 7b04 	ldr.w	r7, [sp], #4
 80050fe:	4770      	bx	lr

08005100 <LED_Display>:
 8005100:	b480      	push	{r7}
 8005102:	b083      	sub	sp, #12
 8005104:	af00      	add	r7, sp, #0
 8005106:	6078      	str	r0, [r7, #4]
 8005108:	f44f 6340 	mov.w	r3, #3072	; 0xc00
 800510c:	f2c4 0301 	movt	r3, #16385	; 0x4001
 8005110:	f44f 6240 	mov.w	r2, #3072	; 0xc00
 8005114:	f2c4 0201 	movt	r2, #16385	; 0x4001
 8005118:	68d2      	ldr	r2, [r2, #12]
 800511a:	f422 7140 	bic.w	r1, r2, #768	; 0x300
 800511e:	687a      	ldr	r2, [r7, #4]
 8005120:	43d2      	mvns	r2, r2
 8005122:	f002 0203 	and.w	r2, r2, #3
 8005126:	0212      	lsls	r2, r2, #8
 8005128:	430a      	orrs	r2, r1
 800512a:	60da      	str	r2, [r3, #12]
 800512c:	370c      	adds	r7, #12
 800512e:	46bd      	mov	sp, r7
 8005130:	f85d 7b04 	ldr.w	r7, [sp], #4
 8005134:	4770      	bx	lr
 8005136:	bf00      	nop

08005138 <LED_All_On>:
 8005138:	b480      	push	{r7}
 800513a:	af00      	add	r7, sp, #0
 800513c:	f44f 6340 	mov.w	r3, #3072	; 0xc00
 8005140:	f2c4 0301 	movt	r3, #16385	; 0x4001
 8005144:	f44f 6240 	mov.w	r2, #3072	; 0xc00
 8005148:	f2c4 0201 	movt	r2, #16385	; 0x4001
 800514c:	68d2      	ldr	r2, [r2, #12]
 800514e:	f422 7240 	bic.w	r2, r2, #768	; 0x300
 8005152:	60da      	str	r2, [r3, #12]
 8005154:	46bd      	mov	sp, r7
 8005156:	f85d 7b04 	ldr.w	r7, [sp], #4
 800515a:	4770      	bx	lr

0800515c <LED_All_Off>:
 800515c:	b480      	push	{r7}
 800515e:	af00      	add	r7, sp, #0
 8005160:	f44f 6340 	mov.w	r3, #3072	; 0xc00
 8005164:	f2c4 0301 	movt	r3, #16385	; 0x4001
 8005168:	f44f 6240 	mov.w	r2, #3072	; 0xc00
 800516c:	f2c4 0201 	movt	r2, #16385	; 0x4001
 8005170:	68d2      	ldr	r2, [r2, #12]
 8005172:	f442 7240 	orr.w	r2, r2, #768	; 0x300
 8005176:	60da      	str	r2, [r3, #12]
 8005178:	46bd      	mov	sp, r7
 800517a:	f85d 7b04 	ldr.w	r7, [sp], #4
 800517e:	4770      	bx	lr

08005180 <LED_0_Toggle>:
 8005180:	b480      	push	{r7}
 8005182:	af00      	add	r7, sp, #0
 8005184:	f44f 6340 	mov.w	r3, #3072	; 0xc00
 8005188:	f2c4 0301 	movt	r3, #16385	; 0x4001
 800518c:	f44f 6240 	mov.w	r2, #3072	; 0xc00
 8005190:	f2c4 0201 	movt	r2, #16385	; 0x4001
 8005194:	68d2      	ldr	r2, [r2, #12]
 8005196:	f482 7280 	eor.w	r2, r2, #256	; 0x100
 800519a:	60da      	str	r2, [r3, #12]
 800519c:	46bd      	mov	sp, r7
 800519e:	f85d 7b04 	ldr.w	r7, [sp], #4
 80051a2:	4770      	bx	lr

080051a4 <LED_1_Toggle>:
 80051a4:	b480      	push	{r7}
 80051a6:	af00      	add	r7, sp, #0
 80051a8:	f44f 6340 	mov.w	r3, #3072	; 0xc00
 80051ac:	f2c4 0301 	movt	r3, #16385	; 0x4001
 80051b0:	f44f 6240 	mov.w	r2, #3072	; 0xc00
 80051b4:	f2c4 0201 	movt	r2, #16385	; 0x4001
 80051b8:	68d2      	ldr	r2, [r2, #12]
 80051ba:	f482 7200 	eor.w	r2, r2, #512	; 0x200
 80051be:	60da      	str	r2, [r3, #12]
 80051c0:	46bd      	mov	sp, r7
 80051c2:	f85d 7b04 	ldr.w	r7, [sp], #4
 80051c6:	4770      	bx	lr

080051c8 <my_tolower>:
 80051c8:	b480      	push	{r7}
 80051ca:	b083      	sub	sp, #12
 80051cc:	af00      	add	r7, sp, #0
 80051ce:	6078      	str	r0, [r7, #4]
 80051d0:	687b      	ldr	r3, [r7, #4]
 80051d2:	2b40      	cmp	r3, #64	; 0x40
 80051d4:	dd05      	ble.n	80051e2 <my_tolower+0x1a>
 80051d6:	687b      	ldr	r3, [r7, #4]
 80051d8:	2b5a      	cmp	r3, #90	; 0x5a
 80051da:	dc02      	bgt.n	80051e2 <my_tolower+0x1a>
 80051dc:	687b      	ldr	r3, [r7, #4]
 80051de:	3320      	adds	r3, #32
 80051e0:	e000      	b.n	80051e4 <my_tolower+0x1c>
 80051e2:	687b      	ldr	r3, [r7, #4]
 80051e4:	4618      	mov	r0, r3
 80051e6:	370c      	adds	r7, #12
 80051e8:	46bd      	mov	sp, r7
 80051ea:	f85d 7b04 	ldr.w	r7, [sp], #4
 80051ee:	4770      	bx	lr

080051f0 <my_strlen>:
 80051f0:	b480      	push	{r7}
 80051f2:	b085      	sub	sp, #20
 80051f4:	af00      	add	r7, sp, #0
 80051f6:	6078      	str	r0, [r7, #4]
 80051f8:	2300      	movs	r3, #0
 80051fa:	60fb      	str	r3, [r7, #12]
 80051fc:	e002      	b.n	8005204 <my_strlen+0x14>
 80051fe:	68fb      	ldr	r3, [r7, #12]
 8005200:	3301      	adds	r3, #1
 8005202:	60fb      	str	r3, [r7, #12]
 8005204:	68fb      	ldr	r3, [r7, #12]
 8005206:	687a      	ldr	r2, [r7, #4]
 8005208:	4413      	add	r3, r2
 800520a:	781b      	ldrb	r3, [r3, #0]
 800520c:	2b00      	cmp	r3, #0
 800520e:	d1f6      	bne.n	80051fe <my_strlen+0xe>
 8005210:	68fb      	ldr	r3, [r7, #12]
 8005212:	4618      	mov	r0, r3
 8005214:	3714      	adds	r7, #20
 8005216:	46bd      	mov	sp, r7
 8005218:	f85d 7b04 	ldr.w	r7, [sp], #4
 800521c:	4770      	bx	lr
 800521e:	bf00      	nop

08005220 <my_tolower_str>:
 8005220:	b590      	push	{r4, r7, lr}
 8005222:	b085      	sub	sp, #20
 8005224:	af00      	add	r7, sp, #0
 8005226:	6078      	str	r0, [r7, #4]
 8005228:	6039      	str	r1, [r7, #0]
 800522a:	6878      	ldr	r0, [r7, #4]
 800522c:	f7ff ffe0 	bl	80051f0 <my_strlen>
 8005230:	60b8      	str	r0, [r7, #8]
 8005232:	2300      	movs	r3, #0
 8005234:	60fb      	str	r3, [r7, #12]
 8005236:	e00f      	b.n	8005258 <my_tolower_str+0x38>
 8005238:	68fb      	ldr	r3, [r7, #12]
 800523a:	683a      	ldr	r2, [r7, #0]
 800523c:	18d4      	adds	r4, r2, r3
 800523e:	68fb      	ldr	r3, [r7, #12]
 8005240:	687a      	ldr	r2, [r7, #4]
 8005242:	4413      	add	r3, r2
 8005244:	781b      	ldrb	r3, [r3, #0]
 8005246:	4618      	mov	r0, r3
 8005248:	f7ff ffbe 	bl	80051c8 <my_tolower>
 800524c:	4603      	mov	r3, r0
 800524e:	b2db      	uxtb	r3, r3
 8005250:	7023      	strb	r3, [r4, #0]
 8005252:	68fb      	ldr	r3, [r7, #12]
 8005254:	3301      	adds	r3, #1
 8005256:	60fb      	str	r3, [r7, #12]
 8005258:	68fa      	ldr	r2, [r7, #12]
 800525a:	68bb      	ldr	r3, [r7, #8]
 800525c:	429a      	cmp	r2, r3
 800525e:	dbeb      	blt.n	8005238 <my_tolower_str+0x18>
 8005260:	68bb      	ldr	r3, [r7, #8]
 8005262:	683a      	ldr	r2, [r7, #0]
 8005264:	4413      	add	r3, r2
 8005266:	2200      	movs	r2, #0
 8005268:	701a      	strb	r2, [r3, #0]
 800526a:	3714      	adds	r7, #20
 800526c:	46bd      	mov	sp, r7
 800526e:	bd90      	pop	{r4, r7, pc}

08005270 <my_strcasecmp>:
 8005270:	b580      	push	{r7, lr}
 8005272:	b084      	sub	sp, #16
 8005274:	af00      	add	r7, sp, #0
 8005276:	6078      	str	r0, [r7, #4]
 8005278:	6039      	str	r1, [r7, #0]
 800527a:	e01b      	b.n	80052b4 <my_strcasecmp+0x44>
 800527c:	687b      	ldr	r3, [r7, #4]
 800527e:	781b      	ldrb	r3, [r3, #0]
 8005280:	4618      	mov	r0, r3
 8005282:	f7ff ffa1 	bl	80051c8 <my_tolower>
 8005286:	4603      	mov	r3, r0
 8005288:	73fb      	strb	r3, [r7, #15]
 800528a:	683b      	ldr	r3, [r7, #0]
 800528c:	781b      	ldrb	r3, [r3, #0]
 800528e:	4618      	mov	r0, r3
 8005290:	f7ff ff9a 	bl	80051c8 <my_tolower>
 8005294:	4603      	mov	r3, r0
 8005296:	73bb      	strb	r3, [r7, #14]
 8005298:	7bfa      	ldrb	r2, [r7, #15]
 800529a:	7bbb      	ldrb	r3, [r7, #14]
 800529c:	429a      	cmp	r2, r3
 800529e:	d003      	beq.n	80052a8 <my_strcasecmp+0x38>
 80052a0:	7bfa      	ldrb	r2, [r7, #15]
 80052a2:	7bbb      	ldrb	r3, [r7, #14]
 80052a4:	1ad3      	subs	r3, r2, r3
 80052a6:	e00e      	b.n	80052c6 <my_strcasecmp+0x56>
 80052a8:	687b      	ldr	r3, [r7, #4]
 80052aa:	3301      	adds	r3, #1
 80052ac:	607b      	str	r3, [r7, #4]
 80052ae:	683b      	ldr	r3, [r7, #0]
 80052b0:	3301      	adds	r3, #1
 80052b2:	603b      	str	r3, [r7, #0]
 80052b4:	687b      	ldr	r3, [r7, #4]
 80052b6:	781b      	ldrb	r3, [r3, #0]
 80052b8:	2b00      	cmp	r3, #0
 80052ba:	d003      	beq.n	80052c4 <my_strcasecmp+0x54>
 80052bc:	683b      	ldr	r3, [r7, #0]
 80052be:	781b      	ldrb	r3, [r3, #0]
 80052c0:	2b00      	cmp	r3, #0
 80052c2:	d1db      	bne.n	800527c <my_strcasecmp+0xc>
 80052c4:	2300      	movs	r3, #0
 80052c6:	4618      	mov	r0, r3
 80052c8:	3710      	adds	r7, #16
 80052ca:	46bd      	mov	sp, r7
 80052cc:	bd80      	pop	{r7, pc}
 80052ce:	bf00      	nop

080052d0 <Task1>:
 80052d0:	b580      	push	{r7, lr}
 80052d2:	b084      	sub	sp, #16
 80052d4:	af00      	add	r7, sp, #0
 80052d6:	6078      	str	r0, [r7, #4]
 80052d8:	2004      	movs	r0, #4
 80052da:	210a      	movs	r1, #10
 80052dc:	f7fe f916 	bl	800350c <OS_Create_Queue>
 80052e0:	4602      	mov	r2, r0
 80052e2:	f642 330c 	movw	r3, #11020	; 0x2b0c
 80052e6:	f2c2 0300 	movt	r3, #8192	; 0x2000
 80052ea:	601a      	str	r2, [r3, #0]
 80052ec:	f04f 33ff 	mov.w	r3, #4294967295
 80052f0:	60bb      	str	r3, [r7, #8]
 80052f2:	f642 330c 	movw	r3, #11020	; 0x2b0c
 80052f6:	f2c2 0300 	movt	r3, #8192	; 0x2000
 80052fa:	681a      	ldr	r2, [r3, #0]
 80052fc:	f107 0308 	add.w	r3, r7, #8
 8005300:	4610      	mov	r0, r2
 8005302:	4619      	mov	r1, r3
 8005304:	2204      	movs	r2, #4
 8005306:	2300      	movs	r3, #0
 8005308:	f7fe fa64 	bl	80037d4 <OS_Signal_Wait>
 800530c:	60f8      	str	r0, [r7, #12]
 800530e:	68fb      	ldr	r3, [r7, #12]
 8005310:	f1b3 3fff 	cmp.w	r3, #4294967295
 8005314:	d106      	bne.n	8005324 <Task1+0x54>
 8005316:	f241 10f0 	movw	r0, #4592	; 0x11f0
 800531a:	f6c0 0001 	movt	r0, #2049	; 0x801
 800531e:	f003 f801 	bl	8008324 <Uart1_Printf_From_Task>
 8005322:	e053      	b.n	80053cc <Task1+0xfc>
 8005324:	68fb      	ldr	r3, [r7, #12]
 8005326:	f113 0f02 	cmn.w	r3, #2
 800532a:	d106      	bne.n	800533a <Task1+0x6a>
 800532c:	f241 2000 	movw	r0, #4608	; 0x1200
 8005330:	f6c0 0001 	movt	r0, #2049	; 0x801
 8005334:	f002 fff6 	bl	8008324 <Uart1_Printf_From_Task>
 8005338:	e048      	b.n	80053cc <Task1+0xfc>
 800533a:	68fb      	ldr	r3, [r7, #12]
 800533c:	f113 0f03 	cmn.w	r3, #3
 8005340:	d106      	bne.n	8005350 <Task1+0x80>
 8005342:	f241 201c 	movw	r0, #4636	; 0x121c
 8005346:	f6c0 0001 	movt	r0, #2049	; 0x801
 800534a:	f002 ffeb 	bl	8008324 <Uart1_Printf_From_Task>
 800534e:	e03d      	b.n	80053cc <Task1+0xfc>
 8005350:	68fb      	ldr	r3, [r7, #12]
 8005352:	f113 0f04 	cmn.w	r3, #4
 8005356:	d106      	bne.n	8005366 <Task1+0x96>
 8005358:	f241 202c 	movw	r0, #4652	; 0x122c
 800535c:	f6c0 0001 	movt	r0, #2049	; 0x801
 8005360:	f002 ffe0 	bl	8008324 <Uart1_Printf_From_Task>
 8005364:	e032      	b.n	80053cc <Task1+0xfc>
 8005366:	68fb      	ldr	r3, [r7, #12]
 8005368:	2b00      	cmp	r3, #0
 800536a:	d12f      	bne.n	80053cc <Task1+0xfc>
 800536c:	f642 2354 	movw	r3, #10836	; 0x2a54
 8005370:	f2c2 0300 	movt	r3, #8192	; 0x2000
 8005374:	f8d3 3094 	ldr.w	r3, [r3, #148]	; 0x94
 8005378:	68ba      	ldr	r2, [r7, #8]
 800537a:	fb02 f303 	mul.w	r3, r2, r3
 800537e:	2b02      	cmp	r3, #2
 8005380:	d018      	beq.n	80053b4 <Task1+0xe4>
 8005382:	f642 2354 	movw	r3, #10836	; 0x2a54
 8005386:	f2c2 0300 	movt	r3, #8192	; 0x2000
 800538a:	f8d3 3094 	ldr.w	r3, [r3, #148]	; 0x94
 800538e:	68ba      	ldr	r2, [r7, #8]
 8005390:	fb02 f303 	mul.w	r3, r2, r3
 8005394:	2b0c      	cmp	r3, #12
 8005396:	d00d      	beq.n	80053b4 <Task1+0xe4>
 8005398:	68bb      	ldr	r3, [r7, #8]
 800539a:	2b00      	cmp	r3, #0
 800539c:	dd0a      	ble.n	80053b4 <Task1+0xe4>
 800539e:	68bb      	ldr	r3, [r7, #8]
 80053a0:	2b04      	cmp	r3, #4
 80053a2:	dc07      	bgt.n	80053b4 <Task1+0xe4>
 80053a4:	68ba      	ldr	r2, [r7, #8]
 80053a6:	f642 2354 	movw	r3, #10836	; 0x2a54
 80053aa:	f2c2 0300 	movt	r3, #8192	; 0x2000
 80053ae:	f8c3 2090 	str.w	r2, [r3, #144]	; 0x90
 80053b2:	e00b      	b.n	80053cc <Task1+0xfc>
 80053b4:	f642 3310 	movw	r3, #11024	; 0x2b10
 80053b8:	f2c2 0300 	movt	r3, #8192	; 0x2000
 80053bc:	681a      	ldr	r2, [r3, #0]
 80053be:	f107 0308 	add.w	r3, r7, #8
 80053c2:	4610      	mov	r0, r2
 80053c4:	4619      	mov	r1, r3
 80053c6:	f7fe faab 	bl	8003920 <OS_Signal_Send>
 80053ca:	e78f      	b.n	80052ec <Task1+0x1c>
 80053cc:	e78e      	b.n	80052ec <Task1+0x1c>
 80053ce:	bf00      	nop

080053d0 <Task2>:
 80053d0:	b580      	push	{r7, lr}
 80053d2:	b08e      	sub	sp, #56	; 0x38
 80053d4:	af04      	add	r7, sp, #16
 80053d6:	6078      	str	r0, [r7, #4]
 80053d8:	2004      	movs	r0, #4
 80053da:	210a      	movs	r1, #10
 80053dc:	f7fe f896 	bl	800350c <OS_Create_Queue>
 80053e0:	4602      	mov	r2, r0
 80053e2:	f642 3310 	movw	r3, #11024	; 0x2b10
 80053e6:	f2c2 0300 	movt	r3, #8192	; 0x2000
 80053ea:	601a      	str	r2, [r3, #0]
 80053ec:	f04f 33ff 	mov.w	r3, #4294967295
 80053f0:	60bb      	str	r3, [r7, #8]
 80053f2:	f642 3310 	movw	r3, #11024	; 0x2b10
 80053f6:	f2c2 0300 	movt	r3, #8192	; 0x2000
 80053fa:	681a      	ldr	r2, [r3, #0]
 80053fc:	f107 0308 	add.w	r3, r7, #8
 8005400:	4610      	mov	r0, r2
 8005402:	4619      	mov	r1, r3
 8005404:	2204      	movs	r2, #4
 8005406:	2300      	movs	r3, #0
 8005408:	f7fe f9e4 	bl	80037d4 <OS_Signal_Wait>
 800540c:	6278      	str	r0, [r7, #36]	; 0x24
 800540e:	6a7b      	ldr	r3, [r7, #36]	; 0x24
 8005410:	f1b3 3fff 	cmp.w	r3, #4294967295
 8005414:	d106      	bne.n	8005424 <Task2+0x54>
 8005416:	f241 10f0 	movw	r0, #4592	; 0x11f0
 800541a:	f6c0 0001 	movt	r0, #2049	; 0x801
 800541e:	f002 ff81 	bl	8008324 <Uart1_Printf_From_Task>
 8005422:	e15c      	b.n	80056de <Task2+0x30e>
 8005424:	6a7b      	ldr	r3, [r7, #36]	; 0x24
 8005426:	f113 0f02 	cmn.w	r3, #2
 800542a:	d106      	bne.n	800543a <Task2+0x6a>
 800542c:	f241 2000 	movw	r0, #4608	; 0x1200
 8005430:	f6c0 0001 	movt	r0, #2049	; 0x801
 8005434:	f002 ff76 	bl	8008324 <Uart1_Printf_From_Task>
 8005438:	e151      	b.n	80056de <Task2+0x30e>
 800543a:	6a7b      	ldr	r3, [r7, #36]	; 0x24
 800543c:	f113 0f03 	cmn.w	r3, #3
 8005440:	d106      	bne.n	8005450 <Task2+0x80>
 8005442:	f241 201c 	movw	r0, #4636	; 0x121c
 8005446:	f6c0 0001 	movt	r0, #2049	; 0x801
 800544a:	f002 ff6b 	bl	8008324 <Uart1_Printf_From_Task>
 800544e:	e146      	b.n	80056de <Task2+0x30e>
 8005450:	6a7b      	ldr	r3, [r7, #36]	; 0x24
 8005452:	f113 0f04 	cmn.w	r3, #4
 8005456:	d106      	bne.n	8005466 <Task2+0x96>
 8005458:	f241 202c 	movw	r0, #4652	; 0x122c
 800545c:	f6c0 0001 	movt	r0, #2049	; 0x801
 8005460:	f002 ff60 	bl	8008324 <Uart1_Printf_From_Task>
 8005464:	e13b      	b.n	80056de <Task2+0x30e>
 8005466:	6a7b      	ldr	r3, [r7, #36]	; 0x24
 8005468:	2b00      	cmp	r3, #0
 800546a:	f040 8138 	bne.w	80056de <Task2+0x30e>
 800546e:	68ba      	ldr	r2, [r7, #8]
 8005470:	f642 3318 	movw	r3, #11032	; 0x2b18
 8005474:	f2c2 0300 	movt	r3, #8192	; 0x2000
 8005478:	681b      	ldr	r3, [r3, #0]
 800547a:	f241 2040 	movw	r0, #4672	; 0x1240
 800547e:	f6c0 0001 	movt	r0, #2049	; 0x801
 8005482:	4611      	mov	r1, r2
 8005484:	461a      	mov	r2, r3
 8005486:	f002 ff4d 	bl	8008324 <Uart1_Printf_From_Task>
 800548a:	68bb      	ldr	r3, [r7, #8]
 800548c:	2b05      	cmp	r3, #5
 800548e:	d144      	bne.n	800551a <Task2+0x14a>
 8005490:	f642 3318 	movw	r3, #11032	; 0x2b18
 8005494:	f2c2 0300 	movt	r3, #8192	; 0x2000
 8005498:	681b      	ldr	r3, [r3, #0]
 800549a:	2b00      	cmp	r3, #0
 800549c:	d13d      	bne.n	800551a <Task2+0x14a>
 800549e:	68ba      	ldr	r2, [r7, #8]
 80054a0:	f642 3318 	movw	r3, #11032	; 0x2b18
 80054a4:	f2c2 0300 	movt	r3, #8192	; 0x2000
 80054a8:	681b      	ldr	r3, [r3, #0]
 80054aa:	f241 2050 	movw	r0, #4688	; 0x1250
 80054ae:	f6c0 0001 	movt	r0, #2049	; 0x801
 80054b2:	4611      	mov	r1, r2
 80054b4:	461a      	mov	r2, r3
 80054b6:	f002 ff35 	bl	8008324 <Uart1_Printf_From_Task>
 80054ba:	2300      	movs	r3, #0
 80054bc:	9300      	str	r3, [sp, #0]
 80054be:	20f0      	movs	r0, #240	; 0xf0
 80054c0:	2187      	movs	r1, #135	; 0x87
 80054c2:	2250      	movs	r2, #80	; 0x50
 80054c4:	2369      	movs	r3, #105	; 0x69
 80054c6:	f7ff faeb 	bl	8004aa0 <Lcd_Draw_Box>
 80054ca:	2001      	movs	r0, #1
 80054cc:	f44f 7116 	mov.w	r1, #600	; 0x258
 80054d0:	f002 fd14 	bl	8007efc <TIM4_Repeat_Interrupt_Enable>
 80054d4:	68ba      	ldr	r2, [r7, #8]
 80054d6:	f642 3318 	movw	r3, #11032	; 0x2b18
 80054da:	f2c2 0300 	movt	r3, #8192	; 0x2000
 80054de:	681b      	ldr	r3, [r3, #0]
 80054e0:	f241 2050 	movw	r0, #4688	; 0x1250
 80054e4:	f6c0 0001 	movt	r0, #2049	; 0x801
 80054e8:	4611      	mov	r1, r2
 80054ea:	461a      	mov	r2, r3
 80054ec:	f002 ff1a 	bl	8008324 <Uart1_Printf_From_Task>
 80054f0:	f642 3318 	movw	r3, #11032	; 0x2b18
 80054f4:	f2c2 0300 	movt	r3, #8192	; 0x2000
 80054f8:	2201      	movs	r2, #1
 80054fa:	601a      	str	r2, [r3, #0]
 80054fc:	68ba      	ldr	r2, [r7, #8]
 80054fe:	f642 3318 	movw	r3, #11032	; 0x2b18
 8005502:	f2c2 0300 	movt	r3, #8192	; 0x2000
 8005506:	681b      	ldr	r3, [r3, #0]
 8005508:	f241 2050 	movw	r0, #4688	; 0x1250
 800550c:	f6c0 0001 	movt	r0, #2049	; 0x801
 8005510:	4611      	mov	r1, r2
 8005512:	461a      	mov	r2, r3
 8005514:	f002 ff06 	bl	8008324 <Uart1_Printf_From_Task>
 8005518:	e0e1      	b.n	80056de <Task2+0x30e>
 800551a:	68bb      	ldr	r3, [r7, #8]
 800551c:	2b05      	cmp	r3, #5
 800551e:	d11a      	bne.n	8005556 <Task2+0x186>
 8005520:	f642 3318 	movw	r3, #11032	; 0x2b18
 8005524:	f2c2 0300 	movt	r3, #8192	; 0x2000
 8005528:	681b      	ldr	r3, [r3, #0]
 800552a:	2b02      	cmp	r3, #2
 800552c:	d113      	bne.n	8005556 <Task2+0x186>
 800552e:	2300      	movs	r3, #0
 8005530:	9300      	str	r3, [sp, #0]
 8005532:	20f0      	movs	r0, #240	; 0xf0
 8005534:	2187      	movs	r1, #135	; 0x87
 8005536:	2250      	movs	r2, #80	; 0x50
 8005538:	2369      	movs	r3, #105	; 0x69
 800553a:	f7ff fab1 	bl	8004aa0 <Lcd_Draw_Box>
 800553e:	2001      	movs	r0, #1
 8005540:	f44f 7116 	mov.w	r1, #600	; 0x258
 8005544:	f002 fcda 	bl	8007efc <TIM4_Repeat_Interrupt_Enable>
 8005548:	f642 3318 	movw	r3, #11032	; 0x2b18
 800554c:	f2c2 0300 	movt	r3, #8192	; 0x2000
 8005550:	2201      	movs	r2, #1
 8005552:	601a      	str	r2, [r3, #0]
 8005554:	e0c3      	b.n	80056de <Task2+0x30e>
 8005556:	68bb      	ldr	r3, [r7, #8]
 8005558:	2b06      	cmp	r3, #6
 800555a:	d148      	bne.n	80055ee <Task2+0x21e>
 800555c:	f642 3318 	movw	r3, #11032	; 0x2b18
 8005560:	f2c2 0300 	movt	r3, #8192	; 0x2000
 8005564:	681b      	ldr	r3, [r3, #0]
 8005566:	2b01      	cmp	r3, #1
 8005568:	d141      	bne.n	80055ee <Task2+0x21e>
 800556a:	f241 235c 	movw	r3, #4700	; 0x125c
 800556e:	f6c0 0301 	movt	r3, #2049	; 0x801
 8005572:	623b      	str	r3, [r7, #32]
 8005574:	f241 2364 	movw	r3, #4708	; 0x1264
 8005578:	f6c0 0301 	movt	r3, #2049	; 0x801
 800557c:	61fb      	str	r3, [r7, #28]
 800557e:	f241 236c 	movw	r3, #4716	; 0x126c
 8005582:	f6c0 0301 	movt	r3, #2049	; 0x801
 8005586:	61bb      	str	r3, [r7, #24]
 8005588:	230c      	movs	r3, #12
 800558a:	9300      	str	r3, [sp, #0]
 800558c:	6a3b      	ldr	r3, [r7, #32]
 800558e:	9301      	str	r3, [sp, #4]
 8005590:	2301      	movs	r3, #1
 8005592:	9302      	str	r3, [sp, #8]
 8005594:	20fc      	movs	r0, #252	; 0xfc
 8005596:	2187      	movs	r1, #135	; 0x87
 8005598:	f44f 62fc 	mov.w	r2, #2016	; 0x7e0
 800559c:	2300      	movs	r3, #0
 800559e:	f7ff fd47 	bl	8005030 <LCD_Show_String>
 80055a2:	230c      	movs	r3, #12
 80055a4:	9300      	str	r3, [sp, #0]
 80055a6:	69fb      	ldr	r3, [r7, #28]
 80055a8:	9301      	str	r3, [sp, #4]
 80055aa:	2301      	movs	r3, #1
 80055ac:	9302      	str	r3, [sp, #8]
 80055ae:	20fc      	movs	r0, #252	; 0xfc
 80055b0:	21a5      	movs	r1, #165	; 0xa5
 80055b2:	f44f 62fc 	mov.w	r2, #2016	; 0x7e0
 80055b6:	2300      	movs	r3, #0
 80055b8:	f7ff fd3a 	bl	8005030 <LCD_Show_String>
 80055bc:	230c      	movs	r3, #12
 80055be:	9300      	str	r3, [sp, #0]
 80055c0:	69bb      	ldr	r3, [r7, #24]
 80055c2:	9301      	str	r3, [sp, #4]
 80055c4:	2301      	movs	r3, #1
 80055c6:	9302      	str	r3, [sp, #8]
 80055c8:	20f5      	movs	r0, #245	; 0xf5
 80055ca:	21c3      	movs	r1, #195	; 0xc3
 80055cc:	f44f 62fc 	mov.w	r2, #2016	; 0x7e0
 80055d0:	2300      	movs	r3, #0
 80055d2:	f7ff fd2d 	bl	8005030 <LCD_Show_String>
 80055d6:	2000      	movs	r0, #0
 80055d8:	f44f 7116 	mov.w	r1, #600	; 0x258
 80055dc:	f002 fc8e 	bl	8007efc <TIM4_Repeat_Interrupt_Enable>
 80055e0:	f642 3318 	movw	r3, #11032	; 0x2b18
 80055e4:	f2c2 0300 	movt	r3, #8192	; 0x2000
 80055e8:	2202      	movs	r2, #2
 80055ea:	601a      	str	r2, [r3, #0]
 80055ec:	e077      	b.n	80056de <Task2+0x30e>
 80055ee:	f642 3318 	movw	r3, #11032	; 0x2b18
 80055f2:	f2c2 0300 	movt	r3, #8192	; 0x2000
 80055f6:	681b      	ldr	r3, [r3, #0]
 80055f8:	2b03      	cmp	r3, #3
 80055fa:	d170      	bne.n	80056de <Task2+0x30e>
 80055fc:	f642 2354 	movw	r3, #10836	; 0x2a54
 8005600:	f2c2 0300 	movt	r3, #8192	; 0x2000
 8005604:	f8d3 209c 	ldr.w	r2, [r3, #156]	; 0x9c
 8005608:	f246 6367 	movw	r3, #26215	; 0x6667
 800560c:	f2c6 6366 	movt	r3, #26214	; 0x6666
 8005610:	fb83 1302 	smull	r1, r3, r3, r2
 8005614:	1099      	asrs	r1, r3, #2
 8005616:	17d3      	asrs	r3, r2, #31
 8005618:	1ac9      	subs	r1, r1, r3
 800561a:	460b      	mov	r3, r1
 800561c:	009b      	lsls	r3, r3, #2
 800561e:	440b      	add	r3, r1
 8005620:	005b      	lsls	r3, r3, #1
 8005622:	1ad3      	subs	r3, r2, r3
 8005624:	617b      	str	r3, [r7, #20]
 8005626:	f642 2354 	movw	r3, #10836	; 0x2a54
 800562a:	f2c2 0300 	movt	r3, #8192	; 0x2000
 800562e:	f8d3 209c 	ldr.w	r2, [r3, #156]	; 0x9c
 8005632:	f246 6367 	movw	r3, #26215	; 0x6667
 8005636:	f2c6 6366 	movt	r3, #26214	; 0x6666
 800563a:	fb83 1302 	smull	r1, r3, r3, r2
 800563e:	1099      	asrs	r1, r3, #2
 8005640:	17d3      	asrs	r3, r2, #31
 8005642:	1acb      	subs	r3, r1, r3
 8005644:	613b      	str	r3, [r7, #16]
 8005646:	f241 2374 	movw	r3, #4724	; 0x1274
 800564a:	f6c0 0301 	movt	r3, #2049	; 0x801
 800564e:	60fb      	str	r3, [r7, #12]
 8005650:	2000      	movs	r0, #0
 8005652:	f44f 7116 	mov.w	r1, #600	; 0x258
 8005656:	f002 fc51 	bl	8007efc <TIM4_Repeat_Interrupt_Enable>
 800565a:	2300      	movs	r3, #0
 800565c:	9300      	str	r3, [sp, #0]
 800565e:	2000      	movs	r0, #0
 8005660:	2100      	movs	r1, #0
 8005662:	f44f 72a0 	mov.w	r2, #320	; 0x140
 8005666:	23f0      	movs	r3, #240	; 0xf0
 8005668:	f7ff fa1a 	bl	8004aa0 <Lcd_Draw_Box>
 800566c:	f64f 330c 	movw	r3, #64268	; 0xfb0c
 8005670:	f6c0 0300 	movt	r3, #2048	; 0x800
 8005674:	9300      	str	r3, [sp, #0]
 8005676:	2028      	movs	r0, #40	; 0x28
 8005678:	2146      	movs	r1, #70	; 0x46
 800567a:	2228      	movs	r2, #40	; 0x28
 800567c:	2328      	movs	r3, #40	; 0x28
 800567e:	f001 ff4f 	bl	8007520 <Lcd_Draw_IMG>
 8005682:	2310      	movs	r3, #16
 8005684:	9300      	str	r3, [sp, #0]
 8005686:	68fb      	ldr	r3, [r7, #12]
 8005688:	9301      	str	r3, [sp, #4]
 800568a:	2301      	movs	r3, #1
 800568c:	9302      	str	r3, [sp, #8]
 800568e:	205a      	movs	r0, #90	; 0x5a
 8005690:	2146      	movs	r1, #70	; 0x46
 8005692:	f44f 62fc 	mov.w	r2, #2016	; 0x7e0
 8005696:	2300      	movs	r3, #0
 8005698:	f7ff fcca 	bl	8005030 <LCD_Show_String>
 800569c:	697b      	ldr	r3, [r7, #20]
 800569e:	b2db      	uxtb	r3, r3
 80056a0:	3330      	adds	r3, #48	; 0x30
 80056a2:	b2db      	uxtb	r3, r3
 80056a4:	9300      	str	r3, [sp, #0]
 80056a6:	2310      	movs	r3, #16
 80056a8:	9301      	str	r3, [sp, #4]
 80056aa:	2301      	movs	r3, #1
 80056ac:	9302      	str	r3, [sp, #8]
 80056ae:	20a0      	movs	r0, #160	; 0xa0
 80056b0:	2178      	movs	r1, #120	; 0x78
 80056b2:	f44f 62fc 	mov.w	r2, #2016	; 0x7e0
 80056b6:	2300      	movs	r3, #0
 80056b8:	f7ff fbb6 	bl	8004e28 <LCD_Show_Char>
 80056bc:	693b      	ldr	r3, [r7, #16]
 80056be:	b2db      	uxtb	r3, r3
 80056c0:	3330      	adds	r3, #48	; 0x30
 80056c2:	b2db      	uxtb	r3, r3
 80056c4:	9300      	str	r3, [sp, #0]
 80056c6:	2310      	movs	r3, #16
 80056c8:	9301      	str	r3, [sp, #4]
 80056ca:	2301      	movs	r3, #1
 80056cc:	9302      	str	r3, [sp, #8]
 80056ce:	208c      	movs	r0, #140	; 0x8c
 80056d0:	2178      	movs	r1, #120	; 0x78
 80056d2:	f44f 62fc 	mov.w	r2, #2016	; 0x7e0
 80056d6:	2300      	movs	r3, #0
 80056d8:	f7ff fba6 	bl	8004e28 <LCD_Show_Char>
 80056dc:	e686      	b.n	80053ec <Task2+0x1c>
 80056de:	e685      	b.n	80053ec <Task2+0x1c>

080056e0 <Task3>:
 80056e0:	b5b0      	push	{r4, r5, r7, lr}
 80056e2:	b0be      	sub	sp, #248	; 0xf8
 80056e4:	af00      	add	r7, sp, #0
 80056e6:	6078      	str	r0, [r7, #4]
 80056e8:	f642 330c 	movw	r3, #11020	; 0x2b0c
 80056ec:	f2c2 0300 	movt	r3, #8192	; 0x2000
 80056f0:	681b      	ldr	r3, [r3, #0]
 80056f2:	f241 2084 	movw	r0, #4740	; 0x1284
 80056f6:	f6c0 0001 	movt	r0, #2049	; 0x801
 80056fa:	4619      	mov	r1, r3
 80056fc:	f002 fde6 	bl	80082cc <Uart1_Printf>
 8005700:	f241 3324 	movw	r3, #4900	; 0x1324
 8005704:	f6c0 0301 	movt	r3, #2049	; 0x801
 8005708:	f107 0494 	add.w	r4, r7, #148	; 0x94
 800570c:	461d      	mov	r5, r3
 800570e:	cd0f      	ldmia	r5!, {r0, r1, r2, r3}
 8005710:	c40f      	stmia	r4!, {r0, r1, r2, r3}
 8005712:	682b      	ldr	r3, [r5, #0]
 8005714:	8023      	strh	r3, [r4, #0]
 8005716:	f107 03a6 	add.w	r3, r7, #166	; 0xa6
 800571a:	2200      	movs	r2, #0
 800571c:	801a      	strh	r2, [r3, #0]
 800571e:	3302      	adds	r3, #2
 8005720:	2200      	movs	r2, #0
 8005722:	801a      	strh	r2, [r3, #0]
 8005724:	3302      	adds	r3, #2
 8005726:	2200      	movs	r2, #0
 8005728:	801a      	strh	r2, [r3, #0]
 800572a:	3302      	adds	r3, #2
 800572c:	2200      	movs	r2, #0
 800572e:	801a      	strh	r2, [r3, #0]
 8005730:	3302      	adds	r3, #2
 8005732:	2200      	movs	r2, #0
 8005734:	801a      	strh	r2, [r3, #0]
 8005736:	3302      	adds	r3, #2
 8005738:	2200      	movs	r2, #0
 800573a:	801a      	strh	r2, [r3, #0]
 800573c:	3302      	adds	r3, #2
 800573e:	2200      	movs	r2, #0
 8005740:	801a      	strh	r2, [r3, #0]
 8005742:	3302      	adds	r3, #2
 8005744:	f241 3244 	movw	r2, #4932	; 0x1344
 8005748:	f6c0 0201 	movt	r2, #2049	; 0x801
 800574c:	f107 0374 	add.w	r3, r7, #116	; 0x74
 8005750:	ca07      	ldmia	r2, {r0, r1, r2}
 8005752:	c303      	stmia	r3!, {r0, r1}
 8005754:	801a      	strh	r2, [r3, #0]
 8005756:	3302      	adds	r3, #2
 8005758:	0c12      	lsrs	r2, r2, #16
 800575a:	701a      	strb	r2, [r3, #0]
 800575c:	f107 027f 	add.w	r2, r7, #127	; 0x7f
 8005760:	2315      	movs	r3, #21
 8005762:	4610      	mov	r0, r2
 8005764:	2100      	movs	r1, #0
 8005766:	461a      	mov	r2, r3
 8005768:	f002 ff26 	bl	80085b8 <memset>
 800576c:	f241 3264 	movw	r2, #4964	; 0x1364
 8005770:	f6c0 0201 	movt	r2, #2049	; 0x801
 8005774:	f107 0354 	add.w	r3, r7, #84	; 0x54
 8005778:	ca07      	ldmia	r2, {r0, r1, r2}
 800577a:	c303      	stmia	r3!, {r0, r1}
 800577c:	801a      	strh	r2, [r3, #0]
 800577e:	3302      	adds	r3, #2
 8005780:	0c12      	lsrs	r2, r2, #16
 8005782:	701a      	strb	r2, [r3, #0]
 8005784:	f107 025f 	add.w	r2, r7, #95	; 0x5f
 8005788:	2315      	movs	r3, #21
 800578a:	4610      	mov	r0, r2
 800578c:	2100      	movs	r1, #0
 800578e:	461a      	mov	r2, r3
 8005790:	f002 ff12 	bl	80085b8 <memset>
 8005794:	f241 3284 	movw	r2, #4996	; 0x1384
 8005798:	f6c0 0201 	movt	r2, #2049	; 0x801
 800579c:	f107 0334 	add.w	r3, r7, #52	; 0x34
 80057a0:	ca07      	ldmia	r2, {r0, r1, r2}
 80057a2:	c303      	stmia	r3!, {r0, r1}
 80057a4:	701a      	strb	r2, [r3, #0]
 80057a6:	f107 023d 	add.w	r2, r7, #61	; 0x3d
 80057aa:	2317      	movs	r3, #23
 80057ac:	4610      	mov	r0, r2
 80057ae:	2100      	movs	r1, #0
 80057b0:	461a      	mov	r2, r3
 80057b2:	f002 ff01 	bl	80085b8 <memset>
 80057b6:	f241 33a4 	movw	r3, #5028	; 0x13a4
 80057ba:	f6c0 0301 	movt	r3, #2049	; 0x801
 80057be:	f107 0414 	add.w	r4, r7, #20
 80057c2:	e893 0007 	ldmia.w	r3, {r0, r1, r2}
 80057c6:	e884 0007 	stmia.w	r4, {r0, r1, r2}
 80057ca:	f107 0320 	add.w	r3, r7, #32
 80057ce:	2200      	movs	r2, #0
 80057d0:	601a      	str	r2, [r3, #0]
 80057d2:	3304      	adds	r3, #4
 80057d4:	2200      	movs	r2, #0
 80057d6:	601a      	str	r2, [r3, #0]
 80057d8:	3304      	adds	r3, #4
 80057da:	2200      	movs	r2, #0
 80057dc:	601a      	str	r2, [r3, #0]
 80057de:	3304      	adds	r3, #4
 80057e0:	2200      	movs	r2, #0
 80057e2:	601a      	str	r2, [r3, #0]
 80057e4:	3304      	adds	r3, #4
 80057e6:	2200      	movs	r2, #0
 80057e8:	601a      	str	r2, [r3, #0]
 80057ea:	3304      	adds	r3, #4
 80057ec:	2020      	movs	r0, #32
 80057ee:	2105      	movs	r1, #5
 80057f0:	f7fd fe8c 	bl	800350c <OS_Create_Queue>
 80057f4:	4602      	mov	r2, r0
 80057f6:	f642 331c 	movw	r3, #11036	; 0x2b1c
 80057fa:	f2c2 0300 	movt	r3, #8192	; 0x2000
 80057fe:	601a      	str	r2, [r3, #0]
 8005800:	f241 32c4 	movw	r2, #5060	; 0x13c4
 8005804:	f6c0 0201 	movt	r2, #2049	; 0x801
 8005808:	f107 0308 	add.w	r3, r7, #8
 800580c:	6810      	ldr	r0, [r2, #0]
 800580e:	6018      	str	r0, [r3, #0]
 8005810:	8891      	ldrh	r1, [r2, #4]
 8005812:	7992      	ldrb	r2, [r2, #6]
 8005814:	8099      	strh	r1, [r3, #4]
 8005816:	719a      	strb	r2, [r3, #6]
 8005818:	f642 331c 	movw	r3, #11036	; 0x2b1c
 800581c:	f2c2 0300 	movt	r3, #8192	; 0x2000
 8005820:	681a      	ldr	r2, [r3, #0]
 8005822:	f107 03d4 	add.w	r3, r7, #212	; 0xd4
 8005826:	4610      	mov	r0, r2
 8005828:	4619      	mov	r1, r3
 800582a:	2220      	movs	r2, #32
 800582c:	f241 3388 	movw	r3, #5000	; 0x1388
 8005830:	f7fd ffd0 	bl	80037d4 <OS_Signal_Wait>
 8005834:	f8c7 00f4 	str.w	r0, [r7, #244]	; 0xf4
 8005838:	f241 20a4 	movw	r0, #4772	; 0x12a4
 800583c:	f6c0 0001 	movt	r0, #2049	; 0x801
 8005840:	f8d7 10f4 	ldr.w	r1, [r7, #244]	; 0xf4
 8005844:	f002 fd42 	bl	80082cc <Uart1_Printf>
 8005848:	f8d7 30f4 	ldr.w	r3, [r7, #244]	; 0xf4
 800584c:	f1b3 3fff 	cmp.w	r3, #4294967295
 8005850:	d106      	bne.n	8005860 <Task3+0x180>
 8005852:	f241 10f0 	movw	r0, #4592	; 0x11f0
 8005856:	f6c0 0001 	movt	r0, #2049	; 0x801
 800585a:	f002 fd63 	bl	8008324 <Uart1_Printf_From_Task>
 800585e:	e0f5      	b.n	8005a4c <Task3+0x36c>
 8005860:	f8d7 30f4 	ldr.w	r3, [r7, #244]	; 0xf4
 8005864:	f113 0f02 	cmn.w	r3, #2
 8005868:	d106      	bne.n	8005878 <Task3+0x198>
 800586a:	f241 2000 	movw	r0, #4608	; 0x1200
 800586e:	f6c0 0001 	movt	r0, #2049	; 0x801
 8005872:	f002 fd57 	bl	8008324 <Uart1_Printf_From_Task>
 8005876:	e0e9      	b.n	8005a4c <Task3+0x36c>
 8005878:	f8d7 30f4 	ldr.w	r3, [r7, #244]	; 0xf4
 800587c:	f113 0f03 	cmn.w	r3, #3
 8005880:	d106      	bne.n	8005890 <Task3+0x1b0>
 8005882:	f241 201c 	movw	r0, #4636	; 0x121c
 8005886:	f6c0 0001 	movt	r0, #2049	; 0x801
 800588a:	f002 fd4b 	bl	8008324 <Uart1_Printf_From_Task>
 800588e:	e0dd      	b.n	8005a4c <Task3+0x36c>
 8005890:	f8d7 30f4 	ldr.w	r3, [r7, #244]	; 0xf4
 8005894:	f113 0f04 	cmn.w	r3, #4
 8005898:	d106      	bne.n	80058a8 <Task3+0x1c8>
 800589a:	f241 202c 	movw	r0, #4652	; 0x122c
 800589e:	f6c0 0001 	movt	r0, #2049	; 0x801
 80058a2:	f002 fd3f 	bl	8008324 <Uart1_Printf_From_Task>
 80058a6:	e0d1      	b.n	8005a4c <Task3+0x36c>
 80058a8:	f8d7 30f4 	ldr.w	r3, [r7, #244]	; 0xf4
 80058ac:	2b00      	cmp	r3, #0
 80058ae:	f040 80cd 	bne.w	8005a4c <Task3+0x36c>
 80058b2:	f107 02d4 	add.w	r2, r7, #212	; 0xd4
 80058b6:	f107 03b4 	add.w	r3, r7, #180	; 0xb4
 80058ba:	4610      	mov	r0, r2
 80058bc:	4619      	mov	r1, r3
 80058be:	f7ff fcaf 	bl	8005220 <my_tolower_str>
 80058c2:	f642 3324 	movw	r3, #11044	; 0x2b24
 80058c6:	f2c2 0300 	movt	r3, #8192	; 0x2000
 80058ca:	681b      	ldr	r3, [r3, #0]
 80058cc:	2b00      	cmp	r3, #0
 80058ce:	d038      	beq.n	8005942 <Task3+0x262>
 80058d0:	f107 02b4 	add.w	r2, r7, #180	; 0xb4
 80058d4:	f107 0308 	add.w	r3, r7, #8
 80058d8:	4610      	mov	r0, r2
 80058da:	4619      	mov	r1, r3
 80058dc:	f7ff fcc8 	bl	8005270 <my_strcasecmp>
 80058e0:	4603      	mov	r3, r0
 80058e2:	2b00      	cmp	r3, #0
 80058e4:	d10b      	bne.n	80058fe <Task3+0x21e>
 80058e6:	f642 3324 	movw	r3, #11044	; 0x2b24
 80058ea:	f2c2 0300 	movt	r3, #8192	; 0x2000
 80058ee:	2200      	movs	r2, #0
 80058f0:	601a      	str	r2, [r3, #0]
 80058f2:	f241 20b8 	movw	r0, #4792	; 0x12b8
 80058f6:	f6c0 0001 	movt	r0, #2049	; 0x801
 80058fa:	f002 fd13 	bl	8008324 <Uart1_Printf_From_Task>
 80058fe:	2301      	movs	r3, #1
 8005900:	613b      	str	r3, [r7, #16]
 8005902:	e01a      	b.n	800593a <Task3+0x25a>
 8005904:	693b      	ldr	r3, [r7, #16]
 8005906:	f107 0208 	add.w	r2, r7, #8
 800590a:	4413      	add	r3, r2
 800590c:	f107 02b4 	add.w	r2, r7, #180	; 0xb4
 8005910:	4610      	mov	r0, r2
 8005912:	4619      	mov	r1, r3
 8005914:	f7ff fcac 	bl	8005270 <my_strcasecmp>
 8005918:	4603      	mov	r3, r0
 800591a:	2b00      	cmp	r3, #0
 800591c:	d10a      	bne.n	8005934 <Task3+0x254>
 800591e:	f642 330c 	movw	r3, #11020	; 0x2b0c
 8005922:	f2c2 0300 	movt	r3, #8192	; 0x2000
 8005926:	681a      	ldr	r2, [r3, #0]
 8005928:	f107 0310 	add.w	r3, r7, #16
 800592c:	4610      	mov	r0, r2
 800592e:	4619      	mov	r1, r3
 8005930:	f7fd fff6 	bl	8003920 <OS_Signal_Send>
 8005934:	693b      	ldr	r3, [r7, #16]
 8005936:	3301      	adds	r3, #1
 8005938:	613b      	str	r3, [r7, #16]
 800593a:	693b      	ldr	r3, [r7, #16]
 800593c:	2b06      	cmp	r3, #6
 800593e:	dde1      	ble.n	8005904 <Task3+0x224>
 8005940:	e76a      	b.n	8005818 <Task3+0x138>
 8005942:	f107 02b4 	add.w	r2, r7, #180	; 0xb4
 8005946:	f107 0394 	add.w	r3, r7, #148	; 0x94
 800594a:	4610      	mov	r0, r2
 800594c:	4619      	mov	r1, r3
 800594e:	f7ff fc8f 	bl	8005270 <my_strcasecmp>
 8005952:	4603      	mov	r3, r0
 8005954:	2b00      	cmp	r3, #0
 8005956:	d10c      	bne.n	8005972 <Task3+0x292>
 8005958:	f642 3320 	movw	r3, #11040	; 0x2b20
 800595c:	f2c2 0300 	movt	r3, #8192	; 0x2000
 8005960:	681b      	ldr	r3, [r3, #0]
 8005962:	f083 0201 	eor.w	r2, r3, #1
 8005966:	f642 3320 	movw	r3, #11040	; 0x2b20
 800596a:	f2c2 0300 	movt	r3, #8192	; 0x2000
 800596e:	601a      	str	r2, [r3, #0]
 8005970:	e06c      	b.n	8005a4c <Task3+0x36c>
 8005972:	f107 02b4 	add.w	r2, r7, #180	; 0xb4
 8005976:	f107 0374 	add.w	r3, r7, #116	; 0x74
 800597a:	4610      	mov	r0, r2
 800597c:	4619      	mov	r1, r3
 800597e:	f7ff fc77 	bl	8005270 <my_strcasecmp>
 8005982:	4603      	mov	r3, r0
 8005984:	2b00      	cmp	r3, #0
 8005986:	d10c      	bne.n	80059a2 <Task3+0x2c2>
 8005988:	f642 3324 	movw	r3, #11044	; 0x2b24
 800598c:	f2c2 0300 	movt	r3, #8192	; 0x2000
 8005990:	2201      	movs	r2, #1
 8005992:	601a      	str	r2, [r3, #0]
 8005994:	f241 20d0 	movw	r0, #4816	; 0x12d0
 8005998:	f6c0 0001 	movt	r0, #2049	; 0x801
 800599c:	f002 fcc2 	bl	8008324 <Uart1_Printf_From_Task>
 80059a0:	e054      	b.n	8005a4c <Task3+0x36c>
 80059a2:	f107 02b4 	add.w	r2, r7, #180	; 0xb4
 80059a6:	f107 0354 	add.w	r3, r7, #84	; 0x54
 80059aa:	4610      	mov	r0, r2
 80059ac:	4619      	mov	r1, r3
 80059ae:	f7ff fc5f 	bl	8005270 <my_strcasecmp>
 80059b2:	4603      	mov	r3, r0
 80059b4:	2b00      	cmp	r3, #0
 80059b6:	d10d      	bne.n	80059d4 <Task3+0x2f4>
 80059b8:	f240 0304 	movw	r3, #4
 80059bc:	f2c2 0300 	movt	r3, #8192	; 0x2000
 80059c0:	f44f 7216 	mov.w	r2, #600	; 0x258
 80059c4:	601a      	str	r2, [r3, #0]
 80059c6:	f241 20e4 	movw	r0, #4836	; 0x12e4
 80059ca:	f6c0 0001 	movt	r0, #2049	; 0x801
 80059ce:	f002 fca9 	bl	8008324 <Uart1_Printf_From_Task>
 80059d2:	e03b      	b.n	8005a4c <Task3+0x36c>
 80059d4:	f107 02b4 	add.w	r2, r7, #180	; 0xb4
 80059d8:	f107 0334 	add.w	r3, r7, #52	; 0x34
 80059dc:	4610      	mov	r0, r2
 80059de:	4619      	mov	r1, r3
 80059e0:	f7ff fc46 	bl	8005270 <my_strcasecmp>
 80059e4:	4603      	mov	r3, r0
 80059e6:	2b00      	cmp	r3, #0
 80059e8:	d10d      	bne.n	8005a06 <Task3+0x326>
 80059ea:	f240 0304 	movw	r3, #4
 80059ee:	f2c2 0300 	movt	r3, #8192	; 0x2000
 80059f2:	f44f 72e1 	mov.w	r2, #450	; 0x1c2
 80059f6:	601a      	str	r2, [r3, #0]
 80059f8:	f241 20e4 	movw	r0, #4836	; 0x12e4
 80059fc:	f6c0 0001 	movt	r0, #2049	; 0x801
 8005a00:	f002 fc90 	bl	8008324 <Uart1_Printf_From_Task>
 8005a04:	e022      	b.n	8005a4c <Task3+0x36c>
 8005a06:	f107 02b4 	add.w	r2, r7, #180	; 0xb4
 8005a0a:	f107 0314 	add.w	r3, r7, #20
 8005a0e:	4610      	mov	r0, r2
 8005a10:	4619      	mov	r1, r3
 8005a12:	f7ff fc2d 	bl	8005270 <my_strcasecmp>
 8005a16:	4603      	mov	r3, r0
 8005a18:	2b00      	cmp	r3, #0
 8005a1a:	d10d      	bne.n	8005a38 <Task3+0x358>
 8005a1c:	f240 0304 	movw	r3, #4
 8005a20:	f2c2 0300 	movt	r3, #8192	; 0x2000
 8005a24:	f44f 7296 	mov.w	r2, #300	; 0x12c
 8005a28:	601a      	str	r2, [r3, #0]
 8005a2a:	f241 20f8 	movw	r0, #4856	; 0x12f8
 8005a2e:	f6c0 0001 	movt	r0, #2049	; 0x801
 8005a32:	f002 fc77 	bl	8008324 <Uart1_Printf_From_Task>
 8005a36:	e009      	b.n	8005a4c <Task3+0x36c>
 8005a38:	f107 03d4 	add.w	r3, r7, #212	; 0xd4
 8005a3c:	f241 300c 	movw	r0, #4876	; 0x130c
 8005a40:	f6c0 0001 	movt	r0, #2049	; 0x801
 8005a44:	4619      	mov	r1, r3
 8005a46:	f002 fc6d 	bl	8008324 <Uart1_Printf_From_Task>
 8005a4a:	e6e5      	b.n	8005818 <Task3+0x138>
 8005a4c:	e6e4      	b.n	8005818 <Task3+0x138>
 8005a4e:	bf00      	nop

08005a50 <Task5>:
 8005a50:	b580      	push	{r7, lr}
 8005a52:	b084      	sub	sp, #16
 8005a54:	af00      	add	r7, sp, #0
 8005a56:	6078      	str	r0, [r7, #4]
 8005a58:	2004      	movs	r0, #4
 8005a5a:	2101      	movs	r1, #1
 8005a5c:	f7fd fd56 	bl	800350c <OS_Create_Queue>
 8005a60:	4602      	mov	r2, r0
 8005a62:	f642 3314 	movw	r3, #11028	; 0x2b14
 8005a66:	f2c2 0300 	movt	r3, #8192	; 0x2000
 8005a6a:	601a      	str	r2, [r3, #0]
 8005a6c:	f04f 33ff 	mov.w	r3, #4294967295
 8005a70:	60bb      	str	r3, [r7, #8]
 8005a72:	f642 3314 	movw	r3, #11028	; 0x2b14
 8005a76:	f2c2 0300 	movt	r3, #8192	; 0x2000
 8005a7a:	681a      	ldr	r2, [r3, #0]
 8005a7c:	f107 0308 	add.w	r3, r7, #8
 8005a80:	4610      	mov	r0, r2
 8005a82:	4619      	mov	r1, r3
 8005a84:	2204      	movs	r2, #4
 8005a86:	2300      	movs	r3, #0
 8005a88:	f7fd fea4 	bl	80037d4 <OS_Signal_Wait>
 8005a8c:	60f8      	str	r0, [r7, #12]
 8005a8e:	68fb      	ldr	r3, [r7, #12]
 8005a90:	f1b3 3fff 	cmp.w	r3, #4294967295
 8005a94:	d106      	bne.n	8005aa4 <Task5+0x54>
 8005a96:	f241 10f0 	movw	r0, #4592	; 0x11f0
 8005a9a:	f6c0 0001 	movt	r0, #2049	; 0x801
 8005a9e:	f002 fc41 	bl	8008324 <Uart1_Printf_From_Task>
 8005aa2:	e02f      	b.n	8005b04 <Task5+0xb4>
 8005aa4:	68fb      	ldr	r3, [r7, #12]
 8005aa6:	f113 0f02 	cmn.w	r3, #2
 8005aaa:	d106      	bne.n	8005aba <Task5+0x6a>
 8005aac:	f241 2000 	movw	r0, #4608	; 0x1200
 8005ab0:	f6c0 0001 	movt	r0, #2049	; 0x801
 8005ab4:	f002 fc36 	bl	8008324 <Uart1_Printf_From_Task>
 8005ab8:	e024      	b.n	8005b04 <Task5+0xb4>
 8005aba:	68fb      	ldr	r3, [r7, #12]
 8005abc:	f113 0f03 	cmn.w	r3, #3
 8005ac0:	d106      	bne.n	8005ad0 <Task5+0x80>
 8005ac2:	f241 201c 	movw	r0, #4636	; 0x121c
 8005ac6:	f6c0 0001 	movt	r0, #2049	; 0x801
 8005aca:	f002 fc2b 	bl	8008324 <Uart1_Printf_From_Task>
 8005ace:	e019      	b.n	8005b04 <Task5+0xb4>
 8005ad0:	68fb      	ldr	r3, [r7, #12]
 8005ad2:	f113 0f04 	cmn.w	r3, #4
 8005ad6:	d106      	bne.n	8005ae6 <Task5+0x96>
 8005ad8:	f241 202c 	movw	r0, #4652	; 0x122c
 8005adc:	f6c0 0001 	movt	r0, #2049	; 0x801
 8005ae0:	f002 fc20 	bl	8008324 <Uart1_Printf_From_Task>
 8005ae4:	e00e      	b.n	8005b04 <Task5+0xb4>
 8005ae6:	68fb      	ldr	r3, [r7, #12]
 8005ae8:	2b00      	cmp	r3, #0
 8005aea:	d10b      	bne.n	8005b04 <Task5+0xb4>
 8005aec:	f642 2354 	movw	r3, #10836	; 0x2a54
 8005af0:	f2c2 0300 	movt	r3, #8192	; 0x2000
 8005af4:	f8d3 3090 	ldr.w	r3, [r3, #144]	; 0x90
 8005af8:	4618      	mov	r0, r3
 8005afa:	f001 fb4d 	bl	8007198 <Move_Snake_Position>
 8005afe:	f001 f8b7 	bl	8006c70 <Lcd_Draw_Snake>
 8005b02:	e7b3      	b.n	8005a6c <Task5+0x1c>
 8005b04:	e7b2      	b.n	8005a6c <Task5+0x1c>
 8005b06:	bf00      	nop

08005b08 <TaskDummy>:
 8005b08:	b580      	push	{r7, lr}
 8005b0a:	b082      	sub	sp, #8
 8005b0c:	af00      	add	r7, sp, #0
 8005b0e:	6078      	str	r0, [r7, #4]
 8005b10:	f640 30b8 	movw	r0, #3000	; 0xbb8
 8005b14:	f7fd ff6a 	bl	80039ec <OS_Block_Current_Task>
 8005b18:	f44f 707a 	mov.w	r0, #1000	; 0x3e8
 8005b1c:	f7fd ff66 	bl	80039ec <OS_Block_Current_Task>
 8005b20:	e7fa      	b.n	8005b18 <TaskDummy+0x10>
 8005b22:	bf00      	nop

08005b24 <Main>:
 8005b24:	b580      	push	{r7, lr}
 8005b26:	af00      	add	r7, sp, #0
 8005b28:	f241 30cc 	movw	r0, #5068	; 0x13cc
 8005b2c:	f6c0 0001 	movt	r0, #2049	; 0x801
 8005b30:	f002 fbcc 	bl	80082cc <Uart1_Printf>
 8005b34:	f7fd fb3e 	bl	80031b4 <OS_Init>
 8005b38:	f241 30dc 	movw	r0, #5084	; 0x13dc
 8005b3c:	f6c0 0001 	movt	r0, #2049	; 0x801
 8005b40:	f002 fbc4 	bl	80082cc <Uart1_Printf>
 8005b44:	f000 fec2 	bl	80068cc <Snake_Init>
 8005b48:	f241 30f0 	movw	r0, #5104	; 0x13f0
 8005b4c:	f6c0 0001 	movt	r0, #2049	; 0x801
 8005b50:	f002 fbbc 	bl	80082cc <Uart1_Printf>
 8005b54:	f245 20d1 	movw	r0, #21201	; 0x52d1
 8005b58:	f6c0 0000 	movt	r0, #2048	; 0x800
 8005b5c:	2100      	movs	r1, #0
 8005b5e:	2205      	movs	r2, #5
 8005b60:	f44f 6380 	mov.w	r3, #1024	; 0x400
 8005b64:	f7fd fc3e 	bl	80033e4 <OS_Create_Task_Simple>
 8005b68:	f245 30d1 	movw	r0, #21457	; 0x53d1
 8005b6c:	f6c0 0000 	movt	r0, #2048	; 0x800
 8005b70:	2100      	movs	r1, #0
 8005b72:	2205      	movs	r2, #5
 8005b74:	f44f 6380 	mov.w	r3, #1024	; 0x400
 8005b78:	f7fd fc34 	bl	80033e4 <OS_Create_Task_Simple>
 8005b7c:	f245 60e1 	movw	r0, #22241	; 0x56e1
 8005b80:	f6c0 0000 	movt	r0, #2048	; 0x800
 8005b84:	2100      	movs	r1, #0
 8005b86:	2205      	movs	r2, #5
 8005b88:	f44f 6380 	mov.w	r3, #1024	; 0x400
 8005b8c:	f7fd fc2a 	bl	80033e4 <OS_Create_Task_Simple>
 8005b90:	f645 2051 	movw	r0, #23121	; 0x5a51
 8005b94:	f6c0 0000 	movt	r0, #2048	; 0x800
 8005b98:	2100      	movs	r1, #0
 8005b9a:	2205      	movs	r2, #5
 8005b9c:	f44f 6380 	mov.w	r3, #1024	; 0x400
 8005ba0:	f7fd fc20 	bl	80033e4 <OS_Create_Task_Simple>
 8005ba4:	f7fd fd12 	bl	80035cc <OS_Scheduler_Start>
 8005ba8:	e7fe      	b.n	8005ba8 <Main+0x84>
 8005baa:	bf00      	nop

08005bac <Mutex_Init>:
 8005bac:	b580      	push	{r7, lr}
 8005bae:	b082      	sub	sp, #8
 8005bb0:	af00      	add	r7, sp, #0
 8005bb2:	f642 7394 	movw	r3, #12180	; 0x2f94
 8005bb6:	f2c2 0300 	movt	r3, #8192	; 0x2000
 8005bba:	681b      	ldr	r3, [r3, #0]
 8005bbc:	2b00      	cmp	r3, #0
 8005bbe:	d000      	beq.n	8005bc2 <Mutex_Init+0x16>
 8005bc0:	e073      	b.n	8005caa <Mutex_Init+0xfe>
 8005bc2:	f44f 70c8 	mov.w	r0, #400	; 0x190
 8005bc6:	f000 f873 	bl	8005cb0 <_Mutex_Get_Buffer>
 8005bca:	6038      	str	r0, [r7, #0]
 8005bcc:	683b      	ldr	r3, [r7, #0]
 8005bce:	2b00      	cmp	r3, #0
 8005bd0:	d100      	bne.n	8005bd4 <Mutex_Init+0x28>
 8005bd2:	e06a      	b.n	8005caa <Mutex_Init+0xfe>
 8005bd4:	2300      	movs	r3, #0
 8005bd6:	607b      	str	r3, [r7, #4]
 8005bd8:	e010      	b.n	8005bfc <Mutex_Init+0x50>
 8005bda:	687a      	ldr	r2, [r7, #4]
 8005bdc:	4613      	mov	r3, r2
 8005bde:	009b      	lsls	r3, r3, #2
 8005be0:	4413      	add	r3, r2
 8005be2:	00db      	lsls	r3, r3, #3
 8005be4:	683a      	ldr	r2, [r7, #0]
 8005be6:	18d1      	adds	r1, r2, r3
 8005be8:	f642 3368 	movw	r3, #11112	; 0x2b68
 8005bec:	f2c2 0300 	movt	r3, #8192	; 0x2000
 8005bf0:	687a      	ldr	r2, [r7, #4]
 8005bf2:	f843 1022 	str.w	r1, [r3, r2, lsl #2]
 8005bf6:	687b      	ldr	r3, [r7, #4]
 8005bf8:	3301      	adds	r3, #1
 8005bfa:	607b      	str	r3, [r7, #4]
 8005bfc:	687b      	ldr	r3, [r7, #4]
 8005bfe:	2b09      	cmp	r3, #9
 8005c00:	ddeb      	ble.n	8005bda <Mutex_Init+0x2e>
 8005c02:	f642 7390 	movw	r3, #12176	; 0x2f90
 8005c06:	f2c2 0300 	movt	r3, #8192	; 0x2000
 8005c0a:	2200      	movs	r2, #0
 8005c0c:	601a      	str	r2, [r3, #0]
 8005c0e:	2300      	movs	r3, #0
 8005c10:	607b      	str	r3, [r7, #4]
 8005c12:	e041      	b.n	8005c98 <Mutex_Init+0xec>
 8005c14:	f642 3368 	movw	r3, #11112	; 0x2b68
 8005c18:	f2c2 0300 	movt	r3, #8192	; 0x2000
 8005c1c:	687a      	ldr	r2, [r7, #4]
 8005c1e:	f853 3022 	ldr.w	r3, [r3, r2, lsl #2]
 8005c22:	2200      	movs	r2, #0
 8005c24:	601a      	str	r2, [r3, #0]
 8005c26:	f642 3368 	movw	r3, #11112	; 0x2b68
 8005c2a:	f2c2 0300 	movt	r3, #8192	; 0x2000
 8005c2e:	687a      	ldr	r2, [r7, #4]
 8005c30:	f853 3022 	ldr.w	r3, [r3, r2, lsl #2]
 8005c34:	2200      	movs	r2, #0
 8005c36:	609a      	str	r2, [r3, #8]
 8005c38:	f642 3368 	movw	r3, #11112	; 0x2b68
 8005c3c:	f2c2 0300 	movt	r3, #8192	; 0x2000
 8005c40:	687a      	ldr	r2, [r7, #4]
 8005c42:	f853 3022 	ldr.w	r3, [r3, r2, lsl #2]
 8005c46:	2200      	movs	r2, #0
 8005c48:	60da      	str	r2, [r3, #12]
 8005c4a:	f642 3368 	movw	r3, #11112	; 0x2b68
 8005c4e:	f2c2 0300 	movt	r3, #8192	; 0x2000
 8005c52:	687a      	ldr	r2, [r7, #4]
 8005c54:	f853 3022 	ldr.w	r3, [r3, r2, lsl #2]
 8005c58:	2200      	movs	r2, #0
 8005c5a:	611a      	str	r2, [r3, #16]
 8005c5c:	f642 3368 	movw	r3, #11112	; 0x2b68
 8005c60:	f2c2 0300 	movt	r3, #8192	; 0x2000
 8005c64:	687a      	ldr	r2, [r7, #4]
 8005c66:	f853 3022 	ldr.w	r3, [r3, r2, lsl #2]
 8005c6a:	2200      	movs	r2, #0
 8005c6c:	615a      	str	r2, [r3, #20]
 8005c6e:	f642 3368 	movw	r3, #11112	; 0x2b68
 8005c72:	f2c2 0300 	movt	r3, #8192	; 0x2000
 8005c76:	687a      	ldr	r2, [r7, #4]
 8005c78:	f853 3022 	ldr.w	r3, [r3, r2, lsl #2]
 8005c7c:	2200      	movs	r2, #0
 8005c7e:	61da      	str	r2, [r3, #28]
 8005c80:	f642 3368 	movw	r3, #11112	; 0x2b68
 8005c84:	f2c2 0300 	movt	r3, #8192	; 0x2000
 8005c88:	687a      	ldr	r2, [r7, #4]
 8005c8a:	f853 3022 	ldr.w	r3, [r3, r2, lsl #2]
 8005c8e:	2200      	movs	r2, #0
 8005c90:	621a      	str	r2, [r3, #32]
 8005c92:	687b      	ldr	r3, [r7, #4]
 8005c94:	3301      	adds	r3, #1
 8005c96:	607b      	str	r3, [r7, #4]
 8005c98:	687b      	ldr	r3, [r7, #4]
 8005c9a:	2b09      	cmp	r3, #9
 8005c9c:	ddba      	ble.n	8005c14 <Mutex_Init+0x68>
 8005c9e:	f642 7394 	movw	r3, #12180	; 0x2f94
 8005ca2:	f2c2 0300 	movt	r3, #8192	; 0x2000
 8005ca6:	2201      	movs	r2, #1
 8005ca8:	601a      	str	r2, [r3, #0]
 8005caa:	3708      	adds	r7, #8
 8005cac:	46bd      	mov	sp, r7
 8005cae:	bd80      	pop	{r7, pc}

08005cb0 <_Mutex_Get_Buffer>:
 8005cb0:	b480      	push	{r7}
 8005cb2:	b083      	sub	sp, #12
 8005cb4:	af00      	add	r7, sp, #0
 8005cb6:	6078      	str	r0, [r7, #4]
 8005cb8:	687b      	ldr	r3, [r7, #4]
 8005cba:	3307      	adds	r3, #7
 8005cbc:	f023 0307 	bic.w	r3, r3, #7
 8005cc0:	607b      	str	r3, [r7, #4]
 8005cc2:	f240 0314 	movw	r3, #20
 8005cc6:	f2c2 0300 	movt	r3, #8192	; 0x2000
 8005cca:	681a      	ldr	r2, [r3, #0]
 8005ccc:	687b      	ldr	r3, [r7, #4]
 8005cce:	425b      	negs	r3, r3
 8005cd0:	441a      	add	r2, r3
 8005cd2:	f240 0318 	movw	r3, #24
 8005cd6:	f2c2 0300 	movt	r3, #8192	; 0x2000
 8005cda:	681b      	ldr	r3, [r3, #0]
 8005cdc:	429a      	cmp	r2, r3
 8005cde:	d201      	bcs.n	8005ce4 <_Mutex_Get_Buffer+0x34>
 8005ce0:	2300      	movs	r3, #0
 8005ce2:	e011      	b.n	8005d08 <_Mutex_Get_Buffer+0x58>
 8005ce4:	f240 0314 	movw	r3, #20
 8005ce8:	f2c2 0300 	movt	r3, #8192	; 0x2000
 8005cec:	681a      	ldr	r2, [r3, #0]
 8005cee:	687b      	ldr	r3, [r7, #4]
 8005cf0:	425b      	negs	r3, r3
 8005cf2:	441a      	add	r2, r3
 8005cf4:	f240 0314 	movw	r3, #20
 8005cf8:	f2c2 0300 	movt	r3, #8192	; 0x2000
 8005cfc:	601a      	str	r2, [r3, #0]
 8005cfe:	f240 0314 	movw	r3, #20
 8005d02:	f2c2 0300 	movt	r3, #8192	; 0x2000
 8005d06:	681b      	ldr	r3, [r3, #0]
 8005d08:	4618      	mov	r0, r3
 8005d0a:	370c      	adds	r7, #12
 8005d0c:	46bd      	mov	sp, r7
 8005d0e:	f85d 7b04 	ldr.w	r7, [sp], #4
 8005d12:	4770      	bx	lr

08005d14 <Create_Mutex>:
 8005d14:	b580      	push	{r7, lr}
 8005d16:	b084      	sub	sp, #16
 8005d18:	af00      	add	r7, sp, #0
 8005d1a:	6078      	str	r0, [r7, #4]
 8005d1c:	2300      	movs	r3, #0
 8005d1e:	60fb      	str	r3, [r7, #12]
 8005d20:	e02f      	b.n	8005d82 <Create_Mutex+0x6e>
 8005d22:	f642 3368 	movw	r3, #11112	; 0x2b68
 8005d26:	f2c2 0300 	movt	r3, #8192	; 0x2000
 8005d2a:	68fa      	ldr	r2, [r7, #12]
 8005d2c:	f853 3022 	ldr.w	r3, [r3, r2, lsl #2]
 8005d30:	681b      	ldr	r3, [r3, #0]
 8005d32:	2b00      	cmp	r3, #0
 8005d34:	d122      	bne.n	8005d7c <Create_Mutex+0x68>
 8005d36:	f642 3368 	movw	r3, #11112	; 0x2b68
 8005d3a:	f2c2 0300 	movt	r3, #8192	; 0x2000
 8005d3e:	68fa      	ldr	r2, [r7, #12]
 8005d40:	f853 3022 	ldr.w	r3, [r3, r2, lsl #2]
 8005d44:	2201      	movs	r2, #1
 8005d46:	601a      	str	r2, [r3, #0]
 8005d48:	f642 3368 	movw	r3, #11112	; 0x2b68
 8005d4c:	f2c2 0300 	movt	r3, #8192	; 0x2000
 8005d50:	68fa      	ldr	r2, [r7, #12]
 8005d52:	f853 3022 	ldr.w	r3, [r3, r2, lsl #2]
 8005d56:	2200      	movs	r2, #0
 8005d58:	609a      	str	r2, [r3, #8]
 8005d5a:	f642 3368 	movw	r3, #11112	; 0x2b68
 8005d5e:	f2c2 0300 	movt	r3, #8192	; 0x2000
 8005d62:	68fa      	ldr	r2, [r7, #12]
 8005d64:	f853 3022 	ldr.w	r3, [r3, r2, lsl #2]
 8005d68:	330c      	adds	r3, #12
 8005d6a:	4618      	mov	r0, r3
 8005d6c:	2104      	movs	r1, #4
 8005d6e:	223c      	movs	r2, #60	; 0x3c
 8005d70:	f04f 33ff 	mov.w	r3, #4294967295
 8005d74:	f000 fc24 	bl	80065c0 <createQueue>
 8005d78:	68fb      	ldr	r3, [r7, #12]
 8005d7a:	e007      	b.n	8005d8c <Create_Mutex+0x78>
 8005d7c:	68fb      	ldr	r3, [r7, #12]
 8005d7e:	3301      	adds	r3, #1
 8005d80:	60fb      	str	r3, [r7, #12]
 8005d82:	68fb      	ldr	r3, [r7, #12]
 8005d84:	2b09      	cmp	r3, #9
 8005d86:	ddcc      	ble.n	8005d22 <Create_Mutex+0xe>
 8005d88:	f04f 33ff 	mov.w	r3, #4294967295
 8005d8c:	4618      	mov	r0, r3
 8005d8e:	3710      	adds	r7, #16
 8005d90:	46bd      	mov	sp, r7
 8005d92:	bd80      	pop	{r7, pc}

08005d94 <Take_Mutex>:
 8005d94:	b580      	push	{r7, lr}
 8005d96:	b084      	sub	sp, #16
 8005d98:	af00      	add	r7, sp, #0
 8005d9a:	6078      	str	r0, [r7, #4]
 8005d9c:	6039      	str	r1, [r7, #0]
 8005d9e:	2030      	movs	r0, #48	; 0x30
 8005da0:	f7fe f846 	bl	8003e30 <__set_BASEPRI>
 8005da4:	687b      	ldr	r3, [r7, #4]
 8005da6:	2b00      	cmp	r3, #0
 8005da8:	db02      	blt.n	8005db0 <Take_Mutex+0x1c>
 8005daa:	687b      	ldr	r3, [r7, #4]
 8005dac:	2b09      	cmp	r3, #9
 8005dae:	dd05      	ble.n	8005dbc <Take_Mutex+0x28>
 8005db0:	2000      	movs	r0, #0
 8005db2:	f7fe f83d 	bl	8003e30 <__set_BASEPRI>
 8005db6:	f06f 0301 	mvn.w	r3, #1
 8005dba:	e0f4      	b.n	8005fa6 <Take_Mutex+0x212>
 8005dbc:	f642 3368 	movw	r3, #11112	; 0x2b68
 8005dc0:	f2c2 0300 	movt	r3, #8192	; 0x2000
 8005dc4:	687a      	ldr	r2, [r7, #4]
 8005dc6:	f853 3022 	ldr.w	r3, [r3, r2, lsl #2]
 8005dca:	689b      	ldr	r3, [r3, #8]
 8005dcc:	2b00      	cmp	r3, #0
 8005dce:	d11b      	bne.n	8005e08 <Take_Mutex+0x74>
 8005dd0:	f642 3368 	movw	r3, #11112	; 0x2b68
 8005dd4:	f2c2 0300 	movt	r3, #8192	; 0x2000
 8005dd8:	687a      	ldr	r2, [r7, #4]
 8005dda:	f853 3022 	ldr.w	r3, [r3, r2, lsl #2]
 8005dde:	2201      	movs	r2, #1
 8005de0:	609a      	str	r2, [r3, #8]
 8005de2:	f642 3368 	movw	r3, #11112	; 0x2b68
 8005de6:	f2c2 0300 	movt	r3, #8192	; 0x2000
 8005dea:	687a      	ldr	r2, [r7, #4]
 8005dec:	f853 2022 	ldr.w	r2, [r3, r2, lsl #2]
 8005df0:	f642 0350 	movw	r3, #10320	; 0x2850
 8005df4:	f2c2 0300 	movt	r3, #8192	; 0x2000
 8005df8:	681b      	ldr	r3, [r3, #0]
 8005dfa:	685b      	ldr	r3, [r3, #4]
 8005dfc:	6053      	str	r3, [r2, #4]
 8005dfe:	2000      	movs	r0, #0
 8005e00:	f7fe f816 	bl	8003e30 <__set_BASEPRI>
 8005e04:	2300      	movs	r3, #0
 8005e06:	e0ce      	b.n	8005fa6 <Take_Mutex+0x212>
 8005e08:	f642 7390 	movw	r3, #12176	; 0x2f90
 8005e0c:	f2c2 0300 	movt	r3, #8192	; 0x2000
 8005e10:	681b      	ldr	r3, [r3, #0]
 8005e12:	2b01      	cmp	r3, #1
 8005e14:	f040 80a9 	bne.w	8005f6a <Take_Mutex+0x1d6>
 8005e18:	683b      	ldr	r3, [r7, #0]
 8005e1a:	2b01      	cmp	r3, #1
 8005e1c:	f040 80a5 	bne.w	8005f6a <Take_Mutex+0x1d6>
 8005e20:	f642 0350 	movw	r3, #10320	; 0x2850
 8005e24:	f2c2 0300 	movt	r3, #8192	; 0x2000
 8005e28:	681b      	ldr	r3, [r3, #0]
 8005e2a:	685b      	ldr	r3, [r3, #4]
 8005e2c:	60fb      	str	r3, [r7, #12]
 8005e2e:	f642 3368 	movw	r3, #11112	; 0x2b68
 8005e32:	f2c2 0300 	movt	r3, #8192	; 0x2000
 8005e36:	687a      	ldr	r2, [r7, #4]
 8005e38:	f853 3022 	ldr.w	r3, [r3, r2, lsl #2]
 8005e3c:	685a      	ldr	r2, [r3, #4]
 8005e3e:	68fb      	ldr	r3, [r7, #12]
 8005e40:	429a      	cmp	r2, r3
 8005e42:	d104      	bne.n	8005e4e <Take_Mutex+0xba>
 8005e44:	2000      	movs	r0, #0
 8005e46:	f7fd fff3 	bl	8003e30 <__set_BASEPRI>
 8005e4a:	2300      	movs	r3, #0
 8005e4c:	e0ab      	b.n	8005fa6 <Take_Mutex+0x212>
 8005e4e:	f642 3368 	movw	r3, #11112	; 0x2b68
 8005e52:	f2c2 0300 	movt	r3, #8192	; 0x2000
 8005e56:	687a      	ldr	r2, [r7, #4]
 8005e58:	f853 3022 	ldr.w	r3, [r3, r2, lsl #2]
 8005e5c:	6859      	ldr	r1, [r3, #4]
 8005e5e:	f240 52e0 	movw	r2, #1504	; 0x5e0
 8005e62:	f2c2 0200 	movt	r2, #8192	; 0x2000
 8005e66:	460b      	mov	r3, r1
 8005e68:	00db      	lsls	r3, r3, #3
 8005e6a:	1a5b      	subs	r3, r3, r1
 8005e6c:	00db      	lsls	r3, r3, #3
 8005e6e:	4413      	add	r3, r2
 8005e70:	3308      	adds	r3, #8
 8005e72:	6818      	ldr	r0, [r3, #0]
 8005e74:	f240 52e0 	movw	r2, #1504	; 0x5e0
 8005e78:	f2c2 0200 	movt	r2, #8192	; 0x2000
 8005e7c:	68f9      	ldr	r1, [r7, #12]
 8005e7e:	460b      	mov	r3, r1
 8005e80:	00db      	lsls	r3, r3, #3
 8005e82:	1a5b      	subs	r3, r3, r1
 8005e84:	00db      	lsls	r3, r3, #3
 8005e86:	4413      	add	r3, r2
 8005e88:	3308      	adds	r3, #8
 8005e8a:	681b      	ldr	r3, [r3, #0]
 8005e8c:	4298      	cmp	r0, r3
 8005e8e:	dd3a      	ble.n	8005f06 <Take_Mutex+0x172>
 8005e90:	f642 3368 	movw	r3, #11112	; 0x2b68
 8005e94:	f2c2 0300 	movt	r3, #8192	; 0x2000
 8005e98:	687a      	ldr	r2, [r7, #4]
 8005e9a:	f853 3022 	ldr.w	r3, [r3, r2, lsl #2]
 8005e9e:	6859      	ldr	r1, [r3, #4]
 8005ea0:	f240 52e0 	movw	r2, #1504	; 0x5e0
 8005ea4:	f2c2 0200 	movt	r2, #8192	; 0x2000
 8005ea8:	68f8      	ldr	r0, [r7, #12]
 8005eaa:	4603      	mov	r3, r0
 8005eac:	00db      	lsls	r3, r3, #3
 8005eae:	1a1b      	subs	r3, r3, r0
 8005eb0:	00db      	lsls	r3, r3, #3
 8005eb2:	4413      	add	r3, r2
 8005eb4:	3308      	adds	r3, #8
 8005eb6:	6818      	ldr	r0, [r3, #0]
 8005eb8:	f240 52e0 	movw	r2, #1504	; 0x5e0
 8005ebc:	f2c2 0200 	movt	r2, #8192	; 0x2000
 8005ec0:	460b      	mov	r3, r1
 8005ec2:	00db      	lsls	r3, r3, #3
 8005ec4:	1a5b      	subs	r3, r3, r1
 8005ec6:	00db      	lsls	r3, r3, #3
 8005ec8:	4413      	add	r3, r2
 8005eca:	3308      	adds	r3, #8
 8005ecc:	6018      	str	r0, [r3, #0]
 8005ece:	f642 3368 	movw	r3, #11112	; 0x2b68
 8005ed2:	f2c2 0300 	movt	r3, #8192	; 0x2000
 8005ed6:	687a      	ldr	r2, [r7, #4]
 8005ed8:	f853 3022 	ldr.w	r3, [r3, r2, lsl #2]
 8005edc:	685a      	ldr	r2, [r3, #4]
 8005ede:	4613      	mov	r3, r2
 8005ee0:	00db      	lsls	r3, r3, #3
 8005ee2:	1a9b      	subs	r3, r3, r2
 8005ee4:	00db      	lsls	r3, r3, #3
 8005ee6:	f240 52e0 	movw	r2, #1504	; 0x5e0
 8005eea:	f2c2 0200 	movt	r2, #8192	; 0x2000
 8005eee:	4413      	add	r3, r2
 8005ef0:	f642 0058 	movw	r0, #10328	; 0x2858
 8005ef4:	f2c2 0000 	movt	r0, #8192	; 0x2000
 8005ef8:	4619      	mov	r1, r3
 8005efa:	f246 12e1 	movw	r2, #25057	; 0x61e1
 8005efe:	f6c0 0200 	movt	r2, #2048	; 0x800
 8005f02:	f000 fb07 	bl	8006514 <pq_update>
 8005f06:	f240 52e0 	movw	r2, #1504	; 0x5e0
 8005f0a:	f2c2 0200 	movt	r2, #8192	; 0x2000
 8005f0e:	68f9      	ldr	r1, [r7, #12]
 8005f10:	460b      	mov	r3, r1
 8005f12:	00db      	lsls	r3, r3, #3
 8005f14:	1a5b      	subs	r3, r3, r1
 8005f16:	00db      	lsls	r3, r3, #3
 8005f18:	4413      	add	r3, r2
 8005f1a:	3308      	adds	r3, #8
 8005f1c:	2201      	movs	r2, #1
 8005f1e:	605a      	str	r2, [r3, #4]
 8005f20:	f240 52e0 	movw	r2, #1504	; 0x5e0
 8005f24:	f2c2 0200 	movt	r2, #8192	; 0x2000
 8005f28:	68f9      	ldr	r1, [r7, #12]
 8005f2a:	460b      	mov	r3, r1
 8005f2c:	00db      	lsls	r3, r3, #3
 8005f2e:	1a5b      	subs	r3, r3, r1
 8005f30:	00db      	lsls	r3, r3, #3
 8005f32:	4413      	add	r3, r2
 8005f34:	3330      	adds	r3, #48	; 0x30
 8005f36:	687a      	ldr	r2, [r7, #4]
 8005f38:	601a      	str	r2, [r3, #0]
 8005f3a:	68fb      	ldr	r3, [r7, #12]
 8005f3c:	60bb      	str	r3, [r7, #8]
 8005f3e:	f642 3368 	movw	r3, #11112	; 0x2b68
 8005f42:	f2c2 0300 	movt	r3, #8192	; 0x2000
 8005f46:	687a      	ldr	r2, [r7, #4]
 8005f48:	f853 3022 	ldr.w	r3, [r3, r2, lsl #2]
 8005f4c:	f103 020c 	add.w	r2, r3, #12
 8005f50:	f107 0308 	add.w	r3, r7, #8
 8005f54:	4610      	mov	r0, r2
 8005f56:	4619      	mov	r1, r3
 8005f58:	f000 fb9e 	bl	8006698 <enqueue>
 8005f5c:	2000      	movs	r0, #0
 8005f5e:	f7fd ff67 	bl	8003e30 <__set_BASEPRI>
 8005f62:	f7fd fdc9 	bl	8003af8 <OS_Pend_Trigger>
 8005f66:	2300      	movs	r3, #0
 8005f68:	e01d      	b.n	8005fa6 <Take_Mutex+0x212>
 8005f6a:	2000      	movs	r0, #0
 8005f6c:	f7fd ff60 	bl	8003e30 <__set_BASEPRI>
 8005f70:	bf00      	nop
 8005f72:	f642 3368 	movw	r3, #11112	; 0x2b68
 8005f76:	f2c2 0300 	movt	r3, #8192	; 0x2000
 8005f7a:	687a      	ldr	r2, [r7, #4]
 8005f7c:	f853 3022 	ldr.w	r3, [r3, r2, lsl #2]
 8005f80:	689b      	ldr	r3, [r3, #8]
 8005f82:	2b01      	cmp	r3, #1
 8005f84:	d0f5      	beq.n	8005f72 <Take_Mutex+0x1de>
 8005f86:	2030      	movs	r0, #48	; 0x30
 8005f88:	f7fd ff52 	bl	8003e30 <__set_BASEPRI>
 8005f8c:	f642 3368 	movw	r3, #11112	; 0x2b68
 8005f90:	f2c2 0300 	movt	r3, #8192	; 0x2000
 8005f94:	687a      	ldr	r2, [r7, #4]
 8005f96:	f853 3022 	ldr.w	r3, [r3, r2, lsl #2]
 8005f9a:	2201      	movs	r2, #1
 8005f9c:	609a      	str	r2, [r3, #8]
 8005f9e:	2000      	movs	r0, #0
 8005fa0:	f7fd ff46 	bl	8003e30 <__set_BASEPRI>
 8005fa4:	2300      	movs	r3, #0
 8005fa6:	4618      	mov	r0, r3
 8005fa8:	3710      	adds	r7, #16
 8005faa:	46bd      	mov	sp, r7
 8005fac:	bd80      	pop	{r7, pc}
 8005fae:	bf00      	nop

08005fb0 <Give_Mutex>:
 8005fb0:	b580      	push	{r7, lr}
 8005fb2:	b084      	sub	sp, #16
 8005fb4:	af00      	add	r7, sp, #0
 8005fb6:	6078      	str	r0, [r7, #4]
 8005fb8:	6039      	str	r1, [r7, #0]
 8005fba:	2030      	movs	r0, #48	; 0x30
 8005fbc:	f7fd ff38 	bl	8003e30 <__set_BASEPRI>
 8005fc0:	687b      	ldr	r3, [r7, #4]
 8005fc2:	2b00      	cmp	r3, #0
 8005fc4:	db02      	blt.n	8005fcc <Give_Mutex+0x1c>
 8005fc6:	687b      	ldr	r3, [r7, #4]
 8005fc8:	2b09      	cmp	r3, #9
 8005fca:	dd03      	ble.n	8005fd4 <Give_Mutex+0x24>
 8005fcc:	2000      	movs	r0, #0
 8005fce:	f7fd ff2f 	bl	8003e30 <__set_BASEPRI>
 8005fd2:	e0bd      	b.n	8006150 <Give_Mutex+0x1a0>
 8005fd4:	683b      	ldr	r3, [r7, #0]
 8005fd6:	2b00      	cmp	r3, #0
 8005fd8:	f000 80ae 	beq.w	8006138 <Give_Mutex+0x188>
 8005fdc:	f642 7390 	movw	r3, #12176	; 0x2f90
 8005fe0:	f2c2 0300 	movt	r3, #8192	; 0x2000
 8005fe4:	681b      	ldr	r3, [r3, #0]
 8005fe6:	2b01      	cmp	r3, #1
 8005fe8:	f040 80a6 	bne.w	8006138 <Give_Mutex+0x188>
 8005fec:	f642 3368 	movw	r3, #11112	; 0x2b68
 8005ff0:	f2c2 0300 	movt	r3, #8192	; 0x2000
 8005ff4:	687a      	ldr	r2, [r7, #4]
 8005ff6:	f853 3022 	ldr.w	r3, [r3, r2, lsl #2]
 8005ffa:	685a      	ldr	r2, [r3, #4]
 8005ffc:	f642 0350 	movw	r3, #10320	; 0x2850
 8006000:	f2c2 0300 	movt	r3, #8192	; 0x2000
 8006004:	681b      	ldr	r3, [r3, #0]
 8006006:	685b      	ldr	r3, [r3, #4]
 8006008:	429a      	cmp	r2, r3
 800600a:	d003      	beq.n	8006014 <Give_Mutex+0x64>
 800600c:	2000      	movs	r0, #0
 800600e:	f7fd ff0f 	bl	8003e30 <__set_BASEPRI>
 8006012:	e09d      	b.n	8006150 <Give_Mutex+0x1a0>
 8006014:	f642 3368 	movw	r3, #11112	; 0x2b68
 8006018:	f2c2 0300 	movt	r3, #8192	; 0x2000
 800601c:	687a      	ldr	r2, [r7, #4]
 800601e:	f853 3022 	ldr.w	r3, [r3, r2, lsl #2]
 8006022:	330c      	adds	r3, #12
 8006024:	4618      	mov	r0, r3
 8006026:	f000 fbb9 	bl	800679c <isEmpty>
 800602a:	4603      	mov	r3, r0
 800602c:	2b00      	cmp	r3, #0
 800602e:	d158      	bne.n	80060e2 <Give_Mutex+0x132>
 8006030:	f642 3368 	movw	r3, #11112	; 0x2b68
 8006034:	f2c2 0300 	movt	r3, #8192	; 0x2000
 8006038:	687a      	ldr	r2, [r7, #4]
 800603a:	f853 3022 	ldr.w	r3, [r3, r2, lsl #2]
 800603e:	f103 020c 	add.w	r2, r3, #12
 8006042:	f107 030c 	add.w	r3, r7, #12
 8006046:	4610      	mov	r0, r2
 8006048:	4619      	mov	r1, r3
 800604a:	f04f 32ff 	mov.w	r2, #4294967295
 800604e:	f000 fb61 	bl	8006714 <dequeue>
 8006052:	68f9      	ldr	r1, [r7, #12]
 8006054:	f240 52e0 	movw	r2, #1504	; 0x5e0
 8006058:	f2c2 0200 	movt	r2, #8192	; 0x2000
 800605c:	460b      	mov	r3, r1
 800605e:	00db      	lsls	r3, r3, #3
 8006060:	1a5b      	subs	r3, r3, r1
 8006062:	00db      	lsls	r3, r3, #3
 8006064:	4413      	add	r3, r2
 8006066:	3308      	adds	r3, #8
 8006068:	2200      	movs	r2, #0
 800606a:	605a      	str	r2, [r3, #4]
 800606c:	68f9      	ldr	r1, [r7, #12]
 800606e:	f240 52e0 	movw	r2, #1504	; 0x5e0
 8006072:	f2c2 0200 	movt	r2, #8192	; 0x2000
 8006076:	460b      	mov	r3, r1
 8006078:	00db      	lsls	r3, r3, #3
 800607a:	1a5b      	subs	r3, r3, r1
 800607c:	00db      	lsls	r3, r3, #3
 800607e:	4413      	add	r3, r2
 8006080:	3330      	adds	r3, #48	; 0x30
 8006082:	f04f 32ff 	mov.w	r2, #4294967295
 8006086:	601a      	str	r2, [r3, #0]
 8006088:	68fa      	ldr	r2, [r7, #12]
 800608a:	4613      	mov	r3, r2
 800608c:	00db      	lsls	r3, r3, #3
 800608e:	1a9b      	subs	r3, r3, r2
 8006090:	00db      	lsls	r3, r3, #3
 8006092:	f240 52e0 	movw	r2, #1504	; 0x5e0
 8006096:	f2c2 0200 	movt	r2, #8192	; 0x2000
 800609a:	4413      	add	r3, r2
 800609c:	f642 0058 	movw	r0, #10328	; 0x2858
 80060a0:	f2c2 0000 	movt	r0, #8192	; 0x2000
 80060a4:	4619      	mov	r1, r3
 80060a6:	f246 12e1 	movw	r2, #25057	; 0x61e1
 80060aa:	f6c0 0200 	movt	r2, #2048	; 0x800
 80060ae:	f000 f983 	bl	80063b8 <pq_push>
 80060b2:	f642 3368 	movw	r3, #11112	; 0x2b68
 80060b6:	f2c2 0300 	movt	r3, #8192	; 0x2000
 80060ba:	687a      	ldr	r2, [r7, #4]
 80060bc:	f853 3022 	ldr.w	r3, [r3, r2, lsl #2]
 80060c0:	2201      	movs	r2, #1
 80060c2:	609a      	str	r2, [r3, #8]
 80060c4:	f642 3368 	movw	r3, #11112	; 0x2b68
 80060c8:	f2c2 0300 	movt	r3, #8192	; 0x2000
 80060cc:	687a      	ldr	r2, [r7, #4]
 80060ce:	f853 3022 	ldr.w	r3, [r3, r2, lsl #2]
 80060d2:	68fa      	ldr	r2, [r7, #12]
 80060d4:	605a      	str	r2, [r3, #4]
 80060d6:	2000      	movs	r0, #0
 80060d8:	f7fd feaa 	bl	8003e30 <__set_BASEPRI>
 80060dc:	f7fd fd0c 	bl	8003af8 <OS_Pend_Trigger>
 80060e0:	e012      	b.n	8006108 <Give_Mutex+0x158>
 80060e2:	f642 3368 	movw	r3, #11112	; 0x2b68
 80060e6:	f2c2 0300 	movt	r3, #8192	; 0x2000
 80060ea:	687a      	ldr	r2, [r7, #4]
 80060ec:	f853 3022 	ldr.w	r3, [r3, r2, lsl #2]
 80060f0:	2200      	movs	r2, #0
 80060f2:	609a      	str	r2, [r3, #8]
 80060f4:	f642 3368 	movw	r3, #11112	; 0x2b68
 80060f8:	f2c2 0300 	movt	r3, #8192	; 0x2000
 80060fc:	687a      	ldr	r2, [r7, #4]
 80060fe:	f853 3022 	ldr.w	r3, [r3, r2, lsl #2]
 8006102:	f04f 32ff 	mov.w	r2, #4294967295
 8006106:	605a      	str	r2, [r3, #4]
 8006108:	2030      	movs	r0, #48	; 0x30
 800610a:	f7fd fe91 	bl	8003e30 <__set_BASEPRI>
 800610e:	f642 0350 	movw	r3, #10320	; 0x2850
 8006112:	f2c2 0300 	movt	r3, #8192	; 0x2000
 8006116:	681b      	ldr	r3, [r3, #0]
 8006118:	f04f 32ff 	mov.w	r2, #4294967295
 800611c:	631a      	str	r2, [r3, #48]	; 0x30
 800611e:	f642 0350 	movw	r3, #10320	; 0x2850
 8006122:	f2c2 0300 	movt	r3, #8192	; 0x2000
 8006126:	681a      	ldr	r2, [r3, #0]
 8006128:	f642 0350 	movw	r3, #10320	; 0x2850
 800612c:	f2c2 0300 	movt	r3, #8192	; 0x2000
 8006130:	681b      	ldr	r3, [r3, #0]
 8006132:	6adb      	ldr	r3, [r3, #44]	; 0x2c
 8006134:	6093      	str	r3, [r2, #8]
 8006136:	e008      	b.n	800614a <Give_Mutex+0x19a>
 8006138:	f642 3368 	movw	r3, #11112	; 0x2b68
 800613c:	f2c2 0300 	movt	r3, #8192	; 0x2000
 8006140:	687a      	ldr	r2, [r7, #4]
 8006142:	f853 3022 	ldr.w	r3, [r3, r2, lsl #2]
 8006146:	2200      	movs	r2, #0
 8006148:	609a      	str	r2, [r3, #8]
 800614a:	2000      	movs	r0, #0
 800614c:	f7fd fe70 	bl	8003e30 <__set_BASEPRI>
 8006150:	3710      	adds	r7, #16
 8006152:	46bd      	mov	sp, r7
 8006154:	bd80      	pop	{r7, pc}
 8006156:	bf00      	nop

08006158 <Set_Mutex_Scheduler_Flag>:
 8006158:	b480      	push	{r7}
 800615a:	af00      	add	r7, sp, #0
 800615c:	f642 7390 	movw	r3, #12176	; 0x2f90
 8006160:	f2c2 0300 	movt	r3, #8192	; 0x2000
 8006164:	2201      	movs	r2, #1
 8006166:	601a      	str	r2, [r3, #0]
 8006168:	46bd      	mov	sp, r7
 800616a:	f85d 7b04 	ldr.w	r7, [sp], #4
 800616e:	4770      	bx	lr

08006170 <pq_init>:
 8006170:	b480      	push	{r7}
 8006172:	b083      	sub	sp, #12
 8006174:	af00      	add	r7, sp, #0
 8006176:	6078      	str	r0, [r7, #4]
 8006178:	687b      	ldr	r3, [r7, #4]
 800617a:	2200      	movs	r2, #0
 800617c:	f8c3 20f4 	str.w	r2, [r3, #244]	; 0xf4
 8006180:	370c      	adds	r7, #12
 8006182:	46bd      	mov	sp, r7
 8006184:	f85d 7b04 	ldr.w	r7, [sp], #4
 8006188:	4770      	bx	lr
 800618a:	bf00      	nop

0800618c <pq_compare_delay>:
 800618c:	b480      	push	{r7}
 800618e:	b083      	sub	sp, #12
 8006190:	af00      	add	r7, sp, #0
 8006192:	6078      	str	r0, [r7, #4]
 8006194:	6039      	str	r1, [r7, #0]
 8006196:	687b      	ldr	r3, [r7, #4]
 8006198:	68db      	ldr	r3, [r3, #12]
 800619a:	2b01      	cmp	r3, #1
 800619c:	d106      	bne.n	80061ac <pq_compare_delay+0x20>
 800619e:	683b      	ldr	r3, [r7, #0]
 80061a0:	68db      	ldr	r3, [r3, #12]
 80061a2:	2b01      	cmp	r3, #1
 80061a4:	d002      	beq.n	80061ac <pq_compare_delay+0x20>
 80061a6:	f04f 33ff 	mov.w	r3, #4294967295
 80061aa:	e012      	b.n	80061d2 <pq_compare_delay+0x46>
 80061ac:	687b      	ldr	r3, [r7, #4]
 80061ae:	68db      	ldr	r3, [r3, #12]
 80061b0:	2b01      	cmp	r3, #1
 80061b2:	d005      	beq.n	80061c0 <pq_compare_delay+0x34>
 80061b4:	683b      	ldr	r3, [r7, #0]
 80061b6:	68db      	ldr	r3, [r3, #12]
 80061b8:	2b01      	cmp	r3, #1
 80061ba:	d101      	bne.n	80061c0 <pq_compare_delay+0x34>
 80061bc:	2301      	movs	r3, #1
 80061be:	e008      	b.n	80061d2 <pq_compare_delay+0x46>
 80061c0:	687b      	ldr	r3, [r7, #4]
 80061c2:	e9d3 2306 	ldrd	r2, r3, [r3, #24]
 80061c6:	4611      	mov	r1, r2
 80061c8:	683b      	ldr	r3, [r7, #0]
 80061ca:	e9d3 2306 	ldrd	r2, r3, [r3, #24]
 80061ce:	4613      	mov	r3, r2
 80061d0:	1acb      	subs	r3, r1, r3
 80061d2:	4618      	mov	r0, r3
 80061d4:	370c      	adds	r7, #12
 80061d6:	46bd      	mov	sp, r7
 80061d8:	f85d 7b04 	ldr.w	r7, [sp], #4
 80061dc:	4770      	bx	lr
 80061de:	bf00      	nop

080061e0 <pq_compare_ready>:
 80061e0:	b480      	push	{r7}
 80061e2:	b083      	sub	sp, #12
 80061e4:	af00      	add	r7, sp, #0
 80061e6:	6078      	str	r0, [r7, #4]
 80061e8:	6039      	str	r1, [r7, #0]
 80061ea:	687b      	ldr	r3, [r7, #4]
 80061ec:	68db      	ldr	r3, [r3, #12]
 80061ee:	2b00      	cmp	r3, #0
 80061f0:	d106      	bne.n	8006200 <pq_compare_ready+0x20>
 80061f2:	683b      	ldr	r3, [r7, #0]
 80061f4:	68db      	ldr	r3, [r3, #12]
 80061f6:	2b00      	cmp	r3, #0
 80061f8:	d002      	beq.n	8006200 <pq_compare_ready+0x20>
 80061fa:	f04f 33ff 	mov.w	r3, #4294967295
 80061fe:	e01e      	b.n	800623e <pq_compare_ready+0x5e>
 8006200:	687b      	ldr	r3, [r7, #4]
 8006202:	68db      	ldr	r3, [r3, #12]
 8006204:	2b00      	cmp	r3, #0
 8006206:	d005      	beq.n	8006214 <pq_compare_ready+0x34>
 8006208:	683b      	ldr	r3, [r7, #0]
 800620a:	68db      	ldr	r3, [r3, #12]
 800620c:	2b00      	cmp	r3, #0
 800620e:	d101      	bne.n	8006214 <pq_compare_ready+0x34>
 8006210:	2301      	movs	r3, #1
 8006212:	e014      	b.n	800623e <pq_compare_ready+0x5e>
 8006214:	687b      	ldr	r3, [r7, #4]
 8006216:	689a      	ldr	r2, [r3, #8]
 8006218:	683b      	ldr	r3, [r7, #0]
 800621a:	689b      	ldr	r3, [r3, #8]
 800621c:	429a      	cmp	r2, r3
 800621e:	d005      	beq.n	800622c <pq_compare_ready+0x4c>
 8006220:	687b      	ldr	r3, [r7, #4]
 8006222:	689a      	ldr	r2, [r3, #8]
 8006224:	683b      	ldr	r3, [r7, #0]
 8006226:	689b      	ldr	r3, [r3, #8]
 8006228:	1ad3      	subs	r3, r2, r3
 800622a:	e008      	b.n	800623e <pq_compare_ready+0x5e>
 800622c:	687b      	ldr	r3, [r7, #4]
 800622e:	e9d3 2304 	ldrd	r2, r3, [r3, #16]
 8006232:	4611      	mov	r1, r2
 8006234:	683b      	ldr	r3, [r7, #0]
 8006236:	e9d3 2304 	ldrd	r2, r3, [r3, #16]
 800623a:	4613      	mov	r3, r2
 800623c:	1acb      	subs	r3, r1, r3
 800623e:	4618      	mov	r0, r3
 8006240:	370c      	adds	r7, #12
 8006242:	46bd      	mov	sp, r7
 8006244:	f85d 7b04 	ldr.w	r7, [sp], #4
 8006248:	4770      	bx	lr
 800624a:	bf00      	nop

0800624c <pq_swap>:
 800624c:	b480      	push	{r7}
 800624e:	b085      	sub	sp, #20
 8006250:	af00      	add	r7, sp, #0
 8006252:	6078      	str	r0, [r7, #4]
 8006254:	6039      	str	r1, [r7, #0]
 8006256:	687b      	ldr	r3, [r7, #4]
 8006258:	681b      	ldr	r3, [r3, #0]
 800625a:	60fb      	str	r3, [r7, #12]
 800625c:	683b      	ldr	r3, [r7, #0]
 800625e:	681a      	ldr	r2, [r3, #0]
 8006260:	687b      	ldr	r3, [r7, #4]
 8006262:	601a      	str	r2, [r3, #0]
 8006264:	683b      	ldr	r3, [r7, #0]
 8006266:	68fa      	ldr	r2, [r7, #12]
 8006268:	601a      	str	r2, [r3, #0]
 800626a:	687b      	ldr	r3, [r7, #4]
 800626c:	681b      	ldr	r3, [r3, #0]
 800626e:	6a1b      	ldr	r3, [r3, #32]
 8006270:	60bb      	str	r3, [r7, #8]
 8006272:	687b      	ldr	r3, [r7, #4]
 8006274:	681b      	ldr	r3, [r3, #0]
 8006276:	683a      	ldr	r2, [r7, #0]
 8006278:	6812      	ldr	r2, [r2, #0]
 800627a:	6a12      	ldr	r2, [r2, #32]
 800627c:	621a      	str	r2, [r3, #32]
 800627e:	683b      	ldr	r3, [r7, #0]
 8006280:	681b      	ldr	r3, [r3, #0]
 8006282:	68ba      	ldr	r2, [r7, #8]
 8006284:	621a      	str	r2, [r3, #32]
 8006286:	3714      	adds	r7, #20
 8006288:	46bd      	mov	sp, r7
 800628a:	f85d 7b04 	ldr.w	r7, [sp], #4
 800628e:	4770      	bx	lr

08006290 <pq_heapify_up>:
 8006290:	b580      	push	{r7, lr}
 8006292:	b084      	sub	sp, #16
 8006294:	af00      	add	r7, sp, #0
 8006296:	60f8      	str	r0, [r7, #12]
 8006298:	60b9      	str	r1, [r7, #8]
 800629a:	607a      	str	r2, [r7, #4]
 800629c:	e015      	b.n	80062ca <pq_heapify_up+0x3a>
 800629e:	68bb      	ldr	r3, [r7, #8]
 80062a0:	009b      	lsls	r3, r3, #2
 80062a2:	68fa      	ldr	r2, [r7, #12]
 80062a4:	441a      	add	r2, r3
 80062a6:	68bb      	ldr	r3, [r7, #8]
 80062a8:	3b01      	subs	r3, #1
 80062aa:	0fd9      	lsrs	r1, r3, #31
 80062ac:	440b      	add	r3, r1
 80062ae:	105b      	asrs	r3, r3, #1
 80062b0:	009b      	lsls	r3, r3, #2
 80062b2:	68f9      	ldr	r1, [r7, #12]
 80062b4:	440b      	add	r3, r1
 80062b6:	4610      	mov	r0, r2
 80062b8:	4619      	mov	r1, r3
 80062ba:	f7ff ffc7 	bl	800624c <pq_swap>
 80062be:	68bb      	ldr	r3, [r7, #8]
 80062c0:	3b01      	subs	r3, #1
 80062c2:	0fda      	lsrs	r2, r3, #31
 80062c4:	4413      	add	r3, r2
 80062c6:	105b      	asrs	r3, r3, #1
 80062c8:	60bb      	str	r3, [r7, #8]
 80062ca:	68bb      	ldr	r3, [r7, #8]
 80062cc:	2b00      	cmp	r3, #0
 80062ce:	dd13      	ble.n	80062f8 <pq_heapify_up+0x68>
 80062d0:	68fb      	ldr	r3, [r7, #12]
 80062d2:	68ba      	ldr	r2, [r7, #8]
 80062d4:	f853 1022 	ldr.w	r1, [r3, r2, lsl #2]
 80062d8:	68bb      	ldr	r3, [r7, #8]
 80062da:	3b01      	subs	r3, #1
 80062dc:	0fda      	lsrs	r2, r3, #31
 80062de:	4413      	add	r3, r2
 80062e0:	105b      	asrs	r3, r3, #1
 80062e2:	461a      	mov	r2, r3
 80062e4:	68fb      	ldr	r3, [r7, #12]
 80062e6:	f853 2022 	ldr.w	r2, [r3, r2, lsl #2]
 80062ea:	687b      	ldr	r3, [r7, #4]
 80062ec:	4608      	mov	r0, r1
 80062ee:	4611      	mov	r1, r2
 80062f0:	4798      	blx	r3
 80062f2:	4603      	mov	r3, r0
 80062f4:	2b00      	cmp	r3, #0
 80062f6:	dbd2      	blt.n	800629e <pq_heapify_up+0xe>
 80062f8:	3710      	adds	r7, #16
 80062fa:	46bd      	mov	sp, r7
 80062fc:	bd80      	pop	{r7, pc}
 80062fe:	bf00      	nop

08006300 <pq_heapify_down>:
 8006300:	b580      	push	{r7, lr}
 8006302:	b088      	sub	sp, #32
 8006304:	af00      	add	r7, sp, #0
 8006306:	60f8      	str	r0, [r7, #12]
 8006308:	60b9      	str	r1, [r7, #8]
 800630a:	607a      	str	r2, [r7, #4]
 800630c:	68fb      	ldr	r3, [r7, #12]
 800630e:	f8d3 30f4 	ldr.w	r3, [r3, #244]	; 0xf4
 8006312:	61bb      	str	r3, [r7, #24]
 8006314:	e046      	b.n	80063a4 <pq_heapify_down+0xa4>
 8006316:	68bb      	ldr	r3, [r7, #8]
 8006318:	61fb      	str	r3, [r7, #28]
 800631a:	68bb      	ldr	r3, [r7, #8]
 800631c:	005b      	lsls	r3, r3, #1
 800631e:	3301      	adds	r3, #1
 8006320:	617b      	str	r3, [r7, #20]
 8006322:	68bb      	ldr	r3, [r7, #8]
 8006324:	3301      	adds	r3, #1
 8006326:	005b      	lsls	r3, r3, #1
 8006328:	613b      	str	r3, [r7, #16]
 800632a:	697a      	ldr	r2, [r7, #20]
 800632c:	69bb      	ldr	r3, [r7, #24]
 800632e:	429a      	cmp	r2, r3
 8006330:	da10      	bge.n	8006354 <pq_heapify_down+0x54>
 8006332:	68fb      	ldr	r3, [r7, #12]
 8006334:	697a      	ldr	r2, [r7, #20]
 8006336:	f853 1022 	ldr.w	r1, [r3, r2, lsl #2]
 800633a:	68fb      	ldr	r3, [r7, #12]
 800633c:	69fa      	ldr	r2, [r7, #28]
 800633e:	f853 2022 	ldr.w	r2, [r3, r2, lsl #2]
 8006342:	687b      	ldr	r3, [r7, #4]
 8006344:	4608      	mov	r0, r1
 8006346:	4611      	mov	r1, r2
 8006348:	4798      	blx	r3
 800634a:	4603      	mov	r3, r0
 800634c:	2b00      	cmp	r3, #0
 800634e:	da01      	bge.n	8006354 <pq_heapify_down+0x54>
 8006350:	697b      	ldr	r3, [r7, #20]
 8006352:	61fb      	str	r3, [r7, #28]
 8006354:	693a      	ldr	r2, [r7, #16]
 8006356:	69bb      	ldr	r3, [r7, #24]
 8006358:	429a      	cmp	r2, r3
 800635a:	da10      	bge.n	800637e <pq_heapify_down+0x7e>
 800635c:	68fb      	ldr	r3, [r7, #12]
 800635e:	693a      	ldr	r2, [r7, #16]
 8006360:	f853 1022 	ldr.w	r1, [r3, r2, lsl #2]
 8006364:	68fb      	ldr	r3, [r7, #12]
 8006366:	69fa      	ldr	r2, [r7, #28]
 8006368:	f853 2022 	ldr.w	r2, [r3, r2, lsl #2]
 800636c:	687b      	ldr	r3, [r7, #4]
 800636e:	4608      	mov	r0, r1
 8006370:	4611      	mov	r1, r2
 8006372:	4798      	blx	r3
 8006374:	4603      	mov	r3, r0
 8006376:	2b00      	cmp	r3, #0
 8006378:	da01      	bge.n	800637e <pq_heapify_down+0x7e>
 800637a:	693b      	ldr	r3, [r7, #16]
 800637c:	61fb      	str	r3, [r7, #28]
 800637e:	69fa      	ldr	r2, [r7, #28]
 8006380:	68bb      	ldr	r3, [r7, #8]
 8006382:	429a      	cmp	r2, r3
 8006384:	d100      	bne.n	8006388 <pq_heapify_down+0x88>
 8006386:	e013      	b.n	80063b0 <pq_heapify_down+0xb0>
 8006388:	68bb      	ldr	r3, [r7, #8]
 800638a:	009b      	lsls	r3, r3, #2
 800638c:	68fa      	ldr	r2, [r7, #12]
 800638e:	441a      	add	r2, r3
 8006390:	69fb      	ldr	r3, [r7, #28]
 8006392:	009b      	lsls	r3, r3, #2
 8006394:	68f9      	ldr	r1, [r7, #12]
 8006396:	440b      	add	r3, r1
 8006398:	4610      	mov	r0, r2
 800639a:	4619      	mov	r1, r3
 800639c:	f7ff ff56 	bl	800624c <pq_swap>
 80063a0:	69fb      	ldr	r3, [r7, #28]
 80063a2:	60bb      	str	r3, [r7, #8]
 80063a4:	68bb      	ldr	r3, [r7, #8]
 80063a6:	005b      	lsls	r3, r3, #1
 80063a8:	1c5a      	adds	r2, r3, #1
 80063aa:	69bb      	ldr	r3, [r7, #24]
 80063ac:	429a      	cmp	r2, r3
 80063ae:	dbb2      	blt.n	8006316 <pq_heapify_down+0x16>
 80063b0:	3720      	adds	r7, #32
 80063b2:	46bd      	mov	sp, r7
 80063b4:	bd80      	pop	{r7, pc}
 80063b6:	bf00      	nop

080063b8 <pq_push>:
 80063b8:	b580      	push	{r7, lr}
 80063ba:	b084      	sub	sp, #16
 80063bc:	af00      	add	r7, sp, #0
 80063be:	60f8      	str	r0, [r7, #12]
 80063c0:	60b9      	str	r1, [r7, #8]
 80063c2:	607a      	str	r2, [r7, #4]
 80063c4:	68fb      	ldr	r3, [r7, #12]
 80063c6:	f8d3 30f4 	ldr.w	r3, [r3, #244]	; 0xf4
 80063ca:	2b3c      	cmp	r3, #60	; 0x3c
 80063cc:	dd00      	ble.n	80063d0 <pq_push+0x18>
 80063ce:	e019      	b.n	8006404 <pq_push+0x4c>
 80063d0:	68fb      	ldr	r3, [r7, #12]
 80063d2:	f8d3 20f4 	ldr.w	r2, [r3, #244]	; 0xf4
 80063d6:	68fb      	ldr	r3, [r7, #12]
 80063d8:	68b9      	ldr	r1, [r7, #8]
 80063da:	f843 1022 	str.w	r1, [r3, r2, lsl #2]
 80063de:	68fb      	ldr	r3, [r7, #12]
 80063e0:	f8d3 20f4 	ldr.w	r2, [r3, #244]	; 0xf4
 80063e4:	68bb      	ldr	r3, [r7, #8]
 80063e6:	621a      	str	r2, [r3, #32]
 80063e8:	68fb      	ldr	r3, [r7, #12]
 80063ea:	f8d3 30f4 	ldr.w	r3, [r3, #244]	; 0xf4
 80063ee:	1c5a      	adds	r2, r3, #1
 80063f0:	68fb      	ldr	r3, [r7, #12]
 80063f2:	f8c3 20f4 	str.w	r2, [r3, #244]	; 0xf4
 80063f6:	68bb      	ldr	r3, [r7, #8]
 80063f8:	6a1b      	ldr	r3, [r3, #32]
 80063fa:	68f8      	ldr	r0, [r7, #12]
 80063fc:	4619      	mov	r1, r3
 80063fe:	687a      	ldr	r2, [r7, #4]
 8006400:	f7ff ff46 	bl	8006290 <pq_heapify_up>
 8006404:	3710      	adds	r7, #16
 8006406:	46bd      	mov	sp, r7
 8006408:	bd80      	pop	{r7, pc}
 800640a:	bf00      	nop

0800640c <pq_pop>:
 800640c:	b580      	push	{r7, lr}
 800640e:	b084      	sub	sp, #16
 8006410:	af00      	add	r7, sp, #0
 8006412:	6078      	str	r0, [r7, #4]
 8006414:	6039      	str	r1, [r7, #0]
 8006416:	687b      	ldr	r3, [r7, #4]
 8006418:	f8d3 30f4 	ldr.w	r3, [r3, #244]	; 0xf4
 800641c:	2b00      	cmp	r3, #0
 800641e:	d101      	bne.n	8006424 <pq_pop+0x18>
 8006420:	2300      	movs	r3, #0
 8006422:	e020      	b.n	8006466 <pq_pop+0x5a>
 8006424:	687b      	ldr	r3, [r7, #4]
 8006426:	681b      	ldr	r3, [r3, #0]
 8006428:	60fb      	str	r3, [r7, #12]
 800642a:	687b      	ldr	r3, [r7, #4]
 800642c:	f8d3 30f4 	ldr.w	r3, [r3, #244]	; 0xf4
 8006430:	1e5a      	subs	r2, r3, #1
 8006432:	687b      	ldr	r3, [r7, #4]
 8006434:	f853 2022 	ldr.w	r2, [r3, r2, lsl #2]
 8006438:	687b      	ldr	r3, [r7, #4]
 800643a:	601a      	str	r2, [r3, #0]
 800643c:	687b      	ldr	r3, [r7, #4]
 800643e:	681b      	ldr	r3, [r3, #0]
 8006440:	2200      	movs	r2, #0
 8006442:	621a      	str	r2, [r3, #32]
 8006444:	687b      	ldr	r3, [r7, #4]
 8006446:	f8d3 30f4 	ldr.w	r3, [r3, #244]	; 0xf4
 800644a:	1e5a      	subs	r2, r3, #1
 800644c:	687b      	ldr	r3, [r7, #4]
 800644e:	f8c3 20f4 	str.w	r2, [r3, #244]	; 0xf4
 8006452:	6878      	ldr	r0, [r7, #4]
 8006454:	2100      	movs	r1, #0
 8006456:	683a      	ldr	r2, [r7, #0]
 8006458:	f7ff ff52 	bl	8006300 <pq_heapify_down>
 800645c:	68fb      	ldr	r3, [r7, #12]
 800645e:	f04f 32ff 	mov.w	r2, #4294967295
 8006462:	621a      	str	r2, [r3, #32]
 8006464:	68fb      	ldr	r3, [r7, #12]
 8006466:	4618      	mov	r0, r3
 8006468:	3710      	adds	r7, #16
 800646a:	46bd      	mov	sp, r7
 800646c:	bd80      	pop	{r7, pc}
 800646e:	bf00      	nop

08006470 <pq_top>:
 8006470:	b480      	push	{r7}
 8006472:	b083      	sub	sp, #12
 8006474:	af00      	add	r7, sp, #0
 8006476:	6078      	str	r0, [r7, #4]
 8006478:	687b      	ldr	r3, [r7, #4]
 800647a:	f8d3 30f4 	ldr.w	r3, [r3, #244]	; 0xf4
 800647e:	2b00      	cmp	r3, #0
 8006480:	d101      	bne.n	8006486 <pq_top+0x16>
 8006482:	2300      	movs	r3, #0
 8006484:	e001      	b.n	800648a <pq_top+0x1a>
 8006486:	687b      	ldr	r3, [r7, #4]
 8006488:	681b      	ldr	r3, [r3, #0]
 800648a:	4618      	mov	r0, r3
 800648c:	370c      	adds	r7, #12
 800648e:	46bd      	mov	sp, r7
 8006490:	f85d 7b04 	ldr.w	r7, [sp], #4
 8006494:	4770      	bx	lr
 8006496:	bf00      	nop

08006498 <pq_remove>:
 8006498:	b580      	push	{r7, lr}
 800649a:	b086      	sub	sp, #24
 800649c:	af00      	add	r7, sp, #0
 800649e:	60f8      	str	r0, [r7, #12]
 80064a0:	60b9      	str	r1, [r7, #8]
 80064a2:	607a      	str	r2, [r7, #4]
 80064a4:	68bb      	ldr	r3, [r7, #8]
 80064a6:	6a1b      	ldr	r3, [r3, #32]
 80064a8:	2b00      	cmp	r3, #0
 80064aa:	db06      	blt.n	80064ba <pq_remove+0x22>
 80064ac:	68bb      	ldr	r3, [r7, #8]
 80064ae:	6a1a      	ldr	r2, [r3, #32]
 80064b0:	68fb      	ldr	r3, [r7, #12]
 80064b2:	f8d3 30f4 	ldr.w	r3, [r3, #244]	; 0xf4
 80064b6:	429a      	cmp	r2, r3
 80064b8:	db00      	blt.n	80064bc <pq_remove+0x24>
 80064ba:	e028      	b.n	800650e <pq_remove+0x76>
 80064bc:	68bb      	ldr	r3, [r7, #8]
 80064be:	6a1b      	ldr	r3, [r3, #32]
 80064c0:	617b      	str	r3, [r7, #20]
 80064c2:	68fb      	ldr	r3, [r7, #12]
 80064c4:	f8d3 30f4 	ldr.w	r3, [r3, #244]	; 0xf4
 80064c8:	1e5a      	subs	r2, r3, #1
 80064ca:	68fb      	ldr	r3, [r7, #12]
 80064cc:	f853 1022 	ldr.w	r1, [r3, r2, lsl #2]
 80064d0:	68fb      	ldr	r3, [r7, #12]
 80064d2:	697a      	ldr	r2, [r7, #20]
 80064d4:	f843 1022 	str.w	r1, [r3, r2, lsl #2]
 80064d8:	68fb      	ldr	r3, [r7, #12]
 80064da:	697a      	ldr	r2, [r7, #20]
 80064dc:	f853 3022 	ldr.w	r3, [r3, r2, lsl #2]
 80064e0:	697a      	ldr	r2, [r7, #20]
 80064e2:	621a      	str	r2, [r3, #32]
 80064e4:	68fb      	ldr	r3, [r7, #12]
 80064e6:	f8d3 30f4 	ldr.w	r3, [r3, #244]	; 0xf4
 80064ea:	1e5a      	subs	r2, r3, #1
 80064ec:	68fb      	ldr	r3, [r7, #12]
 80064ee:	f8c3 20f4 	str.w	r2, [r3, #244]	; 0xf4
 80064f2:	68f8      	ldr	r0, [r7, #12]
 80064f4:	6979      	ldr	r1, [r7, #20]
 80064f6:	687a      	ldr	r2, [r7, #4]
 80064f8:	f7ff feca 	bl	8006290 <pq_heapify_up>
 80064fc:	68f8      	ldr	r0, [r7, #12]
 80064fe:	6979      	ldr	r1, [r7, #20]
 8006500:	687a      	ldr	r2, [r7, #4]
 8006502:	f7ff fefd 	bl	8006300 <pq_heapify_down>
 8006506:	68bb      	ldr	r3, [r7, #8]
 8006508:	f04f 32ff 	mov.w	r2, #4294967295
 800650c:	621a      	str	r2, [r3, #32]
 800650e:	3718      	adds	r7, #24
 8006510:	46bd      	mov	sp, r7
 8006512:	bd80      	pop	{r7, pc}

08006514 <pq_update>:
 8006514:	b580      	push	{r7, lr}
 8006516:	b084      	sub	sp, #16
 8006518:	af00      	add	r7, sp, #0
 800651a:	60f8      	str	r0, [r7, #12]
 800651c:	60b9      	str	r1, [r7, #8]
 800651e:	607a      	str	r2, [r7, #4]
 8006520:	68bb      	ldr	r3, [r7, #8]
 8006522:	6a1b      	ldr	r3, [r3, #32]
 8006524:	2b00      	cmp	r3, #0
 8006526:	db06      	blt.n	8006536 <pq_update+0x22>
 8006528:	68bb      	ldr	r3, [r7, #8]
 800652a:	6a1a      	ldr	r2, [r3, #32]
 800652c:	68fb      	ldr	r3, [r7, #12]
 800652e:	f8d3 30f4 	ldr.w	r3, [r3, #244]	; 0xf4
 8006532:	429a      	cmp	r2, r3
 8006534:	db00      	blt.n	8006538 <pq_update+0x24>
 8006536:	e00d      	b.n	8006554 <pq_update+0x40>
 8006538:	68bb      	ldr	r3, [r7, #8]
 800653a:	6a1b      	ldr	r3, [r3, #32]
 800653c:	68f8      	ldr	r0, [r7, #12]
 800653e:	4619      	mov	r1, r3
 8006540:	687a      	ldr	r2, [r7, #4]
 8006542:	f7ff fea5 	bl	8006290 <pq_heapify_up>
 8006546:	68bb      	ldr	r3, [r7, #8]
 8006548:	6a1b      	ldr	r3, [r3, #32]
 800654a:	68f8      	ldr	r0, [r7, #12]
 800654c:	4619      	mov	r1, r3
 800654e:	687a      	ldr	r2, [r7, #4]
 8006550:	f7ff fed6 	bl	8006300 <pq_heapify_down>
 8006554:	3710      	adds	r7, #16
 8006556:	46bd      	mov	sp, r7
 8006558:	bd80      	pop	{r7, pc}
 800655a:	bf00      	nop

0800655c <_OS_Get_Buffer>:
 800655c:	b480      	push	{r7}
 800655e:	b083      	sub	sp, #12
 8006560:	af00      	add	r7, sp, #0
 8006562:	6078      	str	r0, [r7, #4]
 8006564:	687b      	ldr	r3, [r7, #4]
 8006566:	3307      	adds	r3, #7
 8006568:	f023 0307 	bic.w	r3, r3, #7
 800656c:	607b      	str	r3, [r7, #4]
 800656e:	f240 031c 	movw	r3, #28
 8006572:	f2c2 0300 	movt	r3, #8192	; 0x2000
 8006576:	681a      	ldr	r2, [r3, #0]
 8006578:	687b      	ldr	r3, [r7, #4]
 800657a:	425b      	negs	r3, r3
 800657c:	441a      	add	r2, r3
 800657e:	f240 0320 	movw	r3, #32
 8006582:	f2c2 0300 	movt	r3, #8192	; 0x2000
 8006586:	681b      	ldr	r3, [r3, #0]
 8006588:	429a      	cmp	r2, r3
 800658a:	d201      	bcs.n	8006590 <_OS_Get_Buffer+0x34>
 800658c:	2300      	movs	r3, #0
 800658e:	e011      	b.n	80065b4 <_OS_Get_Buffer+0x58>
 8006590:	f240 031c 	movw	r3, #28
 8006594:	f2c2 0300 	movt	r3, #8192	; 0x2000
 8006598:	681a      	ldr	r2, [r3, #0]
 800659a:	687b      	ldr	r3, [r7, #4]
 800659c:	425b      	negs	r3, r3
 800659e:	441a      	add	r2, r3
 80065a0:	f240 031c 	movw	r3, #28
 80065a4:	f2c2 0300 	movt	r3, #8192	; 0x2000
 80065a8:	601a      	str	r2, [r3, #0]
 80065aa:	f240 031c 	movw	r3, #28
 80065ae:	f2c2 0300 	movt	r3, #8192	; 0x2000
 80065b2:	681b      	ldr	r3, [r3, #0]
 80065b4:	4618      	mov	r0, r3
 80065b6:	370c      	adds	r7, #12
 80065b8:	46bd      	mov	sp, r7
 80065ba:	f85d 7b04 	ldr.w	r7, [sp], #4
 80065be:	4770      	bx	lr

080065c0 <createQueue>:
 80065c0:	b580      	push	{r7, lr}
 80065c2:	b086      	sub	sp, #24
 80065c4:	af00      	add	r7, sp, #0
 80065c6:	60f8      	str	r0, [r7, #12]
 80065c8:	60b9      	str	r1, [r7, #8]
 80065ca:	607a      	str	r2, [r7, #4]
 80065cc:	603b      	str	r3, [r7, #0]
 80065ce:	68fb      	ldr	r3, [r7, #12]
 80065d0:	2200      	movs	r2, #0
 80065d2:	601a      	str	r2, [r3, #0]
 80065d4:	68fb      	ldr	r3, [r7, #12]
 80065d6:	2200      	movs	r2, #0
 80065d8:	605a      	str	r2, [r3, #4]
 80065da:	68fb      	ldr	r3, [r7, #12]
 80065dc:	2200      	movs	r2, #0
 80065de:	609a      	str	r2, [r3, #8]
 80065e0:	68fb      	ldr	r3, [r7, #12]
 80065e2:	68ba      	ldr	r2, [r7, #8]
 80065e4:	611a      	str	r2, [r3, #16]
 80065e6:	68fb      	ldr	r3, [r7, #12]
 80065e8:	683a      	ldr	r2, [r7, #0]
 80065ea:	619a      	str	r2, [r3, #24]
 80065ec:	68fb      	ldr	r3, [r7, #12]
 80065ee:	687a      	ldr	r2, [r7, #4]
 80065f0:	60da      	str	r2, [r3, #12]
 80065f2:	2008      	movs	r0, #8
 80065f4:	f7ff ffb2 	bl	800655c <_OS_Get_Buffer>
 80065f8:	4602      	mov	r2, r0
 80065fa:	68fb      	ldr	r3, [r7, #12]
 80065fc:	615a      	str	r2, [r3, #20]
 80065fe:	68fb      	ldr	r3, [r7, #12]
 8006600:	695b      	ldr	r3, [r3, #20]
 8006602:	2b00      	cmp	r3, #0
 8006604:	d102      	bne.n	800660c <createQueue+0x4c>
 8006606:	f04f 33ff 	mov.w	r3, #4294967295
 800660a:	e041      	b.n	8006690 <createQueue+0xd0>
 800660c:	687b      	ldr	r3, [r7, #4]
 800660e:	f1b3 3fff 	cmp.w	r3, #4294967295
 8006612:	d101      	bne.n	8006618 <createQueue+0x58>
 8006614:	2305      	movs	r3, #5
 8006616:	607b      	str	r3, [r7, #4]
 8006618:	68fb      	ldr	r3, [r7, #12]
 800661a:	695b      	ldr	r3, [r3, #20]
 800661c:	617b      	str	r3, [r7, #20]
 800661e:	2300      	movs	r3, #0
 8006620:	613b      	str	r3, [r7, #16]
 8006622:	e01f      	b.n	8006664 <createQueue+0xa4>
 8006624:	68b8      	ldr	r0, [r7, #8]
 8006626:	f7ff ff99 	bl	800655c <_OS_Get_Buffer>
 800662a:	4602      	mov	r2, r0
 800662c:	697b      	ldr	r3, [r7, #20]
 800662e:	601a      	str	r2, [r3, #0]
 8006630:	697b      	ldr	r3, [r7, #20]
 8006632:	681b      	ldr	r3, [r3, #0]
 8006634:	2b00      	cmp	r3, #0
 8006636:	d102      	bne.n	800663e <createQueue+0x7e>
 8006638:	f04f 33ff 	mov.w	r3, #4294967295
 800663c:	e028      	b.n	8006690 <createQueue+0xd0>
 800663e:	2008      	movs	r0, #8
 8006640:	f7ff ff8c 	bl	800655c <_OS_Get_Buffer>
 8006644:	4602      	mov	r2, r0
 8006646:	697b      	ldr	r3, [r7, #20]
 8006648:	605a      	str	r2, [r3, #4]
 800664a:	697b      	ldr	r3, [r7, #20]
 800664c:	685b      	ldr	r3, [r3, #4]
 800664e:	2b00      	cmp	r3, #0
 8006650:	d102      	bne.n	8006658 <createQueue+0x98>
 8006652:	f04f 33ff 	mov.w	r3, #4294967295
 8006656:	e01b      	b.n	8006690 <createQueue+0xd0>
 8006658:	697b      	ldr	r3, [r7, #20]
 800665a:	685b      	ldr	r3, [r3, #4]
 800665c:	617b      	str	r3, [r7, #20]
 800665e:	693b      	ldr	r3, [r7, #16]
 8006660:	3301      	adds	r3, #1
 8006662:	613b      	str	r3, [r7, #16]
 8006664:	687b      	ldr	r3, [r7, #4]
 8006666:	1e5a      	subs	r2, r3, #1
 8006668:	693b      	ldr	r3, [r7, #16]
 800666a:	429a      	cmp	r2, r3
 800666c:	dcda      	bgt.n	8006624 <createQueue+0x64>
 800666e:	68b8      	ldr	r0, [r7, #8]
 8006670:	f7ff ff74 	bl	800655c <_OS_Get_Buffer>
 8006674:	4602      	mov	r2, r0
 8006676:	697b      	ldr	r3, [r7, #20]
 8006678:	601a      	str	r2, [r3, #0]
 800667a:	697b      	ldr	r3, [r7, #20]
 800667c:	681b      	ldr	r3, [r3, #0]
 800667e:	2b00      	cmp	r3, #0
 8006680:	d102      	bne.n	8006688 <createQueue+0xc8>
 8006682:	f04f 33ff 	mov.w	r3, #4294967295
 8006686:	e003      	b.n	8006690 <createQueue+0xd0>
 8006688:	697b      	ldr	r3, [r7, #20]
 800668a:	2200      	movs	r2, #0
 800668c:	605a      	str	r2, [r3, #4]
 800668e:	2300      	movs	r3, #0
 8006690:	4618      	mov	r0, r3
 8006692:	3718      	adds	r7, #24
 8006694:	46bd      	mov	sp, r7
 8006696:	bd80      	pop	{r7, pc}

08006698 <enqueue>:
 8006698:	b580      	push	{r7, lr}
 800669a:	b084      	sub	sp, #16
 800669c:	af00      	add	r7, sp, #0
 800669e:	6078      	str	r0, [r7, #4]
 80066a0:	6039      	str	r1, [r7, #0]
 80066a2:	6878      	ldr	r0, [r7, #4]
 80066a4:	f000 f88c 	bl	80067c0 <isFull>
 80066a8:	4603      	mov	r3, r0
 80066aa:	2b00      	cmp	r3, #0
 80066ac:	d002      	beq.n	80066b4 <enqueue+0x1c>
 80066ae:	f04f 33ff 	mov.w	r3, #4294967295
 80066b2:	e02b      	b.n	800670c <enqueue+0x74>
 80066b4:	687b      	ldr	r3, [r7, #4]
 80066b6:	695b      	ldr	r3, [r3, #20]
 80066b8:	60fb      	str	r3, [r7, #12]
 80066ba:	687b      	ldr	r3, [r7, #4]
 80066bc:	695b      	ldr	r3, [r3, #20]
 80066be:	685a      	ldr	r2, [r3, #4]
 80066c0:	687b      	ldr	r3, [r7, #4]
 80066c2:	615a      	str	r2, [r3, #20]
 80066c4:	68fb      	ldr	r3, [r7, #12]
 80066c6:	681a      	ldr	r2, [r3, #0]
 80066c8:	687b      	ldr	r3, [r7, #4]
 80066ca:	691b      	ldr	r3, [r3, #16]
 80066cc:	4610      	mov	r0, r2
 80066ce:	6839      	ldr	r1, [r7, #0]
 80066d0:	461a      	mov	r2, r3
 80066d2:	f001 ff1d 	bl	8008510 <memcpy>
 80066d6:	68fb      	ldr	r3, [r7, #12]
 80066d8:	2200      	movs	r2, #0
 80066da:	605a      	str	r2, [r3, #4]
 80066dc:	687b      	ldr	r3, [r7, #4]
 80066de:	685b      	ldr	r3, [r3, #4]
 80066e0:	2b00      	cmp	r3, #0
 80066e2:	d003      	beq.n	80066ec <enqueue+0x54>
 80066e4:	687b      	ldr	r3, [r7, #4]
 80066e6:	685b      	ldr	r3, [r3, #4]
 80066e8:	68fa      	ldr	r2, [r7, #12]
 80066ea:	605a      	str	r2, [r3, #4]
 80066ec:	687b      	ldr	r3, [r7, #4]
 80066ee:	68fa      	ldr	r2, [r7, #12]
 80066f0:	605a      	str	r2, [r3, #4]
 80066f2:	687b      	ldr	r3, [r7, #4]
 80066f4:	681b      	ldr	r3, [r3, #0]
 80066f6:	2b00      	cmp	r3, #0
 80066f8:	d102      	bne.n	8006700 <enqueue+0x68>
 80066fa:	687b      	ldr	r3, [r7, #4]
 80066fc:	68fa      	ldr	r2, [r7, #12]
 80066fe:	601a      	str	r2, [r3, #0]
 8006700:	687b      	ldr	r3, [r7, #4]
 8006702:	689b      	ldr	r3, [r3, #8]
 8006704:	1c5a      	adds	r2, r3, #1
 8006706:	687b      	ldr	r3, [r7, #4]
 8006708:	609a      	str	r2, [r3, #8]
 800670a:	2300      	movs	r3, #0
 800670c:	4618      	mov	r0, r3
 800670e:	3710      	adds	r7, #16
 8006710:	46bd      	mov	sp, r7
 8006712:	bd80      	pop	{r7, pc}

08006714 <dequeue>:
 8006714:	b580      	push	{r7, lr}
 8006716:	b086      	sub	sp, #24
 8006718:	af00      	add	r7, sp, #0
 800671a:	60f8      	str	r0, [r7, #12]
 800671c:	60b9      	str	r1, [r7, #8]
 800671e:	607a      	str	r2, [r7, #4]
 8006720:	68f8      	ldr	r0, [r7, #12]
 8006722:	f000 f83b 	bl	800679c <isEmpty>
 8006726:	4603      	mov	r3, r0
 8006728:	2b00      	cmp	r3, #0
 800672a:	d002      	beq.n	8006732 <dequeue+0x1e>
 800672c:	f06f 0302 	mvn.w	r3, #2
 8006730:	e030      	b.n	8006794 <dequeue+0x80>
 8006732:	687b      	ldr	r3, [r7, #4]
 8006734:	f1b3 3fff 	cmp.w	r3, #4294967295
 8006738:	d007      	beq.n	800674a <dequeue+0x36>
 800673a:	68fb      	ldr	r3, [r7, #12]
 800673c:	699a      	ldr	r2, [r3, #24]
 800673e:	687b      	ldr	r3, [r7, #4]
 8006740:	429a      	cmp	r2, r3
 8006742:	d002      	beq.n	800674a <dequeue+0x36>
 8006744:	f06f 0301 	mvn.w	r3, #1
 8006748:	e024      	b.n	8006794 <dequeue+0x80>
 800674a:	68fb      	ldr	r3, [r7, #12]
 800674c:	681b      	ldr	r3, [r3, #0]
 800674e:	617b      	str	r3, [r7, #20]
 8006750:	697b      	ldr	r3, [r7, #20]
 8006752:	681a      	ldr	r2, [r3, #0]
 8006754:	68fb      	ldr	r3, [r7, #12]
 8006756:	691b      	ldr	r3, [r3, #16]
 8006758:	68b8      	ldr	r0, [r7, #8]
 800675a:	4611      	mov	r1, r2
 800675c:	461a      	mov	r2, r3
 800675e:	f001 fed7 	bl	8008510 <memcpy>
 8006762:	68fb      	ldr	r3, [r7, #12]
 8006764:	681b      	ldr	r3, [r3, #0]
 8006766:	685a      	ldr	r2, [r3, #4]
 8006768:	68fb      	ldr	r3, [r7, #12]
 800676a:	601a      	str	r2, [r3, #0]
 800676c:	68fb      	ldr	r3, [r7, #12]
 800676e:	681b      	ldr	r3, [r3, #0]
 8006770:	2b00      	cmp	r3, #0
 8006772:	d102      	bne.n	800677a <dequeue+0x66>
 8006774:	68fb      	ldr	r3, [r7, #12]
 8006776:	2200      	movs	r2, #0
 8006778:	605a      	str	r2, [r3, #4]
 800677a:	68fb      	ldr	r3, [r7, #12]
 800677c:	695a      	ldr	r2, [r3, #20]
 800677e:	697b      	ldr	r3, [r7, #20]
 8006780:	605a      	str	r2, [r3, #4]
 8006782:	68fb      	ldr	r3, [r7, #12]
 8006784:	697a      	ldr	r2, [r7, #20]
 8006786:	615a      	str	r2, [r3, #20]
 8006788:	68fb      	ldr	r3, [r7, #12]
 800678a:	689b      	ldr	r3, [r3, #8]
 800678c:	1e5a      	subs	r2, r3, #1
 800678e:	68fb      	ldr	r3, [r7, #12]
 8006790:	609a      	str	r2, [r3, #8]
 8006792:	2300      	movs	r3, #0
 8006794:	4618      	mov	r0, r3
 8006796:	3718      	adds	r7, #24
 8006798:	46bd      	mov	sp, r7
 800679a:	bd80      	pop	{r7, pc}

0800679c <isEmpty>:
 800679c:	b480      	push	{r7}
 800679e:	b083      	sub	sp, #12
 80067a0:	af00      	add	r7, sp, #0
 80067a2:	6078      	str	r0, [r7, #4]
 80067a4:	687b      	ldr	r3, [r7, #4]
 80067a6:	689b      	ldr	r3, [r3, #8]
 80067a8:	2b00      	cmp	r3, #0
 80067aa:	bf14      	ite	ne
 80067ac:	2300      	movne	r3, #0
 80067ae:	2301      	moveq	r3, #1
 80067b0:	b2db      	uxtb	r3, r3
 80067b2:	4618      	mov	r0, r3
 80067b4:	370c      	adds	r7, #12
 80067b6:	46bd      	mov	sp, r7
 80067b8:	f85d 7b04 	ldr.w	r7, [sp], #4
 80067bc:	4770      	bx	lr
 80067be:	bf00      	nop

080067c0 <isFull>:
 80067c0:	b480      	push	{r7}
 80067c2:	b083      	sub	sp, #12
 80067c4:	af00      	add	r7, sp, #0
 80067c6:	6078      	str	r0, [r7, #4]
 80067c8:	687b      	ldr	r3, [r7, #4]
 80067ca:	689a      	ldr	r2, [r3, #8]
 80067cc:	687b      	ldr	r3, [r7, #4]
 80067ce:	68db      	ldr	r3, [r3, #12]
 80067d0:	429a      	cmp	r2, r3
 80067d2:	bf14      	ite	ne
 80067d4:	2300      	movne	r3, #0
 80067d6:	2301      	moveq	r3, #1
 80067d8:	b2db      	uxtb	r3, r3
 80067da:	4618      	mov	r0, r3
 80067dc:	370c      	adds	r7, #12
 80067de:	46bd      	mov	sp, r7
 80067e0:	f85d 7b04 	ldr.w	r7, [sp], #4
 80067e4:	4770      	bx	lr
 80067e6:	bf00      	nop

080067e8 <_sbrk>:
 80067e8:	b480      	push	{r7}
 80067ea:	b085      	sub	sp, #20
 80067ec:	af00      	add	r7, sp, #0
 80067ee:	6078      	str	r0, [r7, #4]
 80067f0:	f244 3398 	movw	r3, #17304	; 0x4398
 80067f4:	f2c2 0300 	movt	r3, #8192	; 0x2000
 80067f8:	681b      	ldr	r3, [r3, #0]
 80067fa:	2b00      	cmp	r3, #0
 80067fc:	d10c      	bne.n	8006818 <_sbrk+0x30>
 80067fe:	f244 4304 	movw	r3, #17412	; 0x4404
 8006802:	f2c2 0300 	movt	r3, #8192	; 0x2000
 8006806:	3307      	adds	r3, #7
 8006808:	f023 0307 	bic.w	r3, r3, #7
 800680c:	461a      	mov	r2, r3
 800680e:	f244 3398 	movw	r3, #17304	; 0x4398
 8006812:	f2c2 0300 	movt	r3, #8192	; 0x2000
 8006816:	601a      	str	r2, [r3, #0]
 8006818:	f244 3398 	movw	r3, #17304	; 0x4398
 800681c:	f2c2 0300 	movt	r3, #8192	; 0x2000
 8006820:	681b      	ldr	r3, [r3, #0]
 8006822:	60fb      	str	r3, [r7, #12]
 8006824:	f244 3398 	movw	r3, #17304	; 0x4398
 8006828:	f2c2 0300 	movt	r3, #8192	; 0x2000
 800682c:	681b      	ldr	r3, [r3, #0]
 800682e:	461a      	mov	r2, r3
 8006830:	687b      	ldr	r3, [r7, #4]
 8006832:	4413      	add	r3, r2
 8006834:	3307      	adds	r3, #7
 8006836:	f023 0307 	bic.w	r3, r3, #7
 800683a:	60bb      	str	r3, [r7, #8]
 800683c:	68ba      	ldr	r2, [r7, #8]
 800683e:	f244 4304 	movw	r3, #17412	; 0x4404
 8006842:	f2c2 0300 	movt	r3, #8192	; 0x2000
 8006846:	3307      	adds	r3, #7
 8006848:	f023 0307 	bic.w	r3, r3, #7
 800684c:	f503 5380 	add.w	r3, r3, #4096	; 0x1000
 8006850:	429a      	cmp	r2, r3
 8006852:	d301      	bcc.n	8006858 <_sbrk+0x70>
 8006854:	2300      	movs	r3, #0
 8006856:	e006      	b.n	8006866 <_sbrk+0x7e>
 8006858:	f244 3398 	movw	r3, #17304	; 0x4398
 800685c:	f2c2 0300 	movt	r3, #8192	; 0x2000
 8006860:	68ba      	ldr	r2, [r7, #8]
 8006862:	601a      	str	r2, [r3, #0]
 8006864:	68fb      	ldr	r3, [r7, #12]
 8006866:	4618      	mov	r0, r3
 8006868:	3714      	adds	r7, #20
 800686a:	46bd      	mov	sp, r7
 800686c:	f85d 7b04 	ldr.w	r7, [sp], #4
 8006870:	4770      	bx	lr
 8006872:	bf00      	nop

08006874 <System_Init>:
 8006874:	b580      	push	{r7, lr}
 8006876:	af00      	add	r7, sp, #0
 8006878:	f44f 30e1 	mov.w	r0, #115200	; 0x1c200
 800687c:	f001 fc22 	bl	80080c4 <Uart1_Init>
 8006880:	2001      	movs	r0, #1
 8006882:	f001 fd7b 	bl	800837c <Uart1_RX_Interrupt_Enable>
 8006886:	f7fd fc1f 	bl	80040c8 <Key_Poll_Init>
 800688a:	2001      	movs	r0, #1
 800688c:	f7fd fce4 	bl	8004258 <Key_ISR_Enable>
 8006890:	f7fe f976 	bl	8004b80 <Lcd_Init>
 8006894:	f7fe fc08 	bl	80050a8 <LED_Init>
 8006898:	f44f 436d 	mov.w	r3, #60672	; 0xed00
 800689c:	f2ce 0300 	movt	r3, #57344	; 0xe000
 80068a0:	f44f 5240 	mov.w	r2, #12288	; 0x3000
 80068a4:	f6c0 0200 	movt	r2, #2048	; 0x800
 80068a8:	609a      	str	r2, [r3, #8]
 80068aa:	f44f 436d 	mov.w	r3, #60672	; 0xed00
 80068ae:	f2ce 0300 	movt	r3, #57344	; 0xe000
 80068b2:	f44f 22e0 	mov.w	r2, #458752	; 0x70000
 80068b6:	625a      	str	r2, [r3, #36]	; 0x24
 80068b8:	f44f 436d 	mov.w	r3, #60672	; 0xed00
 80068bc:	f2ce 0300 	movt	r3, #57344	; 0xe000
 80068c0:	2200      	movs	r2, #0
 80068c2:	f2c0 52fa 	movt	r2, #1530	; 0x5fa
 80068c6:	60da      	str	r2, [r3, #12]
 80068c8:	bd80      	pop	{r7, pc}
 80068ca:	bf00      	nop

080068cc <Snake_Init>:
 80068cc:	b580      	push	{r7, lr}
 80068ce:	b088      	sub	sp, #32
 80068d0:	af00      	add	r7, sp, #0
 80068d2:	2301      	movs	r3, #1
 80068d4:	61fb      	str	r3, [r7, #28]
 80068d6:	e019      	b.n	800690c <Snake_Init+0x40>
 80068d8:	2301      	movs	r3, #1
 80068da:	61bb      	str	r3, [r7, #24]
 80068dc:	e010      	b.n	8006900 <Snake_Init+0x34>
 80068de:	f642 2254 	movw	r2, #10836	; 0x2a54
 80068e2:	f2c2 0200 	movt	r2, #8192	; 0x2000
 80068e6:	69f9      	ldr	r1, [r7, #28]
 80068e8:	460b      	mov	r3, r1
 80068ea:	005b      	lsls	r3, r3, #1
 80068ec:	440b      	add	r3, r1
 80068ee:	009b      	lsls	r3, r3, #2
 80068f0:	69b9      	ldr	r1, [r7, #24]
 80068f2:	440b      	add	r3, r1
 80068f4:	4413      	add	r3, r2
 80068f6:	2200      	movs	r2, #0
 80068f8:	701a      	strb	r2, [r3, #0]
 80068fa:	69bb      	ldr	r3, [r7, #24]
 80068fc:	3301      	adds	r3, #1
 80068fe:	61bb      	str	r3, [r7, #24]
 8006900:	69bb      	ldr	r3, [r7, #24]
 8006902:	2b0a      	cmp	r3, #10
 8006904:	ddeb      	ble.n	80068de <Snake_Init+0x12>
 8006906:	69fb      	ldr	r3, [r7, #28]
 8006908:	3301      	adds	r3, #1
 800690a:	61fb      	str	r3, [r7, #28]
 800690c:	69fb      	ldr	r3, [r7, #28]
 800690e:	2b0a      	cmp	r3, #10
 8006910:	dde2      	ble.n	80068d8 <Snake_Init+0xc>
 8006912:	2300      	movs	r3, #0
 8006914:	61fb      	str	r3, [r7, #28]
 8006916:	e02c      	b.n	8006972 <Snake_Init+0xa6>
 8006918:	f642 2254 	movw	r2, #10836	; 0x2a54
 800691c:	f2c2 0200 	movt	r2, #8192	; 0x2000
 8006920:	69f9      	ldr	r1, [r7, #28]
 8006922:	460b      	mov	r3, r1
