
.\rom_0x08003000.elf:     file format elf32-littlearm
.\rom_0x08003000.elf
architecture: arm, flags 0x00000112:
EXEC_P, HAS_SYMS, D_PAGED
start address 0x08003000

Program Header:
0x70000001 off    0x0000bdb8 vaddr 0x0800bdb8 paddr 0x0800bdb8 align 2**2
         filesz 0x00000008 memsz 0x00000008 flags r--
    LOAD off    0x00000000 vaddr 0x08000000 paddr 0x08000000 align 2**15
         filesz 0x0000c258 memsz 0x0000c258 flags r-x
    LOAD off    0x00010000 vaddr 0x20000000 paddr 0x0800c258 align 2**15
         filesz 0x000005c0 memsz 0x00002f94 flags rw-
private flags = 5000202: [Version5 EABI] [soft-float ABI] [has entry point]

Sections:
Idx Name          Size      VMA       LMA       File off  Algn
  0 .text         00008db8  08003000  08003000  00003000  2**4
                  CONTENTS, ALLOC, LOAD, READONLY, CODE
  1 .ARM.exidx    00000008  0800bdb8  0800bdb8  0000bdb8  2**2
                  CONTENTS, ALLOC, LOAD, READONLY, DATA
  2 .rodata       00000498  0800bdc0  0800bdc0  0000bdc0  2**3
                  CONTENTS, ALLOC, LOAD, READONLY, DATA
  3 .data         000005c0  20000000  0800c258  00010000  2**2
                  CONTENTS, ALLOC, LOAD, DATA
  4 .bss          000029d4  200005c0  0800c818  000105c0  2**3
                  ALLOC
  5 .comment      00000030  00000000  00000000  000105c0  2**0
                  CONTENTS, READONLY
  6 .ARM.attributes 00000031  00000000  00000000  000105f0  2**0
                  CONTENTS, READONLY
  7 .debug_frame  000007e0  00000000  00000000  00010624  2**2
                  CONTENTS, READONLY, DEBUGGING
SYMBOL TABLE:
08003000 l    d  .text	00000000 .text
0800bdb8 l    d  .ARM.exidx	00000000 .ARM.exidx
0800bdc0 l    d  .rodata	00000000 .rodata
20000000 l    d  .data	00000000 .data
200005c0 l    d  .bss	00000000 .bss
00000000 l    d  .comment	00000000 .comment
00000000 l    d  .ARM.attributes	00000000 .ARM.attributes
00000000 l    d  .debug_frame	00000000 .debug_frame
00000000 l    df *ABS*	00000000 crt0.o
20004fff l       *ABS*	00000000 RAM_END
20004c00 l       *ABS*	00000000 PSP_BASE
20004c00 l       *ABS*	00000000 MSP_LIMIT
20005000 l       *ABS*	00000000 MSP_BASE
00000400 l       *ABS*	00000000 MSP_SIZE
00000000 l    df *ABS*	00000000 OS.c
08003134 l     F .text	00000056 NVIC_SetPriority
20000000 l     O .data	00000004 pstack.5299
20000004 l     O .data	00000004 stack_limit.5298
0800bdc0 l       .rodata	00000000 .LC0
0800bddc l       .rodata	00000000 .LC1
20002efc l       .bss	00000000 idx_tcb.5308
20000008 l     O .data	00000004 test_delay_cnt.5322
0800be04 l       .rodata	00000000 .LC2
00000000 l    df *ABS*	00000000 clock.c
00000000 l    df *ABS*	00000000 core_cm3.c
00000000 l    df *ABS*	00000000 joy_key.c
08003a9c l     F .text	00000032 NVIC_EnableIRQ
08003ad0 l     F .text	00000034 NVIC_ClearPendingIRQ
00000000 l    df *ABS*	00000000 lcd.c
08003e5c l     F .text	0000009c _SPI1_Init
08003ef8 l     F .text	00000056 _SPI1_Write_Byte
08003f50 l     F .text	00000028 _Delay
00000000 l    df *ABS*	00000000 led.c
00000000 l    df *ABS*	00000000 main.c
0800be10 l       .rodata	00000000 .LC0
00000000 l    df *ABS*	00000000 priority_queue.c
00000000 l    df *ABS*	00000000 runtime.c
20002f38 l       .bss	00000000 heap.4796
00000000 l    df *ABS*	00000000 stm32f10x_it.c
08004f68 l     F .text	00000034 NVIC_ClearPendingIRQ
0800be20 l       .rodata	00000000 .LC0
0800be38 l       .rodata	00000000 .LC1
0800be70 l     O .rodata	00000020 Stack_reg
0800be90 l       .rodata	00000000 .LC10
08004fdc l     F .text	0000004c Stack_Dump
0800bea4 l       .rodata	00000000 .LC11
0800bebc l       .rodata	00000000 .LC12
0800bec8 l       .rodata	00000000 .LC13
0800bed4 l       .rodata	00000000 .LC14
0800bef8 l       .rodata	00000000 .LC15
0800befc l       .rodata	00000000 .LC16
0800bf28 l       .rodata	00000000 .LC17
0800bf54 l       .rodata	00000000 .LC18
0800bf58 l       .rodata	00000000 .LC19
0800bf84 l       .rodata	00000000 .LC20
0800bf94 l       .rodata	00000000 .LC21
08005028 l     F .text	000000fe Fault_Report
0800bfb4 l       .rodata	00000000 .LC22
0800bfc0 l       .rodata	00000000 .LC23
0800bfd0 l       .rodata	00000000 .LC24
0800bfe4 l       .rodata	00000000 .LC25
0800bff4 l       .rodata	00000000 .LC26
0800c008 l       .rodata	00000000 .LC27
0800c018 l       .rodata	00000000 .LC28
0800c03c l       .rodata	00000000 .LC29
0800c058 l       .rodata	00000000 .LC30
0800c064 l       .rodata	00000000 .LC31
0800c074 l       .rodata	00000000 .LC32
00000000 l    df *ABS*	00000000 systick.c
00000000 l    df *ABS*	00000000 timer.c
08005698 l     F .text	00000032 NVIC_EnableIRQ
080056cc l     F .text	00000034 NVIC_DisableIRQ
08005700 l     F .text	00000034 NVIC_ClearPendingIRQ
00000000 l    df *ABS*	00000000 uart.c
08005860 l     F .text	00000032 NVIC_EnableIRQ
08005894 l     F .text	00000034 NVIC_DisableIRQ
080058c8 l     F .text	00000034 NVIC_ClearPendingIRQ
00000000 l    df *ABS*	00000000 exp_handler.o
08005be1 l       .text	00000000 _PSR
08005ba2 l       .text	00000000 _loop
08005bd4 l       .text	00000000 fmt
08005be5 l       .text	00000000 _r0
08005be9 l       .text	00000000 _r1
08005bed l       .text	00000000 _r2
08005bf1 l       .text	00000000 _r3
08005bf5 l       .text	00000000 _r4
08005bf9 l       .text	00000000 _r5
08005bfd l       .text	00000000 _r6
08005c01 l       .text	00000000 _r7
08005c05 l       .text	00000000 _r8
08005c09 l       .text	00000000 _r9
08005c0d l       .text	00000000 _r10
08005c11 l       .text	00000000 _r11
08005c15 l       .text	00000000 _r12
08005c19 l       .text	00000000 _PSP
00000000 l    df *ABS*	00000000 scheduler.o
00000000 l    df *ABS*	00000000 vsprintf.c
00000000 l    df *ABS*	00000000 impure.c
20000044 l     O .data	000000f0 impure_data
00000000 l    df *ABS*	00000000 vfprintf.c
0800c088 l       .rodata	00000000 .LANCHOR0
0800c088 l     O .rodata	00000010 blanks.6752
0800c098 l     O .rodata	00000010 zeroes.6753
00000000 l    df *ABS*	00000000 dtoa.c
080071c8 l     F .text	0000014a quorem
00000000 l    df *ABS*	00000000 locale.c
20000134 l       .data	00000000 .LANCHOR0
20000134 l     O .data	00000020 lc_ctype_charset
20000158 l     O .data	00000020 lc_message_charset
20000178 l     O .data	00000038 lconv
00000000 l    df *ABS*	00000000 malloc.c
00000000 l    df *ABS*	00000000 mallocr.c
200001b0 l       .data	00000000 .LANCHOR0
20002f5c l       .bss	00000000 .LANCHOR1
00000000 l    df *ABS*	00000000 memchr-stub.c
00000000 l    df *ABS*	00000000 memcpy-stub.c
00000000 l    df *ABS*	00000000 mlock.c
00000000 l    df *ABS*	00000000 mprec.c
0800c0a8 l       .rodata	00000000 .LANCHOR0
0800c0a8 l     O .rodata	0000000c p05.5301
00000000 l    df *ABS*	00000000 s_fpclassify.c
00000000 l    df *ABS*	00000000 sbrkr.c
00000000 l    df *ABS*	00000000 lib_a-strcmp.o
00000000 l    df *ABS*	00000000 strlen.c
00000000 l    df *ABS*	00000000 vfprintf.c
0800c1d0 l       .rodata	00000000 .LANCHOR0
0800c1d0 l     O .rodata	00000010 blanks.6696
0800c1e0 l     O .rodata	00000010 zeroes.6697
00000000 l    df *ABS*	00000000 mallocr.c
00000000 l    df *ABS*	00000000 mallocr.c
00000000 l    df *ABS*	00000000 memmove.c
00000000 l    df *ABS*	00000000 memset.c
00000000 l    df *ABS*	00000000 mallocr.c
00000000 l    df *ABS*	00000000 reent.c
00000000 l    df *ABS*	00000000 _udivsi3.o
0800ab28 l       .text	00000000 .udivsi3_skip_div0_test
00000000 l       *ABS*	00000000 shift
00000000 l    df *ABS*	00000000 _dvmd_tls.o
00000000 l    df *ABS*	00000000 _arm_addsubdf3.o
00000000 l    df *ABS*	00000000 _arm_muldivdf3.o
00000000 l    df *ABS*	00000000 _arm_cmpdf2.o
00000000 l    df *ABS*	00000000 _arm_fixdfsi.o
00000000 l    df *ABS*	00000000 _arm_fixunsdfsi.o
00000000 l    df *ABS*	00000000 _aeabi_uldivmod.o
00000000 l    df *ABS*	00000000 bpabi.c
00000000 l    df *ABS*	00000000 libgcc2.c
00000000 l    df *ABS*	00000000 libgcc2.c
00000000 l    df *ABS*	00000000 
08005370 g     F .text	0000000a EXTI2_IRQHandler
20002ce0 g     O .bss	00000004 current_tcb
080038a4 g     F .text	00000018 __set_PRIMASK
08009268 g     F .text	00000034 _mprec_log10
080092e4 g     F .text	0000005e __any_on
0800c180 g     O .rodata	00000028 __mprec_tinytens
0800b60c g     F .text	00000012 .hidden __aeabi_dcmple
0800aa34 g     F .text	0000001a cleanup_glue
0800b734 g     F .text	00000030 .hidden __gnu_uldivmod_helper
08003b04 g     F .text	000000f4 Key_Poll_Init
0800b548 g     F .text	0000007a .hidden __cmpdf2
080052cc g     F .text	00000012 DebugMon_Handler
0800b548 g     F .text	0000007a .hidden __eqdf2
2000000c g     O .data	00000002 BACK_COLOR
0800b764 g     F .text	00000352 .hidden __divdi3
0800b0b8 g     F .text	0000005a .hidden __floatdidf
08005cf4 g     F .text	0000001a vsprintf
080054b4 g     F .text	0000000a TIM1_CC_IRQHandler
08005148 g     F .text	000000a8 HardFault_Handler
080082a0 g     F .text	00000052 _setlocale_r
08008a08 g     F .text	00000002 __malloc_unlock
08004334 g     F .text	00000018 Lcd_Write_RAM_Prepare
08005cb0 g     F .text	00000000 _OS_Start_First_Task
080038bc g     F .text	0000001e __get_FAULTMASK
080052e0 g     F .text	0000002e SysTick_Handler
200005c0 g     O .bss	0000071c tcb
0800392c g     F .text	00000020 __REV
0800531c g     F .text	0000000a PVD_IRQHandler
0800a4d8 g     F .text	000000ce memmove
08004118 g     F .text	00000042 Lcd_Reset
08004c20 g     F .text	000000b6 pq_heapify_down
08005c80 g     F .text	00000000 PendSV_Handler
08005128 g     F .text	0000001e NMI_Handler
08008a0c g     F .text	0000006c _Balloc
0800537c g     F .text	00000030 EXTI3_IRQHandler
08004aa0 g     F .text	0000001a pq_init
20000030 g     O .data	00000010 EXTI15_10_LUT
0800b538 g     F .text	0000008a .hidden __gtdf2
08004b08 g     F .text	00000062 pq_compare_ready
080033dc g     F .text	0000007a OS_Scheduler_Start
08003a74 g     F .text	00000026 __STREXW
08003a00 g     F .text	00000022 __LDREXW
20002f90 g     O .bss	00000004 errno
0800b5d4 g     F .text	00000010 .hidden __aeabi_cdcmple
20002f0c g     O .bss	00000002 POINT_COLOR
08004a10 g     F .text	0000008e Main
08004bb0 g     F .text	0000006e pq_heapify_up
0800415c g     F .text	00000060 Lcd_WR_REG
08003458 g     F .text	0000012c OS_Scheduler
0800895c g     F .text	000000a6 memcpy
0800b5c4 g     F .text	00000020 .hidden __aeabi_cdrcmple
080048bc g     F .text	00000036 LED_Display
20002f40 g     O .bss	00000004 key_value
080044d0 g     F .text	0000000c Lcd_Clr_Screen
08005d10 g     F .text	000014b4 _svfprintf_r
0800b048 g     F .text	00000022 .hidden __floatsidf
0800b540 g     F .text	00000082 .hidden __ltdf2
08005418 g     F .text	0000000a USB_HP_CAN_TX_IRQHandler
080041bc g     F .text	00000060 Lcd_WR_DATA
08005358 g     F .text	0000000a EXTI0_IRQHandler
08004918 g     F .text	00000024 LED_All_Off
08005524 g     F .text	0000000a I2C2_EV_IRQHandler
0800b6d8 g     F .text	00000000 .hidden __aeabi_uldivmod
08009344 g     F .text	00000050 __fpclassifyd
08009208 g     F .text	0000005e __ratio
20002f48 g     O .bss	00000004 uart_rx_in
08003994 g     F .text	00000022 __RBIT
20000000 g       .data	00000000 __RW_BASE__
0800833c g     F .text	00000010 malloc
0800ab28 g     F .text	0000025c .hidden __udivsi3
20002df0 g     O .bss	00000108 blocked_queue
0800c0b8 g     O .rodata	000000c8 __mprec_tens
080052a8 g     F .text	00000024 UsageFault_Handler
080038dc g     F .text	00000018 __set_FAULTMASK
080082f4 g     F .text	0000000a __locale_charset
0800b698 g     F .text	00000040 .hidden __fixunsdfsi
0800540c g     F .text	0000000a ADC1_2_IRQHandler
20002f5c g     O .bss	00000004 __malloc_top_pad
20000154 g     O .data	00000004 __mb_cur_max
0800b028 g     F .text	0000001e .hidden __aeabi_ui2d
08008318 g     F .text	00000008 _localeconv_r
08008c68 g     F .text	00000012 __i2b
0800408c g     F .text	0000008c Lcd_Fill
0800553c g     F .text	0000000a SPI1_IRQHandler
0800543c g     F .text	0000000a CAN_SCE_IRQHandler
0800ada4 g     F .text	00000000 .hidden __aeabi_drsub
08009394 g     F .text	00000026 _sbrk_r
08005328 g     F .text	0000000a TAMPER_IRQHandler
08004864 g     F .text	00000058 LED_Init
0800b5f8 g     F .text	00000012 .hidden __aeabi_dcmplt
08003774 g     F .text	000000a6 Clock_Init
20002f88 g     O .bss	00000004 __malloc_max_sbrked_mem
0800318c g     F .text	0000000a IdleTask
0800b06c g     F .text	0000003a .hidden __extendsfdf2
0800b368 g     F .text	000001d0 .hidden __aeabi_ddiv
0800adb0 g     F .text	00000276 .hidden __adddf3
200005c0 g       .data	00000000 __RW_LIMIT__
08005af4 g     F .text	00000034 Uart1_Printf
080090a0 g     F .text	000000ac __b2d
0800b114 g     F .text	00000254 .hidden __aeabi_dmul
080038f4 g     F .text	0000001e __get_CONTROL
0800c084 g     O .rodata	00000004 _global_impure_ptr
0800a648 g     F .text	000003ea _realloc_r
20000ce0 g     O .bss	00002000 stack
0800bab8 g     F .text	00000300 .hidden __udivdi3
080053dc g     F .text	0000000a DMA1_Channel4_IRQHandler
0800c1a8 g     O .rodata	00000028 __mprec_bigtens
08008b3c g     F .text	00000098 __s2b
0800b028 g     F .text	0000001e .hidden __floatunsidf
08004e7c g     F .text	0000008a _sbrk
08008f2c g     F .text	00000042 __mcmp
08003608 g     F .text	00000078 OS_Block_Task
08004abc g     F .text	0000004a pq_compare_delay
08004838 g     F .text	0000002c Lcd_Put_Pixel
08005b28 g     F .text	00000060 Uart1_RX_Interrupt_Enable
08005590 g     F .text	0000000a USART3_IRQHandler
08005334 g     F .text	0000000a RTC_IRQHandler
0800381c g     F .text	00000010 __get_PSP
08003c94 g     F .text	000001c8 Key_ISR_Enable
0800382c g     F .text	00000008 __set_PSP
08005400 g     F .text	0000000a DMA1_Channel7_IRQHandler
0800aa50 g     F .text	000000d6 _reclaim_reent
08008bd4 g     F .text	0000003c __hi0bits
0800b648 g     F .text	0000004e .hidden __fixdfsi
080044dc g     F .text	000000e0 Lcd_Draw_Box
080032c4 g     F .text	00000118 OS_Create_Task_Simple
08003760 g     F .text	00000012 PRINT_DUMMY
0800421c g     F .text	00000118 Lcd_Set_Display_Mode
080054d8 g     F .text	00000034 TIM4_IRQHandler
0800adb0 g     F .text	00000276 .hidden __aeabi_dadd
0800b540 g     F .text	00000082 .hidden __ledf2
20002f10 g     O .bss	00000028 dummyParams
08005430 g     F .text	0000000a CAN_RX1_IRQHandler
08008dbc g     F .text	000000b8 __pow5mult
0800b0a8 g     F .text	0000006a .hidden __aeabi_ul2d
20002f58 g     O .bss	00000004 __nlocale_changed
08004984 g     F .text	00000022 Task1
00000000  w      *UND*	00000000 __sf_fake_stderr
08005c20 g     F .text	00000000 _HardFault_Handler
20002ce8 g     O .bss	00000108 ready_queue
0800550c g     F .text	0000000a I2C1_EV_IRQHandler
080030ec g     F .text	00000000 __start
080039b8 g     F .text	00000022 __LDREXB
08003ff4 g     F .text	00000026 Lcd_Write_Reg
0800b634 g     F .text	00000012 .hidden __aeabi_dcmpgt
080053f4 g     F .text	0000000a DMA1_Channel6_IRQHandler
080088cc g     F .text	00000090 memchr
0800a340 g     F .text	00000198 _free_r
08004cd8 g     F .text	00000052 pq_push
080054cc g     F .text	0000000a TIM3_IRQHandler
0800534c g     F .text	0000000a RCC_IRQHandler
08008300 g     F .text	0000000c __locale_mb_cur_max
0800434c g     F .text	0000009c Lcd_Set_Windows
0800b620 g     F .text	00000012 .hidden __aeabi_dcmpge
080054a8 g     F .text	0000000a TIM1_TRG_COM_IRQHandler
080053b8 g     F .text	0000000a DMA1_Channel1_IRQHandler
08003884 g     F .text	0000001e __get_PRIMASK
20002f54 g     O .bss	00000004 __mlocale_changed
0800adac g     F .text	0000027a .hidden __aeabi_dsub
200005b8 g     O .data	00000004 __malloc_sbrk_base
000005c0 g       *ABS*	00000000 __RW_SIZE__
0800b0a8 g     F .text	0000006a .hidden __floatundidf
08008e74 g     F .text	000000b6 __lshift
08005c34 g     F .text	00000000 _MemManage_Handler
08009658 g     F .text	00000104 __ssprint_r
0800559c g     F .text	00000054 EXTI15_10_IRQHandler
0800c258 g       *ABS*	00000000 __RW_LOAD_ADDR__
08003970 g     F .text	00000022 __REVSH
08008c7c g     F .text	00000140 __multiply
20002f60 g     O .bss	00000028 __malloc_current_mallinfo
0800914c g     F .text	000000ba __d2b
20000010 g     O .data	00000020 EXTI9_5_LUT
08003c80 g     F .text	00000012 Key_Wait_Key_Released
08003198 g     F .text	000000cc OS_Init
0800401c g     F .text	00000070 Lcd_Write_Data_16Bit
0800b048 g     F .text	00000022 .hidden __aeabi_i2d
08004d2c g     F .text	00000062 pq_pop
0800bdc0 g       .rodata	00000000 __RO_BASE__
0800ada0  w    F .text	00000002 .hidden __aeabi_ldiv0
08005448 g     F .text	00000048 EXTI9_5_IRQHandler
0800b368 g     F .text	000001d0 .hidden __divdf3
0800929c g     F .text	00000046 __copybits
200001b0 g     O .data	00000408 __malloc_av_
0800b114 g     F .text	00000254 .hidden __muldf3
08008a04 g     F .text	00000002 __malloc_lock
08004960 g     F .text	00000024 LED_1_Toggle
08004d90 g     F .text	00000026 pq_top
0800a238 g     F .text	00000062 _calloc_r
08005c48 g     F .text	00000000 _BusFault_Handler
08005548 g     F .text	0000000a SPI2_IRQHandler
00000000  w      *UND*	00000000 __sf_fake_stdin
08004e34 g     F .text	00000046 pq_update
0800493c g     F .text	00000024 LED_0_Toggle
08005424 g     F .text	0000000a USB_LP_CAN_RX0_IRQHandler
0800a5a8 g     F .text	0000009e memset
080051f0 g     F .text	0000005a MemManage_Handler
20002f8c g     O .bss	00000004 __malloc_max_total_mem
080049cc g     F .text	00000022 Task3
20002f90 g       .bss	00000000 __ZI_LIMIT__
08004f08 g     F .text	0000005e System_Init
0800ab28 g     F .text	00000000 .hidden __aeabi_uidiv
08005c9c g     F .text	00000000 SVC_Handler
08005608 g     F .text	00000090 SysTick_OS_Tick
08003914 g     F .text	00000018 __set_CONTROL
08007314 g     F .text	00000f8a _dtoa_r
0800835c g     F .text	0000056e _malloc_r
0800b0b8 g     F .text	0000005a .hidden __aeabi_l2d
08005acc g     F .text	00000026 Uart1_Send_String
08005a60 g     F .text	0000006a Uart1_Send_Byte
08003bf8 g     F .text	00000066 Key_Get_Pressed
20002f3c g     O .bss	00000004 systick_flag
080048f4 g     F .text	00000024 LED_All_On
080053e8 g     F .text	0000000a DMA1_Channel5_IRQHandler
080053ac g     F .text	0000000a EXTI4_IRQHandler
0800a29c g     F .text	000000a2 _malloc_trim_r
080093bc g     F .text	00000000 strcmp
08003834 g     F .text	00000010 __get_MSP
08003584 g     F .text	00000084 OS_Tick
0800c258 g       .rodata	00000000 __RO_LIMIT__
20002f44 g     O .bss	00000004 tim4_timeout
0800b548 g     F .text	0000007a .hidden __nedf2
20002f50 g     O .bss	00000004 _PathLocale
20002f00 g     O .bss	0000000c lcddev
080043e8 g     F .text	00000020 Lcd_Set_Cursor
08005cc0 g     F .text	00000032 _vsprintf_r
080053d0 g     F .text	0000000a DMA1_Channel3_IRQHandler
08008320 g     F .text	00000012 setlocale
0800394c g     F .text	00000022 __REV16
20000040 g     O .data	00000004 _impure_ptr
0800549c g     F .text	0000000a TIM1_UP_IRQHandler
08008314 g     F .text	00000004 __locale_cjk_lang
08003264 g     F .text	00000060 _OS_Get_Stack
0800975c g     F .text	00000adc _svfiprintf_r
000029d4 g       *ABS*	00000000 __ZI_SIZE__
08005310 g     F .text	0000000a WWDG_IRQHandler
080049f0 g     F .text	0000001e TaskDummy
08003844 g     F .text	00000008 __set_MSP
0800905c g     F .text	00000042 __ulp
080049a8 g     F .text	00000022 Task2
080045bc g     F .text	0000027c Lcd_Init
080054c0 g     F .text	0000000a TIM2_IRQHandler
08004db8 g     F .text	0000007c pq_remove
08003f78 g     F .text	0000007c Lcd_GPIO_Init
0800b698 g     F .text	00000040 .hidden __aeabi_d2uiz
20002ef8 g     O .bss	00000004 system_tick
200005c0 g       .bss	00000000 __ZI_BASE__
08008334 g     F .text	00000008 localeconv
08005490 g     F .text	0000000a TIM1_BRK_IRQHandler
0800ad84 g     F .text	0000001a .hidden __aeabi_uidivmod
08005364 g     F .text	0000000a EXTI1_IRQHandler
0800386c g     F .text	00000018 __set_BASEPRI
0800b5e4 g     F .text	00000012 .hidden __aeabi_dcmpeq
08003c60 g     F .text	00000020 Key_Wait_Key_Pressed
080058fc g     F .text	00000164 Uart1_Init
08004b6c g     F .text	00000044 pq_swap
080055f0 g     F .text	0000000a RTCAlarm_IRQHandler
08005584 g     F .text	0000000a USART2_IRQHandler
200005bc g     O .data	00000004 __malloc_trim_threshold
0800830c g     F .text	00000008 __locale_msgcharset
08003a4c g     F .text	00000028 __STREXH
08008f70 g     F .text	000000ea __mdiff
0800b648 g     F .text	0000004e .hidden __aeabi_d2iz
080039dc g     F .text	00000022 __LDREXH
08005530 g     F .text	0000000a I2C2_ER_IRQHandler
080053c4 g     F .text	0000000a DMA1_Channel2_IRQHandler
20002ce4 g     O .bss	00000004 next_tcb
00000000  w      *UND*	00000000 __sf_fake_stdout
0800ada0  w    F .text	00000002 .hidden __aeabi_idiv0
08003680 g     F .text	00000080 OS_Unblock_Task
08005340 g     F .text	0000000a FLASH_IRQHandler
08003700 g     F .text	00000060 OS_Change_Priority
20002f4c g     O .bss	00000001 uart_rx_data
08004408 g     F .text	000000c6 Lcd_Draw_Back_Color
0800524c g     F .text	0000005a BusFault_Handler
08005554 g     F .text	00000030 USART1_IRQHandler
080095f8 g     F .text	0000005e strlen
08005734 g     F .text	0000012a TIM4_Repeat_Interrupt_Enable
08005c5c g     F .text	00000000 _UsageFault_Handler
0800384c g     F .text	0000001e __get_BASEPRI
0800b5d4 g     F .text	00000010 .hidden __aeabi_cdcmpeq
0800b538 g     F .text	0000008a .hidden __gedf2
0800b704 g     F .text	00000030 .hidden __gnu_ldivmod_helper
08005518 g     F .text	0000000a I2C1_ER_IRQHandler
0800b06c g     F .text	0000003a .hidden __aeabi_f2d
08003a24 g     F .text	00000028 __STREXB
0800adac g     F .text	0000027a .hidden __subdf3
08005b8e g     F .text	00000000 _Print_Reg
08008c10 g     F .text	00000056 __lo0bits
08004f9c g     F .text	00000040 Invalid_ISR
080055fc g     F .text	0000000a USBWakeUp_IRQHandler
0800834c g     F .text	00000010 free
08008ab0 g     F .text	0000008c __multadd
08005b88 g     F .text	00000000 __get_IPSR
08008a78 g     F .text	00000036 _Bfree



Disassembly of section .text:

08003000 <__start-0xec>:
 8003000:	20005000 	andcs	r5, r0, r0
 8003004:	080030ed 	stmdaeq	r0, {r0, r2, r3, r5, r6, r7, ip, sp}
 8003008:	08005129 	stmdaeq	r0, {r0, r3, r5, r8, ip, lr}
 800300c:	08005c21 	stmdaeq	r0, {r0, r5, sl, fp, ip, lr}
 8003010:	08005c35 	stmdaeq	r0, {r0, r2, r4, r5, sl, fp, ip, lr}
 8003014:	08005c49 	stmdaeq	r0, {r0, r3, r6, sl, fp, ip, lr}
 8003018:	08005c5d 	stmdaeq	r0, {r0, r2, r3, r4, r6, sl, fp, ip, lr}
	...
 800302c:	08005c9d 	stmdaeq	r0, {r0, r2, r3, r4, r7, sl, fp, ip, lr}
 8003030:	080052cd 	stmdaeq	r0, {r0, r2, r3, r6, r7, r9, ip, lr}
 8003034:	00000000 	andeq	r0, r0, r0
 8003038:	08005c81 	stmdaeq	r0, {r0, r7, sl, fp, ip, lr}
 800303c:	080052e1 	stmdaeq	r0, {r0, r5, r6, r7, r9, ip, lr}
 8003040:	08005311 	stmdaeq	r0, {r0, r4, r8, r9, ip, lr}
 8003044:	0800531d 	stmdaeq	r0, {r0, r2, r3, r4, r8, r9, ip, lr}
 8003048:	08005329 	stmdaeq	r0, {r0, r3, r5, r8, r9, ip, lr}
 800304c:	08005335 	stmdaeq	r0, {r0, r2, r4, r5, r8, r9, ip, lr}
 8003050:	08005341 	stmdaeq	r0, {r0, r6, r8, r9, ip, lr}
 8003054:	0800534d 	stmdaeq	r0, {r0, r2, r3, r6, r8, r9, ip, lr}
 8003058:	08005359 	stmdaeq	r0, {r0, r3, r4, r6, r8, r9, ip, lr}
 800305c:	08005365 	stmdaeq	r0, {r0, r2, r5, r6, r8, r9, ip, lr}
 8003060:	08005371 	stmdaeq	r0, {r0, r4, r5, r6, r8, r9, ip, lr}
 8003064:	0800537d 	stmdaeq	r0, {r0, r2, r3, r4, r5, r6, r8, r9, ip, lr}
 8003068:	080053ad 	stmdaeq	r0, {r0, r2, r3, r5, r7, r8, r9, ip, lr}
 800306c:	080053b9 	stmdaeq	r0, {r0, r3, r4, r5, r7, r8, r9, ip, lr}
 8003070:	080053c5 	stmdaeq	r0, {r0, r2, r6, r7, r8, r9, ip, lr}
 8003074:	080053d1 	stmdaeq	r0, {r0, r4, r6, r7, r8, r9, ip, lr}
 8003078:	080053dd 	stmdaeq	r0, {r0, r2, r3, r4, r6, r7, r8, r9, ip, lr}
 800307c:	080053e9 	stmdaeq	r0, {r0, r3, r5, r6, r7, r8, r9, ip, lr}
 8003080:	080053f5 	stmdaeq	r0, {r0, r2, r4, r5, r6, r7, r8, r9, ip, lr}
 8003084:	08005401 	stmdaeq	r0, {r0, sl, ip, lr}
 8003088:	0800540d 	stmdaeq	r0, {r0, r2, r3, sl, ip, lr}
	...
 800309c:	08005449 	stmdaeq	r0, {r0, r3, r6, sl, ip, lr}
 80030a0:	08005491 	stmdaeq	r0, {r0, r4, r7, sl, ip, lr}
 80030a4:	0800549d 	stmdaeq	r0, {r0, r2, r3, r4, r7, sl, ip, lr}
 80030a8:	080054a9 	stmdaeq	r0, {r0, r3, r5, r7, sl, ip, lr}
 80030ac:	080054b5 	stmdaeq	r0, {r0, r2, r4, r5, r7, sl, ip, lr}
 80030b0:	080054c1 	stmdaeq	r0, {r0, r6, r7, sl, ip, lr}
 80030b4:	080054cd 	stmdaeq	r0, {r0, r2, r3, r6, r7, sl, ip, lr}
 80030b8:	080054d9 	stmdaeq	r0, {r0, r3, r4, r6, r7, sl, ip, lr}
 80030bc:	0800550d 	stmdaeq	r0, {r0, r2, r3, r8, sl, ip, lr}
 80030c0:	08005519 	stmdaeq	r0, {r0, r3, r4, r8, sl, ip, lr}
 80030c4:	08005525 	stmdaeq	r0, {r0, r2, r5, r8, sl, ip, lr}
 80030c8:	08005531 	stmdaeq	r0, {r0, r4, r5, r8, sl, ip, lr}
 80030cc:	0800553d 	stmdaeq	r0, {r0, r2, r3, r4, r5, r8, sl, ip, lr}
 80030d0:	08005549 	stmdaeq	r0, {r0, r3, r6, r8, sl, ip, lr}
 80030d4:	08005555 	stmdaeq	r0, {r0, r2, r4, r6, r8, sl, ip, lr}
 80030d8:	08005585 	stmdaeq	r0, {r0, r2, r7, r8, sl, ip, lr}
 80030dc:	08005591 	stmdaeq	r0, {r0, r4, r7, r8, sl, ip, lr}
 80030e0:	0800559d 	stmdaeq	r0, {r0, r2, r3, r4, r7, r8, sl, ip, lr}
 80030e4:	080055f1 	stmdaeq	r0, {r0, r4, r5, r6, r7, r8, sl, ip, lr}
 80030e8:	080055fd 	stmdaeq	r0, {r0, r2, r3, r4, r5, r6, r7, r8, sl, ip, lr}

080030ec <__start>:
 80030ec:	480d      	ldr	r0, [pc, #52]	; (8003124 <__start+0x38>)
 80030ee:	490e      	ldr	r1, [pc, #56]	; (8003128 <__start+0x3c>)
 80030f0:	4b0e      	ldr	r3, [pc, #56]	; (800312c <__start+0x40>)
 80030f2:	4288      	cmp	r0, r1
 80030f4:	d006      	beq.n	8003104 <__start+0x18>
 80030f6:	4299      	cmp	r1, r3
 80030f8:	bf3e      	ittt	cc
 80030fa:	f850 2b04 	ldrcc.w	r2, [r0], #4
 80030fe:	f841 2b04 	strcc.w	r2, [r1], #4
 8003102:	e7f8      	bcc.n	80030f6 <__start+0xa>
 8003104:	490a      	ldr	r1, [pc, #40]	; (8003130 <__start+0x44>)
 8003106:	f04f 0200 	mov.w	r2, #0
 800310a:	428b      	cmp	r3, r1
 800310c:	bf3c      	itt	cc
 800310e:	f843 2b04 	strcc.w	r2, [r3], #4
 8003112:	e7fa      	bcc.n	800310a <__start+0x1e>
 8003114:	f000 fb2e 	bl	8003774 <Clock_Init>
 8003118:	f001 fef6 	bl	8004f08 <System_Init>
 800311c:	f001 fc78 	bl	8004a10 <Main>
 8003120:	e7fe      	b.n	8003120 <__start+0x34>
 8003122:	c2580000 	subsgt	r0, r8, #0
 8003126:	00000800 	andeq	r0, r0, r0, lsl #16
 800312a:	05c02000 	strbeq	r2, [r0]
 800312e:	2f902000 	svccs	0x00902000
 8003132:	b4802000 	strlt	r2, [r0], #0

08003134 <NVIC_SetPriority>:
 8003134:	b480      	push	{r7}
 8003136:	b083      	sub	sp, #12
 8003138:	af00      	add	r7, sp, #0
 800313a:	4603      	mov	r3, r0
 800313c:	6039      	str	r1, [r7, #0]
 800313e:	71fb      	strb	r3, [r7, #7]
 8003140:	f997 3007 	ldrsb.w	r3, [r7, #7]
 8003144:	2b00      	cmp	r3, #0
 8003146:	da0e      	bge.n	8003166 <NVIC_SetPriority+0x32>
 8003148:	f44f 436d 	mov.w	r3, #60672	; 0xed00
 800314c:	f2ce 0300 	movt	r3, #57344	; 0xe000
 8003150:	79fa      	ldrb	r2, [r7, #7]
 8003152:	f002 020f 	and.w	r2, r2, #15
 8003156:	1f11      	subs	r1, r2, #4
 8003158:	683a      	ldr	r2, [r7, #0]
 800315a:	b2d2      	uxtb	r2, r2
 800315c:	0112      	lsls	r2, r2, #4
 800315e:	b2d2      	uxtb	r2, r2
 8003160:	440b      	add	r3, r1
 8003162:	761a      	strb	r2, [r3, #24]
 8003164:	e00c      	b.n	8003180 <NVIC_SetPriority+0x4c>
 8003166:	f44f 4361 	mov.w	r3, #57600	; 0xe100
 800316a:	f2ce 0300 	movt	r3, #57344	; 0xe000
 800316e:	f997 1007 	ldrsb.w	r1, [r7, #7]
 8003172:	683a      	ldr	r2, [r7, #0]
 8003174:	b2d2      	uxtb	r2, r2
 8003176:	0112      	lsls	r2, r2, #4
 8003178:	b2d2      	uxtb	r2, r2
 800317a:	440b      	add	r3, r1
 800317c:	f883 2300 	strb.w	r2, [r3, #768]	; 0x300
 8003180:	370c      	adds	r7, #12
 8003182:	46bd      	mov	sp, r7
 8003184:	f85d 7b04 	ldr.w	r7, [sp], #4
 8003188:	4770      	bx	lr
 800318a:	bf00      	nop

0800318c <IdleTask>:
 800318c:	b480      	push	{r7}
 800318e:	b083      	sub	sp, #12
 8003190:	af00      	add	r7, sp, #0
 8003192:	6078      	str	r0, [r7, #4]
 8003194:	e7fe      	b.n	8003194 <IdleTask+0x8>
 8003196:	bf00      	nop

08003198 <OS_Init>:
 8003198:	b580      	push	{r7, lr}
 800319a:	b082      	sub	sp, #8
 800319c:	af00      	add	r7, sp, #0
 800319e:	2300      	movs	r3, #0
 80031a0:	607b      	str	r3, [r7, #4]
 80031a2:	e044      	b.n	800322e <OS_Init+0x96>
 80031a4:	f240 52c0 	movw	r2, #1472	; 0x5c0
 80031a8:	f2c2 0200 	movt	r2, #8192	; 0x2000
 80031ac:	6879      	ldr	r1, [r7, #4]
 80031ae:	460b      	mov	r3, r1
 80031b0:	00db      	lsls	r3, r3, #3
 80031b2:	1a5b      	subs	r3, r3, r1
 80031b4:	009b      	lsls	r3, r3, #2
 80031b6:	4413      	add	r3, r2
 80031b8:	3304      	adds	r3, #4
 80031ba:	687a      	ldr	r2, [r7, #4]
 80031bc:	601a      	str	r2, [r3, #0]
 80031be:	f240 52c0 	movw	r2, #1472	; 0x5c0
 80031c2:	f2c2 0200 	movt	r2, #8192	; 0x2000
 80031c6:	6879      	ldr	r1, [r7, #4]
 80031c8:	460b      	mov	r3, r1
 80031ca:	00db      	lsls	r3, r3, #3
 80031cc:	1a5b      	subs	r3, r3, r1
 80031ce:	009b      	lsls	r3, r3, #2
 80031d0:	4413      	add	r3, r2
 80031d2:	330c      	adds	r3, #12
 80031d4:	2200      	movs	r2, #0
 80031d6:	601a      	str	r2, [r3, #0]
 80031d8:	f240 52c0 	movw	r2, #1472	; 0x5c0
 80031dc:	f2c2 0200 	movt	r2, #8192	; 0x2000
 80031e0:	6879      	ldr	r1, [r7, #4]
 80031e2:	460b      	mov	r3, r1
 80031e4:	00db      	lsls	r3, r3, #3
 80031e6:	1a5b      	subs	r3, r3, r1
 80031e8:	009b      	lsls	r3, r3, #2
 80031ea:	4413      	add	r3, r2
 80031ec:	3310      	adds	r3, #16
 80031ee:	2200      	movs	r2, #0
 80031f0:	601a      	str	r2, [r3, #0]
 80031f2:	f240 52c0 	movw	r2, #1472	; 0x5c0
 80031f6:	f2c2 0200 	movt	r2, #8192	; 0x2000
 80031fa:	6879      	ldr	r1, [r7, #4]
 80031fc:	460b      	mov	r3, r1
 80031fe:	00db      	lsls	r3, r3, #3
 8003200:	1a5b      	subs	r3, r3, r1
 8003202:	009b      	lsls	r3, r3, #2
 8003204:	4413      	add	r3, r2
 8003206:	3314      	adds	r3, #20
 8003208:	2200      	movs	r2, #0
 800320a:	601a      	str	r2, [r3, #0]
 800320c:	f240 52c0 	movw	r2, #1472	; 0x5c0
 8003210:	f2c2 0200 	movt	r2, #8192	; 0x2000
 8003214:	6879      	ldr	r1, [r7, #4]
 8003216:	460b      	mov	r3, r1
 8003218:	00db      	lsls	r3, r3, #3
 800321a:	1a5b      	subs	r3, r3, r1
 800321c:	009b      	lsls	r3, r3, #2
 800321e:	4413      	add	r3, r2
 8003220:	3318      	adds	r3, #24
 8003222:	f04f 32ff 	mov.w	r2, #4294967295
 8003226:	601a      	str	r2, [r3, #0]
 8003228:	687b      	ldr	r3, [r7, #4]
 800322a:	3301      	adds	r3, #1
 800322c:	607b      	str	r3, [r7, #4]
 800322e:	687b      	ldr	r3, [r7, #4]
 8003230:	2b40      	cmp	r3, #64	; 0x40
 8003232:	ddb7      	ble.n	80031a4 <OS_Init+0xc>
 8003234:	f642 40e8 	movw	r0, #11496	; 0x2ce8
 8003238:	f2c2 0000 	movt	r0, #8192	; 0x2000
 800323c:	f001 fc30 	bl	8004aa0 <pq_init>
 8003240:	f642 50f0 	movw	r0, #11760	; 0x2df0
 8003244:	f2c2 0000 	movt	r0, #8192	; 0x2000
 8003248:	f001 fc2a 	bl	8004aa0 <pq_init>
 800324c:	f243 108d 	movw	r0, #12685	; 0x318d
 8003250:	f6c0 0000 	movt	r0, #2048	; 0x800
 8003254:	2100      	movs	r1, #0
 8003256:	22ff      	movs	r2, #255	; 0xff
 8003258:	2380      	movs	r3, #128	; 0x80
 800325a:	f000 f833 	bl	80032c4 <OS_Create_Task_Simple>
 800325e:	3708      	adds	r7, #8
 8003260:	46bd      	mov	sp, r7
 8003262:	bd80      	pop	{r7, pc}

08003264 <_OS_Get_Stack>:
 8003264:	b480      	push	{r7}
 8003266:	b085      	sub	sp, #20
 8003268:	af00      	add	r7, sp, #0
 800326a:	6078      	str	r0, [r7, #4]
 800326c:	f240 0300 	movw	r3, #0
 8003270:	f2c2 0300 	movt	r3, #8192	; 0x2000
 8003274:	681b      	ldr	r3, [r3, #0]
 8003276:	60fb      	str	r3, [r7, #12]
 8003278:	687b      	ldr	r3, [r7, #4]
 800327a:	3307      	adds	r3, #7
 800327c:	f023 0307 	bic.w	r3, r3, #7
 8003280:	607b      	str	r3, [r7, #4]
 8003282:	687b      	ldr	r3, [r7, #4]
 8003284:	425b      	negs	r3, r3
 8003286:	68fa      	ldr	r2, [r7, #12]
 8003288:	441a      	add	r2, r3
 800328a:	f240 0304 	movw	r3, #4
 800328e:	f2c2 0300 	movt	r3, #8192	; 0x2000
 8003292:	681b      	ldr	r3, [r3, #0]
 8003294:	429a      	cmp	r2, r3
 8003296:	d201      	bcs.n	800329c <_OS_Get_Stack+0x38>
 8003298:	2300      	movs	r3, #0
 800329a:	e00d      	b.n	80032b8 <_OS_Get_Stack+0x54>
 800329c:	f240 0300 	movw	r3, #0
 80032a0:	f2c2 0300 	movt	r3, #8192	; 0x2000
 80032a4:	681a      	ldr	r2, [r3, #0]
 80032a6:	687b      	ldr	r3, [r7, #4]
 80032a8:	425b      	negs	r3, r3
 80032aa:	441a      	add	r2, r3
 80032ac:	f240 0300 	movw	r3, #0
 80032b0:	f2c2 0300 	movt	r3, #8192	; 0x2000
 80032b4:	601a      	str	r2, [r3, #0]
 80032b6:	68fb      	ldr	r3, [r7, #12]
 80032b8:	4618      	mov	r0, r3
 80032ba:	3714      	adds	r7, #20
 80032bc:	46bd      	mov	sp, r7
 80032be:	f85d 7b04 	ldr.w	r7, [sp], #4
 80032c2:	4770      	bx	lr

080032c4 <OS_Create_Task_Simple>:
 80032c4:	b580      	push	{r7, lr}
 80032c6:	b086      	sub	sp, #24
 80032c8:	af00      	add	r7, sp, #0
 80032ca:	60f8      	str	r0, [r7, #12]
 80032cc:	60b9      	str	r1, [r7, #8]
 80032ce:	607a      	str	r2, [r7, #4]
 80032d0:	603b      	str	r3, [r7, #0]
 80032d2:	f642 63fc 	movw	r3, #12028	; 0x2efc
 80032d6:	f2c2 0300 	movt	r3, #8192	; 0x2000
 80032da:	681b      	ldr	r3, [r3, #0]
 80032dc:	f64b 50c0 	movw	r0, #48576	; 0xbdc0
 80032e0:	f6c0 0000 	movt	r0, #2048	; 0x800
 80032e4:	4619      	mov	r1, r3
 80032e6:	f002 fc05 	bl	8005af4 <Uart1_Printf>
 80032ea:	f642 63fc 	movw	r3, #12028	; 0x2efc
 80032ee:	f2c2 0300 	movt	r3, #8192	; 0x2000
 80032f2:	681b      	ldr	r3, [r3, #0]
 80032f4:	2b40      	cmp	r3, #64	; 0x40
 80032f6:	dd02      	ble.n	80032fe <OS_Create_Task_Simple+0x3a>
 80032f8:	f04f 33ff 	mov.w	r3, #4294967295
 80032fc:	e06a      	b.n	80033d4 <OS_Create_Task_Simple+0x110>
 80032fe:	f642 63fc 	movw	r3, #12028	; 0x2efc
 8003302:	f2c2 0300 	movt	r3, #8192	; 0x2000
 8003306:	681a      	ldr	r2, [r3, #0]
 8003308:	4613      	mov	r3, r2
 800330a:	00db      	lsls	r3, r3, #3
 800330c:	1a9b      	subs	r3, r3, r2
 800330e:	009b      	lsls	r3, r3, #2
 8003310:	f240 52c0 	movw	r2, #1472	; 0x5c0
 8003314:	f2c2 0200 	movt	r2, #8192	; 0x2000
 8003318:	4413      	add	r3, r2
 800331a:	617b      	str	r3, [r7, #20]
 800331c:	6838      	ldr	r0, [r7, #0]
 800331e:	f7ff ffa1 	bl	8003264 <_OS_Get_Stack>
 8003322:	4602      	mov	r2, r0
 8003324:	697b      	ldr	r3, [r7, #20]
 8003326:	601a      	str	r2, [r3, #0]
 8003328:	697b      	ldr	r3, [r7, #20]
 800332a:	681b      	ldr	r3, [r3, #0]
 800332c:	2b00      	cmp	r3, #0
 800332e:	d102      	bne.n	8003336 <OS_Create_Task_Simple+0x72>
 8003330:	f06f 0301 	mvn.w	r3, #1
 8003334:	e04e      	b.n	80033d4 <OS_Create_Task_Simple+0x110>
 8003336:	f642 63fc 	movw	r3, #12028	; 0x2efc
 800333a:	f2c2 0300 	movt	r3, #8192	; 0x2000
 800333e:	681b      	ldr	r3, [r3, #0]
 8003340:	1c5a      	adds	r2, r3, #1
 8003342:	f642 63fc 	movw	r3, #12028	; 0x2efc
 8003346:	f2c2 0300 	movt	r3, #8192	; 0x2000
 800334a:	601a      	str	r2, [r3, #0]
 800334c:	697b      	ldr	r3, [r7, #20]
 800334e:	681b      	ldr	r3, [r3, #0]
 8003350:	f1a3 0240 	sub.w	r2, r3, #64	; 0x40
 8003354:	697b      	ldr	r3, [r7, #20]
 8003356:	601a      	str	r2, [r3, #0]
 8003358:	697b      	ldr	r3, [r7, #20]
 800335a:	681b      	ldr	r3, [r3, #0]
 800335c:	3320      	adds	r3, #32
 800335e:	68ba      	ldr	r2, [r7, #8]
 8003360:	601a      	str	r2, [r3, #0]
 8003362:	697b      	ldr	r3, [r7, #20]
 8003364:	681b      	ldr	r3, [r3, #0]
 8003366:	3338      	adds	r3, #56	; 0x38
 8003368:	68fa      	ldr	r2, [r7, #12]
 800336a:	601a      	str	r2, [r3, #0]
 800336c:	697b      	ldr	r3, [r7, #20]
 800336e:	681b      	ldr	r3, [r3, #0]
 8003370:	333c      	adds	r3, #60	; 0x3c
 8003372:	f04f 7280 	mov.w	r2, #16777216	; 0x1000000
 8003376:	601a      	str	r2, [r3, #0]
 8003378:	697b      	ldr	r3, [r7, #20]
 800337a:	687a      	ldr	r2, [r7, #4]
 800337c:	609a      	str	r2, [r3, #8]
 800337e:	697b      	ldr	r3, [r7, #20]
 8003380:	2200      	movs	r2, #0
 8003382:	60da      	str	r2, [r3, #12]
 8003384:	f642 63f8 	movw	r3, #12024	; 0x2ef8
 8003388:	f2c2 0300 	movt	r3, #8192	; 0x2000
 800338c:	681a      	ldr	r2, [r3, #0]
 800338e:	697b      	ldr	r3, [r7, #20]
 8003390:	611a      	str	r2, [r3, #16]
 8003392:	697b      	ldr	r3, [r7, #20]
 8003394:	f04f 32ff 	mov.w	r2, #4294967295
 8003398:	619a      	str	r2, [r3, #24]
 800339a:	f642 40e8 	movw	r0, #11496	; 0x2ce8
 800339e:	f2c2 0000 	movt	r0, #8192	; 0x2000
 80033a2:	6979      	ldr	r1, [r7, #20]
 80033a4:	f644 3209 	movw	r2, #19209	; 0x4b09
 80033a8:	f6c0 0200 	movt	r2, #2048	; 0x800
 80033ac:	f001 fc94 	bl	8004cd8 <pq_push>
 80033b0:	f642 63fc 	movw	r3, #12028	; 0x2efc
 80033b4:	f2c2 0300 	movt	r3, #8192	; 0x2000
 80033b8:	681b      	ldr	r3, [r3, #0]
 80033ba:	1e5a      	subs	r2, r3, #1
 80033bc:	697b      	ldr	r3, [r7, #20]
 80033be:	681b      	ldr	r3, [r3, #0]
 80033c0:	f64b 50dc 	movw	r0, #48604	; 0xbddc
 80033c4:	f6c0 0000 	movt	r0, #2048	; 0x800
 80033c8:	4611      	mov	r1, r2
 80033ca:	461a      	mov	r2, r3
 80033cc:	f002 fb92 	bl	8005af4 <Uart1_Printf>
 80033d0:	697b      	ldr	r3, [r7, #20]
 80033d2:	685b      	ldr	r3, [r3, #4]
 80033d4:	4618      	mov	r0, r3
 80033d6:	3718      	adds	r7, #24
 80033d8:	46bd      	mov	sp, r7
 80033da:	bd80      	pop	{r7, pc}

080033dc <OS_Scheduler_Start>:
 80033dc:	b580      	push	{r7, lr}
 80033de:	b082      	sub	sp, #8
 80033e0:	af00      	add	r7, sp, #0
 80033e2:	f642 40e8 	movw	r0, #11496	; 0x2ce8
 80033e6:	f2c2 0000 	movt	r0, #8192	; 0x2000
 80033ea:	f644 3109 	movw	r1, #19209	; 0x4b09
 80033ee:	f6c0 0100 	movt	r1, #2048	; 0x800
 80033f2:	f001 fc9b 	bl	8004d2c <pq_pop>
 80033f6:	4602      	mov	r2, r0
 80033f8:	f642 43e0 	movw	r3, #11488	; 0x2ce0
 80033fc:	f2c2 0300 	movt	r3, #8192	; 0x2000
 8003400:	601a      	str	r2, [r3, #0]
 8003402:	f44f 436d 	mov.w	r3, #60672	; 0xed00
 8003406:	f2ce 0300 	movt	r3, #57344	; 0xe000
 800340a:	22f0      	movs	r2, #240	; 0xf0
 800340c:	f883 2023 	strb.w	r2, [r3, #35]	; 0x23
 8003410:	f44f 436d 	mov.w	r3, #60672	; 0xed00
 8003414:	f2ce 0300 	movt	r3, #57344	; 0xe000
 8003418:	22f0      	movs	r2, #240	; 0xf0
 800341a:	f883 2022 	strb.w	r2, [r3, #34]	; 0x22
 800341e:	2300      	movs	r3, #0
 8003420:	607b      	str	r3, [r7, #4]
 8003422:	e009      	b.n	8003438 <OS_Scheduler_Start+0x5c>
 8003424:	687b      	ldr	r3, [r7, #4]
 8003426:	b2db      	uxtb	r3, r3
 8003428:	b25b      	sxtb	r3, r3
 800342a:	4618      	mov	r0, r3
 800342c:	210e      	movs	r1, #14
 800342e:	f7ff fe81 	bl	8003134 <NVIC_SetPriority>
 8003432:	687b      	ldr	r3, [r7, #4]
 8003434:	3301      	adds	r3, #1
 8003436:	607b      	str	r3, [r7, #4]
 8003438:	687b      	ldr	r3, [r7, #4]
 800343a:	2b2a      	cmp	r3, #42	; 0x2a
 800343c:	ddf2      	ble.n	8003424 <OS_Scheduler_Start+0x48>
 800343e:	f642 43e0 	movw	r3, #11488	; 0x2ce0
 8003442:	f2c2 0300 	movt	r3, #8192	; 0x2000
 8003446:	681b      	ldr	r3, [r3, #0]
 8003448:	2202      	movs	r2, #2
 800344a:	60da      	str	r2, [r3, #12]
 800344c:	f002 fc30 	bl	8005cb0 <_OS_Start_First_Task>
 8003450:	3708      	adds	r7, #8
 8003452:	46bd      	mov	sp, r7
 8003454:	bd80      	pop	{r7, pc}
 8003456:	bf00      	nop

08003458 <OS_Scheduler>:
 8003458:	b580      	push	{r7, lr}
 800345a:	af00      	add	r7, sp, #0
 800345c:	f642 40e8 	movw	r0, #11496	; 0x2ce8
 8003460:	f2c2 0000 	movt	r0, #8192	; 0x2000
 8003464:	f001 fc94 	bl	8004d90 <pq_top>
 8003468:	4602      	mov	r2, r0
 800346a:	f642 43e4 	movw	r3, #11492	; 0x2ce4
 800346e:	f2c2 0300 	movt	r3, #8192	; 0x2000
 8003472:	601a      	str	r2, [r3, #0]
 8003474:	f642 43e4 	movw	r3, #11492	; 0x2ce4
 8003478:	f2c2 0300 	movt	r3, #8192	; 0x2000
 800347c:	681b      	ldr	r3, [r3, #0]
 800347e:	2b00      	cmp	r3, #0
 8003480:	d100      	bne.n	8003484 <OS_Scheduler+0x2c>
 8003482:	e07e      	b.n	8003582 <OS_Scheduler+0x12a>
 8003484:	f642 43e4 	movw	r3, #11492	; 0x2ce4
 8003488:	f2c2 0300 	movt	r3, #8192	; 0x2000
 800348c:	681b      	ldr	r3, [r3, #0]
 800348e:	2b00      	cmp	r3, #0
 8003490:	d077      	beq.n	8003582 <OS_Scheduler+0x12a>
 8003492:	f642 43e4 	movw	r3, #11492	; 0x2ce4
 8003496:	f2c2 0300 	movt	r3, #8192	; 0x2000
 800349a:	681a      	ldr	r2, [r3, #0]
 800349c:	f642 43e0 	movw	r3, #11488	; 0x2ce0
 80034a0:	f2c2 0300 	movt	r3, #8192	; 0x2000
 80034a4:	681b      	ldr	r3, [r3, #0]
 80034a6:	429a      	cmp	r2, r3
 80034a8:	d06b      	beq.n	8003582 <OS_Scheduler+0x12a>
 80034aa:	f642 40e8 	movw	r0, #11496	; 0x2ce8
 80034ae:	f2c2 0000 	movt	r0, #8192	; 0x2000
 80034b2:	f644 3109 	movw	r1, #19209	; 0x4b09
 80034b6:	f6c0 0100 	movt	r1, #2048	; 0x800
 80034ba:	f001 fc37 	bl	8004d2c <pq_pop>
 80034be:	f642 43e0 	movw	r3, #11488	; 0x2ce0
 80034c2:	f2c2 0300 	movt	r3, #8192	; 0x2000
 80034c6:	681b      	ldr	r3, [r3, #0]
 80034c8:	2200      	movs	r2, #0
 80034ca:	60da      	str	r2, [r3, #12]
 80034cc:	f642 43e4 	movw	r3, #11492	; 0x2ce4
 80034d0:	f2c2 0300 	movt	r3, #8192	; 0x2000
 80034d4:	681b      	ldr	r3, [r3, #0]
 80034d6:	2202      	movs	r2, #2
 80034d8:	60da      	str	r2, [r3, #12]
 80034da:	f642 43e0 	movw	r3, #11488	; 0x2ce0
 80034de:	f2c2 0300 	movt	r3, #8192	; 0x2000
 80034e2:	681a      	ldr	r2, [r3, #0]
 80034e4:	f642 63f8 	movw	r3, #12024	; 0x2ef8
 80034e8:	f2c2 0300 	movt	r3, #8192	; 0x2000
 80034ec:	681b      	ldr	r3, [r3, #0]
 80034ee:	6113      	str	r3, [r2, #16]
 80034f0:	f642 43e0 	movw	r3, #11488	; 0x2ce0
 80034f4:	f2c2 0300 	movt	r3, #8192	; 0x2000
 80034f8:	681b      	ldr	r3, [r3, #0]
 80034fa:	685b      	ldr	r3, [r3, #4]
 80034fc:	2b03      	cmp	r3, #3
 80034fe:	d10a      	bne.n	8003516 <OS_Scheduler+0xbe>
 8003500:	f240 0308 	movw	r3, #8
 8003504:	f2c2 0300 	movt	r3, #8192	; 0x2000
 8003508:	681b      	ldr	r3, [r3, #0]
 800350a:	1e5a      	subs	r2, r3, #1
 800350c:	f240 0308 	movw	r3, #8
 8003510:	f2c2 0300 	movt	r3, #8192	; 0x2000
 8003514:	601a      	str	r2, [r3, #0]
 8003516:	f642 43e0 	movw	r3, #11488	; 0x2ce0
 800351a:	f2c2 0300 	movt	r3, #8192	; 0x2000
 800351e:	681b      	ldr	r3, [r3, #0]
 8003520:	685b      	ldr	r3, [r3, #4]
 8003522:	2b03      	cmp	r3, #3
 8003524:	d113      	bne.n	800354e <OS_Scheduler+0xf6>
 8003526:	f240 0308 	movw	r3, #8
 800352a:	f2c2 0300 	movt	r3, #8192	; 0x2000
 800352e:	681b      	ldr	r3, [r3, #0]
 8003530:	2b00      	cmp	r3, #0
 8003532:	dc0c      	bgt.n	800354e <OS_Scheduler+0xf6>
 8003534:	2003      	movs	r0, #3
 8003536:	f44f 61fa 	mov.w	r1, #2000	; 0x7d0
 800353a:	f000 f865 	bl	8003608 <OS_Block_Task>
 800353e:	f240 0308 	movw	r3, #8
 8003542:	f2c2 0300 	movt	r3, #8192	; 0x2000
 8003546:	f44f 62fa 	mov.w	r2, #2000	; 0x7d0
 800354a:	601a      	str	r2, [r3, #0]
 800354c:	e00f      	b.n	800356e <OS_Scheduler+0x116>
 800354e:	f642 43e0 	movw	r3, #11488	; 0x2ce0
 8003552:	f2c2 0300 	movt	r3, #8192	; 0x2000
 8003556:	681b      	ldr	r3, [r3, #0]
 8003558:	f642 40e8 	movw	r0, #11496	; 0x2ce8
 800355c:	f2c2 0000 	movt	r0, #8192	; 0x2000
 8003560:	4619      	mov	r1, r3
 8003562:	f644 3209 	movw	r2, #19209	; 0x4b09
 8003566:	f6c0 0200 	movt	r2, #2048	; 0x800
 800356a:	f001 fbb5 	bl	8004cd8 <pq_push>
 800356e:	f642 43e4 	movw	r3, #11492	; 0x2ce4
 8003572:	f2c2 0300 	movt	r3, #8192	; 0x2000
 8003576:	681a      	ldr	r2, [r3, #0]
 8003578:	f642 43e0 	movw	r3, #11488	; 0x2ce0
 800357c:	f2c2 0300 	movt	r3, #8192	; 0x2000
 8003580:	601a      	str	r2, [r3, #0]
 8003582:	bd80      	pop	{r7, pc}

08003584 <OS_Tick>:
 8003584:	b580      	push	{r7, lr}
 8003586:	b082      	sub	sp, #8
 8003588:	af00      	add	r7, sp, #0
 800358a:	f642 63f8 	movw	r3, #12024	; 0x2ef8
 800358e:	f2c2 0300 	movt	r3, #8192	; 0x2000
 8003592:	681b      	ldr	r3, [r3, #0]
 8003594:	1c5a      	adds	r2, r3, #1
 8003596:	f642 63f8 	movw	r3, #12024	; 0x2ef8
 800359a:	f2c2 0300 	movt	r3, #8192	; 0x2000
 800359e:	601a      	str	r2, [r3, #0]
 80035a0:	e018      	b.n	80035d4 <OS_Tick+0x50>
 80035a2:	f642 50f0 	movw	r0, #11760	; 0x2df0
 80035a6:	f2c2 0000 	movt	r0, #8192	; 0x2000
 80035aa:	f644 21bd 	movw	r1, #19133	; 0x4abd
 80035ae:	f6c0 0100 	movt	r1, #2048	; 0x800
 80035b2:	f001 fbbb 	bl	8004d2c <pq_pop>
 80035b6:	6078      	str	r0, [r7, #4]
 80035b8:	687b      	ldr	r3, [r7, #4]
 80035ba:	2200      	movs	r2, #0
 80035bc:	60da      	str	r2, [r3, #12]
 80035be:	f642 40e8 	movw	r0, #11496	; 0x2ce8
 80035c2:	f2c2 0000 	movt	r0, #8192	; 0x2000
 80035c6:	6879      	ldr	r1, [r7, #4]
 80035c8:	f644 3209 	movw	r2, #19209	; 0x4b09
 80035cc:	f6c0 0200 	movt	r2, #2048	; 0x800
 80035d0:	f001 fb82 	bl	8004cd8 <pq_push>
 80035d4:	f642 53f0 	movw	r3, #11760	; 0x2df0
 80035d8:	f2c2 0300 	movt	r3, #8192	; 0x2000
 80035dc:	f8d3 3104 	ldr.w	r3, [r3, #260]	; 0x104
 80035e0:	2b00      	cmp	r3, #0
 80035e2:	dd0e      	ble.n	8003602 <OS_Tick+0x7e>
 80035e4:	f642 50f0 	movw	r0, #11760	; 0x2df0
 80035e8:	f2c2 0000 	movt	r0, #8192	; 0x2000
 80035ec:	f001 fbd0 	bl	8004d90 <pq_top>
 80035f0:	4603      	mov	r3, r0
 80035f2:	695a      	ldr	r2, [r3, #20]
 80035f4:	f642 63f8 	movw	r3, #12024	; 0x2ef8
 80035f8:	f2c2 0300 	movt	r3, #8192	; 0x2000
 80035fc:	681b      	ldr	r3, [r3, #0]
 80035fe:	429a      	cmp	r2, r3
 8003600:	ddcf      	ble.n	80035a2 <OS_Tick+0x1e>
 8003602:	3708      	adds	r7, #8
 8003604:	46bd      	mov	sp, r7
 8003606:	bd80      	pop	{r7, pc}

08003608 <OS_Block_Task>:
 8003608:	b580      	push	{r7, lr}
 800360a:	b084      	sub	sp, #16
 800360c:	af00      	add	r7, sp, #0
 800360e:	6078      	str	r0, [r7, #4]
 8003610:	6039      	str	r1, [r7, #0]
 8003612:	687b      	ldr	r3, [r7, #4]
 8003614:	2b00      	cmp	r3, #0
 8003616:	db02      	blt.n	800361e <OS_Block_Task+0x16>
 8003618:	687b      	ldr	r3, [r7, #4]
 800361a:	2b40      	cmp	r3, #64	; 0x40
 800361c:	dd00      	ble.n	8003620 <OS_Block_Task+0x18>
 800361e:	e02c      	b.n	800367a <OS_Block_Task+0x72>
 8003620:	687a      	ldr	r2, [r7, #4]
 8003622:	4613      	mov	r3, r2
 8003624:	00db      	lsls	r3, r3, #3
 8003626:	1a9b      	subs	r3, r3, r2
 8003628:	009b      	lsls	r3, r3, #2
 800362a:	f240 52c0 	movw	r2, #1472	; 0x5c0
 800362e:	f2c2 0200 	movt	r2, #8192	; 0x2000
 8003632:	4413      	add	r3, r2
 8003634:	60fb      	str	r3, [r7, #12]
 8003636:	68fb      	ldr	r3, [r7, #12]
 8003638:	2201      	movs	r2, #1
 800363a:	60da      	str	r2, [r3, #12]
 800363c:	f642 63f8 	movw	r3, #12024	; 0x2ef8
 8003640:	f2c2 0300 	movt	r3, #8192	; 0x2000
 8003644:	681a      	ldr	r2, [r3, #0]
 8003646:	683b      	ldr	r3, [r7, #0]
 8003648:	441a      	add	r2, r3
 800364a:	68fb      	ldr	r3, [r7, #12]
 800364c:	615a      	str	r2, [r3, #20]
 800364e:	f642 40e8 	movw	r0, #11496	; 0x2ce8
 8003652:	f2c2 0000 	movt	r0, #8192	; 0x2000
 8003656:	68f9      	ldr	r1, [r7, #12]
 8003658:	f644 3209 	movw	r2, #19209	; 0x4b09
 800365c:	f6c0 0200 	movt	r2, #2048	; 0x800
 8003660:	f001 fbaa 	bl	8004db8 <pq_remove>
 8003664:	f642 50f0 	movw	r0, #11760	; 0x2df0
 8003668:	f2c2 0000 	movt	r0, #8192	; 0x2000
 800366c:	68f9      	ldr	r1, [r7, #12]
 800366e:	f644 22bd 	movw	r2, #19133	; 0x4abd
 8003672:	f6c0 0200 	movt	r2, #2048	; 0x800
 8003676:	f001 fb2f 	bl	8004cd8 <pq_push>
 800367a:	3710      	adds	r7, #16
 800367c:	46bd      	mov	sp, r7
 800367e:	bd80      	pop	{r7, pc}

08003680 <OS_Unblock_Task>:
 8003680:	b580      	push	{r7, lr}
 8003682:	b082      	sub	sp, #8
 8003684:	af00      	add	r7, sp, #0
 8003686:	6078      	str	r0, [r7, #4]
 8003688:	687b      	ldr	r3, [r7, #4]
 800368a:	2b00      	cmp	r3, #0
 800368c:	db35      	blt.n	80036fa <OS_Unblock_Task+0x7a>
 800368e:	687b      	ldr	r3, [r7, #4]
 8003690:	2b40      	cmp	r3, #64	; 0x40
 8003692:	dc32      	bgt.n	80036fa <OS_Unblock_Task+0x7a>
 8003694:	f240 52c0 	movw	r2, #1472	; 0x5c0
 8003698:	f2c2 0200 	movt	r2, #8192	; 0x2000
 800369c:	6879      	ldr	r1, [r7, #4]
 800369e:	460b      	mov	r3, r1
 80036a0:	00db      	lsls	r3, r3, #3
 80036a2:	1a5b      	subs	r3, r3, r1
 80036a4:	009b      	lsls	r3, r3, #2
 80036a6:	4413      	add	r3, r2
 80036a8:	330c      	adds	r3, #12
 80036aa:	2200      	movs	r2, #0
 80036ac:	601a      	str	r2, [r3, #0]
 80036ae:	f642 63f8 	movw	r3, #12024	; 0x2ef8
 80036b2:	f2c2 0300 	movt	r3, #8192	; 0x2000
 80036b6:	6818      	ldr	r0, [r3, #0]
 80036b8:	f240 52c0 	movw	r2, #1472	; 0x5c0
 80036bc:	f2c2 0200 	movt	r2, #8192	; 0x2000
 80036c0:	6879      	ldr	r1, [r7, #4]
 80036c2:	460b      	mov	r3, r1
 80036c4:	00db      	lsls	r3, r3, #3
 80036c6:	1a5b      	subs	r3, r3, r1
 80036c8:	009b      	lsls	r3, r3, #2
 80036ca:	4413      	add	r3, r2
 80036cc:	3310      	adds	r3, #16
 80036ce:	6018      	str	r0, [r3, #0]
 80036d0:	687a      	ldr	r2, [r7, #4]
 80036d2:	4613      	mov	r3, r2
 80036d4:	00db      	lsls	r3, r3, #3
 80036d6:	1a9b      	subs	r3, r3, r2
 80036d8:	009b      	lsls	r3, r3, #2
 80036da:	f240 52c0 	movw	r2, #1472	; 0x5c0
 80036de:	f2c2 0200 	movt	r2, #8192	; 0x2000
 80036e2:	4413      	add	r3, r2
 80036e4:	f642 40e8 	movw	r0, #11496	; 0x2ce8
 80036e8:	f2c2 0000 	movt	r0, #8192	; 0x2000
 80036ec:	4619      	mov	r1, r3
 80036ee:	f644 3209 	movw	r2, #19209	; 0x4b09
 80036f2:	f6c0 0200 	movt	r2, #2048	; 0x800
 80036f6:	f001 faef 	bl	8004cd8 <pq_push>
 80036fa:	3708      	adds	r7, #8
 80036fc:	46bd      	mov	sp, r7
 80036fe:	bd80      	pop	{r7, pc}

08003700 <OS_Change_Priority>:
 8003700:	b580      	push	{r7, lr}
 8003702:	b082      	sub	sp, #8
 8003704:	af00      	add	r7, sp, #0
 8003706:	6078      	str	r0, [r7, #4]
 8003708:	6039      	str	r1, [r7, #0]
 800370a:	687b      	ldr	r3, [r7, #4]
 800370c:	2b00      	cmp	r3, #0
 800370e:	db24      	blt.n	800375a <OS_Change_Priority+0x5a>
 8003710:	687b      	ldr	r3, [r7, #4]
 8003712:	2b40      	cmp	r3, #64	; 0x40
 8003714:	dc21      	bgt.n	800375a <OS_Change_Priority+0x5a>
 8003716:	f240 52c0 	movw	r2, #1472	; 0x5c0
 800371a:	f2c2 0200 	movt	r2, #8192	; 0x2000
 800371e:	6879      	ldr	r1, [r7, #4]
 8003720:	460b      	mov	r3, r1
 8003722:	00db      	lsls	r3, r3, #3
 8003724:	1a5b      	subs	r3, r3, r1
 8003726:	009b      	lsls	r3, r3, #2
 8003728:	4413      	add	r3, r2
 800372a:	3308      	adds	r3, #8
 800372c:	683a      	ldr	r2, [r7, #0]
 800372e:	601a      	str	r2, [r3, #0]
 8003730:	687a      	ldr	r2, [r7, #4]
 8003732:	4613      	mov	r3, r2
 8003734:	00db      	lsls	r3, r3, #3
 8003736:	1a9b      	subs	r3, r3, r2
 8003738:	009b      	lsls	r3, r3, #2
 800373a:	f240 52c0 	movw	r2, #1472	; 0x5c0
 800373e:	f2c2 0200 	movt	r2, #8192	; 0x2000
 8003742:	4413      	add	r3, r2
 8003744:	f642 40e8 	movw	r0, #11496	; 0x2ce8
 8003748:	f2c2 0000 	movt	r0, #8192	; 0x2000
 800374c:	4619      	mov	r1, r3
 800374e:	f644 3209 	movw	r2, #19209	; 0x4b09
 8003752:	f6c0 0200 	movt	r2, #2048	; 0x800
 8003756:	f001 fb6d 	bl	8004e34 <pq_update>
 800375a:	3708      	adds	r7, #8
 800375c:	46bd      	mov	sp, r7
 800375e:	bd80      	pop	{r7, pc}

08003760 <PRINT_DUMMY>:
 8003760:	b580      	push	{r7, lr}
 8003762:	af00      	add	r7, sp, #0
 8003764:	f64b 6004 	movw	r0, #48644	; 0xbe04
 8003768:	f6c0 0000 	movt	r0, #2048	; 0x800
 800376c:	f002 f9c2 	bl	8005af4 <Uart1_Printf>
 8003770:	bd80      	pop	{r7, pc}
 8003772:	bf00      	nop

08003774 <Clock_Init>:
 8003774:	b480      	push	{r7}
 8003776:	af00      	add	r7, sp, #0
 8003778:	f44f 5380 	mov.w	r3, #4096	; 0x1000
 800377c:	f2c4 0302 	movt	r3, #16386	; 0x4002
 8003780:	2201      	movs	r2, #1
 8003782:	601a      	str	r2, [r3, #0]
 8003784:	f44f 5380 	mov.w	r3, #4096	; 0x1000
 8003788:	f2c4 0302 	movt	r3, #16386	; 0x4002
 800378c:	f44f 5280 	mov.w	r2, #4096	; 0x1000
 8003790:	f2c4 0202 	movt	r2, #16386	; 0x4002
 8003794:	6812      	ldr	r2, [r2, #0]
 8003796:	f442 3280 	orr.w	r2, r2, #65536	; 0x10000
 800379a:	601a      	str	r2, [r3, #0]
 800379c:	f44f 5380 	mov.w	r3, #4096	; 0x1000
 80037a0:	f2c4 0302 	movt	r3, #16386	; 0x4002
 80037a4:	f44f 6280 	mov.w	r2, #1024	; 0x400
 80037a8:	f2c0 021d 	movt	r2, #29
 80037ac:	605a      	str	r2, [r3, #4]
 80037ae:	f44f 5380 	mov.w	r3, #4096	; 0x1000
 80037b2:	f2c4 0302 	movt	r3, #16386	; 0x4002
 80037b6:	f44f 5280 	mov.w	r2, #4096	; 0x1000
 80037ba:	f2c4 0202 	movt	r2, #16386	; 0x4002
 80037be:	6812      	ldr	r2, [r2, #0]
 80037c0:	f042 7280 	orr.w	r2, r2, #16777216	; 0x1000000
 80037c4:	601a      	str	r2, [r3, #0]
 80037c6:	bf00      	nop
 80037c8:	f44f 5380 	mov.w	r3, #4096	; 0x1000
 80037cc:	f2c4 0302 	movt	r3, #16386	; 0x4002
 80037d0:	681b      	ldr	r3, [r3, #0]
 80037d2:	f003 7300 	and.w	r3, r3, #33554432	; 0x2000000
 80037d6:	2b00      	cmp	r3, #0
 80037d8:	d0f6      	beq.n	80037c8 <Clock_Init+0x54>
 80037da:	f44f 5300 	mov.w	r3, #8192	; 0x2000
 80037de:	f2c4 0302 	movt	r3, #16386	; 0x4002
 80037e2:	f44f 5200 	mov.w	r2, #8192	; 0x2000
 80037e6:	f2c4 0202 	movt	r2, #16386	; 0x4002
 80037ea:	6812      	ldr	r2, [r2, #0]
 80037ec:	f022 0203 	bic.w	r2, r2, #3
 80037f0:	f042 0202 	orr.w	r2, r2, #2
 80037f4:	601a      	str	r2, [r3, #0]
 80037f6:	f44f 5380 	mov.w	r3, #4096	; 0x1000
 80037fa:	f2c4 0302 	movt	r3, #16386	; 0x4002
 80037fe:	f44f 5280 	mov.w	r2, #4096	; 0x1000
 8003802:	f2c4 0202 	movt	r2, #16386	; 0x4002
 8003806:	6852      	ldr	r2, [r2, #4]
 8003808:	f022 0203 	bic.w	r2, r2, #3
 800380c:	f042 0202 	orr.w	r2, r2, #2
 8003810:	605a      	str	r2, [r3, #4]
 8003812:	46bd      	mov	sp, r7
 8003814:	f85d 7b04 	ldr.w	r7, [sp], #4
 8003818:	4770      	bx	lr
 800381a:	bf00      	nop

0800381c <__get_PSP>:
 800381c:	2400      	movs	r4, #0
 800381e:	f3ef 8309 	mrs	r3, PSP
 8003822:	4618      	mov	r0, r3
 8003824:	4770      	bx	lr
 8003826:	461c      	mov	r4, r3
 8003828:	4623      	mov	r3, r4
 800382a:	4618      	mov	r0, r3

0800382c <__set_PSP>:
 800382c:	4603      	mov	r3, r0
 800382e:	f383 8809 	msr	PSP, r3
 8003832:	4770      	bx	lr

08003834 <__get_MSP>:
 8003834:	2400      	movs	r4, #0
 8003836:	f3ef 8308 	mrs	r3, MSP
 800383a:	4618      	mov	r0, r3
 800383c:	4770      	bx	lr
 800383e:	461c      	mov	r4, r3
 8003840:	4623      	mov	r3, r4
 8003842:	4618      	mov	r0, r3

08003844 <__set_MSP>:
 8003844:	4603      	mov	r3, r0
 8003846:	f383 8808 	msr	MSP, r3
 800384a:	4770      	bx	lr

0800384c <__get_BASEPRI>:
 800384c:	b480      	push	{r7}
 800384e:	b083      	sub	sp, #12
 8003850:	af00      	add	r7, sp, #0
 8003852:	2300      	movs	r3, #0
 8003854:	607b      	str	r3, [r7, #4]
 8003856:	f3ef 8312 	mrs	r3, BASEPRI_MAX
 800385a:	607b      	str	r3, [r7, #4]
 800385c:	687b      	ldr	r3, [r7, #4]
 800385e:	4618      	mov	r0, r3
 8003860:	370c      	adds	r7, #12
 8003862:	46bd      	mov	sp, r7
 8003864:	f85d 7b04 	ldr.w	r7, [sp], #4
 8003868:	4770      	bx	lr
 800386a:	bf00      	nop

0800386c <__set_BASEPRI>:
 800386c:	b480      	push	{r7}
 800386e:	b083      	sub	sp, #12
 8003870:	af00      	add	r7, sp, #0
 8003872:	6078      	str	r0, [r7, #4]
 8003874:	687b      	ldr	r3, [r7, #4]
 8003876:	f383 8811 	msr	BASEPRI, r3
 800387a:	370c      	adds	r7, #12
 800387c:	46bd      	mov	sp, r7
 800387e:	f85d 7b04 	ldr.w	r7, [sp], #4
 8003882:	4770      	bx	lr

08003884 <__get_PRIMASK>:
 8003884:	b480      	push	{r7}
 8003886:	b083      	sub	sp, #12
 8003888:	af00      	add	r7, sp, #0
 800388a:	2300      	movs	r3, #0
 800388c:	607b      	str	r3, [r7, #4]
 800388e:	f3ef 8310 	mrs	r3, PRIMASK
 8003892:	607b      	str	r3, [r7, #4]
 8003894:	687b      	ldr	r3, [r7, #4]
 8003896:	4618      	mov	r0, r3
 8003898:	370c      	adds	r7, #12
 800389a:	46bd      	mov	sp, r7
 800389c:	f85d 7b04 	ldr.w	r7, [sp], #4
 80038a0:	4770      	bx	lr
 80038a2:	bf00      	nop

080038a4 <__set_PRIMASK>:
 80038a4:	b480      	push	{r7}
 80038a6:	b083      	sub	sp, #12
 80038a8:	af00      	add	r7, sp, #0
 80038aa:	6078      	str	r0, [r7, #4]
 80038ac:	687b      	ldr	r3, [r7, #4]
 80038ae:	f383 8810 	msr	PRIMASK, r3
 80038b2:	370c      	adds	r7, #12
 80038b4:	46bd      	mov	sp, r7
 80038b6:	f85d 7b04 	ldr.w	r7, [sp], #4
 80038ba:	4770      	bx	lr

080038bc <__get_FAULTMASK>:
 80038bc:	b480      	push	{r7}
 80038be:	b083      	sub	sp, #12
 80038c0:	af00      	add	r7, sp, #0
 80038c2:	2300      	movs	r3, #0
 80038c4:	607b      	str	r3, [r7, #4]
 80038c6:	f3ef 8313 	mrs	r3, FAULTMASK
 80038ca:	607b      	str	r3, [r7, #4]
 80038cc:	687b      	ldr	r3, [r7, #4]
 80038ce:	4618      	mov	r0, r3
 80038d0:	370c      	adds	r7, #12
 80038d2:	46bd      	mov	sp, r7
 80038d4:	f85d 7b04 	ldr.w	r7, [sp], #4
 80038d8:	4770      	bx	lr
 80038da:	bf00      	nop

080038dc <__set_FAULTMASK>:
 80038dc:	b480      	push	{r7}
 80038de:	b083      	sub	sp, #12
 80038e0:	af00      	add	r7, sp, #0
 80038e2:	6078      	str	r0, [r7, #4]
 80038e4:	687b      	ldr	r3, [r7, #4]
 80038e6:	f383 8813 	msr	FAULTMASK, r3
 80038ea:	370c      	adds	r7, #12
 80038ec:	46bd      	mov	sp, r7
 80038ee:	f85d 7b04 	ldr.w	r7, [sp], #4
 80038f2:	4770      	bx	lr

080038f4 <__get_CONTROL>:
 80038f4:	b480      	push	{r7}
 80038f6:	b083      	sub	sp, #12
 80038f8:	af00      	add	r7, sp, #0
 80038fa:	2300      	movs	r3, #0
 80038fc:	607b      	str	r3, [r7, #4]
 80038fe:	f3ef 8314 	mrs	r3, CONTROL
 8003902:	607b      	str	r3, [r7, #4]
 8003904:	687b      	ldr	r3, [r7, #4]
 8003906:	4618      	mov	r0, r3
 8003908:	370c      	adds	r7, #12
 800390a:	46bd      	mov	sp, r7
 800390c:	f85d 7b04 	ldr.w	r7, [sp], #4
 8003910:	4770      	bx	lr
 8003912:	bf00      	nop

08003914 <__set_CONTROL>:
 8003914:	b480      	push	{r7}
 8003916:	b083      	sub	sp, #12
 8003918:	af00      	add	r7, sp, #0
 800391a:	6078      	str	r0, [r7, #4]
 800391c:	687b      	ldr	r3, [r7, #4]
 800391e:	f383 8814 	msr	CONTROL, r3
 8003922:	370c      	adds	r7, #12
 8003924:	46bd      	mov	sp, r7
 8003926:	f85d 7b04 	ldr.w	r7, [sp], #4
 800392a:	4770      	bx	lr

0800392c <__REV>:
 800392c:	b480      	push	{r7}
 800392e:	b085      	sub	sp, #20
 8003930:	af00      	add	r7, sp, #0
 8003932:	6078      	str	r0, [r7, #4]
 8003934:	2300      	movs	r3, #0
 8003936:	60fb      	str	r3, [r7, #12]
 8003938:	687b      	ldr	r3, [r7, #4]
 800393a:	ba1b      	rev	r3, r3
 800393c:	60fb      	str	r3, [r7, #12]
 800393e:	68fb      	ldr	r3, [r7, #12]
 8003940:	4618      	mov	r0, r3
 8003942:	3714      	adds	r7, #20
 8003944:	46bd      	mov	sp, r7
 8003946:	f85d 7b04 	ldr.w	r7, [sp], #4
 800394a:	4770      	bx	lr

0800394c <__REV16>:
 800394c:	b480      	push	{r7}
 800394e:	b085      	sub	sp, #20
 8003950:	af00      	add	r7, sp, #0
 8003952:	4603      	mov	r3, r0
 8003954:	80fb      	strh	r3, [r7, #6]
 8003956:	2300      	movs	r3, #0
 8003958:	60fb      	str	r3, [r7, #12]
 800395a:	88fb      	ldrh	r3, [r7, #6]
 800395c:	ba5b      	rev16	r3, r3
 800395e:	60fb      	str	r3, [r7, #12]
 8003960:	68fb      	ldr	r3, [r7, #12]
 8003962:	4618      	mov	r0, r3
 8003964:	3714      	adds	r7, #20
 8003966:	46bd      	mov	sp, r7
 8003968:	f85d 7b04 	ldr.w	r7, [sp], #4
 800396c:	4770      	bx	lr
 800396e:	bf00      	nop

08003970 <__REVSH>:
 8003970:	b480      	push	{r7}
 8003972:	b085      	sub	sp, #20
 8003974:	af00      	add	r7, sp, #0
 8003976:	4603      	mov	r3, r0
 8003978:	80fb      	strh	r3, [r7, #6]
 800397a:	2300      	movs	r3, #0
 800397c:	60fb      	str	r3, [r7, #12]
 800397e:	88fb      	ldrh	r3, [r7, #6]
 8003980:	badb      	revsh	r3, r3
 8003982:	60fb      	str	r3, [r7, #12]
 8003984:	68fb      	ldr	r3, [r7, #12]
 8003986:	4618      	mov	r0, r3
 8003988:	3714      	adds	r7, #20
 800398a:	46bd      	mov	sp, r7
 800398c:	f85d 7b04 	ldr.w	r7, [sp], #4
 8003990:	4770      	bx	lr
 8003992:	bf00      	nop

08003994 <__RBIT>:
 8003994:	b480      	push	{r7}
 8003996:	b085      	sub	sp, #20
 8003998:	af00      	add	r7, sp, #0
 800399a:	6078      	str	r0, [r7, #4]
 800399c:	2300      	movs	r3, #0
 800399e:	60fb      	str	r3, [r7, #12]
 80039a0:	687b      	ldr	r3, [r7, #4]
 80039a2:	fa93 f3a3 	rbit	r3, r3
 80039a6:	60fb      	str	r3, [r7, #12]
 80039a8:	68fb      	ldr	r3, [r7, #12]
 80039aa:	4618      	mov	r0, r3
 80039ac:	3714      	adds	r7, #20
 80039ae:	46bd      	mov	sp, r7
 80039b0:	f85d 7b04 	ldr.w	r7, [sp], #4
 80039b4:	4770      	bx	lr
 80039b6:	bf00      	nop

080039b8 <__LDREXB>:
 80039b8:	b480      	push	{r7}
 80039ba:	b085      	sub	sp, #20
 80039bc:	af00      	add	r7, sp, #0
 80039be:	6078      	str	r0, [r7, #4]
 80039c0:	2300      	movs	r3, #0
 80039c2:	73fb      	strb	r3, [r7, #15]
 80039c4:	687b      	ldr	r3, [r7, #4]
 80039c6:	e8d3 3f4f 	ldrexb	r3, [r3]
 80039ca:	73fb      	strb	r3, [r7, #15]
 80039cc:	7bfb      	ldrb	r3, [r7, #15]
 80039ce:	4618      	mov	r0, r3
 80039d0:	3714      	adds	r7, #20
 80039d2:	46bd      	mov	sp, r7
 80039d4:	f85d 7b04 	ldr.w	r7, [sp], #4
 80039d8:	4770      	bx	lr
 80039da:	bf00      	nop

080039dc <__LDREXH>:
 80039dc:	b480      	push	{r7}
 80039de:	b085      	sub	sp, #20
 80039e0:	af00      	add	r7, sp, #0
 80039e2:	6078      	str	r0, [r7, #4]
 80039e4:	2300      	movs	r3, #0
 80039e6:	81fb      	strh	r3, [r7, #14]
 80039e8:	687b      	ldr	r3, [r7, #4]
 80039ea:	e8d3 3f5f 	ldrexh	r3, [r3]
 80039ee:	81fb      	strh	r3, [r7, #14]
 80039f0:	89fb      	ldrh	r3, [r7, #14]
 80039f2:	4618      	mov	r0, r3
 80039f4:	3714      	adds	r7, #20
 80039f6:	46bd      	mov	sp, r7
 80039f8:	f85d 7b04 	ldr.w	r7, [sp], #4
 80039fc:	4770      	bx	lr
 80039fe:	bf00      	nop

08003a00 <__LDREXW>:
 8003a00:	b480      	push	{r7}
 8003a02:	b085      	sub	sp, #20
 8003a04:	af00      	add	r7, sp, #0
 8003a06:	6078      	str	r0, [r7, #4]
 8003a08:	2300      	movs	r3, #0
 8003a0a:	60fb      	str	r3, [r7, #12]
 8003a0c:	687b      	ldr	r3, [r7, #4]
 8003a0e:	e853 3f00 	ldrex	r3, [r3]
 8003a12:	60fb      	str	r3, [r7, #12]
 8003a14:	68fb      	ldr	r3, [r7, #12]
 8003a16:	4618      	mov	r0, r3
 8003a18:	3714      	adds	r7, #20
 8003a1a:	46bd      	mov	sp, r7
 8003a1c:	f85d 7b04 	ldr.w	r7, [sp], #4
 8003a20:	4770      	bx	lr
 8003a22:	bf00      	nop

08003a24 <__STREXB>:
 8003a24:	b480      	push	{r7}
 8003a26:	b085      	sub	sp, #20
 8003a28:	af00      	add	r7, sp, #0
 8003a2a:	4603      	mov	r3, r0
 8003a2c:	6039      	str	r1, [r7, #0]
 8003a2e:	71fb      	strb	r3, [r7, #7]
 8003a30:	2300      	movs	r3, #0
 8003a32:	60fb      	str	r3, [r7, #12]
 8003a34:	683a      	ldr	r2, [r7, #0]
 8003a36:	79f9      	ldrb	r1, [r7, #7]
 8003a38:	e8c2 1f43 	strexb	r3, r1, [r2]
 8003a3c:	60fb      	str	r3, [r7, #12]
 8003a3e:	68fb      	ldr	r3, [r7, #12]
 8003a40:	4618      	mov	r0, r3
 8003a42:	3714      	adds	r7, #20
 8003a44:	46bd      	mov	sp, r7
 8003a46:	f85d 7b04 	ldr.w	r7, [sp], #4
 8003a4a:	4770      	bx	lr

08003a4c <__STREXH>:
 8003a4c:	b480      	push	{r7}
 8003a4e:	b085      	sub	sp, #20
 8003a50:	af00      	add	r7, sp, #0
 8003a52:	4603      	mov	r3, r0
 8003a54:	6039      	str	r1, [r7, #0]
 8003a56:	80fb      	strh	r3, [r7, #6]
 8003a58:	2300      	movs	r3, #0
 8003a5a:	60fb      	str	r3, [r7, #12]
 8003a5c:	683a      	ldr	r2, [r7, #0]
 8003a5e:	88f9      	ldrh	r1, [r7, #6]
 8003a60:	e8c2 1f53 	strexh	r3, r1, [r2]
 8003a64:	60fb      	str	r3, [r7, #12]
 8003a66:	68fb      	ldr	r3, [r7, #12]
 8003a68:	4618      	mov	r0, r3
 8003a6a:	3714      	adds	r7, #20
 8003a6c:	46bd      	mov	sp, r7
 8003a6e:	f85d 7b04 	ldr.w	r7, [sp], #4
 8003a72:	4770      	bx	lr

08003a74 <__STREXW>:
 8003a74:	b480      	push	{r7}
 8003a76:	b085      	sub	sp, #20
 8003a78:	af00      	add	r7, sp, #0
 8003a7a:	6078      	str	r0, [r7, #4]
 8003a7c:	6039      	str	r1, [r7, #0]
 8003a7e:	2300      	movs	r3, #0
 8003a80:	60fb      	str	r3, [r7, #12]
 8003a82:	683b      	ldr	r3, [r7, #0]
 8003a84:	687a      	ldr	r2, [r7, #4]
 8003a86:	e843 2300 	strex	r3, r2, [r3]
 8003a8a:	60fb      	str	r3, [r7, #12]
 8003a8c:	68fb      	ldr	r3, [r7, #12]
 8003a8e:	4618      	mov	r0, r3
 8003a90:	3714      	adds	r7, #20
 8003a92:	46bd      	mov	sp, r7
 8003a94:	f85d 7b04 	ldr.w	r7, [sp], #4
 8003a98:	4770      	bx	lr
 8003a9a:	bf00      	nop

08003a9c <NVIC_EnableIRQ>:
 8003a9c:	b480      	push	{r7}
 8003a9e:	b083      	sub	sp, #12
 8003aa0:	af00      	add	r7, sp, #0
 8003aa2:	4603      	mov	r3, r0
 8003aa4:	71fb      	strb	r3, [r7, #7]
 8003aa6:	f44f 4361 	mov.w	r3, #57600	; 0xe100
 8003aaa:	f2ce 0300 	movt	r3, #57344	; 0xe000
 8003aae:	f997 2007 	ldrsb.w	r2, [r7, #7]
 8003ab2:	0952      	lsrs	r2, r2, #5
 8003ab4:	79f9      	ldrb	r1, [r7, #7]
 8003ab6:	f001 011f 	and.w	r1, r1, #31
 8003aba:	2001      	movs	r0, #1
 8003abc:	fa00 f101 	lsl.w	r1, r0, r1
 8003ac0:	f843 1022 	str.w	r1, [r3, r2, lsl #2]
 8003ac4:	370c      	adds	r7, #12
 8003ac6:	46bd      	mov	sp, r7
 8003ac8:	f85d 7b04 	ldr.w	r7, [sp], #4
 8003acc:	4770      	bx	lr
 8003ace:	bf00      	nop

08003ad0 <NVIC_ClearPendingIRQ>:
 8003ad0:	b480      	push	{r7}
 8003ad2:	b083      	sub	sp, #12
 8003ad4:	af00      	add	r7, sp, #0
 8003ad6:	4603      	mov	r3, r0
 8003ad8:	71fb      	strb	r3, [r7, #7]
 8003ada:	f44f 4361 	mov.w	r3, #57600	; 0xe100
 8003ade:	f2ce 0300 	movt	r3, #57344	; 0xe000
 8003ae2:	f997 2007 	ldrsb.w	r2, [r7, #7]
 8003ae6:	0952      	lsrs	r2, r2, #5
 8003ae8:	79f9      	ldrb	r1, [r7, #7]
 8003aea:	f001 011f 	and.w	r1, r1, #31
 8003aee:	2001      	movs	r0, #1
 8003af0:	fa00 f101 	lsl.w	r1, r0, r1
 8003af4:	3260      	adds	r2, #96	; 0x60
 8003af6:	f843 1022 	str.w	r1, [r3, r2, lsl #2]
 8003afa:	370c      	adds	r7, #12
 8003afc:	46bd      	mov	sp, r7
 8003afe:	f85d 7b04 	ldr.w	r7, [sp], #4
 8003b02:	4770      	bx	lr

08003b04 <Key_Poll_Init>:
 8003b04:	b480      	push	{r7}
 8003b06:	af00      	add	r7, sp, #0
 8003b08:	f44f 5380 	mov.w	r3, #4096	; 0x1000
 8003b0c:	f2c4 0302 	movt	r3, #16386	; 0x4002
 8003b10:	f44f 5280 	mov.w	r2, #4096	; 0x1000
 8003b14:	f2c4 0202 	movt	r2, #16386	; 0x4002
 8003b18:	6992      	ldr	r2, [r2, #24]
 8003b1a:	f042 0201 	orr.w	r2, r2, #1
 8003b1e:	619a      	str	r2, [r3, #24]
 8003b20:	f44f 5380 	mov.w	r3, #4096	; 0x1000
 8003b24:	f2c4 0302 	movt	r3, #16386	; 0x4002
 8003b28:	f44f 5280 	mov.w	r2, #4096	; 0x1000
 8003b2c:	f2c4 0202 	movt	r2, #16386	; 0x4002
 8003b30:	6992      	ldr	r2, [r2, #24]
 8003b32:	f042 020c 	orr.w	r2, r2, #12
 8003b36:	619a      	str	r2, [r3, #24]
 8003b38:	2300      	movs	r3, #0
 8003b3a:	f2c4 0301 	movt	r3, #16385	; 0x4001
 8003b3e:	2200      	movs	r2, #0
 8003b40:	f2c4 0201 	movt	r2, #16385	; 0x4001
 8003b44:	6852      	ldr	r2, [r2, #4]
 8003b46:	f022 62e0 	bic.w	r2, r2, #117440512	; 0x7000000
 8003b4a:	f042 6280 	orr.w	r2, r2, #67108864	; 0x4000000
 8003b4e:	605a      	str	r2, [r3, #4]
 8003b50:	f44f 6340 	mov.w	r3, #3072	; 0xc00
 8003b54:	f2c4 0301 	movt	r3, #16385	; 0x4001
 8003b58:	f44f 6240 	mov.w	r2, #3072	; 0xc00
 8003b5c:	f2c4 0201 	movt	r2, #16385	; 0x4001
 8003b60:	6812      	ldr	r2, [r2, #0]
 8003b62:	f422 4270 	bic.w	r2, r2, #61440	; 0xf000
 8003b66:	f442 4200 	orr.w	r2, r2, #32768	; 0x8000
 8003b6a:	601a      	str	r2, [r3, #0]
 8003b6c:	f44f 6340 	mov.w	r3, #3072	; 0xc00
 8003b70:	f2c4 0301 	movt	r3, #16385	; 0x4001
 8003b74:	f44f 6240 	mov.w	r2, #3072	; 0xc00
 8003b78:	f2c4 0201 	movt	r2, #16385	; 0x4001
 8003b7c:	68d2      	ldr	r2, [r2, #12]
 8003b7e:	f042 0208 	orr.w	r2, r2, #8
 8003b82:	60da      	str	r2, [r3, #12]
 8003b84:	f44f 6340 	mov.w	r3, #3072	; 0xc00
 8003b88:	f2c4 0301 	movt	r3, #16385	; 0x4001
 8003b8c:	f44f 6240 	mov.w	r2, #3072	; 0xc00
 8003b90:	f2c4 0201 	movt	r2, #16385	; 0x4001
 8003b94:	6812      	ldr	r2, [r2, #0]
 8003b96:	f3c2 0213 	ubfx	r2, r2, #0, #20
 8003b9a:	f042 4208 	orr.w	r2, r2, #2281701376	; 0x88000000
 8003b9e:	f442 0200 	orr.w	r2, r2, #8388608	; 0x800000
 8003ba2:	601a      	str	r2, [r3, #0]
 8003ba4:	f44f 6340 	mov.w	r3, #3072	; 0xc00
 8003ba8:	f2c4 0301 	movt	r3, #16385	; 0x4001
 8003bac:	f44f 6240 	mov.w	r2, #3072	; 0xc00
 8003bb0:	f2c4 0201 	movt	r2, #16385	; 0x4001
 8003bb4:	68d2      	ldr	r2, [r2, #12]
 8003bb6:	f042 02e0 	orr.w	r2, r2, #224	; 0xe0
 8003bba:	60da      	str	r2, [r3, #12]
 8003bbc:	f44f 6300 	mov.w	r3, #2048	; 0x800
 8003bc0:	f2c4 0301 	movt	r3, #16385	; 0x4001
 8003bc4:	f44f 6200 	mov.w	r2, #2048	; 0x800
 8003bc8:	f2c4 0201 	movt	r2, #16385	; 0x4001
 8003bcc:	6852      	ldr	r2, [r2, #4]
 8003bce:	f022 627f 	bic.w	r2, r2, #267386880	; 0xff00000
 8003bd2:	f042 6208 	orr.w	r2, r2, #142606336	; 0x8800000
 8003bd6:	605a      	str	r2, [r3, #4]
 8003bd8:	f44f 6300 	mov.w	r3, #2048	; 0x800
 8003bdc:	f2c4 0301 	movt	r3, #16385	; 0x4001
 8003be0:	f44f 6200 	mov.w	r2, #2048	; 0x800
 8003be4:	f2c4 0201 	movt	r2, #16385	; 0x4001
 8003be8:	68d2      	ldr	r2, [r2, #12]
 8003bea:	f442 42c0 	orr.w	r2, r2, #24576	; 0x6000
 8003bee:	60da      	str	r2, [r3, #12]
 8003bf0:	46bd      	mov	sp, r7
 8003bf2:	f85d 7b04 	ldr.w	r7, [sp], #4
 8003bf6:	4770      	bx	lr

08003bf8 <Key_Get_Pressed>:
 8003bf8:	b480      	push	{r7}
 8003bfa:	b083      	sub	sp, #12
 8003bfc:	af00      	add	r7, sp, #0
 8003bfe:	2300      	movs	r3, #0
 8003c00:	607b      	str	r3, [r7, #4]
 8003c02:	f44f 6340 	mov.w	r3, #3072	; 0xc00
 8003c06:	f2c4 0301 	movt	r3, #16385	; 0x4001
 8003c0a:	689b      	ldr	r3, [r3, #8]
 8003c0c:	f003 0308 	and.w	r3, r3, #8
 8003c10:	2b00      	cmp	r3, #0
 8003c12:	bf14      	ite	ne
 8003c14:	2300      	movne	r3, #0
 8003c16:	2301      	moveq	r3, #1
 8003c18:	b2db      	uxtb	r3, r3
 8003c1a:	607b      	str	r3, [r7, #4]
 8003c1c:	f44f 6340 	mov.w	r3, #3072	; 0xc00
 8003c20:	f2c4 0301 	movt	r3, #16385	; 0x4001
 8003c24:	689b      	ldr	r3, [r3, #8]
 8003c26:	43db      	mvns	r3, r3
 8003c28:	095b      	lsrs	r3, r3, #5
 8003c2a:	f003 0307 	and.w	r3, r3, #7
 8003c2e:	005a      	lsls	r2, r3, #1
 8003c30:	687b      	ldr	r3, [r7, #4]
 8003c32:	4313      	orrs	r3, r2
 8003c34:	607b      	str	r3, [r7, #4]
 8003c36:	f44f 6300 	mov.w	r3, #2048	; 0x800
 8003c3a:	f2c4 0301 	movt	r3, #16385	; 0x4001
 8003c3e:	689b      	ldr	r3, [r3, #8]
 8003c40:	43db      	mvns	r3, r3
 8003c42:	0b5b      	lsrs	r3, r3, #13
 8003c44:	f003 0303 	and.w	r3, r3, #3
 8003c48:	011a      	lsls	r2, r3, #4
 8003c4a:	687b      	ldr	r3, [r7, #4]
 8003c4c:	4313      	orrs	r3, r2
 8003c4e:	607b      	str	r3, [r7, #4]
 8003c50:	687b      	ldr	r3, [r7, #4]
 8003c52:	4618      	mov	r0, r3
 8003c54:	370c      	adds	r7, #12
 8003c56:	46bd      	mov	sp, r7
 8003c58:	f85d 7b04 	ldr.w	r7, [sp], #4
 8003c5c:	4770      	bx	lr
 8003c5e:	bf00      	nop

08003c60 <Key_Wait_Key_Pressed>:
 8003c60:	b580      	push	{r7, lr}
 8003c62:	b082      	sub	sp, #8
 8003c64:	af00      	add	r7, sp, #0
 8003c66:	2300      	movs	r3, #0
 8003c68:	607b      	str	r3, [r7, #4]
 8003c6a:	f7ff ffc5 	bl	8003bf8 <Key_Get_Pressed>
 8003c6e:	6078      	str	r0, [r7, #4]
 8003c70:	687b      	ldr	r3, [r7, #4]
 8003c72:	2b00      	cmp	r3, #0
 8003c74:	d0f9      	beq.n	8003c6a <Key_Wait_Key_Pressed+0xa>
 8003c76:	687b      	ldr	r3, [r7, #4]
 8003c78:	4618      	mov	r0, r3
 8003c7a:	3708      	adds	r7, #8
 8003c7c:	46bd      	mov	sp, r7
 8003c7e:	bd80      	pop	{r7, pc}

08003c80 <Key_Wait_Key_Released>:
 8003c80:	b580      	push	{r7, lr}
 8003c82:	af00      	add	r7, sp, #0
 8003c84:	bf00      	nop
 8003c86:	f7ff ffb7 	bl	8003bf8 <Key_Get_Pressed>
 8003c8a:	4603      	mov	r3, r0
 8003c8c:	2b00      	cmp	r3, #0
 8003c8e:	d1fa      	bne.n	8003c86 <Key_Wait_Key_Released+0x6>
 8003c90:	bd80      	pop	{r7, pc}
 8003c92:	bf00      	nop

08003c94 <Key_ISR_Enable>:
 8003c94:	b580      	push	{r7, lr}
 8003c96:	b082      	sub	sp, #8
 8003c98:	af00      	add	r7, sp, #0
 8003c9a:	6078      	str	r0, [r7, #4]
 8003c9c:	687b      	ldr	r3, [r7, #4]
 8003c9e:	2b00      	cmp	r3, #0
 8003ca0:	f000 80ac 	beq.w	8003dfc <Key_ISR_Enable+0x168>
 8003ca4:	f44f 5380 	mov.w	r3, #4096	; 0x1000
 8003ca8:	f2c4 0302 	movt	r3, #16386	; 0x4002
 8003cac:	f44f 5280 	mov.w	r2, #4096	; 0x1000
 8003cb0:	f2c4 0202 	movt	r2, #16386	; 0x4002
 8003cb4:	6992      	ldr	r2, [r2, #24]
 8003cb6:	f042 0208 	orr.w	r2, r2, #8
 8003cba:	619a      	str	r2, [r3, #24]
 8003cbc:	f44f 5380 	mov.w	r3, #4096	; 0x1000
 8003cc0:	f2c4 0302 	movt	r3, #16386	; 0x4002
 8003cc4:	f44f 5280 	mov.w	r2, #4096	; 0x1000
 8003cc8:	f2c4 0202 	movt	r2, #16386	; 0x4002
 8003ccc:	6992      	ldr	r2, [r2, #24]
 8003cce:	f042 0204 	orr.w	r2, r2, #4
 8003cd2:	619a      	str	r2, [r3, #24]
 8003cd4:	f44f 5380 	mov.w	r3, #4096	; 0x1000
 8003cd8:	f2c4 0302 	movt	r3, #16386	; 0x4002
 8003cdc:	f44f 5280 	mov.w	r2, #4096	; 0x1000
 8003ce0:	f2c4 0202 	movt	r2, #16386	; 0x4002
 8003ce4:	6992      	ldr	r2, [r2, #24]
 8003ce6:	f042 0201 	orr.w	r2, r2, #1
 8003cea:	619a      	str	r2, [r3, #24]
 8003cec:	2300      	movs	r3, #0
 8003cee:	f2c4 0301 	movt	r3, #16385	; 0x4001
 8003cf2:	2200      	movs	r2, #0
 8003cf4:	f2c4 0201 	movt	r2, #16385	; 0x4001
 8003cf8:	6892      	ldr	r2, [r2, #8]
 8003cfa:	f422 4270 	bic.w	r2, r2, #61440	; 0xf000
 8003cfe:	f442 5280 	orr.w	r2, r2, #4096	; 0x1000
 8003d02:	609a      	str	r2, [r3, #8]
 8003d04:	2300      	movs	r3, #0
 8003d06:	f2c4 0301 	movt	r3, #16385	; 0x4001
 8003d0a:	2200      	movs	r2, #0
 8003d0c:	f2c4 0201 	movt	r2, #16385	; 0x4001
 8003d10:	68d2      	ldr	r2, [r2, #12]
 8003d12:	f422 427f 	bic.w	r2, r2, #65280	; 0xff00
 8003d16:	f022 02f0 	bic.w	r2, r2, #240	; 0xf0
 8003d1a:	f442 5288 	orr.w	r2, r2, #4352	; 0x1100
 8003d1e:	f042 0210 	orr.w	r2, r2, #16
 8003d22:	60da      	str	r2, [r3, #12]
 8003d24:	2300      	movs	r3, #0
 8003d26:	f2c4 0301 	movt	r3, #16385	; 0x4001
 8003d2a:	2200      	movs	r2, #0
 8003d2c:	f2c4 0201 	movt	r2, #16385	; 0x4001
 8003d30:	6952      	ldr	r2, [r2, #20]
 8003d32:	f422 627f 	bic.w	r2, r2, #4080	; 0xff0
 8003d36:	615a      	str	r2, [r3, #20]
 8003d38:	f44f 6380 	mov.w	r3, #1024	; 0x400
 8003d3c:	f2c4 0301 	movt	r3, #16385	; 0x4001
 8003d40:	f44f 6280 	mov.w	r2, #1024	; 0x400
 8003d44:	f2c4 0201 	movt	r2, #16385	; 0x4001
 8003d48:	68d2      	ldr	r2, [r2, #12]
 8003d4a:	f442 42c0 	orr.w	r2, r2, #24576	; 0x6000
 8003d4e:	60da      	str	r2, [r3, #12]
 8003d50:	f44f 6380 	mov.w	r3, #1024	; 0x400
 8003d54:	f2c4 0301 	movt	r3, #16385	; 0x4001
 8003d58:	f44f 6280 	mov.w	r2, #1024	; 0x400
 8003d5c:	f2c4 0201 	movt	r2, #16385	; 0x4001
 8003d60:	68d2      	ldr	r2, [r2, #12]
 8003d62:	f042 02e0 	orr.w	r2, r2, #224	; 0xe0
 8003d66:	60da      	str	r2, [r3, #12]
 8003d68:	f44f 6380 	mov.w	r3, #1024	; 0x400
 8003d6c:	f2c4 0301 	movt	r3, #16385	; 0x4001
 8003d70:	f44f 6280 	mov.w	r2, #1024	; 0x400
 8003d74:	f2c4 0201 	movt	r2, #16385	; 0x4001
 8003d78:	68d2      	ldr	r2, [r2, #12]
 8003d7a:	f042 0208 	orr.w	r2, r2, #8
 8003d7e:	60da      	str	r2, [r3, #12]
 8003d80:	f44f 6380 	mov.w	r3, #1024	; 0x400
 8003d84:	f2c4 0301 	movt	r3, #16385	; 0x4001
 8003d88:	f246 02e8 	movw	r2, #24808	; 0x60e8
 8003d8c:	615a      	str	r2, [r3, #20]
 8003d8e:	2009      	movs	r0, #9
 8003d90:	f7ff fe9e 	bl	8003ad0 <NVIC_ClearPendingIRQ>
 8003d94:	2017      	movs	r0, #23
 8003d96:	f7ff fe9b 	bl	8003ad0 <NVIC_ClearPendingIRQ>
 8003d9a:	2028      	movs	r0, #40	; 0x28
 8003d9c:	f7ff fe98 	bl	8003ad0 <NVIC_ClearPendingIRQ>
 8003da0:	f44f 6380 	mov.w	r3, #1024	; 0x400
 8003da4:	f2c4 0301 	movt	r3, #16385	; 0x4001
 8003da8:	f44f 6280 	mov.w	r2, #1024	; 0x400
 8003dac:	f2c4 0201 	movt	r2, #16385	; 0x4001
 8003db0:	6812      	ldr	r2, [r2, #0]
 8003db2:	f042 02e0 	orr.w	r2, r2, #224	; 0xe0
 8003db6:	601a      	str	r2, [r3, #0]
 8003db8:	f44f 6380 	mov.w	r3, #1024	; 0x400
 8003dbc:	f2c4 0301 	movt	r3, #16385	; 0x4001
 8003dc0:	f44f 6280 	mov.w	r2, #1024	; 0x400
 8003dc4:	f2c4 0201 	movt	r2, #16385	; 0x4001
 8003dc8:	6812      	ldr	r2, [r2, #0]
 8003dca:	f442 42c0 	orr.w	r2, r2, #24576	; 0x6000
 8003dce:	601a      	str	r2, [r3, #0]
 8003dd0:	f44f 6380 	mov.w	r3, #1024	; 0x400
 8003dd4:	f2c4 0301 	movt	r3, #16385	; 0x4001
 8003dd8:	f44f 6280 	mov.w	r2, #1024	; 0x400
 8003ddc:	f2c4 0201 	movt	r2, #16385	; 0x4001
 8003de0:	6812      	ldr	r2, [r2, #0]
 8003de2:	f042 0208 	orr.w	r2, r2, #8
 8003de6:	601a      	str	r2, [r3, #0]
 8003de8:	2009      	movs	r0, #9
 8003dea:	f7ff fe57 	bl	8003a9c <NVIC_EnableIRQ>
 8003dee:	2017      	movs	r0, #23
 8003df0:	f7ff fe54 	bl	8003a9c <NVIC_EnableIRQ>
 8003df4:	2028      	movs	r0, #40	; 0x28
 8003df6:	f7ff fe51 	bl	8003a9c <NVIC_EnableIRQ>
 8003dfa:	e02c      	b.n	8003e56 <Key_ISR_Enable+0x1c2>
 8003dfc:	2009      	movs	r0, #9
 8003dfe:	f7ff fe4d 	bl	8003a9c <NVIC_EnableIRQ>
 8003e02:	2017      	movs	r0, #23
 8003e04:	f7ff fe4a 	bl	8003a9c <NVIC_EnableIRQ>
 8003e08:	2028      	movs	r0, #40	; 0x28
 8003e0a:	f7ff fe47 	bl	8003a9c <NVIC_EnableIRQ>
 8003e0e:	f44f 5380 	mov.w	r3, #4096	; 0x1000
 8003e12:	f2c4 0302 	movt	r3, #16386	; 0x4002
 8003e16:	f44f 5280 	mov.w	r2, #4096	; 0x1000
 8003e1a:	f2c4 0202 	movt	r2, #16386	; 0x4002
 8003e1e:	6992      	ldr	r2, [r2, #24]
 8003e20:	f022 0208 	bic.w	r2, r2, #8
 8003e24:	619a      	str	r2, [r3, #24]
 8003e26:	f44f 5380 	mov.w	r3, #4096	; 0x1000
 8003e2a:	f2c4 0302 	movt	r3, #16386	; 0x4002
 8003e2e:	f44f 5280 	mov.w	r2, #4096	; 0x1000
 8003e32:	f2c4 0202 	movt	r2, #16386	; 0x4002
 8003e36:	6992      	ldr	r2, [r2, #24]
 8003e38:	f022 0204 	bic.w	r2, r2, #4
 8003e3c:	619a      	str	r2, [r3, #24]
 8003e3e:	f44f 5380 	mov.w	r3, #4096	; 0x1000
 8003e42:	f2c4 0302 	movt	r3, #16386	; 0x4002
 8003e46:	f44f 5280 	mov.w	r2, #4096	; 0x1000
 8003e4a:	f2c4 0202 	movt	r2, #16386	; 0x4002
 8003e4e:	6992      	ldr	r2, [r2, #24]
 8003e50:	f022 0201 	bic.w	r2, r2, #1
 8003e54:	619a      	str	r2, [r3, #24]
 8003e56:	3708      	adds	r7, #8
 8003e58:	46bd      	mov	sp, r7
 8003e5a:	bd80      	pop	{r7, pc}

08003e5c <_SPI1_Init>:
 8003e5c:	b480      	push	{r7}
 8003e5e:	af00      	add	r7, sp, #0
 8003e60:	f44f 5380 	mov.w	r3, #4096	; 0x1000
 8003e64:	f2c4 0302 	movt	r3, #16386	; 0x4002
 8003e68:	f44f 5280 	mov.w	r2, #4096	; 0x1000
 8003e6c:	f2c4 0202 	movt	r2, #16386	; 0x4002
 8003e70:	6992      	ldr	r2, [r2, #24]
 8003e72:	f042 0204 	orr.w	r2, r2, #4
 8003e76:	619a      	str	r2, [r3, #24]
 8003e78:	f44f 6300 	mov.w	r3, #2048	; 0x800
 8003e7c:	f2c4 0301 	movt	r3, #16385	; 0x4001
 8003e80:	f44f 6200 	mov.w	r2, #2048	; 0x800
 8003e84:	f2c4 0201 	movt	r2, #16385	; 0x4001
 8003e88:	6812      	ldr	r2, [r2, #0]
 8003e8a:	b292      	uxth	r2, r2
 8003e8c:	f042 4234 	orr.w	r2, r2, #3019898880	; 0xb4000000
 8003e90:	f442 0233 	orr.w	r2, r2, #11730944	; 0xb30000
 8003e94:	601a      	str	r2, [r3, #0]
 8003e96:	f44f 6300 	mov.w	r3, #2048	; 0x800
 8003e9a:	f2c4 0301 	movt	r3, #16385	; 0x4001
 8003e9e:	f44f 6200 	mov.w	r2, #2048	; 0x800
 8003ea2:	f2c4 0201 	movt	r2, #16385	; 0x4001
 8003ea6:	68d2      	ldr	r2, [r2, #12]
 8003ea8:	f042 0210 	orr.w	r2, r2, #16
 8003eac:	60da      	str	r2, [r3, #12]
 8003eae:	f44f 5380 	mov.w	r3, #4096	; 0x1000
 8003eb2:	f2c4 0302 	movt	r3, #16386	; 0x4002
 8003eb6:	f44f 5280 	mov.w	r2, #4096	; 0x1000
 8003eba:	f2c4 0202 	movt	r2, #16386	; 0x4002
 8003ebe:	6992      	ldr	r2, [r2, #24]
 8003ec0:	f442 5280 	orr.w	r2, r2, #4096	; 0x1000
 8003ec4:	619a      	str	r2, [r3, #24]
 8003ec6:	f44f 5340 	mov.w	r3, #12288	; 0x3000
 8003eca:	f2c4 0301 	movt	r3, #16385	; 0x4001
 8003ece:	f44f 7241 	mov.w	r2, #772	; 0x304
 8003ed2:	801a      	strh	r2, [r3, #0]
 8003ed4:	f44f 5340 	mov.w	r3, #12288	; 0x3000
 8003ed8:	f2c4 0301 	movt	r3, #16385	; 0x4001
 8003edc:	f44f 5240 	mov.w	r2, #12288	; 0x3000
 8003ee0:	f2c4 0201 	movt	r2, #16385	; 0x4001
 8003ee4:	8812      	ldrh	r2, [r2, #0]
 8003ee6:	b292      	uxth	r2, r2
 8003ee8:	f042 0240 	orr.w	r2, r2, #64	; 0x40
 8003eec:	b292      	uxth	r2, r2
 8003eee:	801a      	strh	r2, [r3, #0]
 8003ef0:	46bd      	mov	sp, r7
 8003ef2:	f85d 7b04 	ldr.w	r7, [sp], #4
 8003ef6:	4770      	bx	lr

08003ef8 <_SPI1_Write_Byte>:
 8003ef8:	b480      	push	{r7}
 8003efa:	b083      	sub	sp, #12
 8003efc:	af00      	add	r7, sp, #0
 8003efe:	4603      	mov	r3, r0
 8003f00:	71fb      	strb	r3, [r7, #7]
 8003f02:	f44f 5340 	mov.w	r3, #12288	; 0x3000
 8003f06:	f2c4 0301 	movt	r3, #16385	; 0x4001
 8003f0a:	79fa      	ldrb	r2, [r7, #7]
 8003f0c:	b292      	uxth	r2, r2
 8003f0e:	819a      	strh	r2, [r3, #12]
 8003f10:	bf00      	nop
 8003f12:	f44f 5340 	mov.w	r3, #12288	; 0x3000
 8003f16:	f2c4 0301 	movt	r3, #16385	; 0x4001
 8003f1a:	891b      	ldrh	r3, [r3, #8]
 8003f1c:	b29b      	uxth	r3, r3
 8003f1e:	085b      	lsrs	r3, r3, #1
 8003f20:	b29b      	uxth	r3, r3
 8003f22:	f003 0301 	and.w	r3, r3, #1
 8003f26:	2b00      	cmp	r3, #0
 8003f28:	d0f3      	beq.n	8003f12 <_SPI1_Write_Byte+0x1a>
 8003f2a:	bf00      	nop
 8003f2c:	f44f 5340 	mov.w	r3, #12288	; 0x3000
 8003f30:	f2c4 0301 	movt	r3, #16385	; 0x4001
 8003f34:	891b      	ldrh	r3, [r3, #8]
 8003f36:	b29b      	uxth	r3, r3
 8003f38:	09db      	lsrs	r3, r3, #7
 8003f3a:	b29b      	uxth	r3, r3
 8003f3c:	f003 0301 	and.w	r3, r3, #1
 8003f40:	2b00      	cmp	r3, #0
 8003f42:	d1f3      	bne.n	8003f2c <_SPI1_Write_Byte+0x34>
 8003f44:	370c      	adds	r7, #12
 8003f46:	46bd      	mov	sp, r7
 8003f48:	f85d 7b04 	ldr.w	r7, [sp], #4
 8003f4c:	4770      	bx	lr
 8003f4e:	bf00      	nop

08003f50 <_Delay>:
 8003f50:	b480      	push	{r7}
 8003f52:	b085      	sub	sp, #20
 8003f54:	af00      	add	r7, sp, #0
 8003f56:	6078      	str	r0, [r7, #4]
 8003f58:	2300      	movs	r3, #0
 8003f5a:	60fb      	str	r3, [r7, #12]
 8003f5c:	e002      	b.n	8003f64 <_Delay+0x14>
 8003f5e:	68fb      	ldr	r3, [r7, #12]
 8003f60:	3301      	adds	r3, #1
 8003f62:	60fb      	str	r3, [r7, #12]
 8003f64:	687b      	ldr	r3, [r7, #4]
 8003f66:	031a      	lsls	r2, r3, #12
 8003f68:	68fb      	ldr	r3, [r7, #12]
 8003f6a:	429a      	cmp	r2, r3
 8003f6c:	dcf7      	bgt.n	8003f5e <_Delay+0xe>
 8003f6e:	3714      	adds	r7, #20
 8003f70:	46bd      	mov	sp, r7
 8003f72:	f85d 7b04 	ldr.w	r7, [sp], #4
 8003f76:	4770      	bx	lr

08003f78 <Lcd_GPIO_Init>:
 8003f78:	b480      	push	{r7}
 8003f7a:	af00      	add	r7, sp, #0
 8003f7c:	f44f 6300 	mov.w	r3, #2048	; 0x800
 8003f80:	f2c4 0301 	movt	r3, #16385	; 0x4001
 8003f84:	f44f 6200 	mov.w	r2, #2048	; 0x800
 8003f88:	f2c4 0201 	movt	r2, #16385	; 0x4001
 8003f8c:	6812      	ldr	r2, [r2, #0]
 8003f8e:	f422 2270 	bic.w	r2, r2, #983040	; 0xf0000
 8003f92:	f442 3240 	orr.w	r2, r2, #196608	; 0x30000
 8003f96:	601a      	str	r2, [r3, #0]
 8003f98:	f44f 6300 	mov.w	r3, #2048	; 0x800
 8003f9c:	f2c4 0301 	movt	r3, #16385	; 0x4001
 8003fa0:	f44f 6200 	mov.w	r2, #2048	; 0x800
 8003fa4:	f2c4 0201 	movt	r2, #16385	; 0x4001
 8003fa8:	6852      	ldr	r2, [r2, #4]
 8003faa:	f422 4270 	bic.w	r2, r2, #61440	; 0xf000
 8003fae:	f442 5240 	orr.w	r2, r2, #12288	; 0x3000
 8003fb2:	605a      	str	r2, [r3, #4]
 8003fb4:	f44f 6340 	mov.w	r3, #3072	; 0xc00
 8003fb8:	f2c4 0301 	movt	r3, #16385	; 0x4001
 8003fbc:	f44f 6240 	mov.w	r2, #3072	; 0xc00
 8003fc0:	f2c4 0201 	movt	r2, #16385	; 0x4001
 8003fc4:	6812      	ldr	r2, [r2, #0]
 8003fc6:	f422 2270 	bic.w	r2, r2, #983040	; 0xf0000
 8003fca:	f442 3240 	orr.w	r2, r2, #196608	; 0x30000
 8003fce:	601a      	str	r2, [r3, #0]
 8003fd0:	f44f 6340 	mov.w	r3, #3072	; 0xc00
 8003fd4:	f2c4 0301 	movt	r3, #16385	; 0x4001
 8003fd8:	f44f 6240 	mov.w	r2, #3072	; 0xc00
 8003fdc:	f2c4 0201 	movt	r2, #16385	; 0x4001
 8003fe0:	6852      	ldr	r2, [r2, #4]
 8003fe2:	f022 02f0 	bic.w	r2, r2, #240	; 0xf0
 8003fe6:	f042 0230 	orr.w	r2, r2, #48	; 0x30
 8003fea:	605a      	str	r2, [r3, #4]
 8003fec:	46bd      	mov	sp, r7
 8003fee:	f85d 7b04 	ldr.w	r7, [sp], #4
 8003ff2:	4770      	bx	lr

08003ff4 <Lcd_Write_Reg>:
 8003ff4:	b580      	push	{r7, lr}
 8003ff6:	b082      	sub	sp, #8
 8003ff8:	af00      	add	r7, sp, #0
 8003ffa:	4602      	mov	r2, r0
 8003ffc:	460b      	mov	r3, r1
 8003ffe:	71fa      	strb	r2, [r7, #7]
 8004000:	80bb      	strh	r3, [r7, #4]
 8004002:	79fb      	ldrb	r3, [r7, #7]
 8004004:	4618      	mov	r0, r3
 8004006:	f000 f8a9 	bl	800415c <Lcd_WR_REG>
 800400a:	88bb      	ldrh	r3, [r7, #4]
 800400c:	b2db      	uxtb	r3, r3
 800400e:	4618      	mov	r0, r3
 8004010:	f000 f8d4 	bl	80041bc <Lcd_WR_DATA>
 8004014:	3708      	adds	r7, #8
 8004016:	46bd      	mov	sp, r7
 8004018:	bd80      	pop	{r7, pc}
 800401a:	bf00      	nop

0800401c <Lcd_Write_Data_16Bit>:
 800401c:	b580      	push	{r7, lr}
 800401e:	b082      	sub	sp, #8
 8004020:	af00      	add	r7, sp, #0
 8004022:	4603      	mov	r3, r0
 8004024:	80fb      	strh	r3, [r7, #6]
 8004026:	f44f 6300 	mov.w	r3, #2048	; 0x800
 800402a:	f2c4 0301 	movt	r3, #16385	; 0x4001
 800402e:	f44f 6200 	mov.w	r2, #2048	; 0x800
 8004032:	f2c4 0201 	movt	r2, #16385	; 0x4001
 8004036:	68d2      	ldr	r2, [r2, #12]
 8004038:	f022 0210 	bic.w	r2, r2, #16
 800403c:	60da      	str	r2, [r3, #12]
 800403e:	f44f 6340 	mov.w	r3, #3072	; 0xc00
 8004042:	f2c4 0301 	movt	r3, #16385	; 0x4001
 8004046:	f44f 6240 	mov.w	r2, #3072	; 0xc00
 800404a:	f2c4 0201 	movt	r2, #16385	; 0x4001
 800404e:	68d2      	ldr	r2, [r2, #12]
 8004050:	f442 7200 	orr.w	r2, r2, #512	; 0x200
 8004054:	60da      	str	r2, [r3, #12]
 8004056:	88fb      	ldrh	r3, [r7, #6]
 8004058:	0a1b      	lsrs	r3, r3, #8
 800405a:	b29b      	uxth	r3, r3
 800405c:	b2db      	uxtb	r3, r3
 800405e:	4618      	mov	r0, r3
 8004060:	f7ff ff4a 	bl	8003ef8 <_SPI1_Write_Byte>
 8004064:	88fb      	ldrh	r3, [r7, #6]
 8004066:	b2db      	uxtb	r3, r3
 8004068:	4618      	mov	r0, r3
 800406a:	f7ff ff45 	bl	8003ef8 <_SPI1_Write_Byte>
 800406e:	f44f 6300 	mov.w	r3, #2048	; 0x800
 8004072:	f2c4 0301 	movt	r3, #16385	; 0x4001
 8004076:	f44f 6200 	mov.w	r2, #2048	; 0x800
 800407a:	f2c4 0201 	movt	r2, #16385	; 0x4001
 800407e:	68d2      	ldr	r2, [r2, #12]
 8004080:	f042 0210 	orr.w	r2, r2, #16
 8004084:	60da      	str	r2, [r3, #12]
 8004086:	3708      	adds	r7, #8
 8004088:	46bd      	mov	sp, r7
 800408a:	bd80      	pop	{r7, pc}

0800408c <Lcd_Fill>:
 800408c:	b580      	push	{r7, lr}
 800408e:	b084      	sub	sp, #16
 8004090:	af00      	add	r7, sp, #0
 8004092:	80f8      	strh	r0, [r7, #6]
 8004094:	80b9      	strh	r1, [r7, #4]
 8004096:	807a      	strh	r2, [r7, #2]
 8004098:	803b      	strh	r3, [r7, #0]
 800409a:	887a      	ldrh	r2, [r7, #2]
 800409c:	88fb      	ldrh	r3, [r7, #6]
 800409e:	1ad3      	subs	r3, r2, r3
 80040a0:	b29b      	uxth	r3, r3
 80040a2:	3301      	adds	r3, #1
 80040a4:	817b      	strh	r3, [r7, #10]
 80040a6:	883a      	ldrh	r2, [r7, #0]
 80040a8:	88bb      	ldrh	r3, [r7, #4]
 80040aa:	1ad3      	subs	r3, r2, r3
 80040ac:	b29b      	uxth	r3, r3
 80040ae:	3301      	adds	r3, #1
 80040b0:	813b      	strh	r3, [r7, #8]
 80040b2:	88f8      	ldrh	r0, [r7, #6]
 80040b4:	88b9      	ldrh	r1, [r7, #4]
 80040b6:	887a      	ldrh	r2, [r7, #2]
 80040b8:	883b      	ldrh	r3, [r7, #0]
 80040ba:	f000 f947 	bl	800434c <Lcd_Set_Windows>
 80040be:	2300      	movs	r3, #0
 80040c0:	81fb      	strh	r3, [r7, #14]
 80040c2:	e010      	b.n	80040e6 <Lcd_Fill+0x5a>
 80040c4:	2300      	movs	r3, #0
 80040c6:	81bb      	strh	r3, [r7, #12]
 80040c8:	e006      	b.n	80040d8 <Lcd_Fill+0x4c>
 80040ca:	8b3b      	ldrh	r3, [r7, #24]
 80040cc:	4618      	mov	r0, r3
 80040ce:	f7ff ffa5 	bl	800401c <Lcd_Write_Data_16Bit>
 80040d2:	89bb      	ldrh	r3, [r7, #12]
 80040d4:	3301      	adds	r3, #1
 80040d6:	81bb      	strh	r3, [r7, #12]
 80040d8:	89ba      	ldrh	r2, [r7, #12]
 80040da:	897b      	ldrh	r3, [r7, #10]
 80040dc:	429a      	cmp	r2, r3
 80040de:	d3f4      	bcc.n	80040ca <Lcd_Fill+0x3e>
 80040e0:	89fb      	ldrh	r3, [r7, #14]
 80040e2:	3301      	adds	r3, #1
 80040e4:	81fb      	strh	r3, [r7, #14]
 80040e6:	89fa      	ldrh	r2, [r7, #14]
 80040e8:	893b      	ldrh	r3, [r7, #8]
 80040ea:	429a      	cmp	r2, r3
 80040ec:	d3ea      	bcc.n	80040c4 <Lcd_Fill+0x38>
 80040ee:	f642 7300 	movw	r3, #12032	; 0x2f00
 80040f2:	f2c2 0300 	movt	r3, #8192	; 0x2000
 80040f6:	881b      	ldrh	r3, [r3, #0]
 80040f8:	3b01      	subs	r3, #1
 80040fa:	b29a      	uxth	r2, r3
 80040fc:	f642 7300 	movw	r3, #12032	; 0x2f00
 8004100:	f2c2 0300 	movt	r3, #8192	; 0x2000
 8004104:	885b      	ldrh	r3, [r3, #2]
 8004106:	3b01      	subs	r3, #1
 8004108:	b29b      	uxth	r3, r3
 800410a:	2000      	movs	r0, #0
 800410c:	2100      	movs	r1, #0
 800410e:	f000 f91d 	bl	800434c <Lcd_Set_Windows>
 8004112:	3710      	adds	r7, #16
 8004114:	46bd      	mov	sp, r7
 8004116:	bd80      	pop	{r7, pc}

08004118 <Lcd_Reset>:
 8004118:	b580      	push	{r7, lr}
 800411a:	af00      	add	r7, sp, #0
 800411c:	f44f 6340 	mov.w	r3, #3072	; 0xc00
 8004120:	f2c4 0301 	movt	r3, #16385	; 0x4001
 8004124:	f44f 6240 	mov.w	r2, #3072	; 0xc00
 8004128:	f2c4 0201 	movt	r2, #16385	; 0x4001
 800412c:	68d2      	ldr	r2, [r2, #12]
 800412e:	f022 0210 	bic.w	r2, r2, #16
 8004132:	60da      	str	r2, [r3, #12]
 8004134:	2064      	movs	r0, #100	; 0x64
 8004136:	f7ff ff0b 	bl	8003f50 <_Delay>
 800413a:	f44f 6340 	mov.w	r3, #3072	; 0xc00
 800413e:	f2c4 0301 	movt	r3, #16385	; 0x4001
 8004142:	f44f 6240 	mov.w	r2, #3072	; 0xc00
 8004146:	f2c4 0201 	movt	r2, #16385	; 0x4001
 800414a:	68d2      	ldr	r2, [r2, #12]
 800414c:	f042 0210 	orr.w	r2, r2, #16
 8004150:	60da      	str	r2, [r3, #12]
 8004152:	2032      	movs	r0, #50	; 0x32
 8004154:	f7ff fefc 	bl	8003f50 <_Delay>
 8004158:	bd80      	pop	{r7, pc}
 800415a:	bf00      	nop

0800415c <Lcd_WR_REG>:
 800415c:	b580      	push	{r7, lr}
 800415e:	b082      	sub	sp, #8
 8004160:	af00      	add	r7, sp, #0
 8004162:	4603      	mov	r3, r0
 8004164:	71fb      	strb	r3, [r7, #7]
 8004166:	f44f 6300 	mov.w	r3, #2048	; 0x800
 800416a:	f2c4 0301 	movt	r3, #16385	; 0x4001
 800416e:	f44f 6200 	mov.w	r2, #2048	; 0x800
 8004172:	f2c4 0201 	movt	r2, #16385	; 0x4001
 8004176:	68d2      	ldr	r2, [r2, #12]
 8004178:	f022 0210 	bic.w	r2, r2, #16
 800417c:	60da      	str	r2, [r3, #12]
 800417e:	f44f 6340 	mov.w	r3, #3072	; 0xc00
 8004182:	f2c4 0301 	movt	r3, #16385	; 0x4001
 8004186:	f44f 6240 	mov.w	r2, #3072	; 0xc00
 800418a:	f2c4 0201 	movt	r2, #16385	; 0x4001
 800418e:	68d2      	ldr	r2, [r2, #12]
 8004190:	f422 7200 	bic.w	r2, r2, #512	; 0x200
 8004194:	60da      	str	r2, [r3, #12]
 8004196:	79fb      	ldrb	r3, [r7, #7]
 8004198:	4618      	mov	r0, r3
 800419a:	f7ff fead 	bl	8003ef8 <_SPI1_Write_Byte>
 800419e:	f44f 6300 	mov.w	r3, #2048	; 0x800
 80041a2:	f2c4 0301 	movt	r3, #16385	; 0x4001
 80041a6:	f44f 6200 	mov.w	r2, #2048	; 0x800
 80041aa:	f2c4 0201 	movt	r2, #16385	; 0x4001
 80041ae:	68d2      	ldr	r2, [r2, #12]
 80041b0:	f042 0210 	orr.w	r2, r2, #16
 80041b4:	60da      	str	r2, [r3, #12]
 80041b6:	3708      	adds	r7, #8
 80041b8:	46bd      	mov	sp, r7
 80041ba:	bd80      	pop	{r7, pc}

080041bc <Lcd_WR_DATA>:
 80041bc:	b580      	push	{r7, lr}
 80041be:	b082      	sub	sp, #8
 80041c0:	af00      	add	r7, sp, #0
 80041c2:	4603      	mov	r3, r0
 80041c4:	71fb      	strb	r3, [r7, #7]
 80041c6:	f44f 6300 	mov.w	r3, #2048	; 0x800
 80041ca:	f2c4 0301 	movt	r3, #16385	; 0x4001
 80041ce:	f44f 6200 	mov.w	r2, #2048	; 0x800
 80041d2:	f2c4 0201 	movt	r2, #16385	; 0x4001
 80041d6:	68d2      	ldr	r2, [r2, #12]
 80041d8:	f022 0210 	bic.w	r2, r2, #16
 80041dc:	60da      	str	r2, [r3, #12]
 80041de:	f44f 6340 	mov.w	r3, #3072	; 0xc00
 80041e2:	f2c4 0301 	movt	r3, #16385	; 0x4001
 80041e6:	f44f 6240 	mov.w	r2, #3072	; 0xc00
 80041ea:	f2c4 0201 	movt	r2, #16385	; 0x4001
 80041ee:	68d2      	ldr	r2, [r2, #12]
 80041f0:	f442 7200 	orr.w	r2, r2, #512	; 0x200
 80041f4:	60da      	str	r2, [r3, #12]
 80041f6:	79fb      	ldrb	r3, [r7, #7]
 80041f8:	4618      	mov	r0, r3
 80041fa:	f7ff fe7d 	bl	8003ef8 <_SPI1_Write_Byte>
 80041fe:	f44f 6300 	mov.w	r3, #2048	; 0x800
 8004202:	f2c4 0301 	movt	r3, #16385	; 0x4001
 8004206:	f44f 6200 	mov.w	r2, #2048	; 0x800
 800420a:	f2c4 0201 	movt	r2, #16385	; 0x4001
 800420e:	68d2      	ldr	r2, [r2, #12]
 8004210:	f042 0210 	orr.w	r2, r2, #16
 8004214:	60da      	str	r2, [r3, #12]
 8004216:	3708      	adds	r7, #8
 8004218:	46bd      	mov	sp, r7
 800421a:	bd80      	pop	{r7, pc}

0800421c <Lcd_Set_Display_Mode>:
 800421c:	b580      	push	{r7, lr}
 800421e:	b082      	sub	sp, #8
 8004220:	af00      	add	r7, sp, #0
 8004222:	6078      	str	r0, [r7, #4]
 8004224:	687b      	ldr	r3, [r7, #4]
 8004226:	b2da      	uxtb	r2, r3
 8004228:	f642 7300 	movw	r3, #12032	; 0x2f00
 800422c:	f2c2 0300 	movt	r3, #8192	; 0x2000
 8004230:	711a      	strb	r2, [r3, #4]
 8004232:	f642 7300 	movw	r3, #12032	; 0x2f00
 8004236:	f2c2 0300 	movt	r3, #8192	; 0x2000
 800423a:	222a      	movs	r2, #42	; 0x2a
 800423c:	811a      	strh	r2, [r3, #8]
 800423e:	f642 7300 	movw	r3, #12032	; 0x2f00
 8004242:	f2c2 0300 	movt	r3, #8192	; 0x2000
 8004246:	222b      	movs	r2, #43	; 0x2b
 8004248:	815a      	strh	r2, [r3, #10]
 800424a:	f642 7300 	movw	r3, #12032	; 0x2f00
 800424e:	f2c2 0300 	movt	r3, #8192	; 0x2000
 8004252:	222c      	movs	r2, #44	; 0x2c
 8004254:	80da      	strh	r2, [r3, #6]
 8004256:	687b      	ldr	r3, [r7, #4]
 8004258:	2b04      	cmp	r3, #4
 800425a:	d867      	bhi.n	800432c <Lcd_Set_Display_Mode+0x110>
 800425c:	a201      	add	r2, pc, #4	; (adr r2, 8004264 <Lcd_Set_Display_Mode+0x48>)
 800425e:	f852 f023 	ldr.w	pc, [r2, r3, lsl #2]
 8004262:	bf00      	nop
 8004264:	08004279 	stmdaeq	r0, {r0, r3, r4, r5, r6, r9, lr}
 8004268:	0800429d 	stmdaeq	r0, {r0, r2, r3, r4, r7, r9, lr}
 800426c:	080042c1 	stmdaeq	r0, {r0, r6, r7, r9, lr}
 8004270:	080042e5 	stmdaeq	r0, {r0, r2, r5, r6, r7, r9, lr}
 8004274:	08004309 	stmdaeq	r0, {r0, r3, r8, r9, lr}
 8004278:	f642 7300 	movw	r3, #12032	; 0x2f00
 800427c:	f2c2 0300 	movt	r3, #8192	; 0x2000
 8004280:	22f0      	movs	r2, #240	; 0xf0
 8004282:	801a      	strh	r2, [r3, #0]
 8004284:	f642 7300 	movw	r3, #12032	; 0x2f00
 8004288:	f2c2 0300 	movt	r3, #8192	; 0x2000
 800428c:	f44f 72a0 	mov.w	r2, #320	; 0x140
 8004290:	805a      	strh	r2, [r3, #2]
 8004292:	2036      	movs	r0, #54	; 0x36
 8004294:	2108      	movs	r1, #8
 8004296:	f7ff fead 	bl	8003ff4 <Lcd_Write_Reg>
 800429a:	e048      	b.n	800432e <Lcd_Set_Display_Mode+0x112>
 800429c:	f642 7300 	movw	r3, #12032	; 0x2f00
 80042a0:	f2c2 0300 	movt	r3, #8192	; 0x2000
 80042a4:	f44f 72a0 	mov.w	r2, #320	; 0x140
 80042a8:	801a      	strh	r2, [r3, #0]
 80042aa:	f642 7300 	movw	r3, #12032	; 0x2f00
 80042ae:	f2c2 0300 	movt	r3, #8192	; 0x2000
 80042b2:	22f0      	movs	r2, #240	; 0xf0
 80042b4:	805a      	strh	r2, [r3, #2]
 80042b6:	2036      	movs	r0, #54	; 0x36
 80042b8:	2168      	movs	r1, #104	; 0x68
 80042ba:	f7ff fe9b 	bl	8003ff4 <Lcd_Write_Reg>
 80042be:	e036      	b.n	800432e <Lcd_Set_Display_Mode+0x112>
 80042c0:	f642 7300 	movw	r3, #12032	; 0x2f00
 80042c4:	f2c2 0300 	movt	r3, #8192	; 0x2000
 80042c8:	22f0      	movs	r2, #240	; 0xf0
 80042ca:	801a      	strh	r2, [r3, #0]
 80042cc:	f642 7300 	movw	r3, #12032	; 0x2f00
 80042d0:	f2c2 0300 	movt	r3, #8192	; 0x2000
 80042d4:	f44f 72a0 	mov.w	r2, #320	; 0x140
 80042d8:	805a      	strh	r2, [r3, #2]
 80042da:	2036      	movs	r0, #54	; 0x36
 80042dc:	21c8      	movs	r1, #200	; 0xc8
 80042de:	f7ff fe89 	bl	8003ff4 <Lcd_Write_Reg>
 80042e2:	e024      	b.n	800432e <Lcd_Set_Display_Mode+0x112>
 80042e4:	f642 7300 	movw	r3, #12032	; 0x2f00
 80042e8:	f2c2 0300 	movt	r3, #8192	; 0x2000
 80042ec:	f44f 72a0 	mov.w	r2, #320	; 0x140
 80042f0:	801a      	strh	r2, [r3, #0]
 80042f2:	f642 7300 	movw	r3, #12032	; 0x2f00
 80042f6:	f2c2 0300 	movt	r3, #8192	; 0x2000
 80042fa:	22f0      	movs	r2, #240	; 0xf0
 80042fc:	805a      	strh	r2, [r3, #2]
 80042fe:	2036      	movs	r0, #54	; 0x36
 8004300:	21a8      	movs	r1, #168	; 0xa8
 8004302:	f7ff fe77 	bl	8003ff4 <Lcd_Write_Reg>
 8004306:	e012      	b.n	800432e <Lcd_Set_Display_Mode+0x112>
 8004308:	f642 7300 	movw	r3, #12032	; 0x2f00
 800430c:	f2c2 0300 	movt	r3, #8192	; 0x2000
 8004310:	f44f 72a0 	mov.w	r2, #320	; 0x140
 8004314:	801a      	strh	r2, [r3, #0]
 8004316:	f642 7300 	movw	r3, #12032	; 0x2f00
 800431a:	f2c2 0300 	movt	r3, #8192	; 0x2000
 800431e:	22f0      	movs	r2, #240	; 0xf0
 8004320:	805a      	strh	r2, [r3, #2]
 8004322:	2036      	movs	r0, #54	; 0x36
 8004324:	21e8      	movs	r1, #232	; 0xe8
 8004326:	f7ff fe65 	bl	8003ff4 <Lcd_Write_Reg>
 800432a:	e000      	b.n	800432e <Lcd_Set_Display_Mode+0x112>
 800432c:	bf00      	nop
 800432e:	3708      	adds	r7, #8
 8004330:	46bd      	mov	sp, r7
 8004332:	bd80      	pop	{r7, pc}

08004334 <Lcd_Write_RAM_Prepare>:
 8004334:	b580      	push	{r7, lr}
 8004336:	af00      	add	r7, sp, #0
 8004338:	f642 7300 	movw	r3, #12032	; 0x2f00
 800433c:	f2c2 0300 	movt	r3, #8192	; 0x2000
 8004340:	88db      	ldrh	r3, [r3, #6]
 8004342:	b2db      	uxtb	r3, r3
 8004344:	4618      	mov	r0, r3
 8004346:	f7ff ff09 	bl	800415c <Lcd_WR_REG>
 800434a:	bd80      	pop	{r7, pc}

0800434c <Lcd_Set_Windows>:
 800434c:	b580      	push	{r7, lr}
 800434e:	b082      	sub	sp, #8
 8004350:	af00      	add	r7, sp, #0
 8004352:	80f8      	strh	r0, [r7, #6]
 8004354:	80b9      	strh	r1, [r7, #4]
 8004356:	807a      	strh	r2, [r7, #2]
 8004358:	803b      	strh	r3, [r7, #0]
 800435a:	f642 7300 	movw	r3, #12032	; 0x2f00
 800435e:	f2c2 0300 	movt	r3, #8192	; 0x2000
 8004362:	891b      	ldrh	r3, [r3, #8]
 8004364:	b2db      	uxtb	r3, r3
 8004366:	4618      	mov	r0, r3
 8004368:	f7ff fef8 	bl	800415c <Lcd_WR_REG>
 800436c:	88fb      	ldrh	r3, [r7, #6]
 800436e:	0a1b      	lsrs	r3, r3, #8
 8004370:	b29b      	uxth	r3, r3
 8004372:	b2db      	uxtb	r3, r3
 8004374:	4618      	mov	r0, r3
 8004376:	f7ff ff21 	bl	80041bc <Lcd_WR_DATA>
 800437a:	88fb      	ldrh	r3, [r7, #6]
 800437c:	b2db      	uxtb	r3, r3
 800437e:	4618      	mov	r0, r3
 8004380:	f7ff ff1c 	bl	80041bc <Lcd_WR_DATA>
 8004384:	887b      	ldrh	r3, [r7, #2]
 8004386:	0a1b      	lsrs	r3, r3, #8
 8004388:	b29b      	uxth	r3, r3
 800438a:	b2db      	uxtb	r3, r3
 800438c:	4618      	mov	r0, r3
 800438e:	f7ff ff15 	bl	80041bc <Lcd_WR_DATA>
 8004392:	887b      	ldrh	r3, [r7, #2]
 8004394:	b2db      	uxtb	r3, r3
 8004396:	4618      	mov	r0, r3
 8004398:	f7ff ff10 	bl	80041bc <Lcd_WR_DATA>
 800439c:	f642 7300 	movw	r3, #12032	; 0x2f00
 80043a0:	f2c2 0300 	movt	r3, #8192	; 0x2000
 80043a4:	895b      	ldrh	r3, [r3, #10]
 80043a6:	b2db      	uxtb	r3, r3
 80043a8:	4618      	mov	r0, r3
 80043aa:	f7ff fed7 	bl	800415c <Lcd_WR_REG>
 80043ae:	88bb      	ldrh	r3, [r7, #4]
 80043b0:	0a1b      	lsrs	r3, r3, #8
 80043b2:	b29b      	uxth	r3, r3
 80043b4:	b2db      	uxtb	r3, r3
 80043b6:	4618      	mov	r0, r3
 80043b8:	f7ff ff00 	bl	80041bc <Lcd_WR_DATA>
 80043bc:	88bb      	ldrh	r3, [r7, #4]
 80043be:	b2db      	uxtb	r3, r3
 80043c0:	4618      	mov	r0, r3
 80043c2:	f7ff fefb 	bl	80041bc <Lcd_WR_DATA>
 80043c6:	883b      	ldrh	r3, [r7, #0]
 80043c8:	0a1b      	lsrs	r3, r3, #8
 80043ca:	b29b      	uxth	r3, r3
 80043cc:	b2db      	uxtb	r3, r3
 80043ce:	4618      	mov	r0, r3
 80043d0:	f7ff fef4 	bl	80041bc <Lcd_WR_DATA>
 80043d4:	883b      	ldrh	r3, [r7, #0]
 80043d6:	b2db      	uxtb	r3, r3
 80043d8:	4618      	mov	r0, r3
 80043da:	f7ff feef 	bl	80041bc <Lcd_WR_DATA>
 80043de:	f7ff ffa9 	bl	8004334 <Lcd_Write_RAM_Prepare>
 80043e2:	3708      	adds	r7, #8
 80043e4:	46bd      	mov	sp, r7
 80043e6:	bd80      	pop	{r7, pc}

080043e8 <Lcd_Set_Cursor>:
 80043e8:	b580      	push	{r7, lr}
 80043ea:	b082      	sub	sp, #8
 80043ec:	af00      	add	r7, sp, #0
 80043ee:	4602      	mov	r2, r0
 80043f0:	460b      	mov	r3, r1
 80043f2:	80fa      	strh	r2, [r7, #6]
 80043f4:	80bb      	strh	r3, [r7, #4]
 80043f6:	88f8      	ldrh	r0, [r7, #6]
 80043f8:	88b9      	ldrh	r1, [r7, #4]
 80043fa:	88fa      	ldrh	r2, [r7, #6]
 80043fc:	88bb      	ldrh	r3, [r7, #4]
 80043fe:	f7ff ffa5 	bl	800434c <Lcd_Set_Windows>
 8004402:	3708      	adds	r7, #8
 8004404:	46bd      	mov	sp, r7
 8004406:	bd80      	pop	{r7, pc}

08004408 <Lcd_Draw_Back_Color>:
 8004408:	b580      	push	{r7, lr}
 800440a:	b084      	sub	sp, #16
 800440c:	af00      	add	r7, sp, #0
 800440e:	4603      	mov	r3, r0
 8004410:	80fb      	strh	r3, [r7, #6]
 8004412:	88fb      	ldrh	r3, [r7, #6]
 8004414:	0a1b      	lsrs	r3, r3, #8
 8004416:	b29b      	uxth	r3, r3
 8004418:	72fb      	strb	r3, [r7, #11]
 800441a:	88fb      	ldrh	r3, [r7, #6]
 800441c:	72bb      	strb	r3, [r7, #10]
 800441e:	f642 7300 	movw	r3, #12032	; 0x2f00
 8004422:	f2c2 0300 	movt	r3, #8192	; 0x2000
 8004426:	881b      	ldrh	r3, [r3, #0]
 8004428:	3b01      	subs	r3, #1
 800442a:	b29a      	uxth	r2, r3
 800442c:	f642 7300 	movw	r3, #12032	; 0x2f00
 8004430:	f2c2 0300 	movt	r3, #8192	; 0x2000
 8004434:	885b      	ldrh	r3, [r3, #2]
 8004436:	3b01      	subs	r3, #1
 8004438:	b29b      	uxth	r3, r3
 800443a:	2000      	movs	r0, #0
 800443c:	2100      	movs	r1, #0
 800443e:	f7ff ff85 	bl	800434c <Lcd_Set_Windows>
 8004442:	f44f 6300 	mov.w	r3, #2048	; 0x800
 8004446:	f2c4 0301 	movt	r3, #16385	; 0x4001
 800444a:	f44f 6200 	mov.w	r2, #2048	; 0x800
 800444e:	f2c4 0201 	movt	r2, #16385	; 0x4001
 8004452:	68d2      	ldr	r2, [r2, #12]
 8004454:	f022 0210 	bic.w	r2, r2, #16
 8004458:	60da      	str	r2, [r3, #12]
 800445a:	f44f 6340 	mov.w	r3, #3072	; 0xc00
 800445e:	f2c4 0301 	movt	r3, #16385	; 0x4001
 8004462:	f44f 6240 	mov.w	r2, #3072	; 0xc00
 8004466:	f2c4 0201 	movt	r2, #16385	; 0x4001
 800446a:	68d2      	ldr	r2, [r2, #12]
 800446c:	f442 7200 	orr.w	r2, r2, #512	; 0x200
 8004470:	60da      	str	r2, [r3, #12]
 8004472:	2300      	movs	r3, #0
 8004474:	60fb      	str	r3, [r7, #12]
 8004476:	e00a      	b.n	800448e <Lcd_Draw_Back_Color+0x86>
 8004478:	7afb      	ldrb	r3, [r7, #11]
 800447a:	4618      	mov	r0, r3
 800447c:	f7ff fd3c 	bl	8003ef8 <_SPI1_Write_Byte>
 8004480:	7abb      	ldrb	r3, [r7, #10]
 8004482:	4618      	mov	r0, r3
 8004484:	f7ff fd38 	bl	8003ef8 <_SPI1_Write_Byte>
 8004488:	68fb      	ldr	r3, [r7, #12]
 800448a:	3301      	adds	r3, #1
 800448c:	60fb      	str	r3, [r7, #12]
 800448e:	f642 7300 	movw	r3, #12032	; 0x2f00
 8004492:	f2c2 0300 	movt	r3, #8192	; 0x2000
 8004496:	885b      	ldrh	r3, [r3, #2]
 8004498:	461a      	mov	r2, r3
 800449a:	f642 7300 	movw	r3, #12032	; 0x2f00
 800449e:	f2c2 0300 	movt	r3, #8192	; 0x2000
 80044a2:	881b      	ldrh	r3, [r3, #0]
 80044a4:	fb03 f302 	mul.w	r3, r3, r2
 80044a8:	461a      	mov	r2, r3
 80044aa:	68fb      	ldr	r3, [r7, #12]
 80044ac:	429a      	cmp	r2, r3
 80044ae:	d8e3      	bhi.n	8004478 <Lcd_Draw_Back_Color+0x70>
 80044b0:	f44f 6300 	mov.w	r3, #2048	; 0x800
 80044b4:	f2c4 0301 	movt	r3, #16385	; 0x4001
 80044b8:	f44f 6200 	mov.w	r2, #2048	; 0x800
 80044bc:	f2c4 0201 	movt	r2, #16385	; 0x4001
 80044c0:	68d2      	ldr	r2, [r2, #12]
 80044c2:	f042 0210 	orr.w	r2, r2, #16
 80044c6:	60da      	str	r2, [r3, #12]
 80044c8:	3710      	adds	r7, #16
 80044ca:	46bd      	mov	sp, r7
 80044cc:	bd80      	pop	{r7, pc}
 80044ce:	bf00      	nop

080044d0 <Lcd_Clr_Screen>:
 80044d0:	b580      	push	{r7, lr}
 80044d2:	af00      	add	r7, sp, #0
 80044d4:	2000      	movs	r0, #0
 80044d6:	f7ff ff97 	bl	8004408 <Lcd_Draw_Back_Color>
 80044da:	bd80      	pop	{r7, pc}

080044dc <Lcd_Draw_Box>:
 80044dc:	b580      	push	{r7, lr}
 80044de:	b088      	sub	sp, #32
 80044e0:	af00      	add	r7, sp, #0
 80044e2:	60f8      	str	r0, [r7, #12]
 80044e4:	60b9      	str	r1, [r7, #8]
 80044e6:	607a      	str	r2, [r7, #4]
 80044e8:	603b      	str	r3, [r7, #0]
 80044ea:	8d3b      	ldrh	r3, [r7, #40]	; 0x28
 80044ec:	0a1b      	lsrs	r3, r3, #8
 80044ee:	b29b      	uxth	r3, r3
 80044f0:	75fb      	strb	r3, [r7, #23]
 80044f2:	8d3b      	ldrh	r3, [r7, #40]	; 0x28
 80044f4:	75bb      	strb	r3, [r7, #22]
 80044f6:	68fa      	ldr	r2, [r7, #12]
 80044f8:	687b      	ldr	r3, [r7, #4]
 80044fa:	4413      	add	r3, r2
 80044fc:	3b01      	subs	r3, #1
 80044fe:	61bb      	str	r3, [r7, #24]
 8004500:	68ba      	ldr	r2, [r7, #8]
 8004502:	683b      	ldr	r3, [r7, #0]
 8004504:	4413      	add	r3, r2
 8004506:	3b01      	subs	r3, #1
 8004508:	613b      	str	r3, [r7, #16]
 800450a:	69bb      	ldr	r3, [r7, #24]
 800450c:	f5b3 7fa0 	cmp.w	r3, #320	; 0x140
 8004510:	db02      	blt.n	8004518 <Lcd_Draw_Box+0x3c>
 8004512:	f240 133f 	movw	r3, #319	; 0x13f
 8004516:	61bb      	str	r3, [r7, #24]
 8004518:	693b      	ldr	r3, [r7, #16]
 800451a:	2bef      	cmp	r3, #239	; 0xef
 800451c:	dd01      	ble.n	8004522 <Lcd_Draw_Box+0x46>
 800451e:	23ef      	movs	r3, #239	; 0xef
 8004520:	61bb      	str	r3, [r7, #24]
 8004522:	68fb      	ldr	r3, [r7, #12]
 8004524:	b298      	uxth	r0, r3
 8004526:	68bb      	ldr	r3, [r7, #8]
 8004528:	b299      	uxth	r1, r3
 800452a:	69bb      	ldr	r3, [r7, #24]
 800452c:	b29a      	uxth	r2, r3
 800452e:	693b      	ldr	r3, [r7, #16]
 8004530:	b29b      	uxth	r3, r3
 8004532:	f7ff ff0b 	bl	800434c <Lcd_Set_Windows>
 8004536:	f44f 6300 	mov.w	r3, #2048	; 0x800
 800453a:	f2c4 0301 	movt	r3, #16385	; 0x4001
 800453e:	f44f 6200 	mov.w	r2, #2048	; 0x800
 8004542:	f2c4 0201 	movt	r2, #16385	; 0x4001
 8004546:	68d2      	ldr	r2, [r2, #12]
 8004548:	f022 0210 	bic.w	r2, r2, #16
 800454c:	60da      	str	r2, [r3, #12]
 800454e:	f44f 6340 	mov.w	r3, #3072	; 0xc00
 8004552:	f2c4 0301 	movt	r3, #16385	; 0x4001
 8004556:	f44f 6240 	mov.w	r2, #3072	; 0xc00
 800455a:	f2c4 0201 	movt	r2, #16385	; 0x4001
 800455e:	68d2      	ldr	r2, [r2, #12]
 8004560:	f442 7200 	orr.w	r2, r2, #512	; 0x200
 8004564:	60da      	str	r2, [r3, #12]
 8004566:	2300      	movs	r3, #0
 8004568:	61fb      	str	r3, [r7, #28]
 800456a:	e00a      	b.n	8004582 <Lcd_Draw_Box+0xa6>
 800456c:	7dfb      	ldrb	r3, [r7, #23]
 800456e:	4618      	mov	r0, r3
 8004570:	f7ff fcc2 	bl	8003ef8 <_SPI1_Write_Byte>
 8004574:	7dbb      	ldrb	r3, [r7, #22]
 8004576:	4618      	mov	r0, r3
 8004578:	f7ff fcbe 	bl	8003ef8 <_SPI1_Write_Byte>
 800457c:	69fb      	ldr	r3, [r7, #28]
 800457e:	3301      	adds	r3, #1
 8004580:	61fb      	str	r3, [r7, #28]
 8004582:	69ba      	ldr	r2, [r7, #24]
 8004584:	68fb      	ldr	r3, [r7, #12]
 8004586:	1ad3      	subs	r3, r2, r3
 8004588:	3301      	adds	r3, #1
 800458a:	6939      	ldr	r1, [r7, #16]
 800458c:	68ba      	ldr	r2, [r7, #8]
 800458e:	1a8a      	subs	r2, r1, r2
 8004590:	3201      	adds	r2, #1
 8004592:	fb02 f303 	mul.w	r3, r2, r3
 8004596:	461a      	mov	r2, r3
 8004598:	69fb      	ldr	r3, [r7, #28]
 800459a:	429a      	cmp	r2, r3
 800459c:	d8e6      	bhi.n	800456c <Lcd_Draw_Box+0x90>
 800459e:	f44f 6300 	mov.w	r3, #2048	; 0x800
 80045a2:	f2c4 0301 	movt	r3, #16385	; 0x4001
 80045a6:	f44f 6200 	mov.w	r2, #2048	; 0x800
 80045aa:	f2c4 0201 	movt	r2, #16385	; 0x4001
 80045ae:	68d2      	ldr	r2, [r2, #12]
 80045b0:	f042 0210 	orr.w	r2, r2, #16
 80045b4:	60da      	str	r2, [r3, #12]
 80045b6:	3720      	adds	r7, #32
 80045b8:	46bd      	mov	sp, r7
 80045ba:	bd80      	pop	{r7, pc}

080045bc <Lcd_Init>:
 80045bc:	b580      	push	{r7, lr}
 80045be:	af00      	add	r7, sp, #0
 80045c0:	f7ff fc4c 	bl	8003e5c <_SPI1_Init>
 80045c4:	f7ff fcd8 	bl	8003f78 <Lcd_GPIO_Init>
 80045c8:	f44f 6300 	mov.w	r3, #2048	; 0x800
 80045cc:	f2c4 0301 	movt	r3, #16385	; 0x4001
 80045d0:	f44f 6200 	mov.w	r2, #2048	; 0x800
 80045d4:	f2c4 0201 	movt	r2, #16385	; 0x4001
 80045d8:	68d2      	ldr	r2, [r2, #12]
 80045da:	f422 6200 	bic.w	r2, r2, #2048	; 0x800
 80045de:	60da      	str	r2, [r3, #12]
 80045e0:	f7ff fd9a 	bl	8004118 <Lcd_Reset>
 80045e4:	20cf      	movs	r0, #207	; 0xcf
 80045e6:	f7ff fdb9 	bl	800415c <Lcd_WR_REG>
 80045ea:	2000      	movs	r0, #0
 80045ec:	f7ff fde6 	bl	80041bc <Lcd_WR_DATA>
 80045f0:	20d9      	movs	r0, #217	; 0xd9
 80045f2:	f7ff fde3 	bl	80041bc <Lcd_WR_DATA>
 80045f6:	2030      	movs	r0, #48	; 0x30
 80045f8:	f7ff fde0 	bl	80041bc <Lcd_WR_DATA>
 80045fc:	20ed      	movs	r0, #237	; 0xed
 80045fe:	f7ff fdad 	bl	800415c <Lcd_WR_REG>
 8004602:	2064      	movs	r0, #100	; 0x64
 8004604:	f7ff fdda 	bl	80041bc <Lcd_WR_DATA>
 8004608:	2003      	movs	r0, #3
 800460a:	f7ff fdd7 	bl	80041bc <Lcd_WR_DATA>
 800460e:	2012      	movs	r0, #18
 8004610:	f7ff fdd4 	bl	80041bc <Lcd_WR_DATA>
 8004614:	2081      	movs	r0, #129	; 0x81
 8004616:	f7ff fdd1 	bl	80041bc <Lcd_WR_DATA>
 800461a:	20e8      	movs	r0, #232	; 0xe8
 800461c:	f7ff fd9e 	bl	800415c <Lcd_WR_REG>
 8004620:	2085      	movs	r0, #133	; 0x85
 8004622:	f7ff fdcb 	bl	80041bc <Lcd_WR_DATA>
 8004626:	2010      	movs	r0, #16
 8004628:	f7ff fdc8 	bl	80041bc <Lcd_WR_DATA>
 800462c:	207a      	movs	r0, #122	; 0x7a
 800462e:	f7ff fdc5 	bl	80041bc <Lcd_WR_DATA>
 8004632:	20cb      	movs	r0, #203	; 0xcb
 8004634:	f7ff fd92 	bl	800415c <Lcd_WR_REG>
 8004638:	2039      	movs	r0, #57	; 0x39
 800463a:	f7ff fdbf 	bl	80041bc <Lcd_WR_DATA>
 800463e:	202c      	movs	r0, #44	; 0x2c
 8004640:	f7ff fdbc 	bl	80041bc <Lcd_WR_DATA>
 8004644:	2000      	movs	r0, #0
 8004646:	f7ff fdb9 	bl	80041bc <Lcd_WR_DATA>
 800464a:	2034      	movs	r0, #52	; 0x34
 800464c:	f7ff fdb6 	bl	80041bc <Lcd_WR_DATA>
 8004650:	2002      	movs	r0, #2
 8004652:	f7ff fdb3 	bl	80041bc <Lcd_WR_DATA>
 8004656:	20f7      	movs	r0, #247	; 0xf7
 8004658:	f7ff fd80 	bl	800415c <Lcd_WR_REG>
 800465c:	2020      	movs	r0, #32
 800465e:	f7ff fdad 	bl	80041bc <Lcd_WR_DATA>
 8004662:	20ea      	movs	r0, #234	; 0xea
 8004664:	f7ff fd7a 	bl	800415c <Lcd_WR_REG>
 8004668:	2000      	movs	r0, #0
 800466a:	f7ff fda7 	bl	80041bc <Lcd_WR_DATA>
 800466e:	2000      	movs	r0, #0
 8004670:	f7ff fda4 	bl	80041bc <Lcd_WR_DATA>
 8004674:	20c0      	movs	r0, #192	; 0xc0
 8004676:	f7ff fd71 	bl	800415c <Lcd_WR_REG>
 800467a:	201b      	movs	r0, #27
 800467c:	f7ff fd9e 	bl	80041bc <Lcd_WR_DATA>
 8004680:	20c1      	movs	r0, #193	; 0xc1
 8004682:	f7ff fd6b 	bl	800415c <Lcd_WR_REG>
 8004686:	2012      	movs	r0, #18
 8004688:	f7ff fd98 	bl	80041bc <Lcd_WR_DATA>
 800468c:	20c5      	movs	r0, #197	; 0xc5
 800468e:	f7ff fd65 	bl	800415c <Lcd_WR_REG>
 8004692:	2008      	movs	r0, #8
 8004694:	f7ff fd92 	bl	80041bc <Lcd_WR_DATA>
 8004698:	2026      	movs	r0, #38	; 0x26
 800469a:	f7ff fd8f 	bl	80041bc <Lcd_WR_DATA>
 800469e:	20c7      	movs	r0, #199	; 0xc7
 80046a0:	f7ff fd5c 	bl	800415c <Lcd_WR_REG>
 80046a4:	20b7      	movs	r0, #183	; 0xb7
 80046a6:	f7ff fd89 	bl	80041bc <Lcd_WR_DATA>
 80046aa:	2036      	movs	r0, #54	; 0x36
 80046ac:	f7ff fd56 	bl	800415c <Lcd_WR_REG>
 80046b0:	2008      	movs	r0, #8
 80046b2:	f7ff fd83 	bl	80041bc <Lcd_WR_DATA>
 80046b6:	203a      	movs	r0, #58	; 0x3a
 80046b8:	f7ff fd50 	bl	800415c <Lcd_WR_REG>
 80046bc:	2055      	movs	r0, #85	; 0x55
 80046be:	f7ff fd7d 	bl	80041bc <Lcd_WR_DATA>
 80046c2:	20b1      	movs	r0, #177	; 0xb1
 80046c4:	f7ff fd4a 	bl	800415c <Lcd_WR_REG>
 80046c8:	2000      	movs	r0, #0
 80046ca:	f7ff fd77 	bl	80041bc <Lcd_WR_DATA>
 80046ce:	201a      	movs	r0, #26
 80046d0:	f7ff fd74 	bl	80041bc <Lcd_WR_DATA>
 80046d4:	20b6      	movs	r0, #182	; 0xb6
 80046d6:	f7ff fd41 	bl	800415c <Lcd_WR_REG>
 80046da:	200a      	movs	r0, #10
 80046dc:	f7ff fd6e 	bl	80041bc <Lcd_WR_DATA>
 80046e0:	20a2      	movs	r0, #162	; 0xa2
 80046e2:	f7ff fd6b 	bl	80041bc <Lcd_WR_DATA>
 80046e6:	20f2      	movs	r0, #242	; 0xf2
 80046e8:	f7ff fd38 	bl	800415c <Lcd_WR_REG>
 80046ec:	2000      	movs	r0, #0
 80046ee:	f7ff fd65 	bl	80041bc <Lcd_WR_DATA>
 80046f2:	2026      	movs	r0, #38	; 0x26
 80046f4:	f7ff fd32 	bl	800415c <Lcd_WR_REG>
 80046f8:	2001      	movs	r0, #1
 80046fa:	f7ff fd5f 	bl	80041bc <Lcd_WR_DATA>
 80046fe:	20e0      	movs	r0, #224	; 0xe0
 8004700:	f7ff fd2c 	bl	800415c <Lcd_WR_REG>
 8004704:	200f      	movs	r0, #15
 8004706:	f7ff fd59 	bl	80041bc <Lcd_WR_DATA>
 800470a:	201d      	movs	r0, #29
 800470c:	f7ff fd56 	bl	80041bc <Lcd_WR_DATA>
 8004710:	201a      	movs	r0, #26
 8004712:	f7ff fd53 	bl	80041bc <Lcd_WR_DATA>
 8004716:	200a      	movs	r0, #10
 8004718:	f7ff fd50 	bl	80041bc <Lcd_WR_DATA>
 800471c:	200d      	movs	r0, #13
 800471e:	f7ff fd4d 	bl	80041bc <Lcd_WR_DATA>
 8004722:	2007      	movs	r0, #7
 8004724:	f7ff fd4a 	bl	80041bc <Lcd_WR_DATA>
 8004728:	2049      	movs	r0, #73	; 0x49
 800472a:	f7ff fd47 	bl	80041bc <Lcd_WR_DATA>
 800472e:	2066      	movs	r0, #102	; 0x66
 8004730:	f7ff fd44 	bl	80041bc <Lcd_WR_DATA>
 8004734:	203b      	movs	r0, #59	; 0x3b
 8004736:	f7ff fd41 	bl	80041bc <Lcd_WR_DATA>
 800473a:	2007      	movs	r0, #7
 800473c:	f7ff fd3e 	bl	80041bc <Lcd_WR_DATA>
 8004740:	2011      	movs	r0, #17
 8004742:	f7ff fd3b 	bl	80041bc <Lcd_WR_DATA>
 8004746:	2001      	movs	r0, #1
 8004748:	f7ff fd38 	bl	80041bc <Lcd_WR_DATA>
 800474c:	2009      	movs	r0, #9
 800474e:	f7ff fd35 	bl	80041bc <Lcd_WR_DATA>
 8004752:	2005      	movs	r0, #5
 8004754:	f7ff fd32 	bl	80041bc <Lcd_WR_DATA>
 8004758:	2004      	movs	r0, #4
 800475a:	f7ff fd2f 	bl	80041bc <Lcd_WR_DATA>
 800475e:	20e1      	movs	r0, #225	; 0xe1
 8004760:	f7ff fcfc 	bl	800415c <Lcd_WR_REG>
 8004764:	2000      	movs	r0, #0
 8004766:	f7ff fd29 	bl	80041bc <Lcd_WR_DATA>
 800476a:	2018      	movs	r0, #24
 800476c:	f7ff fd26 	bl	80041bc <Lcd_WR_DATA>
 8004770:	201d      	movs	r0, #29
 8004772:	f7ff fd23 	bl	80041bc <Lcd_WR_DATA>
 8004776:	2002      	movs	r0, #2
 8004778:	f7ff fd20 	bl	80041bc <Lcd_WR_DATA>
 800477c:	200f      	movs	r0, #15
 800477e:	f7ff fd1d 	bl	80041bc <Lcd_WR_DATA>
 8004782:	2004      	movs	r0, #4
 8004784:	f7ff fd1a 	bl	80041bc <Lcd_WR_DATA>
 8004788:	2036      	movs	r0, #54	; 0x36
 800478a:	f7ff fd17 	bl	80041bc <Lcd_WR_DATA>
 800478e:	2013      	movs	r0, #19
 8004790:	f7ff fd14 	bl	80041bc <Lcd_WR_DATA>
 8004794:	204c      	movs	r0, #76	; 0x4c
 8004796:	f7ff fd11 	bl	80041bc <Lcd_WR_DATA>
 800479a:	2007      	movs	r0, #7
 800479c:	f7ff fd0e 	bl	80041bc <Lcd_WR_DATA>
 80047a0:	2013      	movs	r0, #19
 80047a2:	f7ff fd0b 	bl	80041bc <Lcd_WR_DATA>
 80047a6:	200f      	movs	r0, #15
 80047a8:	f7ff fd08 	bl	80041bc <Lcd_WR_DATA>
 80047ac:	202e      	movs	r0, #46	; 0x2e
 80047ae:	f7ff fd05 	bl	80041bc <Lcd_WR_DATA>
 80047b2:	202f      	movs	r0, #47	; 0x2f
 80047b4:	f7ff fd02 	bl	80041bc <Lcd_WR_DATA>
 80047b8:	2005      	movs	r0, #5
 80047ba:	f7ff fcff 	bl	80041bc <Lcd_WR_DATA>
 80047be:	202b      	movs	r0, #43	; 0x2b
 80047c0:	f7ff fccc 	bl	800415c <Lcd_WR_REG>
 80047c4:	2000      	movs	r0, #0
 80047c6:	f7ff fcf9 	bl	80041bc <Lcd_WR_DATA>
 80047ca:	2000      	movs	r0, #0
 80047cc:	f7ff fcf6 	bl	80041bc <Lcd_WR_DATA>
 80047d0:	2001      	movs	r0, #1
 80047d2:	f7ff fcf3 	bl	80041bc <Lcd_WR_DATA>
 80047d6:	203f      	movs	r0, #63	; 0x3f
 80047d8:	f7ff fcf0 	bl	80041bc <Lcd_WR_DATA>
 80047dc:	202a      	movs	r0, #42	; 0x2a
 80047de:	f7ff fcbd 	bl	800415c <Lcd_WR_REG>
 80047e2:	2000      	movs	r0, #0
 80047e4:	f7ff fcea 	bl	80041bc <Lcd_WR_DATA>
 80047e8:	2000      	movs	r0, #0
 80047ea:	f7ff fce7 	bl	80041bc <Lcd_WR_DATA>
 80047ee:	2000      	movs	r0, #0
 80047f0:	f7ff fce4 	bl	80041bc <Lcd_WR_DATA>
 80047f4:	20ef      	movs	r0, #239	; 0xef
 80047f6:	f7ff fce1 	bl	80041bc <Lcd_WR_DATA>
 80047fa:	2011      	movs	r0, #17
 80047fc:	f7ff fcae 	bl	800415c <Lcd_WR_REG>
 8004800:	2078      	movs	r0, #120	; 0x78
 8004802:	f7ff fba5 	bl	8003f50 <_Delay>
 8004806:	2029      	movs	r0, #41	; 0x29
 8004808:	f7ff fca8 	bl	800415c <Lcd_WR_REG>
 800480c:	2003      	movs	r0, #3
 800480e:	f7ff fd05 	bl	800421c <Lcd_Set_Display_Mode>
 8004812:	f7ff fe5d 	bl	80044d0 <Lcd_Clr_Screen>
 8004816:	f44f 7096 	mov.w	r0, #300	; 0x12c
 800481a:	f7ff fb99 	bl	8003f50 <_Delay>
 800481e:	f44f 6300 	mov.w	r3, #2048	; 0x800
 8004822:	f2c4 0301 	movt	r3, #16385	; 0x4001
 8004826:	f44f 6200 	mov.w	r2, #2048	; 0x800
 800482a:	f2c4 0201 	movt	r2, #16385	; 0x4001
 800482e:	68d2      	ldr	r2, [r2, #12]
 8004830:	f442 6200 	orr.w	r2, r2, #2048	; 0x800
 8004834:	60da      	str	r2, [r3, #12]
 8004836:	bd80      	pop	{r7, pc}

08004838 <Lcd_Put_Pixel>:
 8004838:	b580      	push	{r7, lr}
 800483a:	b082      	sub	sp, #8
 800483c:	af00      	add	r7, sp, #0
 800483e:	4613      	mov	r3, r2
 8004840:	4602      	mov	r2, r0
 8004842:	80fa      	strh	r2, [r7, #6]
 8004844:	460a      	mov	r2, r1
 8004846:	80ba      	strh	r2, [r7, #4]
 8004848:	807b      	strh	r3, [r7, #2]
 800484a:	88fa      	ldrh	r2, [r7, #6]
 800484c:	88bb      	ldrh	r3, [r7, #4]
 800484e:	4610      	mov	r0, r2
 8004850:	4619      	mov	r1, r3
 8004852:	f7ff fdc9 	bl	80043e8 <Lcd_Set_Cursor>
 8004856:	887b      	ldrh	r3, [r7, #2]
 8004858:	4618      	mov	r0, r3
 800485a:	f7ff fbdf 	bl	800401c <Lcd_Write_Data_16Bit>
 800485e:	3708      	adds	r7, #8
 8004860:	46bd      	mov	sp, r7
 8004862:	bd80      	pop	{r7, pc}

08004864 <LED_Init>:
 8004864:	b480      	push	{r7}
 8004866:	af00      	add	r7, sp, #0
 8004868:	f44f 5380 	mov.w	r3, #4096	; 0x1000
 800486c:	f2c4 0302 	movt	r3, #16386	; 0x4002
 8004870:	f44f 5280 	mov.w	r2, #4096	; 0x1000
 8004874:	f2c4 0202 	movt	r2, #16386	; 0x4002
 8004878:	6992      	ldr	r2, [r2, #24]
 800487a:	f042 0208 	orr.w	r2, r2, #8
 800487e:	619a      	str	r2, [r3, #24]
 8004880:	f44f 6340 	mov.w	r3, #3072	; 0xc00
 8004884:	f2c4 0301 	movt	r3, #16385	; 0x4001
 8004888:	f44f 6240 	mov.w	r2, #3072	; 0xc00
 800488c:	f2c4 0201 	movt	r2, #16385	; 0x4001
 8004890:	6852      	ldr	r2, [r2, #4]
 8004892:	f022 02ff 	bic.w	r2, r2, #255	; 0xff
 8004896:	f042 0266 	orr.w	r2, r2, #102	; 0x66
 800489a:	605a      	str	r2, [r3, #4]
 800489c:	f44f 6340 	mov.w	r3, #3072	; 0xc00
 80048a0:	f2c4 0301 	movt	r3, #16385	; 0x4001
 80048a4:	f44f 6240 	mov.w	r2, #3072	; 0xc00
 80048a8:	f2c4 0201 	movt	r2, #16385	; 0x4001
 80048ac:	68d2      	ldr	r2, [r2, #12]
 80048ae:	f442 7240 	orr.w	r2, r2, #768	; 0x300
 80048b2:	60da      	str	r2, [r3, #12]
 80048b4:	46bd      	mov	sp, r7
 80048b6:	f85d 7b04 	ldr.w	r7, [sp], #4
 80048ba:	4770      	bx	lr

080048bc <LED_Display>:
 80048bc:	b480      	push	{r7}
 80048be:	b083      	sub	sp, #12
 80048c0:	af00      	add	r7, sp, #0
 80048c2:	6078      	str	r0, [r7, #4]
 80048c4:	f44f 6340 	mov.w	r3, #3072	; 0xc00
 80048c8:	f2c4 0301 	movt	r3, #16385	; 0x4001
 80048cc:	f44f 6240 	mov.w	r2, #3072	; 0xc00
 80048d0:	f2c4 0201 	movt	r2, #16385	; 0x4001
 80048d4:	68d2      	ldr	r2, [r2, #12]
 80048d6:	f422 7140 	bic.w	r1, r2, #768	; 0x300
 80048da:	687a      	ldr	r2, [r7, #4]
 80048dc:	43d2      	mvns	r2, r2
 80048de:	f002 0203 	and.w	r2, r2, #3
 80048e2:	0212      	lsls	r2, r2, #8
 80048e4:	430a      	orrs	r2, r1
 80048e6:	60da      	str	r2, [r3, #12]
 80048e8:	370c      	adds	r7, #12
 80048ea:	46bd      	mov	sp, r7
 80048ec:	f85d 7b04 	ldr.w	r7, [sp], #4
 80048f0:	4770      	bx	lr
 80048f2:	bf00      	nop

080048f4 <LED_All_On>:
 80048f4:	b480      	push	{r7}
 80048f6:	af00      	add	r7, sp, #0
 80048f8:	f44f 6340 	mov.w	r3, #3072	; 0xc00
 80048fc:	f2c4 0301 	movt	r3, #16385	; 0x4001
 8004900:	f44f 6240 	mov.w	r2, #3072	; 0xc00
 8004904:	f2c4 0201 	movt	r2, #16385	; 0x4001
 8004908:	68d2      	ldr	r2, [r2, #12]
 800490a:	f422 7240 	bic.w	r2, r2, #768	; 0x300
 800490e:	60da      	str	r2, [r3, #12]
 8004910:	46bd      	mov	sp, r7
 8004912:	f85d 7b04 	ldr.w	r7, [sp], #4
 8004916:	4770      	bx	lr

08004918 <LED_All_Off>:
 8004918:	b480      	push	{r7}
 800491a:	af00      	add	r7, sp, #0
 800491c:	f44f 6340 	mov.w	r3, #3072	; 0xc00
 8004920:	f2c4 0301 	movt	r3, #16385	; 0x4001
 8004924:	f44f 6240 	mov.w	r2, #3072	; 0xc00
 8004928:	f2c4 0201 	movt	r2, #16385	; 0x4001
 800492c:	68d2      	ldr	r2, [r2, #12]
 800492e:	f442 7240 	orr.w	r2, r2, #768	; 0x300
 8004932:	60da      	str	r2, [r3, #12]
 8004934:	46bd      	mov	sp, r7
 8004936:	f85d 7b04 	ldr.w	r7, [sp], #4
 800493a:	4770      	bx	lr

0800493c <LED_0_Toggle>:
 800493c:	b480      	push	{r7}
 800493e:	af00      	add	r7, sp, #0
 8004940:	f44f 6340 	mov.w	r3, #3072	; 0xc00
 8004944:	f2c4 0301 	movt	r3, #16385	; 0x4001
 8004948:	f44f 6240 	mov.w	r2, #3072	; 0xc00
 800494c:	f2c4 0201 	movt	r2, #16385	; 0x4001
 8004950:	68d2      	ldr	r2, [r2, #12]
 8004952:	f482 7280 	eor.w	r2, r2, #256	; 0x100
 8004956:	60da      	str	r2, [r3, #12]
 8004958:	46bd      	mov	sp, r7
 800495a:	f85d 7b04 	ldr.w	r7, [sp], #4
 800495e:	4770      	bx	lr

08004960 <LED_1_Toggle>:
 8004960:	b480      	push	{r7}
 8004962:	af00      	add	r7, sp, #0
 8004964:	f44f 6340 	mov.w	r3, #3072	; 0xc00
 8004968:	f2c4 0301 	movt	r3, #16385	; 0x4001
 800496c:	f44f 6240 	mov.w	r2, #3072	; 0xc00
 8004970:	f2c4 0201 	movt	r2, #16385	; 0x4001
 8004974:	68d2      	ldr	r2, [r2, #12]
 8004976:	f482 7200 	eor.w	r2, r2, #512	; 0x200
 800497a:	60da      	str	r2, [r3, #12]
 800497c:	46bd      	mov	sp, r7
 800497e:	f85d 7b04 	ldr.w	r7, [sp], #4
 8004982:	4770      	bx	lr

08004984 <Task1>:
 8004984:	b580      	push	{r7, lr}
 8004986:	b084      	sub	sp, #16
 8004988:	af00      	add	r7, sp, #0
 800498a:	6078      	str	r0, [r7, #4]
 800498c:	f7ff ffd6 	bl	800493c <LED_0_Toggle>
 8004990:	2300      	movs	r3, #0
 8004992:	60fb      	str	r3, [r7, #12]
 8004994:	e002      	b.n	800499c <Task1+0x18>
 8004996:	68fb      	ldr	r3, [r7, #12]
 8004998:	3301      	adds	r3, #1
 800499a:	60fb      	str	r3, [r7, #12]
 800499c:	68fb      	ldr	r3, [r7, #12]
 800499e:	f5b3 2fa0 	cmp.w	r3, #327680	; 0x50000
 80049a2:	dbf8      	blt.n	8004996 <Task1+0x12>
 80049a4:	e7f2      	b.n	800498c <Task1+0x8>
 80049a6:	bf00      	nop

080049a8 <Task2>:
 80049a8:	b580      	push	{r7, lr}
 80049aa:	b084      	sub	sp, #16
 80049ac:	af00      	add	r7, sp, #0
 80049ae:	6078      	str	r0, [r7, #4]
 80049b0:	f7ff ffd6 	bl	8004960 <LED_1_Toggle>
 80049b4:	2300      	movs	r3, #0
 80049b6:	60fb      	str	r3, [r7, #12]
 80049b8:	e002      	b.n	80049c0 <Task2+0x18>
 80049ba:	68fb      	ldr	r3, [r7, #12]
 80049bc:	3301      	adds	r3, #1
 80049be:	60fb      	str	r3, [r7, #12]
 80049c0:	68fb      	ldr	r3, [r7, #12]
 80049c2:	f5b3 1f80 	cmp.w	r3, #1048576	; 0x100000
 80049c6:	dbf8      	blt.n	80049ba <Task2+0x12>
 80049c8:	e7f2      	b.n	80049b0 <Task2+0x8>
 80049ca:	bf00      	nop

080049cc <Task3>:
 80049cc:	b480      	push	{r7}
 80049ce:	b085      	sub	sp, #20
 80049d0:	af00      	add	r7, sp, #0
 80049d2:	6078      	str	r0, [r7, #4]
 80049d4:	2300      	movs	r3, #0
 80049d6:	60fb      	str	r3, [r7, #12]
 80049d8:	2300      	movs	r3, #0
 80049da:	60bb      	str	r3, [r7, #8]
 80049dc:	e002      	b.n	80049e4 <Task3+0x18>
 80049de:	68bb      	ldr	r3, [r7, #8]
 80049e0:	3301      	adds	r3, #1
 80049e2:	60bb      	str	r3, [r7, #8]
 80049e4:	68bb      	ldr	r3, [r7, #8]
 80049e6:	f5b3 1f80 	cmp.w	r3, #1048576	; 0x100000
 80049ea:	dbf8      	blt.n	80049de <Task3+0x12>
 80049ec:	e7f4      	b.n	80049d8 <Task3+0xc>
 80049ee:	bf00      	nop

080049f0 <TaskDummy>:
 80049f0:	b480      	push	{r7}
 80049f2:	b085      	sub	sp, #20
 80049f4:	af00      	add	r7, sp, #0
 80049f6:	6078      	str	r0, [r7, #4]
 80049f8:	2300      	movs	r3, #0
 80049fa:	60fb      	str	r3, [r7, #12]
 80049fc:	e002      	b.n	8004a04 <TaskDummy+0x14>
 80049fe:	68fb      	ldr	r3, [r7, #12]
 8004a00:	3301      	adds	r3, #1
 8004a02:	60fb      	str	r3, [r7, #12]
 8004a04:	68fb      	ldr	r3, [r7, #12]
 8004a06:	f5b3 1f80 	cmp.w	r3, #1048576	; 0x100000
 8004a0a:	dbf8      	blt.n	80049fe <TaskDummy+0xe>
 8004a0c:	e7f4      	b.n	80049f8 <TaskDummy+0x8>
 8004a0e:	bf00      	nop

08004a10 <Main>:
 8004a10:	b580      	push	{r7, lr}
 8004a12:	b082      	sub	sp, #8
 8004a14:	af00      	add	r7, sp, #0
 8004a16:	f64b 6010 	movw	r0, #48656	; 0xbe10
 8004a1a:	f6c0 0000 	movt	r0, #2048	; 0x800
 8004a1e:	f001 f869 	bl	8005af4 <Uart1_Printf>
 8004a22:	f7fe fbb9 	bl	8003198 <OS_Init>
 8004a26:	f644 1085 	movw	r0, #18821	; 0x4985
 8004a2a:	f6c0 0000 	movt	r0, #2048	; 0x800
 8004a2e:	2100      	movs	r1, #0
 8004a30:	2205      	movs	r2, #5
 8004a32:	2380      	movs	r3, #128	; 0x80
 8004a34:	f7fe fc46 	bl	80032c4 <OS_Create_Task_Simple>
 8004a38:	f644 10a9 	movw	r0, #18857	; 0x49a9
 8004a3c:	f6c0 0000 	movt	r0, #2048	; 0x800
 8004a40:	2100      	movs	r1, #0
 8004a42:	2205      	movs	r2, #5
 8004a44:	2380      	movs	r3, #128	; 0x80
 8004a46:	f7fe fc3d 	bl	80032c4 <OS_Create_Task_Simple>
 8004a4a:	f644 10cd 	movw	r0, #18893	; 0x49cd
 8004a4e:	f6c0 0000 	movt	r0, #2048	; 0x800
 8004a52:	2100      	movs	r1, #0
 8004a54:	2205      	movs	r2, #5
 8004a56:	f44f 7380 	mov.w	r3, #256	; 0x100
 8004a5a:	f7fe fc33 	bl	80032c4 <OS_Create_Task_Simple>
 8004a5e:	2304      	movs	r3, #4
 8004a60:	607b      	str	r3, [r7, #4]
 8004a62:	e013      	b.n	8004a8c <Main+0x7c>
 8004a64:	687a      	ldr	r2, [r7, #4]
 8004a66:	17d3      	asrs	r3, r2, #31
 8004a68:	0fdb      	lsrs	r3, r3, #31
 8004a6a:	441a      	add	r2, r3
 8004a6c:	f002 0201 	and.w	r2, r2, #1
 8004a70:	1ad3      	subs	r3, r2, r3
 8004a72:	3305      	adds	r3, #5
 8004a74:	f644 10f1 	movw	r0, #18929	; 0x49f1
 8004a78:	f6c0 0000 	movt	r0, #2048	; 0x800
 8004a7c:	2100      	movs	r1, #0
 8004a7e:	461a      	mov	r2, r3
 8004a80:	2380      	movs	r3, #128	; 0x80
 8004a82:	f7fe fc1f 	bl	80032c4 <OS_Create_Task_Simple>
 8004a86:	687b      	ldr	r3, [r7, #4]
 8004a88:	3301      	adds	r3, #1
 8004a8a:	607b      	str	r3, [r7, #4]
 8004a8c:	687b      	ldr	r3, [r7, #4]
 8004a8e:	2b3c      	cmp	r3, #60	; 0x3c
 8004a90:	dde8      	ble.n	8004a64 <Main+0x54>
 8004a92:	2001      	movs	r0, #1
 8004a94:	f000 fdb8 	bl	8005608 <SysTick_OS_Tick>
 8004a98:	f7fe fca0 	bl	80033dc <OS_Scheduler_Start>
 8004a9c:	e7fe      	b.n	8004a9c <Main+0x8c>
 8004a9e:	bf00      	nop

08004aa0 <pq_init>:
 8004aa0:	b480      	push	{r7}
 8004aa2:	b083      	sub	sp, #12
 8004aa4:	af00      	add	r7, sp, #0
 8004aa6:	6078      	str	r0, [r7, #4]
 8004aa8:	687b      	ldr	r3, [r7, #4]
 8004aaa:	2200      	movs	r2, #0
 8004aac:	f8c3 2104 	str.w	r2, [r3, #260]	; 0x104
 8004ab0:	370c      	adds	r7, #12
 8004ab2:	46bd      	mov	sp, r7
 8004ab4:	f85d 7b04 	ldr.w	r7, [sp], #4
 8004ab8:	4770      	bx	lr
 8004aba:	bf00      	nop

08004abc <pq_compare_delay>:
 8004abc:	b480      	push	{r7}
 8004abe:	b083      	sub	sp, #12
 8004ac0:	af00      	add	r7, sp, #0
 8004ac2:	6078      	str	r0, [r7, #4]
 8004ac4:	6039      	str	r1, [r7, #0]
 8004ac6:	687b      	ldr	r3, [r7, #4]
 8004ac8:	68db      	ldr	r3, [r3, #12]
 8004aca:	2b01      	cmp	r3, #1
 8004acc:	d106      	bne.n	8004adc <pq_compare_delay+0x20>
 8004ace:	683b      	ldr	r3, [r7, #0]
 8004ad0:	68db      	ldr	r3, [r3, #12]
 8004ad2:	2b01      	cmp	r3, #1
 8004ad4:	d002      	beq.n	8004adc <pq_compare_delay+0x20>
 8004ad6:	f04f 33ff 	mov.w	r3, #4294967295
 8004ada:	e00e      	b.n	8004afa <pq_compare_delay+0x3e>
 8004adc:	687b      	ldr	r3, [r7, #4]
 8004ade:	68db      	ldr	r3, [r3, #12]
 8004ae0:	2b01      	cmp	r3, #1
 8004ae2:	d005      	beq.n	8004af0 <pq_compare_delay+0x34>
 8004ae4:	683b      	ldr	r3, [r7, #0]
 8004ae6:	68db      	ldr	r3, [r3, #12]
 8004ae8:	2b01      	cmp	r3, #1
 8004aea:	d101      	bne.n	8004af0 <pq_compare_delay+0x34>
 8004aec:	2301      	movs	r3, #1
 8004aee:	e004      	b.n	8004afa <pq_compare_delay+0x3e>
 8004af0:	687b      	ldr	r3, [r7, #4]
 8004af2:	695a      	ldr	r2, [r3, #20]
 8004af4:	683b      	ldr	r3, [r7, #0]
 8004af6:	695b      	ldr	r3, [r3, #20]
 8004af8:	1ad3      	subs	r3, r2, r3
 8004afa:	4618      	mov	r0, r3
 8004afc:	370c      	adds	r7, #12
 8004afe:	46bd      	mov	sp, r7
 8004b00:	f85d 7b04 	ldr.w	r7, [sp], #4
 8004b04:	4770      	bx	lr
 8004b06:	bf00      	nop

08004b08 <pq_compare_ready>:
 8004b08:	b480      	push	{r7}
 8004b0a:	b083      	sub	sp, #12
 8004b0c:	af00      	add	r7, sp, #0
 8004b0e:	6078      	str	r0, [r7, #4]
 8004b10:	6039      	str	r1, [r7, #0]
 8004b12:	687b      	ldr	r3, [r7, #4]
 8004b14:	68db      	ldr	r3, [r3, #12]
 8004b16:	2b00      	cmp	r3, #0
 8004b18:	d106      	bne.n	8004b28 <pq_compare_ready+0x20>
 8004b1a:	683b      	ldr	r3, [r7, #0]
 8004b1c:	68db      	ldr	r3, [r3, #12]
 8004b1e:	2b00      	cmp	r3, #0
 8004b20:	d002      	beq.n	8004b28 <pq_compare_ready+0x20>
 8004b22:	f04f 33ff 	mov.w	r3, #4294967295
 8004b26:	e01a      	b.n	8004b5e <pq_compare_ready+0x56>
 8004b28:	687b      	ldr	r3, [r7, #4]
 8004b2a:	68db      	ldr	r3, [r3, #12]
 8004b2c:	2b00      	cmp	r3, #0
 8004b2e:	d005      	beq.n	8004b3c <pq_compare_ready+0x34>
 8004b30:	683b      	ldr	r3, [r7, #0]
 8004b32:	68db      	ldr	r3, [r3, #12]
 8004b34:	2b00      	cmp	r3, #0
 8004b36:	d101      	bne.n	8004b3c <pq_compare_ready+0x34>
 8004b38:	2301      	movs	r3, #1
 8004b3a:	e010      	b.n	8004b5e <pq_compare_ready+0x56>
 8004b3c:	687b      	ldr	r3, [r7, #4]
 8004b3e:	689a      	ldr	r2, [r3, #8]
 8004b40:	683b      	ldr	r3, [r7, #0]
 8004b42:	689b      	ldr	r3, [r3, #8]
 8004b44:	429a      	cmp	r2, r3
 8004b46:	d005      	beq.n	8004b54 <pq_compare_ready+0x4c>
 8004b48:	687b      	ldr	r3, [r7, #4]
 8004b4a:	689a      	ldr	r2, [r3, #8]
 8004b4c:	683b      	ldr	r3, [r7, #0]
 8004b4e:	689b      	ldr	r3, [r3, #8]
 8004b50:	1ad3      	subs	r3, r2, r3
 8004b52:	e004      	b.n	8004b5e <pq_compare_ready+0x56>
 8004b54:	687b      	ldr	r3, [r7, #4]
 8004b56:	691a      	ldr	r2, [r3, #16]
 8004b58:	683b      	ldr	r3, [r7, #0]
 8004b5a:	691b      	ldr	r3, [r3, #16]
 8004b5c:	1ad3      	subs	r3, r2, r3
 8004b5e:	4618      	mov	r0, r3
 8004b60:	370c      	adds	r7, #12
 8004b62:	46bd      	mov	sp, r7
 8004b64:	f85d 7b04 	ldr.w	r7, [sp], #4
 8004b68:	4770      	bx	lr
 8004b6a:	bf00      	nop

08004b6c <pq_swap>:
 8004b6c:	b480      	push	{r7}
 8004b6e:	b085      	sub	sp, #20
 8004b70:	af00      	add	r7, sp, #0
 8004b72:	6078      	str	r0, [r7, #4]
 8004b74:	6039      	str	r1, [r7, #0]
 8004b76:	687b      	ldr	r3, [r7, #4]
 8004b78:	681b      	ldr	r3, [r3, #0]
 8004b7a:	60fb      	str	r3, [r7, #12]
 8004b7c:	683b      	ldr	r3, [r7, #0]
 8004b7e:	681a      	ldr	r2, [r3, #0]
 8004b80:	687b      	ldr	r3, [r7, #4]
 8004b82:	601a      	str	r2, [r3, #0]
 8004b84:	683b      	ldr	r3, [r7, #0]
 8004b86:	68fa      	ldr	r2, [r7, #12]
 8004b88:	601a      	str	r2, [r3, #0]
 8004b8a:	687b      	ldr	r3, [r7, #4]
 8004b8c:	681b      	ldr	r3, [r3, #0]
 8004b8e:	699b      	ldr	r3, [r3, #24]
 8004b90:	60bb      	str	r3, [r7, #8]
 8004b92:	687b      	ldr	r3, [r7, #4]
 8004b94:	681b      	ldr	r3, [r3, #0]
 8004b96:	683a      	ldr	r2, [r7, #0]
 8004b98:	6812      	ldr	r2, [r2, #0]
 8004b9a:	6992      	ldr	r2, [r2, #24]
 8004b9c:	619a      	str	r2, [r3, #24]
 8004b9e:	683b      	ldr	r3, [r7, #0]
 8004ba0:	681b      	ldr	r3, [r3, #0]
 8004ba2:	68ba      	ldr	r2, [r7, #8]
 8004ba4:	619a      	str	r2, [r3, #24]
 8004ba6:	3714      	adds	r7, #20
 8004ba8:	46bd      	mov	sp, r7
 8004baa:	f85d 7b04 	ldr.w	r7, [sp], #4
 8004bae:	4770      	bx	lr

08004bb0 <pq_heapify_up>:
 8004bb0:	b580      	push	{r7, lr}
 8004bb2:	b084      	sub	sp, #16
 8004bb4:	af00      	add	r7, sp, #0
 8004bb6:	60f8      	str	r0, [r7, #12]
 8004bb8:	60b9      	str	r1, [r7, #8]
 8004bba:	607a      	str	r2, [r7, #4]
 8004bbc:	e015      	b.n	8004bea <pq_heapify_up+0x3a>
 8004bbe:	68bb      	ldr	r3, [r7, #8]
 8004bc0:	009b      	lsls	r3, r3, #2
 8004bc2:	68fa      	ldr	r2, [r7, #12]
 8004bc4:	441a      	add	r2, r3
 8004bc6:	68bb      	ldr	r3, [r7, #8]
 8004bc8:	3b01      	subs	r3, #1
 8004bca:	0fd9      	lsrs	r1, r3, #31
 8004bcc:	440b      	add	r3, r1
 8004bce:	105b      	asrs	r3, r3, #1
 8004bd0:	009b      	lsls	r3, r3, #2
 8004bd2:	68f9      	ldr	r1, [r7, #12]
 8004bd4:	440b      	add	r3, r1
 8004bd6:	4610      	mov	r0, r2
 8004bd8:	4619      	mov	r1, r3
 8004bda:	f7ff ffc7 	bl	8004b6c <pq_swap>
 8004bde:	68bb      	ldr	r3, [r7, #8]
 8004be0:	3b01      	subs	r3, #1
 8004be2:	0fda      	lsrs	r2, r3, #31
 8004be4:	4413      	add	r3, r2
 8004be6:	105b      	asrs	r3, r3, #1
 8004be8:	60bb      	str	r3, [r7, #8]
 8004bea:	68bb      	ldr	r3, [r7, #8]
 8004bec:	2b00      	cmp	r3, #0
 8004bee:	dd13      	ble.n	8004c18 <pq_heapify_up+0x68>
 8004bf0:	68fb      	ldr	r3, [r7, #12]
 8004bf2:	68ba      	ldr	r2, [r7, #8]
 8004bf4:	f853 1022 	ldr.w	r1, [r3, r2, lsl #2]
 8004bf8:	68bb      	ldr	r3, [r7, #8]
 8004bfa:	3b01      	subs	r3, #1
 8004bfc:	0fda      	lsrs	r2, r3, #31
 8004bfe:	4413      	add	r3, r2
 8004c00:	105b      	asrs	r3, r3, #1
 8004c02:	461a      	mov	r2, r3
 8004c04:	68fb      	ldr	r3, [r7, #12]
 8004c06:	f853 2022 	ldr.w	r2, [r3, r2, lsl #2]
 8004c0a:	687b      	ldr	r3, [r7, #4]
 8004c0c:	4608      	mov	r0, r1
 8004c0e:	4611      	mov	r1, r2
 8004c10:	4798      	blx	r3
 8004c12:	4603      	mov	r3, r0
 8004c14:	2b00      	cmp	r3, #0
 8004c16:	dbd2      	blt.n	8004bbe <pq_heapify_up+0xe>
 8004c18:	3710      	adds	r7, #16
 8004c1a:	46bd      	mov	sp, r7
 8004c1c:	bd80      	pop	{r7, pc}
 8004c1e:	bf00      	nop

08004c20 <pq_heapify_down>:
 8004c20:	b580      	push	{r7, lr}
 8004c22:	b088      	sub	sp, #32
 8004c24:	af00      	add	r7, sp, #0
 8004c26:	60f8      	str	r0, [r7, #12]
 8004c28:	60b9      	str	r1, [r7, #8]
 8004c2a:	607a      	str	r2, [r7, #4]
 8004c2c:	68fb      	ldr	r3, [r7, #12]
 8004c2e:	f8d3 3104 	ldr.w	r3, [r3, #260]	; 0x104
 8004c32:	61bb      	str	r3, [r7, #24]
 8004c34:	e046      	b.n	8004cc4 <pq_heapify_down+0xa4>
 8004c36:	68bb      	ldr	r3, [r7, #8]
 8004c38:	61fb      	str	r3, [r7, #28]
 8004c3a:	68bb      	ldr	r3, [r7, #8]
 8004c3c:	005b      	lsls	r3, r3, #1
 8004c3e:	3301      	adds	r3, #1
 8004c40:	617b      	str	r3, [r7, #20]
 8004c42:	68bb      	ldr	r3, [r7, #8]
 8004c44:	3301      	adds	r3, #1
 8004c46:	005b      	lsls	r3, r3, #1
 8004c48:	613b      	str	r3, [r7, #16]
 8004c4a:	697a      	ldr	r2, [r7, #20]
 8004c4c:	69bb      	ldr	r3, [r7, #24]
 8004c4e:	429a      	cmp	r2, r3
 8004c50:	da10      	bge.n	8004c74 <pq_heapify_down+0x54>
 8004c52:	68fb      	ldr	r3, [r7, #12]
 8004c54:	697a      	ldr	r2, [r7, #20]
 8004c56:	f853 1022 	ldr.w	r1, [r3, r2, lsl #2]
 8004c5a:	68fb      	ldr	r3, [r7, #12]
 8004c5c:	69fa      	ldr	r2, [r7, #28]
 8004c5e:	f853 2022 	ldr.w	r2, [r3, r2, lsl #2]
 8004c62:	687b      	ldr	r3, [r7, #4]
 8004c64:	4608      	mov	r0, r1
 8004c66:	4611      	mov	r1, r2
 8004c68:	4798      	blx	r3
 8004c6a:	4603      	mov	r3, r0
 8004c6c:	2b00      	cmp	r3, #0
 8004c6e:	da01      	bge.n	8004c74 <pq_heapify_down+0x54>
 8004c70:	697b      	ldr	r3, [r7, #20]
 8004c72:	61fb      	str	r3, [r7, #28]
 8004c74:	693a      	ldr	r2, [r7, #16]
 8004c76:	69bb      	ldr	r3, [r7, #24]
 8004c78:	429a      	cmp	r2, r3
 8004c7a:	da10      	bge.n	8004c9e <pq_heapify_down+0x7e>
 8004c7c:	68fb      	ldr	r3, [r7, #12]
 8004c7e:	693a      	ldr	r2, [r7, #16]
 8004c80:	f853 1022 	ldr.w	r1, [r3, r2, lsl #2]
 8004c84:	68fb      	ldr	r3, [r7, #12]
 8004c86:	69fa      	ldr	r2, [r7, #28]
 8004c88:	f853 2022 	ldr.w	r2, [r3, r2, lsl #2]
 8004c8c:	687b      	ldr	r3, [r7, #4]
 8004c8e:	4608      	mov	r0, r1
 8004c90:	4611      	mov	r1, r2
 8004c92:	4798      	blx	r3
 8004c94:	4603      	mov	r3, r0
 8004c96:	2b00      	cmp	r3, #0
 8004c98:	da01      	bge.n	8004c9e <pq_heapify_down+0x7e>
 8004c9a:	693b      	ldr	r3, [r7, #16]
 8004c9c:	61fb      	str	r3, [r7, #28]
 8004c9e:	69fa      	ldr	r2, [r7, #28]
 8004ca0:	68bb      	ldr	r3, [r7, #8]
 8004ca2:	429a      	cmp	r2, r3
 8004ca4:	d100      	bne.n	8004ca8 <pq_heapify_down+0x88>
 8004ca6:	e013      	b.n	8004cd0 <pq_heapify_down+0xb0>
 8004ca8:	68bb      	ldr	r3, [r7, #8]
 8004caa:	009b      	lsls	r3, r3, #2
 8004cac:	68fa      	ldr	r2, [r7, #12]
 8004cae:	441a      	add	r2, r3
 8004cb0:	69fb      	ldr	r3, [r7, #28]
 8004cb2:	009b      	lsls	r3, r3, #2
 8004cb4:	68f9      	ldr	r1, [r7, #12]
 8004cb6:	440b      	add	r3, r1
 8004cb8:	4610      	mov	r0, r2
 8004cba:	4619      	mov	r1, r3
 8004cbc:	f7ff ff56 	bl	8004b6c <pq_swap>
 8004cc0:	69fb      	ldr	r3, [r7, #28]
 8004cc2:	60bb      	str	r3, [r7, #8]
 8004cc4:	68bb      	ldr	r3, [r7, #8]
 8004cc6:	005b      	lsls	r3, r3, #1
 8004cc8:	1c5a      	adds	r2, r3, #1
 8004cca:	69bb      	ldr	r3, [r7, #24]
 8004ccc:	429a      	cmp	r2, r3
 8004cce:	dbb2      	blt.n	8004c36 <pq_heapify_down+0x16>
 8004cd0:	3720      	adds	r7, #32
 8004cd2:	46bd      	mov	sp, r7
 8004cd4:	bd80      	pop	{r7, pc}
 8004cd6:	bf00      	nop

08004cd8 <pq_push>:
 8004cd8:	b580      	push	{r7, lr}
 8004cda:	b084      	sub	sp, #16
 8004cdc:	af00      	add	r7, sp, #0
 8004cde:	60f8      	str	r0, [r7, #12]
 8004ce0:	60b9      	str	r1, [r7, #8]
 8004ce2:	607a      	str	r2, [r7, #4]
 8004ce4:	68fb      	ldr	r3, [r7, #12]
 8004ce6:	f8d3 3104 	ldr.w	r3, [r3, #260]	; 0x104
 8004cea:	2b40      	cmp	r3, #64	; 0x40
 8004cec:	dd00      	ble.n	8004cf0 <pq_push+0x18>
 8004cee:	e019      	b.n	8004d24 <pq_push+0x4c>
 8004cf0:	68fb      	ldr	r3, [r7, #12]
 8004cf2:	f8d3 2104 	ldr.w	r2, [r3, #260]	; 0x104
 8004cf6:	68fb      	ldr	r3, [r7, #12]
 8004cf8:	68b9      	ldr	r1, [r7, #8]
 8004cfa:	f843 1022 	str.w	r1, [r3, r2, lsl #2]
 8004cfe:	68fb      	ldr	r3, [r7, #12]
 8004d00:	f8d3 2104 	ldr.w	r2, [r3, #260]	; 0x104
 8004d04:	68bb      	ldr	r3, [r7, #8]
 8004d06:	619a      	str	r2, [r3, #24]
 8004d08:	68fb      	ldr	r3, [r7, #12]
 8004d0a:	f8d3 3104 	ldr.w	r3, [r3, #260]	; 0x104
 8004d0e:	1c5a      	adds	r2, r3, #1
 8004d10:	68fb      	ldr	r3, [r7, #12]
 8004d12:	f8c3 2104 	str.w	r2, [r3, #260]	; 0x104
 8004d16:	68bb      	ldr	r3, [r7, #8]
 8004d18:	699b      	ldr	r3, [r3, #24]
 8004d1a:	68f8      	ldr	r0, [r7, #12]
 8004d1c:	4619      	mov	r1, r3
 8004d1e:	687a      	ldr	r2, [r7, #4]
 8004d20:	f7ff ff46 	bl	8004bb0 <pq_heapify_up>
 8004d24:	3710      	adds	r7, #16
 8004d26:	46bd      	mov	sp, r7
 8004d28:	bd80      	pop	{r7, pc}
 8004d2a:	bf00      	nop

08004d2c <pq_pop>:
 8004d2c:	b580      	push	{r7, lr}
 8004d2e:	b084      	sub	sp, #16
 8004d30:	af00      	add	r7, sp, #0
 8004d32:	6078      	str	r0, [r7, #4]
 8004d34:	6039      	str	r1, [r7, #0]
 8004d36:	687b      	ldr	r3, [r7, #4]
 8004d38:	f8d3 3104 	ldr.w	r3, [r3, #260]	; 0x104
 8004d3c:	2b00      	cmp	r3, #0
 8004d3e:	d101      	bne.n	8004d44 <pq_pop+0x18>
 8004d40:	2300      	movs	r3, #0
 8004d42:	e020      	b.n	8004d86 <pq_pop+0x5a>
 8004d44:	687b      	ldr	r3, [r7, #4]
 8004d46:	681b      	ldr	r3, [r3, #0]
 8004d48:	60fb      	str	r3, [r7, #12]
 8004d4a:	687b      	ldr	r3, [r7, #4]
 8004d4c:	f8d3 3104 	ldr.w	r3, [r3, #260]	; 0x104
 8004d50:	1e5a      	subs	r2, r3, #1
 8004d52:	687b      	ldr	r3, [r7, #4]
 8004d54:	f853 2022 	ldr.w	r2, [r3, r2, lsl #2]
 8004d58:	687b      	ldr	r3, [r7, #4]
 8004d5a:	601a      	str	r2, [r3, #0]
 8004d5c:	687b      	ldr	r3, [r7, #4]
 8004d5e:	681b      	ldr	r3, [r3, #0]
 8004d60:	2200      	movs	r2, #0
 8004d62:	619a      	str	r2, [r3, #24]
 8004d64:	687b      	ldr	r3, [r7, #4]
 8004d66:	f8d3 3104 	ldr.w	r3, [r3, #260]	; 0x104
 8004d6a:	1e5a      	subs	r2, r3, #1
 8004d6c:	687b      	ldr	r3, [r7, #4]
 8004d6e:	f8c3 2104 	str.w	r2, [r3, #260]	; 0x104
 8004d72:	6878      	ldr	r0, [r7, #4]
 8004d74:	2100      	movs	r1, #0
 8004d76:	683a      	ldr	r2, [r7, #0]
 8004d78:	f7ff ff52 	bl	8004c20 <pq_heapify_down>
 8004d7c:	68fb      	ldr	r3, [r7, #12]
 8004d7e:	f04f 32ff 	mov.w	r2, #4294967295
 8004d82:	619a      	str	r2, [r3, #24]
 8004d84:	68fb      	ldr	r3, [r7, #12]
 8004d86:	4618      	mov	r0, r3
 8004d88:	3710      	adds	r7, #16
 8004d8a:	46bd      	mov	sp, r7
 8004d8c:	bd80      	pop	{r7, pc}
 8004d8e:	bf00      	nop

08004d90 <pq_top>:
 8004d90:	b480      	push	{r7}
 8004d92:	b083      	sub	sp, #12
 8004d94:	af00      	add	r7, sp, #0
 8004d96:	6078      	str	r0, [r7, #4]
 8004d98:	687b      	ldr	r3, [r7, #4]
 8004d9a:	f8d3 3104 	ldr.w	r3, [r3, #260]	; 0x104
 8004d9e:	2b00      	cmp	r3, #0
 8004da0:	d101      	bne.n	8004da6 <pq_top+0x16>
 8004da2:	2300      	movs	r3, #0
 8004da4:	e001      	b.n	8004daa <pq_top+0x1a>
 8004da6:	687b      	ldr	r3, [r7, #4]
 8004da8:	681b      	ldr	r3, [r3, #0]
 8004daa:	4618      	mov	r0, r3
 8004dac:	370c      	adds	r7, #12
 8004dae:	46bd      	mov	sp, r7
 8004db0:	f85d 7b04 	ldr.w	r7, [sp], #4
 8004db4:	4770      	bx	lr
 8004db6:	bf00      	nop

08004db8 <pq_remove>:
 8004db8:	b580      	push	{r7, lr}
 8004dba:	b086      	sub	sp, #24
 8004dbc:	af00      	add	r7, sp, #0
 8004dbe:	60f8      	str	r0, [r7, #12]
 8004dc0:	60b9      	str	r1, [r7, #8]
 8004dc2:	607a      	str	r2, [r7, #4]
 8004dc4:	68bb      	ldr	r3, [r7, #8]
 8004dc6:	699b      	ldr	r3, [r3, #24]
 8004dc8:	2b00      	cmp	r3, #0
 8004dca:	db06      	blt.n	8004dda <pq_remove+0x22>
 8004dcc:	68bb      	ldr	r3, [r7, #8]
 8004dce:	699a      	ldr	r2, [r3, #24]
 8004dd0:	68fb      	ldr	r3, [r7, #12]
 8004dd2:	f8d3 3104 	ldr.w	r3, [r3, #260]	; 0x104
 8004dd6:	429a      	cmp	r2, r3
 8004dd8:	db00      	blt.n	8004ddc <pq_remove+0x24>
 8004dda:	e028      	b.n	8004e2e <pq_remove+0x76>
 8004ddc:	68bb      	ldr	r3, [r7, #8]
 8004dde:	699b      	ldr	r3, [r3, #24]
 8004de0:	617b      	str	r3, [r7, #20]
 8004de2:	68fb      	ldr	r3, [r7, #12]
 8004de4:	f8d3 3104 	ldr.w	r3, [r3, #260]	; 0x104
 8004de8:	1e5a      	subs	r2, r3, #1
 8004dea:	68fb      	ldr	r3, [r7, #12]
 8004dec:	f853 1022 	ldr.w	r1, [r3, r2, lsl #2]
 8004df0:	68fb      	ldr	r3, [r7, #12]
 8004df2:	697a      	ldr	r2, [r7, #20]
 8004df4:	f843 1022 	str.w	r1, [r3, r2, lsl #2]
 8004df8:	68fb      	ldr	r3, [r7, #12]
 8004dfa:	697a      	ldr	r2, [r7, #20]
 8004dfc:	f853 3022 	ldr.w	r3, [r3, r2, lsl #2]
 8004e00:	697a      	ldr	r2, [r7, #20]
 8004e02:	619a      	str	r2, [r3, #24]
 8004e04:	68fb      	ldr	r3, [r7, #12]
 8004e06:	f8d3 3104 	ldr.w	r3, [r3, #260]	; 0x104
 8004e0a:	1e5a      	subs	r2, r3, #1
 8004e0c:	68fb      	ldr	r3, [r7, #12]
 8004e0e:	f8c3 2104 	str.w	r2, [r3, #260]	; 0x104
 8004e12:	68f8      	ldr	r0, [r7, #12]
 8004e14:	6979      	ldr	r1, [r7, #20]
 8004e16:	687a      	ldr	r2, [r7, #4]
 8004e18:	f7ff feca 	bl	8004bb0 <pq_heapify_up>
 8004e1c:	68f8      	ldr	r0, [r7, #12]
 8004e1e:	6979      	ldr	r1, [r7, #20]
 8004e20:	687a      	ldr	r2, [r7, #4]
 8004e22:	f7ff fefd 	bl	8004c20 <pq_heapify_down>
 8004e26:	68bb      	ldr	r3, [r7, #8]
 8004e28:	f04f 32ff 	mov.w	r2, #4294967295
 8004e2c:	619a      	str	r2, [r3, #24]
 8004e2e:	3718      	adds	r7, #24
 8004e30:	46bd      	mov	sp, r7
 8004e32:	bd80      	pop	{r7, pc}

08004e34 <pq_update>:
 8004e34:	b580      	push	{r7, lr}
 8004e36:	b084      	sub	sp, #16
 8004e38:	af00      	add	r7, sp, #0
 8004e3a:	60f8      	str	r0, [r7, #12]
 8004e3c:	60b9      	str	r1, [r7, #8]
 8004e3e:	607a      	str	r2, [r7, #4]
 8004e40:	68bb      	ldr	r3, [r7, #8]
 8004e42:	699b      	ldr	r3, [r3, #24]
 8004e44:	2b00      	cmp	r3, #0
 8004e46:	db06      	blt.n	8004e56 <pq_update+0x22>
 8004e48:	68bb      	ldr	r3, [r7, #8]
 8004e4a:	699a      	ldr	r2, [r3, #24]
 8004e4c:	68fb      	ldr	r3, [r7, #12]
 8004e4e:	f8d3 3104 	ldr.w	r3, [r3, #260]	; 0x104
 8004e52:	429a      	cmp	r2, r3
 8004e54:	db00      	blt.n	8004e58 <pq_update+0x24>
 8004e56:	e00d      	b.n	8004e74 <pq_update+0x40>
 8004e58:	68bb      	ldr	r3, [r7, #8]
 8004e5a:	699b      	ldr	r3, [r3, #24]
 8004e5c:	68f8      	ldr	r0, [r7, #12]
 8004e5e:	4619      	mov	r1, r3
 8004e60:	687a      	ldr	r2, [r7, #4]
 8004e62:	f7ff fea5 	bl	8004bb0 <pq_heapify_up>
 8004e66:	68bb      	ldr	r3, [r7, #8]
 8004e68:	699b      	ldr	r3, [r3, #24]
 8004e6a:	68f8      	ldr	r0, [r7, #12]
 8004e6c:	4619      	mov	r1, r3
 8004e6e:	687a      	ldr	r2, [r7, #4]
 8004e70:	f7ff fed6 	bl	8004c20 <pq_heapify_down>
 8004e74:	3710      	adds	r7, #16
 8004e76:	46bd      	mov	sp, r7
 8004e78:	bd80      	pop	{r7, pc}
 8004e7a:	bf00      	nop

08004e7c <_sbrk>:
 8004e7c:	b480      	push	{r7}
 8004e7e:	b085      	sub	sp, #20
 8004e80:	af00      	add	r7, sp, #0
 8004e82:	6078      	str	r0, [r7, #4]
 8004e84:	f642 7338 	movw	r3, #12088	; 0x2f38
 8004e88:	f2c2 0300 	movt	r3, #8192	; 0x2000
 8004e8c:	681b      	ldr	r3, [r3, #0]
 8004e8e:	2b00      	cmp	r3, #0
 8004e90:	d10c      	bne.n	8004eac <_sbrk+0x30>
 8004e92:	f642 7390 	movw	r3, #12176	; 0x2f90
 8004e96:	f2c2 0300 	movt	r3, #8192	; 0x2000
 8004e9a:	3307      	adds	r3, #7
 8004e9c:	f023 0307 	bic.w	r3, r3, #7
 8004ea0:	461a      	mov	r2, r3
 8004ea2:	f642 7338 	movw	r3, #12088	; 0x2f38
 8004ea6:	f2c2 0300 	movt	r3, #8192	; 0x2000
 8004eaa:	601a      	str	r2, [r3, #0]
 8004eac:	f642 7338 	movw	r3, #12088	; 0x2f38
 8004eb0:	f2c2 0300 	movt	r3, #8192	; 0x2000
 8004eb4:	681b      	ldr	r3, [r3, #0]
 8004eb6:	60fb      	str	r3, [r7, #12]
 8004eb8:	f642 7338 	movw	r3, #12088	; 0x2f38
 8004ebc:	f2c2 0300 	movt	r3, #8192	; 0x2000
 8004ec0:	681b      	ldr	r3, [r3, #0]
 8004ec2:	461a      	mov	r2, r3
 8004ec4:	687b      	ldr	r3, [r7, #4]
 8004ec6:	4413      	add	r3, r2
 8004ec8:	3307      	adds	r3, #7
 8004eca:	f023 0307 	bic.w	r3, r3, #7
 8004ece:	60bb      	str	r3, [r7, #8]
 8004ed0:	68ba      	ldr	r2, [r7, #8]
 8004ed2:	f642 7390 	movw	r3, #12176	; 0x2f90
 8004ed6:	f2c2 0300 	movt	r3, #8192	; 0x2000
 8004eda:	3307      	adds	r3, #7
 8004edc:	f023 0307 	bic.w	r3, r3, #7
 8004ee0:	f503 5380 	add.w	r3, r3, #4096	; 0x1000
 8004ee4:	429a      	cmp	r2, r3
 8004ee6:	d301      	bcc.n	8004eec <_sbrk+0x70>
 8004ee8:	2300      	movs	r3, #0
 8004eea:	e006      	b.n	8004efa <_sbrk+0x7e>
 8004eec:	f642 7338 	movw	r3, #12088	; 0x2f38
 8004ef0:	f2c2 0300 	movt	r3, #8192	; 0x2000
 8004ef4:	68ba      	ldr	r2, [r7, #8]
 8004ef6:	601a      	str	r2, [r3, #0]
 8004ef8:	68fb      	ldr	r3, [r7, #12]
 8004efa:	4618      	mov	r0, r3
 8004efc:	3714      	adds	r7, #20
 8004efe:	46bd      	mov	sp, r7
 8004f00:	f85d 7b04 	ldr.w	r7, [sp], #4
 8004f04:	4770      	bx	lr
 8004f06:	bf00      	nop

08004f08 <System_Init>:
 8004f08:	b580      	push	{r7, lr}
 8004f0a:	af00      	add	r7, sp, #0
 8004f0c:	f44f 30e1 	mov.w	r0, #115200	; 0x1c200
 8004f10:	f000 fcf4 	bl	80058fc <Uart1_Init>
 8004f14:	2001      	movs	r0, #1
 8004f16:	f000 fe07 	bl	8005b28 <Uart1_RX_Interrupt_Enable>
 8004f1a:	f7fe fdf3 	bl	8003b04 <Key_Poll_Init>
 8004f1e:	2001      	movs	r0, #1
 8004f20:	f7fe feb8 	bl	8003c94 <Key_ISR_Enable>
 8004f24:	f7ff fb4a 	bl	80045bc <Lcd_Init>
 8004f28:	f7ff fc9c 	bl	8004864 <LED_Init>
 8004f2c:	f44f 707a 	mov.w	r0, #1000	; 0x3e8
 8004f30:	f000 fb6a 	bl	8005608 <SysTick_OS_Tick>
 8004f34:	f44f 436d 	mov.w	r3, #60672	; 0xed00
 8004f38:	f2ce 0300 	movt	r3, #57344	; 0xe000
 8004f3c:	f44f 5240 	mov.w	r2, #12288	; 0x3000
 8004f40:	f6c0 0200 	movt	r2, #2048	; 0x800
 8004f44:	609a      	str	r2, [r3, #8]
 8004f46:	f44f 436d 	mov.w	r3, #60672	; 0xed00
 8004f4a:	f2ce 0300 	movt	r3, #57344	; 0xe000
 8004f4e:	f44f 22e0 	mov.w	r2, #458752	; 0x70000
 8004f52:	625a      	str	r2, [r3, #36]	; 0x24
 8004f54:	f44f 436d 	mov.w	r3, #60672	; 0xed00
 8004f58:	f2ce 0300 	movt	r3, #57344	; 0xe000
 8004f5c:	2200      	movs	r2, #0
 8004f5e:	f2c0 52fa 	movt	r2, #1530	; 0x5fa
 8004f62:	60da      	str	r2, [r3, #12]
 8004f64:	bd80      	pop	{r7, pc}
 8004f66:	bf00      	nop

08004f68 <NVIC_ClearPendingIRQ>:
 8004f68:	b480      	push	{r7}
 8004f6a:	b083      	sub	sp, #12
 8004f6c:	af00      	add	r7, sp, #0
 8004f6e:	4603      	mov	r3, r0
 8004f70:	71fb      	strb	r3, [r7, #7]
 8004f72:	f44f 4361 	mov.w	r3, #57600	; 0xe100
 8004f76:	f2ce 0300 	movt	r3, #57344	; 0xe000
 8004f7a:	f997 2007 	ldrsb.w	r2, [r7, #7]
 8004f7e:	0952      	lsrs	r2, r2, #5
 8004f80:	79f9      	ldrb	r1, [r7, #7]
 8004f82:	f001 011f 	and.w	r1, r1, #31
 8004f86:	2001      	movs	r0, #1
 8004f88:	fa00 f101 	lsl.w	r1, r0, r1
 8004f8c:	3260      	adds	r2, #96	; 0x60
 8004f8e:	f843 1022 	str.w	r1, [r3, r2, lsl #2]
 8004f92:	370c      	adds	r7, #12
 8004f94:	46bd      	mov	sp, r7
 8004f96:	f85d 7b04 	ldr.w	r7, [sp], #4
 8004f9a:	4770      	bx	lr

08004f9c <Invalid_ISR>:
 8004f9c:	b580      	push	{r7, lr}
 8004f9e:	af00      	add	r7, sp, #0
 8004fa0:	f44f 436d 	mov.w	r3, #60672	; 0xed00
 8004fa4:	f2ce 0300 	movt	r3, #57344	; 0xe000
 8004fa8:	685b      	ldr	r3, [r3, #4]
 8004faa:	f3c3 0308 	ubfx	r3, r3, #0, #9
 8004fae:	f64b 6020 	movw	r0, #48672	; 0xbe20
 8004fb2:	f6c0 0000 	movt	r0, #2048	; 0x800
 8004fb6:	4619      	mov	r1, r3
 8004fb8:	f000 fd9c 	bl	8005af4 <Uart1_Printf>
 8004fbc:	f44f 436d 	mov.w	r3, #60672	; 0xed00
 8004fc0:	f2ce 0300 	movt	r3, #57344	; 0xe000
 8004fc4:	685b      	ldr	r3, [r3, #4]
 8004fc6:	f3c3 0308 	ubfx	r3, r3, #0, #9
 8004fca:	3b10      	subs	r3, #16
 8004fcc:	f64b 6038 	movw	r0, #48696	; 0xbe38
 8004fd0:	f6c0 0000 	movt	r0, #2048	; 0x800
 8004fd4:	4619      	mov	r1, r3
 8004fd6:	f000 fd8d 	bl	8005af4 <Uart1_Printf>
 8004fda:	e7fe      	b.n	8004fda <Invalid_ISR+0x3e>

08004fdc <Stack_Dump>:
 8004fdc:	b580      	push	{r7, lr}
 8004fde:	b086      	sub	sp, #24
 8004fe0:	af02      	add	r7, sp, #8
 8004fe2:	6078      	str	r0, [r7, #4]
 8004fe4:	6039      	str	r1, [r7, #0]
 8004fe6:	2300      	movs	r3, #0
 8004fe8:	60fb      	str	r3, [r7, #12]
 8004fea:	e017      	b.n	800501c <Stack_Dump+0x40>
 8004fec:	f64b 6370 	movw	r3, #48752	; 0xbe70
 8004ff0:	f6c0 0300 	movt	r3, #2048	; 0x800
 8004ff4:	68fa      	ldr	r2, [r7, #12]
 8004ff6:	f853 3022 	ldr.w	r3, [r3, r2, lsl #2]
 8004ffa:	68fa      	ldr	r2, [r7, #12]
 8004ffc:	0092      	lsls	r2, r2, #2
 8004ffe:	6839      	ldr	r1, [r7, #0]
 8005000:	440a      	add	r2, r1
 8005002:	6812      	ldr	r2, [r2, #0]
 8005004:	9200      	str	r2, [sp, #0]
 8005006:	f64b 6090 	movw	r0, #48784	; 0xbe90
 800500a:	f6c0 0000 	movt	r0, #2048	; 0x800
 800500e:	6879      	ldr	r1, [r7, #4]
 8005010:	68fa      	ldr	r2, [r7, #12]
 8005012:	f000 fd6f 	bl	8005af4 <Uart1_Printf>
 8005016:	68fb      	ldr	r3, [r7, #12]
 8005018:	3301      	adds	r3, #1
 800501a:	60fb      	str	r3, [r7, #12]
 800501c:	68fb      	ldr	r3, [r7, #12]
 800501e:	2b07      	cmp	r3, #7
 8005020:	d9e4      	bls.n	8004fec <Stack_Dump+0x10>
 8005022:	3710      	adds	r7, #16
 8005024:	46bd      	mov	sp, r7
 8005026:	bd80      	pop	{r7, pc}

08005028 <Fault_Report>:
 8005028:	b580      	push	{r7, lr}
 800502a:	b084      	sub	sp, #16
 800502c:	af00      	add	r7, sp, #0
 800502e:	60f8      	str	r0, [r7, #12]
 8005030:	60b9      	str	r1, [r7, #8]
 8005032:	607a      	str	r2, [r7, #4]
 8005034:	f64b 60a4 	movw	r0, #48804	; 0xbea4
 8005038:	f6c0 0000 	movt	r0, #2048	; 0x800
 800503c:	68b9      	ldr	r1, [r7, #8]
 800503e:	f000 fd59 	bl	8005af4 <Uart1_Printf>
 8005042:	f64b 60bc 	movw	r0, #48828	; 0xbebc
 8005046:	f6c0 0000 	movt	r0, #2048	; 0x800
 800504a:	68f9      	ldr	r1, [r7, #12]
 800504c:	f000 fd52 	bl	8005af4 <Uart1_Printf>
 8005050:	f64b 60c8 	movw	r0, #48840	; 0xbec8
 8005054:	f6c0 0000 	movt	r0, #2048	; 0x800
 8005058:	6879      	ldr	r1, [r7, #4]
 800505a:	f000 fd4b 	bl	8005af4 <Uart1_Printf>
 800505e:	68ba      	ldr	r2, [r7, #8]
 8005060:	230f      	movs	r3, #15
 8005062:	f2cf 0300 	movt	r3, #61440	; 0xf000
 8005066:	4013      	ands	r3, r2
 8005068:	2209      	movs	r2, #9
 800506a:	f2cf 0200 	movt	r2, #61440	; 0xf000
 800506e:	4293      	cmp	r3, r2
 8005070:	d017      	beq.n	80050a2 <Fault_Report+0x7a>
 8005072:	220d      	movs	r2, #13
 8005074:	f2cf 0200 	movt	r2, #61440	; 0xf000
 8005078:	4293      	cmp	r3, r2
 800507a:	d020      	beq.n	80050be <Fault_Report+0x96>
 800507c:	2201      	movs	r2, #1
 800507e:	f2cf 0200 	movt	r2, #61440	; 0xf000
 8005082:	4293      	cmp	r3, r2
 8005084:	d129      	bne.n	80050da <Fault_Report+0xb2>
 8005086:	f64b 60d4 	movw	r0, #48852	; 0xbed4
 800508a:	f6c0 0000 	movt	r0, #2048	; 0x800
 800508e:	f000 fd31 	bl	8005af4 <Uart1_Printf>
 8005092:	f64b 60f8 	movw	r0, #48888	; 0xbef8
 8005096:	f6c0 0000 	movt	r0, #2048	; 0x800
 800509a:	68f9      	ldr	r1, [r7, #12]
 800509c:	f7ff ff9e 	bl	8004fdc <Stack_Dump>
 80050a0:	e026      	b.n	80050f0 <Fault_Report+0xc8>
 80050a2:	f64b 60fc 	movw	r0, #48892	; 0xbefc
 80050a6:	f6c0 0000 	movt	r0, #2048	; 0x800
 80050aa:	f000 fd23 	bl	8005af4 <Uart1_Printf>
 80050ae:	f64b 60f8 	movw	r0, #48888	; 0xbef8
 80050b2:	f6c0 0000 	movt	r0, #2048	; 0x800
 80050b6:	68f9      	ldr	r1, [r7, #12]
 80050b8:	f7ff ff90 	bl	8004fdc <Stack_Dump>
 80050bc:	e018      	b.n	80050f0 <Fault_Report+0xc8>
 80050be:	f64b 7028 	movw	r0, #48936	; 0xbf28
 80050c2:	f6c0 0000 	movt	r0, #2048	; 0x800
 80050c6:	f000 fd15 	bl	8005af4 <Uart1_Printf>
 80050ca:	f64b 7054 	movw	r0, #48980	; 0xbf54
 80050ce:	f6c0 0000 	movt	r0, #2048	; 0x800
 80050d2:	6879      	ldr	r1, [r7, #4]
 80050d4:	f7ff ff82 	bl	8004fdc <Stack_Dump>
 80050d8:	e00a      	b.n	80050f0 <Fault_Report+0xc8>
 80050da:	68bb      	ldr	r3, [r7, #8]
 80050dc:	f003 030f 	and.w	r3, r3, #15
 80050e0:	f64b 7058 	movw	r0, #48984	; 0xbf58
 80050e4:	f6c0 0000 	movt	r0, #2048	; 0x800
 80050e8:	4619      	mov	r1, r3
 80050ea:	f000 fd03 	bl	8005af4 <Uart1_Printf>
 80050ee:	bf00      	nop
 80050f0:	f44f 436d 	mov.w	r3, #60672	; 0xed00
 80050f4:	f2ce 0300 	movt	r3, #57344	; 0xe000
 80050f8:	6a5b      	ldr	r3, [r3, #36]	; 0x24
 80050fa:	f64b 7084 	movw	r0, #49028	; 0xbf84
 80050fe:	f6c0 0000 	movt	r0, #2048	; 0x800
 8005102:	4619      	mov	r1, r3
 8005104:	f000 fcf6 	bl	8005af4 <Uart1_Printf>
 8005108:	f44f 436d 	mov.w	r3, #60672	; 0xed00
 800510c:	f2ce 0300 	movt	r3, #57344	; 0xe000
 8005110:	6a9b      	ldr	r3, [r3, #40]	; 0x28
 8005112:	f64b 7094 	movw	r0, #49044	; 0xbf94
 8005116:	f6c0 0000 	movt	r0, #2048	; 0x800
 800511a:	4619      	mov	r1, r3
 800511c:	f000 fcea 	bl	8005af4 <Uart1_Printf>
 8005120:	3710      	adds	r7, #16
 8005122:	46bd      	mov	sp, r7
 8005124:	bd80      	pop	{r7, pc}
 8005126:	bf00      	nop

08005128 <NMI_Handler>:
 8005128:	b580      	push	{r7, lr}
 800512a:	af00      	add	r7, sp, #0
 800512c:	f44f 73ae 	mov.w	r3, #348	; 0x15c
 8005130:	f2c4 2342 	movt	r3, #16962	; 0x4242
 8005134:	2201      	movs	r2, #1
 8005136:	601a      	str	r2, [r3, #0]
 8005138:	f64b 70b4 	movw	r0, #49076	; 0xbfb4
 800513c:	f6c0 0000 	movt	r0, #2048	; 0x800
 8005140:	f000 fcd8 	bl	8005af4 <Uart1_Printf>
 8005144:	bd80      	pop	{r7, pc}
 8005146:	bf00      	nop

08005148 <HardFault_Handler>:
 8005148:	b580      	push	{r7, lr}
 800514a:	b084      	sub	sp, #16
 800514c:	af00      	add	r7, sp, #0
 800514e:	60f8      	str	r0, [r7, #12]
 8005150:	60b9      	str	r1, [r7, #8]
 8005152:	607a      	str	r2, [r7, #4]
 8005154:	f64b 70c0 	movw	r0, #49088	; 0xbfc0
 8005158:	f6c0 0000 	movt	r0, #2048	; 0x800
 800515c:	f000 fcca 	bl	8005af4 <Uart1_Printf>
 8005160:	68f8      	ldr	r0, [r7, #12]
 8005162:	68b9      	ldr	r1, [r7, #8]
 8005164:	687a      	ldr	r2, [r7, #4]
 8005166:	f7ff ff5f 	bl	8005028 <Fault_Report>
 800516a:	f44f 436d 	mov.w	r3, #60672	; 0xed00
 800516e:	f2ce 0300 	movt	r3, #57344	; 0xe000
 8005172:	6a9b      	ldr	r3, [r3, #40]	; 0x28
 8005174:	09db      	lsrs	r3, r3, #7
 8005176:	f003 0301 	and.w	r3, r3, #1
 800517a:	f64b 70d0 	movw	r0, #49104	; 0xbfd0
 800517e:	f6c0 0000 	movt	r0, #2048	; 0x800
 8005182:	4619      	mov	r1, r3
 8005184:	f000 fcb6 	bl	8005af4 <Uart1_Printf>
 8005188:	f44f 436d 	mov.w	r3, #60672	; 0xed00
 800518c:	f2ce 0300 	movt	r3, #57344	; 0xe000
 8005190:	6b5b      	ldr	r3, [r3, #52]	; 0x34
 8005192:	f64b 70e4 	movw	r0, #49124	; 0xbfe4
 8005196:	f6c0 0000 	movt	r0, #2048	; 0x800
 800519a:	4619      	mov	r1, r3
 800519c:	f000 fcaa 	bl	8005af4 <Uart1_Printf>
 80051a0:	f44f 436d 	mov.w	r3, #60672	; 0xed00
 80051a4:	f2ce 0300 	movt	r3, #57344	; 0xe000
 80051a8:	6a9b      	ldr	r3, [r3, #40]	; 0x28
 80051aa:	0bdb      	lsrs	r3, r3, #15
 80051ac:	f003 0301 	and.w	r3, r3, #1
 80051b0:	f64b 70f4 	movw	r0, #49140	; 0xbff4
 80051b4:	f6c0 0000 	movt	r0, #2048	; 0x800
 80051b8:	4619      	mov	r1, r3
 80051ba:	f000 fc9b 	bl	8005af4 <Uart1_Printf>
 80051be:	f44f 436d 	mov.w	r3, #60672	; 0xed00
 80051c2:	f2ce 0300 	movt	r3, #57344	; 0xe000
 80051c6:	6b9b      	ldr	r3, [r3, #56]	; 0x38
 80051c8:	f24c 0008 	movw	r0, #49160	; 0xc008
 80051cc:	f6c0 0000 	movt	r0, #2048	; 0x800
 80051d0:	4619      	mov	r1, r3
 80051d2:	f000 fc8f 	bl	8005af4 <Uart1_Printf>
 80051d6:	f44f 436d 	mov.w	r3, #60672	; 0xed00
 80051da:	f2ce 0300 	movt	r3, #57344	; 0xe000
 80051de:	6adb      	ldr	r3, [r3, #44]	; 0x2c
 80051e0:	f24c 0018 	movw	r0, #49176	; 0xc018
 80051e4:	f6c0 0000 	movt	r0, #2048	; 0x800
 80051e8:	4619      	mov	r1, r3
 80051ea:	f000 fc83 	bl	8005af4 <Uart1_Printf>
 80051ee:	e7fe      	b.n	80051ee <HardFault_Handler+0xa6>

080051f0 <MemManage_Handler>:
 80051f0:	b580      	push	{r7, lr}
 80051f2:	b084      	sub	sp, #16
 80051f4:	af00      	add	r7, sp, #0
 80051f6:	60f8      	str	r0, [r7, #12]
 80051f8:	60b9      	str	r1, [r7, #8]
 80051fa:	607a      	str	r2, [r7, #4]
 80051fc:	f24c 003c 	movw	r0, #49212	; 0xc03c
 8005200:	f6c0 0000 	movt	r0, #2048	; 0x800
 8005204:	f000 fc76 	bl	8005af4 <Uart1_Printf>
 8005208:	68f8      	ldr	r0, [r7, #12]
 800520a:	68b9      	ldr	r1, [r7, #8]
 800520c:	687a      	ldr	r2, [r7, #4]
 800520e:	f7ff ff0b 	bl	8005028 <Fault_Report>
 8005212:	f44f 436d 	mov.w	r3, #60672	; 0xed00
 8005216:	f2ce 0300 	movt	r3, #57344	; 0xe000
 800521a:	6a9b      	ldr	r3, [r3, #40]	; 0x28
 800521c:	09db      	lsrs	r3, r3, #7
 800521e:	f003 0301 	and.w	r3, r3, #1
 8005222:	f64b 70d0 	movw	r0, #49104	; 0xbfd0
 8005226:	f6c0 0000 	movt	r0, #2048	; 0x800
 800522a:	4619      	mov	r1, r3
 800522c:	f000 fc62 	bl	8005af4 <Uart1_Printf>
 8005230:	f44f 436d 	mov.w	r3, #60672	; 0xed00
 8005234:	f2ce 0300 	movt	r3, #57344	; 0xe000
 8005238:	6b5b      	ldr	r3, [r3, #52]	; 0x34
 800523a:	f64b 70e4 	movw	r0, #49124	; 0xbfe4
 800523e:	f6c0 0000 	movt	r0, #2048	; 0x800
 8005242:	4619      	mov	r1, r3
 8005244:	f000 fc56 	bl	8005af4 <Uart1_Printf>
 8005248:	e7fe      	b.n	8005248 <MemManage_Handler+0x58>
 800524a:	bf00      	nop

0800524c <BusFault_Handler>:
 800524c:	b580      	push	{r7, lr}
 800524e:	b084      	sub	sp, #16
 8005250:	af00      	add	r7, sp, #0
 8005252:	60f8      	str	r0, [r7, #12]
 8005254:	60b9      	str	r1, [r7, #8]
 8005256:	607a      	str	r2, [r7, #4]
 8005258:	f24c 0058 	movw	r0, #49240	; 0xc058
 800525c:	f6c0 0000 	movt	r0, #2048	; 0x800
 8005260:	f000 fc48 	bl	8005af4 <Uart1_Printf>
 8005264:	68f8      	ldr	r0, [r7, #12]
 8005266:	68b9      	ldr	r1, [r7, #8]
 8005268:	687a      	ldr	r2, [r7, #4]
 800526a:	f7ff fedd 	bl	8005028 <Fault_Report>
 800526e:	f44f 436d 	mov.w	r3, #60672	; 0xed00
 8005272:	f2ce 0300 	movt	r3, #57344	; 0xe000
 8005276:	6a9b      	ldr	r3, [r3, #40]	; 0x28
 8005278:	0bdb      	lsrs	r3, r3, #15
 800527a:	f003 0301 	and.w	r3, r3, #1
 800527e:	f64b 70f4 	movw	r0, #49140	; 0xbff4
 8005282:	f6c0 0000 	movt	r0, #2048	; 0x800
 8005286:	4619      	mov	r1, r3
 8005288:	f000 fc34 	bl	8005af4 <Uart1_Printf>
 800528c:	f44f 436d 	mov.w	r3, #60672	; 0xed00
 8005290:	f2ce 0300 	movt	r3, #57344	; 0xe000
 8005294:	6b9b      	ldr	r3, [r3, #56]	; 0x38
 8005296:	f24c 0008 	movw	r0, #49160	; 0xc008
 800529a:	f6c0 0000 	movt	r0, #2048	; 0x800
 800529e:	4619      	mov	r1, r3
 80052a0:	f000 fc28 	bl	8005af4 <Uart1_Printf>
 80052a4:	e7fe      	b.n	80052a4 <BusFault_Handler+0x58>
 80052a6:	bf00      	nop

080052a8 <UsageFault_Handler>:
 80052a8:	b580      	push	{r7, lr}
 80052aa:	b084      	sub	sp, #16
 80052ac:	af00      	add	r7, sp, #0
 80052ae:	60f8      	str	r0, [r7, #12]
 80052b0:	60b9      	str	r1, [r7, #8]
 80052b2:	607a      	str	r2, [r7, #4]
 80052b4:	f24c 0064 	movw	r0, #49252	; 0xc064
 80052b8:	f6c0 0000 	movt	r0, #2048	; 0x800
 80052bc:	f000 fc1a 	bl	8005af4 <Uart1_Printf>
 80052c0:	68f8      	ldr	r0, [r7, #12]
 80052c2:	68b9      	ldr	r1, [r7, #8]
 80052c4:	687a      	ldr	r2, [r7, #4]
 80052c6:	f7ff feaf 	bl	8005028 <Fault_Report>
 80052ca:	e7fe      	b.n	80052ca <UsageFault_Handler+0x22>

080052cc <DebugMon_Handler>:
 80052cc:	b580      	push	{r7, lr}
 80052ce:	af00      	add	r7, sp, #0
 80052d0:	f24c 0074 	movw	r0, #49268	; 0xc074
 80052d4:	f6c0 0000 	movt	r0, #2048	; 0x800
 80052d8:	f000 fc0c 	bl	8005af4 <Uart1_Printf>
 80052dc:	e7fe      	b.n	80052dc <DebugMon_Handler+0x10>
 80052de:	bf00      	nop

080052e0 <SysTick_Handler>:
 80052e0:	b580      	push	{r7, lr}
 80052e2:	af00      	add	r7, sp, #0
 80052e4:	f642 733c 	movw	r3, #12092	; 0x2f3c
 80052e8:	f2c2 0300 	movt	r3, #8192	; 0x2000
 80052ec:	2201      	movs	r2, #1
 80052ee:	601a      	str	r2, [r3, #0]
 80052f0:	f7fe f948 	bl	8003584 <OS_Tick>
 80052f4:	f44f 436d 	mov.w	r3, #60672	; 0xed00
 80052f8:	f2ce 0300 	movt	r3, #57344	; 0xe000
 80052fc:	f44f 426d 	mov.w	r2, #60672	; 0xed00
 8005300:	f2ce 0200 	movt	r2, #57344	; 0xe000
 8005304:	6852      	ldr	r2, [r2, #4]
 8005306:	f042 5280 	orr.w	r2, r2, #268435456	; 0x10000000
 800530a:	605a      	str	r2, [r3, #4]
 800530c:	bd80      	pop	{r7, pc}
 800530e:	bf00      	nop

08005310 <WWDG_IRQHandler>:
 8005310:	b580      	push	{r7, lr}
 8005312:	af00      	add	r7, sp, #0
 8005314:	f7ff fe42 	bl	8004f9c <Invalid_ISR>
 8005318:	bd80      	pop	{r7, pc}
 800531a:	bf00      	nop

0800531c <PVD_IRQHandler>:
 800531c:	b580      	push	{r7, lr}
 800531e:	af00      	add	r7, sp, #0
 8005320:	f7ff fe3c 	bl	8004f9c <Invalid_ISR>
 8005324:	bd80      	pop	{r7, pc}
 8005326:	bf00      	nop

08005328 <TAMPER_IRQHandler>:
 8005328:	b580      	push	{r7, lr}
 800532a:	af00      	add	r7, sp, #0
 800532c:	f7ff fe36 	bl	8004f9c <Invalid_ISR>
 8005330:	bd80      	pop	{r7, pc}
 8005332:	bf00      	nop

08005334 <RTC_IRQHandler>:
 8005334:	b580      	push	{r7, lr}
 8005336:	af00      	add	r7, sp, #0
 8005338:	f7ff fe30 	bl	8004f9c <Invalid_ISR>
 800533c:	bd80      	pop	{r7, pc}
 800533e:	bf00      	nop

08005340 <FLASH_IRQHandler>:
 8005340:	b580      	push	{r7, lr}
 8005342:	af00      	add	r7, sp, #0
 8005344:	f7ff fe2a 	bl	8004f9c <Invalid_ISR>
 8005348:	bd80      	pop	{r7, pc}
 800534a:	bf00      	nop

0800534c <RCC_IRQHandler>:
 800534c:	b580      	push	{r7, lr}
 800534e:	af00      	add	r7, sp, #0
 8005350:	f7ff fe24 	bl	8004f9c <Invalid_ISR>
 8005354:	bd80      	pop	{r7, pc}
 8005356:	bf00      	nop

08005358 <EXTI0_IRQHandler>:
 8005358:	b580      	push	{r7, lr}
 800535a:	af00      	add	r7, sp, #0
 800535c:	f7ff fe1e 	bl	8004f9c <Invalid_ISR>
 8005360:	bd80      	pop	{r7, pc}
 8005362:	bf00      	nop

08005364 <EXTI1_IRQHandler>:
 8005364:	b580      	push	{r7, lr}
 8005366:	af00      	add	r7, sp, #0
 8005368:	f7ff fe18 	bl	8004f9c <Invalid_ISR>
 800536c:	bd80      	pop	{r7, pc}
 800536e:	bf00      	nop

08005370 <EXTI2_IRQHandler>:
 8005370:	b580      	push	{r7, lr}
 8005372:	af00      	add	r7, sp, #0
 8005374:	f7ff fe12 	bl	8004f9c <Invalid_ISR>
 8005378:	bd80      	pop	{r7, pc}
 800537a:	bf00      	nop

0800537c <EXTI3_IRQHandler>:
 800537c:	b580      	push	{r7, lr}
 800537e:	af00      	add	r7, sp, #0
 8005380:	f44f 6380 	mov.w	r3, #1024	; 0x400
 8005384:	f2c4 0301 	movt	r3, #16385	; 0x4001
 8005388:	f44f 6280 	mov.w	r2, #1024	; 0x400
 800538c:	f2c4 0201 	movt	r2, #16385	; 0x4001
 8005390:	6952      	ldr	r2, [r2, #20]
 8005392:	f042 0208 	orr.w	r2, r2, #8
 8005396:	615a      	str	r2, [r3, #20]
 8005398:	2009      	movs	r0, #9
 800539a:	f7ff fde5 	bl	8004f68 <NVIC_ClearPendingIRQ>
 800539e:	f642 7340 	movw	r3, #12096	; 0x2f40
 80053a2:	f2c2 0300 	movt	r3, #8192	; 0x2000
 80053a6:	2201      	movs	r2, #1
 80053a8:	601a      	str	r2, [r3, #0]
 80053aa:	bd80      	pop	{r7, pc}

080053ac <EXTI4_IRQHandler>:
 80053ac:	b580      	push	{r7, lr}
 80053ae:	af00      	add	r7, sp, #0
 80053b0:	f7ff fdf4 	bl	8004f9c <Invalid_ISR>
 80053b4:	bd80      	pop	{r7, pc}
 80053b6:	bf00      	nop

080053b8 <DMA1_Channel1_IRQHandler>:
 80053b8:	b580      	push	{r7, lr}
 80053ba:	af00      	add	r7, sp, #0
 80053bc:	f7ff fdee 	bl	8004f9c <Invalid_ISR>
 80053c0:	bd80      	pop	{r7, pc}
 80053c2:	bf00      	nop

080053c4 <DMA1_Channel2_IRQHandler>:
 80053c4:	b580      	push	{r7, lr}
 80053c6:	af00      	add	r7, sp, #0
 80053c8:	f7ff fde8 	bl	8004f9c <Invalid_ISR>
 80053cc:	bd80      	pop	{r7, pc}
 80053ce:	bf00      	nop

080053d0 <DMA1_Channel3_IRQHandler>:
 80053d0:	b580      	push	{r7, lr}
 80053d2:	af00      	add	r7, sp, #0
 80053d4:	f7ff fde2 	bl	8004f9c <Invalid_ISR>
 80053d8:	bd80      	pop	{r7, pc}
 80053da:	bf00      	nop

080053dc <DMA1_Channel4_IRQHandler>:
 80053dc:	b580      	push	{r7, lr}
 80053de:	af00      	add	r7, sp, #0
 80053e0:	f7ff fddc 	bl	8004f9c <Invalid_ISR>
 80053e4:	bd80      	pop	{r7, pc}
 80053e6:	bf00      	nop

080053e8 <DMA1_Channel5_IRQHandler>:
 80053e8:	b580      	push	{r7, lr}
 80053ea:	af00      	add	r7, sp, #0
 80053ec:	f7ff fdd6 	bl	8004f9c <Invalid_ISR>
 80053f0:	bd80      	pop	{r7, pc}
 80053f2:	bf00      	nop

080053f4 <DMA1_Channel6_IRQHandler>:
 80053f4:	b580      	push	{r7, lr}
 80053f6:	af00      	add	r7, sp, #0
 80053f8:	f7ff fdd0 	bl	8004f9c <Invalid_ISR>
 80053fc:	bd80      	pop	{r7, pc}
 80053fe:	bf00      	nop

08005400 <DMA1_Channel7_IRQHandler>:
 8005400:	b580      	push	{r7, lr}
 8005402:	af00      	add	r7, sp, #0
 8005404:	f7ff fdca 	bl	8004f9c <Invalid_ISR>
 8005408:	bd80      	pop	{r7, pc}
 800540a:	bf00      	nop

0800540c <ADC1_2_IRQHandler>:
 800540c:	b580      	push	{r7, lr}
 800540e:	af00      	add	r7, sp, #0
 8005410:	f7ff fdc4 	bl	8004f9c <Invalid_ISR>
 8005414:	bd80      	pop	{r7, pc}
 8005416:	bf00      	nop

08005418 <USB_HP_CAN_TX_IRQHandler>:
 8005418:	b580      	push	{r7, lr}
 800541a:	af00      	add	r7, sp, #0
 800541c:	f7ff fdbe 	bl	8004f9c <Invalid_ISR>
 8005420:	bd80      	pop	{r7, pc}
 8005422:	bf00      	nop

08005424 <USB_LP_CAN_RX0_IRQHandler>:
 8005424:	b580      	push	{r7, lr}
 8005426:	af00      	add	r7, sp, #0
 8005428:	f7ff fdb8 	bl	8004f9c <Invalid_ISR>
 800542c:	bd80      	pop	{r7, pc}
 800542e:	bf00      	nop

08005430 <CAN_RX1_IRQHandler>:
 8005430:	b580      	push	{r7, lr}
 8005432:	af00      	add	r7, sp, #0
 8005434:	f7ff fdb2 	bl	8004f9c <Invalid_ISR>
 8005438:	bd80      	pop	{r7, pc}
 800543a:	bf00      	nop

0800543c <CAN_SCE_IRQHandler>:
 800543c:	b580      	push	{r7, lr}
 800543e:	af00      	add	r7, sp, #0
 8005440:	f7ff fdac 	bl	8004f9c <Invalid_ISR>
 8005444:	bd80      	pop	{r7, pc}
 8005446:	bf00      	nop

08005448 <EXTI9_5_IRQHandler>:
 8005448:	b580      	push	{r7, lr}
 800544a:	b082      	sub	sp, #8
 800544c:	af00      	add	r7, sp, #0
 800544e:	f44f 6380 	mov.w	r3, #1024	; 0x400
 8005452:	f2c4 0301 	movt	r3, #16385	; 0x4001
 8005456:	695b      	ldr	r3, [r3, #20]
 8005458:	095b      	lsrs	r3, r3, #5
 800545a:	f003 0307 	and.w	r3, r3, #7
 800545e:	607b      	str	r3, [r7, #4]
 8005460:	f44f 6380 	mov.w	r3, #1024	; 0x400
 8005464:	f2c4 0301 	movt	r3, #16385	; 0x4001
 8005468:	22e0      	movs	r2, #224	; 0xe0
 800546a:	615a      	str	r2, [r3, #20]
 800546c:	2017      	movs	r0, #23
 800546e:	f7ff fd7b 	bl	8004f68 <NVIC_ClearPendingIRQ>
 8005472:	f240 0310 	movw	r3, #16
 8005476:	f2c2 0300 	movt	r3, #8192	; 0x2000
 800547a:	687a      	ldr	r2, [r7, #4]
 800547c:	f853 2022 	ldr.w	r2, [r3, r2, lsl #2]
 8005480:	f642 7340 	movw	r3, #12096	; 0x2f40
 8005484:	f2c2 0300 	movt	r3, #8192	; 0x2000
 8005488:	601a      	str	r2, [r3, #0]
 800548a:	3708      	adds	r7, #8
 800548c:	46bd      	mov	sp, r7
 800548e:	bd80      	pop	{r7, pc}

08005490 <TIM1_BRK_IRQHandler>:
 8005490:	b580      	push	{r7, lr}
 8005492:	af00      	add	r7, sp, #0
 8005494:	f7ff fd82 	bl	8004f9c <Invalid_ISR>
 8005498:	bd80      	pop	{r7, pc}
 800549a:	bf00      	nop

0800549c <TIM1_UP_IRQHandler>:
 800549c:	b580      	push	{r7, lr}
 800549e:	af00      	add	r7, sp, #0
 80054a0:	f7ff fd7c 	bl	8004f9c <Invalid_ISR>
 80054a4:	bd80      	pop	{r7, pc}
 80054a6:	bf00      	nop

080054a8 <TIM1_TRG_COM_IRQHandler>:
 80054a8:	b580      	push	{r7, lr}
 80054aa:	af00      	add	r7, sp, #0
 80054ac:	f7ff fd76 	bl	8004f9c <Invalid_ISR>
 80054b0:	bd80      	pop	{r7, pc}
 80054b2:	bf00      	nop

080054b4 <TIM1_CC_IRQHandler>:
 80054b4:	b580      	push	{r7, lr}
 80054b6:	af00      	add	r7, sp, #0
 80054b8:	f7ff fd70 	bl	8004f9c <Invalid_ISR>
 80054bc:	bd80      	pop	{r7, pc}
 80054be:	bf00      	nop

080054c0 <TIM2_IRQHandler>:
 80054c0:	b580      	push	{r7, lr}
 80054c2:	af00      	add	r7, sp, #0
 80054c4:	f7ff fd6a 	bl	8004f9c <Invalid_ISR>
 80054c8:	bd80      	pop	{r7, pc}
 80054ca:	bf00      	nop

080054cc <TIM3_IRQHandler>:
 80054cc:	b580      	push	{r7, lr}
 80054ce:	af00      	add	r7, sp, #0
 80054d0:	f7ff fd64 	bl	8004f9c <Invalid_ISR>
 80054d4:	bd80      	pop	{r7, pc}
 80054d6:	bf00      	nop

080054d8 <TIM4_IRQHandler>:
 80054d8:	b580      	push	{r7, lr}
 80054da:	af00      	add	r7, sp, #0
 80054dc:	f44f 6300 	mov.w	r3, #2048	; 0x800
 80054e0:	f2c4 0300 	movt	r3, #16384	; 0x4000
 80054e4:	f44f 6200 	mov.w	r2, #2048	; 0x800
 80054e8:	f2c4 0200 	movt	r2, #16384	; 0x4000
 80054ec:	8a12      	ldrh	r2, [r2, #16]
 80054ee:	b292      	uxth	r2, r2
 80054f0:	f022 0201 	bic.w	r2, r2, #1
 80054f4:	b292      	uxth	r2, r2
 80054f6:	821a      	strh	r2, [r3, #16]
 80054f8:	201e      	movs	r0, #30
 80054fa:	f7ff fd35 	bl	8004f68 <NVIC_ClearPendingIRQ>
 80054fe:	f642 7344 	movw	r3, #12100	; 0x2f44
 8005502:	f2c2 0300 	movt	r3, #8192	; 0x2000
 8005506:	2201      	movs	r2, #1
 8005508:	601a      	str	r2, [r3, #0]
 800550a:	bd80      	pop	{r7, pc}

0800550c <I2C1_EV_IRQHandler>:
 800550c:	b580      	push	{r7, lr}
 800550e:	af00      	add	r7, sp, #0
 8005510:	f7ff fd44 	bl	8004f9c <Invalid_ISR>
 8005514:	bd80      	pop	{r7, pc}
 8005516:	bf00      	nop

08005518 <I2C1_ER_IRQHandler>:
 8005518:	b580      	push	{r7, lr}
 800551a:	af00      	add	r7, sp, #0
 800551c:	f7ff fd3e 	bl	8004f9c <Invalid_ISR>
 8005520:	bd80      	pop	{r7, pc}
 8005522:	bf00      	nop

08005524 <I2C2_EV_IRQHandler>:
 8005524:	b580      	push	{r7, lr}
 8005526:	af00      	add	r7, sp, #0
 8005528:	f7ff fd38 	bl	8004f9c <Invalid_ISR>
 800552c:	bd80      	pop	{r7, pc}
 800552e:	bf00      	nop

08005530 <I2C2_ER_IRQHandler>:
 8005530:	b580      	push	{r7, lr}
 8005532:	af00      	add	r7, sp, #0
 8005534:	f7ff fd32 	bl	8004f9c <Invalid_ISR>
 8005538:	bd80      	pop	{r7, pc}
 800553a:	bf00      	nop

0800553c <SPI1_IRQHandler>:
 800553c:	b580      	push	{r7, lr}
 800553e:	af00      	add	r7, sp, #0
 8005540:	f7ff fd2c 	bl	8004f9c <Invalid_ISR>
 8005544:	bd80      	pop	{r7, pc}
 8005546:	bf00      	nop

08005548 <SPI2_IRQHandler>:
 8005548:	b580      	push	{r7, lr}
 800554a:	af00      	add	r7, sp, #0
 800554c:	f7ff fd26 	bl	8004f9c <Invalid_ISR>
 8005550:	bd80      	pop	{r7, pc}
 8005552:	bf00      	nop

08005554 <USART1_IRQHandler>:
 8005554:	b580      	push	{r7, lr}
 8005556:	af00      	add	r7, sp, #0
 8005558:	f44f 5360 	mov.w	r3, #14336	; 0x3800
 800555c:	f2c4 0301 	movt	r3, #16385	; 0x4001
 8005560:	889b      	ldrh	r3, [r3, #4]
 8005562:	b29b      	uxth	r3, r3
 8005564:	b2da      	uxtb	r2, r3
 8005566:	f642 734c 	movw	r3, #12108	; 0x2f4c
 800556a:	f2c2 0300 	movt	r3, #8192	; 0x2000
 800556e:	701a      	strb	r2, [r3, #0]
 8005570:	2025      	movs	r0, #37	; 0x25
 8005572:	f7ff fcf9 	bl	8004f68 <NVIC_ClearPendingIRQ>
 8005576:	f642 7348 	movw	r3, #12104	; 0x2f48
 800557a:	f2c2 0300 	movt	r3, #8192	; 0x2000
 800557e:	2201      	movs	r2, #1
 8005580:	601a      	str	r2, [r3, #0]
 8005582:	bd80      	pop	{r7, pc}

08005584 <USART2_IRQHandler>:
 8005584:	b580      	push	{r7, lr}
 8005586:	af00      	add	r7, sp, #0
 8005588:	f7ff fd08 	bl	8004f9c <Invalid_ISR>
 800558c:	bd80      	pop	{r7, pc}
 800558e:	bf00      	nop

08005590 <USART3_IRQHandler>:
 8005590:	b580      	push	{r7, lr}
 8005592:	af00      	add	r7, sp, #0
 8005594:	f7ff fd02 	bl	8004f9c <Invalid_ISR>
 8005598:	bd80      	pop	{r7, pc}
 800559a:	bf00      	nop

0800559c <EXTI15_10_IRQHandler>:
 800559c:	b580      	push	{r7, lr}
 800559e:	b082      	sub	sp, #8
 80055a0:	af00      	add	r7, sp, #0
 80055a2:	f44f 6380 	mov.w	r3, #1024	; 0x400
 80055a6:	f2c4 0301 	movt	r3, #16385	; 0x4001
 80055aa:	695b      	ldr	r3, [r3, #20]
 80055ac:	0b5b      	lsrs	r3, r3, #13
 80055ae:	f003 0303 	and.w	r3, r3, #3
 80055b2:	607b      	str	r3, [r7, #4]
 80055b4:	f44f 6380 	mov.w	r3, #1024	; 0x400
 80055b8:	f2c4 0301 	movt	r3, #16385	; 0x4001
 80055bc:	f44f 6280 	mov.w	r2, #1024	; 0x400
 80055c0:	f2c4 0201 	movt	r2, #16385	; 0x4001
 80055c4:	6952      	ldr	r2, [r2, #20]
 80055c6:	f442 42c0 	orr.w	r2, r2, #24576	; 0x6000
 80055ca:	615a      	str	r2, [r3, #20]
 80055cc:	2028      	movs	r0, #40	; 0x28
 80055ce:	f7ff fccb 	bl	8004f68 <NVIC_ClearPendingIRQ>
 80055d2:	f240 0330 	movw	r3, #48	; 0x30
 80055d6:	f2c2 0300 	movt	r3, #8192	; 0x2000
 80055da:	687a      	ldr	r2, [r7, #4]
 80055dc:	f853 2022 	ldr.w	r2, [r3, r2, lsl #2]
 80055e0:	f642 7340 	movw	r3, #12096	; 0x2f40
 80055e4:	f2c2 0300 	movt	r3, #8192	; 0x2000
 80055e8:	601a      	str	r2, [r3, #0]
 80055ea:	3708      	adds	r7, #8
 80055ec:	46bd      	mov	sp, r7
 80055ee:	bd80      	pop	{r7, pc}

080055f0 <RTCAlarm_IRQHandler>:
 80055f0:	b580      	push	{r7, lr}
 80055f2:	af00      	add	r7, sp, #0
 80055f4:	f7ff fcd2 	bl	8004f9c <Invalid_ISR>
 80055f8:	bd80      	pop	{r7, pc}
 80055fa:	bf00      	nop

080055fc <USBWakeUp_IRQHandler>:
 80055fc:	b580      	push	{r7, lr}
 80055fe:	af00      	add	r7, sp, #0
 8005600:	f7ff fccc 	bl	8004f9c <Invalid_ISR>
 8005604:	bd80      	pop	{r7, pc}
 8005606:	bf00      	nop

08005608 <SysTick_OS_Tick>:
 8005608:	b590      	push	{r4, r7, lr}
 800560a:	b083      	sub	sp, #12
 800560c:	af00      	add	r7, sp, #0
 800560e:	6078      	str	r0, [r7, #4]
 8005610:	f24e 0310 	movw	r3, #57360	; 0xe010
 8005614:	f2ce 0300 	movt	r3, #57344	; 0xe000
 8005618:	2202      	movs	r2, #2
 800561a:	601a      	str	r2, [r3, #0]
 800561c:	f24e 0410 	movw	r4, #57360	; 0xe010
 8005620:	f2ce 0400 	movt	r4, #57344	; 0xe000
 8005624:	6878      	ldr	r0, [r7, #4]
 8005626:	f005 fcff 	bl	800b028 <__aeabi_ui2d>
 800562a:	4602      	mov	r2, r0
 800562c:	460b      	mov	r3, r1
 800562e:	4610      	mov	r0, r2
 8005630:	4619      	mov	r1, r3
 8005632:	a317      	add	r3, pc, #92	; (adr r3, 8005690 <SysTick_OS_Tick+0x88>)
 8005634:	e9d3 2300 	ldrd	r2, r3, [r3]
 8005638:	f005 fd6c 	bl	800b114 <__aeabi_dmul>
 800563c:	4602      	mov	r2, r0
 800563e:	460b      	mov	r3, r1
 8005640:	4610      	mov	r0, r2
 8005642:	4619      	mov	r1, r3
 8005644:	f04f 0200 	mov.w	r2, #0
 8005648:	f04f 0300 	mov.w	r3, #0
 800564c:	f6c3 73e0 	movt	r3, #16352	; 0x3fe0
 8005650:	f005 fbae 	bl	800adb0 <__adddf3>
 8005654:	4602      	mov	r2, r0
 8005656:	460b      	mov	r3, r1
 8005658:	4610      	mov	r0, r2
 800565a:	4619      	mov	r1, r3
 800565c:	f006 f81c 	bl	800b698 <__aeabi_d2uiz>
 8005660:	4603      	mov	r3, r0
 8005662:	6063      	str	r3, [r4, #4]
 8005664:	f24e 0310 	movw	r3, #57360	; 0xe010
 8005668:	f2ce 0300 	movt	r3, #57344	; 0xe000
 800566c:	2200      	movs	r2, #0
 800566e:	609a      	str	r2, [r3, #8]
 8005670:	f24e 0310 	movw	r3, #57360	; 0xe010
 8005674:	f2ce 0300 	movt	r3, #57344	; 0xe000
 8005678:	f24e 0210 	movw	r2, #57360	; 0xe010
 800567c:	f2ce 0200 	movt	r2, #57344	; 0xe000
 8005680:	6812      	ldr	r2, [r2, #0]
 8005682:	f042 0201 	orr.w	r2, r2, #1
 8005686:	601a      	str	r2, [r3, #0]
 8005688:	370c      	adds	r7, #12
 800568a:	46bd      	mov	sp, r7
 800568c:	bd90      	pop	{r4, r7, pc}
 800568e:	bf00      	nop
 8005690:	00000000 	andeq	r0, r0, r0
 8005694:	40c19400 	sbcmi	r9, r1, r0, lsl #8

08005698 <NVIC_EnableIRQ>:
 8005698:	b480      	push	{r7}
 800569a:	b083      	sub	sp, #12
 800569c:	af00      	add	r7, sp, #0
 800569e:	4603      	mov	r3, r0
 80056a0:	71fb      	strb	r3, [r7, #7]
 80056a2:	f44f 4361 	mov.w	r3, #57600	; 0xe100
 80056a6:	f2ce 0300 	movt	r3, #57344	; 0xe000
 80056aa:	f997 2007 	ldrsb.w	r2, [r7, #7]
 80056ae:	0952      	lsrs	r2, r2, #5
 80056b0:	79f9      	ldrb	r1, [r7, #7]
 80056b2:	f001 011f 	and.w	r1, r1, #31
 80056b6:	2001      	movs	r0, #1
 80056b8:	fa00 f101 	lsl.w	r1, r0, r1
 80056bc:	f843 1022 	str.w	r1, [r3, r2, lsl #2]
 80056c0:	370c      	adds	r7, #12
 80056c2:	46bd      	mov	sp, r7
 80056c4:	f85d 7b04 	ldr.w	r7, [sp], #4
 80056c8:	4770      	bx	lr
 80056ca:	bf00      	nop

080056cc <NVIC_DisableIRQ>:
 80056cc:	b480      	push	{r7}
 80056ce:	b083      	sub	sp, #12
 80056d0:	af00      	add	r7, sp, #0
 80056d2:	4603      	mov	r3, r0
 80056d4:	71fb      	strb	r3, [r7, #7]
 80056d6:	f44f 4361 	mov.w	r3, #57600	; 0xe100
 80056da:	f2ce 0300 	movt	r3, #57344	; 0xe000
 80056de:	f997 2007 	ldrsb.w	r2, [r7, #7]
 80056e2:	0952      	lsrs	r2, r2, #5
 80056e4:	79f9      	ldrb	r1, [r7, #7]
 80056e6:	f001 011f 	and.w	r1, r1, #31
 80056ea:	2001      	movs	r0, #1
 80056ec:	fa00 f101 	lsl.w	r1, r0, r1
 80056f0:	3220      	adds	r2, #32
 80056f2:	f843 1022 	str.w	r1, [r3, r2, lsl #2]
 80056f6:	370c      	adds	r7, #12
 80056f8:	46bd      	mov	sp, r7
 80056fa:	f85d 7b04 	ldr.w	r7, [sp], #4
 80056fe:	4770      	bx	lr

08005700 <NVIC_ClearPendingIRQ>:
 8005700:	b480      	push	{r7}
 8005702:	b083      	sub	sp, #12
 8005704:	af00      	add	r7, sp, #0
 8005706:	4603      	mov	r3, r0
 8005708:	71fb      	strb	r3, [r7, #7]
 800570a:	f44f 4361 	mov.w	r3, #57600	; 0xe100
 800570e:	f2ce 0300 	movt	r3, #57344	; 0xe000
 8005712:	f997 2007 	ldrsb.w	r2, [r7, #7]
 8005716:	0952      	lsrs	r2, r2, #5
 8005718:	79f9      	ldrb	r1, [r7, #7]
 800571a:	f001 011f 	and.w	r1, r1, #31
 800571e:	2001      	movs	r0, #1
 8005720:	fa00 f101 	lsl.w	r1, r0, r1
 8005724:	3260      	adds	r2, #96	; 0x60
 8005726:	f843 1022 	str.w	r1, [r3, r2, lsl #2]
 800572a:	370c      	adds	r7, #12
 800572c:	46bd      	mov	sp, r7
 800572e:	f85d 7b04 	ldr.w	r7, [sp], #4
 8005732:	4770      	bx	lr

08005734 <TIM4_Repeat_Interrupt_Enable>:
 8005734:	b580      	push	{r7, lr}
 8005736:	b082      	sub	sp, #8
 8005738:	af00      	add	r7, sp, #0
 800573a:	6078      	str	r0, [r7, #4]
 800573c:	6039      	str	r1, [r7, #0]
 800573e:	687b      	ldr	r3, [r7, #4]
 8005740:	2b00      	cmp	r3, #0
 8005742:	d06a      	beq.n	800581a <TIM4_Repeat_Interrupt_Enable+0xe6>
 8005744:	f44f 5380 	mov.w	r3, #4096	; 0x1000
 8005748:	f2c4 0302 	movt	r3, #16386	; 0x4002
 800574c:	f44f 5280 	mov.w	r2, #4096	; 0x1000
 8005750:	f2c4 0202 	movt	r2, #16386	; 0x4002
 8005754:	69d2      	ldr	r2, [r2, #28]
 8005756:	f042 0204 	orr.w	r2, r2, #4
 800575a:	61da      	str	r2, [r3, #28]
 800575c:	f44f 6300 	mov.w	r3, #2048	; 0x800
 8005760:	f2c4 0300 	movt	r3, #16384	; 0x4000
 8005764:	2210      	movs	r2, #16
 8005766:	801a      	strh	r2, [r3, #0]
 8005768:	f44f 6300 	mov.w	r3, #2048	; 0x800
 800576c:	f2c4 0300 	movt	r3, #16384	; 0x4000
 8005770:	f240 529f 	movw	r2, #1439	; 0x59f
 8005774:	851a      	strh	r2, [r3, #40]	; 0x28
 8005776:	f44f 6300 	mov.w	r3, #2048	; 0x800
 800577a:	f2c4 0300 	movt	r3, #16384	; 0x4000
 800577e:	683a      	ldr	r2, [r7, #0]
 8005780:	b292      	uxth	r2, r2
 8005782:	4611      	mov	r1, r2
 8005784:	0089      	lsls	r1, r1, #2
 8005786:	440a      	add	r2, r1
 8005788:	4611      	mov	r1, r2
 800578a:	0088      	lsls	r0, r1, #2
 800578c:	4611      	mov	r1, r2
 800578e:	4602      	mov	r2, r0
 8005790:	440a      	add	r2, r1
 8005792:	0052      	lsls	r2, r2, #1
 8005794:	b292      	uxth	r2, r2
 8005796:	3a01      	subs	r2, #1
 8005798:	b292      	uxth	r2, r2
 800579a:	859a      	strh	r2, [r3, #44]	; 0x2c
 800579c:	f44f 6300 	mov.w	r3, #2048	; 0x800
 80057a0:	f2c4 0300 	movt	r3, #16384	; 0x4000
 80057a4:	f44f 6200 	mov.w	r2, #2048	; 0x800
 80057a8:	f2c4 0200 	movt	r2, #16384	; 0x4000
 80057ac:	8a92      	ldrh	r2, [r2, #20]
 80057ae:	b292      	uxth	r2, r2
 80057b0:	f042 0201 	orr.w	r2, r2, #1
 80057b4:	b292      	uxth	r2, r2
 80057b6:	829a      	strh	r2, [r3, #20]
 80057b8:	f44f 6300 	mov.w	r3, #2048	; 0x800
 80057bc:	f2c4 0300 	movt	r3, #16384	; 0x4000
 80057c0:	f44f 6200 	mov.w	r2, #2048	; 0x800
 80057c4:	f2c4 0200 	movt	r2, #16384	; 0x4000
 80057c8:	8a12      	ldrh	r2, [r2, #16]
 80057ca:	b292      	uxth	r2, r2
 80057cc:	f022 0201 	bic.w	r2, r2, #1
 80057d0:	b292      	uxth	r2, r2
 80057d2:	821a      	strh	r2, [r3, #16]
 80057d4:	201e      	movs	r0, #30
 80057d6:	f7ff ff93 	bl	8005700 <NVIC_ClearPendingIRQ>
 80057da:	f44f 6300 	mov.w	r3, #2048	; 0x800
 80057de:	f2c4 0300 	movt	r3, #16384	; 0x4000
 80057e2:	f44f 6200 	mov.w	r2, #2048	; 0x800
 80057e6:	f2c4 0200 	movt	r2, #16384	; 0x4000
 80057ea:	8992      	ldrh	r2, [r2, #12]
 80057ec:	b292      	uxth	r2, r2
 80057ee:	f042 0201 	orr.w	r2, r2, #1
 80057f2:	b292      	uxth	r2, r2
 80057f4:	819a      	strh	r2, [r3, #12]
 80057f6:	201e      	movs	r0, #30
 80057f8:	f7ff ff4e 	bl	8005698 <NVIC_EnableIRQ>
 80057fc:	f44f 6300 	mov.w	r3, #2048	; 0x800
 8005800:	f2c4 0300 	movt	r3, #16384	; 0x4000
 8005804:	f44f 6200 	mov.w	r2, #2048	; 0x800
 8005808:	f2c4 0200 	movt	r2, #16384	; 0x4000
 800580c:	8812      	ldrh	r2, [r2, #0]
 800580e:	b292      	uxth	r2, r2
 8005810:	f042 0201 	orr.w	r2, r2, #1
 8005814:	b292      	uxth	r2, r2
 8005816:	801a      	strh	r2, [r3, #0]
 8005818:	e01e      	b.n	8005858 <TIM4_Repeat_Interrupt_Enable+0x124>
 800581a:	201e      	movs	r0, #30
 800581c:	f7ff ff56 	bl	80056cc <NVIC_DisableIRQ>
 8005820:	f44f 6300 	mov.w	r3, #2048	; 0x800
 8005824:	f2c4 0300 	movt	r3, #16384	; 0x4000
 8005828:	f44f 6200 	mov.w	r2, #2048	; 0x800
 800582c:	f2c4 0200 	movt	r2, #16384	; 0x4000
 8005830:	8812      	ldrh	r2, [r2, #0]
 8005832:	b292      	uxth	r2, r2
 8005834:	f022 0201 	bic.w	r2, r2, #1
 8005838:	b292      	uxth	r2, r2
 800583a:	801a      	strh	r2, [r3, #0]
 800583c:	f44f 6300 	mov.w	r3, #2048	; 0x800
 8005840:	f2c4 0300 	movt	r3, #16384	; 0x4000
 8005844:	f44f 6200 	mov.w	r2, #2048	; 0x800
 8005848:	f2c4 0200 	movt	r2, #16384	; 0x4000
 800584c:	8992      	ldrh	r2, [r2, #12]
 800584e:	b292      	uxth	r2, r2
 8005850:	f022 0201 	bic.w	r2, r2, #1
 8005854:	b292      	uxth	r2, r2
 8005856:	819a      	strh	r2, [r3, #12]
 8005858:	3708      	adds	r7, #8
 800585a:	46bd      	mov	sp, r7
 800585c:	bd80      	pop	{r7, pc}
 800585e:	bf00      	nop

08005860 <NVIC_EnableIRQ>:
 8005860:	b480      	push	{r7}
 8005862:	b083      	sub	sp, #12
 8005864:	af00      	add	r7, sp, #0
 8005866:	4603      	mov	r3, r0
 8005868:	71fb      	strb	r3, [r7, #7]
 800586a:	f44f 4361 	mov.w	r3, #57600	; 0xe100
 800586e:	f2ce 0300 	movt	r3, #57344	; 0xe000
 8005872:	f997 2007 	ldrsb.w	r2, [r7, #7]
 8005876:	0952      	lsrs	r2, r2, #5
 8005878:	79f9      	ldrb	r1, [r7, #7]
 800587a:	f001 011f 	and.w	r1, r1, #31
 800587e:	2001      	movs	r0, #1
 8005880:	fa00 f101 	lsl.w	r1, r0, r1
 8005884:	f843 1022 	str.w	r1, [r3, r2, lsl #2]
 8005888:	370c      	adds	r7, #12
 800588a:	46bd      	mov	sp, r7
 800588c:	f85d 7b04 	ldr.w	r7, [sp], #4
 8005890:	4770      	bx	lr
 8005892:	bf00      	nop

08005894 <NVIC_DisableIRQ>:
 8005894:	b480      	push	{r7}
 8005896:	b083      	sub	sp, #12
 8005898:	af00      	add	r7, sp, #0
 800589a:	4603      	mov	r3, r0
 800589c:	71fb      	strb	r3, [r7, #7]
 800589e:	f44f 4361 	mov.w	r3, #57600	; 0xe100
 80058a2:	f2ce 0300 	movt	r3, #57344	; 0xe000
 80058a6:	f997 2007 	ldrsb.w	r2, [r7, #7]
 80058aa:	0952      	lsrs	r2, r2, #5
 80058ac:	79f9      	ldrb	r1, [r7, #7]
 80058ae:	f001 011f 	and.w	r1, r1, #31
 80058b2:	2001      	movs	r0, #1
 80058b4:	fa00 f101 	lsl.w	r1, r0, r1
 80058b8:	3220      	adds	r2, #32
 80058ba:	f843 1022 	str.w	r1, [r3, r2, lsl #2]
 80058be:	370c      	adds	r7, #12
 80058c0:	46bd      	mov	sp, r7
 80058c2:	f85d 7b04 	ldr.w	r7, [sp], #4
 80058c6:	4770      	bx	lr

080058c8 <NVIC_ClearPendingIRQ>:
 80058c8:	b480      	push	{r7}
 80058ca:	b083      	sub	sp, #12
 80058cc:	af00      	add	r7, sp, #0
 80058ce:	4603      	mov	r3, r0
 80058d0:	71fb      	strb	r3, [r7, #7]
 80058d2:	f44f 4361 	mov.w	r3, #57600	; 0xe100
 80058d6:	f2ce 0300 	movt	r3, #57344	; 0xe000
 80058da:	f997 2007 	ldrsb.w	r2, [r7, #7]
 80058de:	0952      	lsrs	r2, r2, #5
 80058e0:	79f9      	ldrb	r1, [r7, #7]
 80058e2:	f001 011f 	and.w	r1, r1, #31
 80058e6:	2001      	movs	r0, #1
 80058e8:	fa00 f101 	lsl.w	r1, r0, r1
 80058ec:	3260      	adds	r2, #96	; 0x60
 80058ee:	f843 1022 	str.w	r1, [r3, r2, lsl #2]
 80058f2:	370c      	adds	r7, #12
 80058f4:	46bd      	mov	sp, r7
 80058f6:	f85d 7b04 	ldr.w	r7, [sp], #4
 80058fa:	4770      	bx	lr

080058fc <Uart1_Init>:
 80058fc:	b580      	push	{r7, lr}
 80058fe:	b086      	sub	sp, #24
 8005900:	af00      	add	r7, sp, #0
 8005902:	6078      	str	r0, [r7, #4]
 8005904:	f44f 5380 	mov.w	r3, #4096	; 0x1000
 8005908:	f2c4 0302 	movt	r3, #16386	; 0x4002
 800590c:	f44f 5280 	mov.w	r2, #4096	; 0x1000
 8005910:	f2c4 0202 	movt	r2, #16386	; 0x4002
 8005914:	6992      	ldr	r2, [r2, #24]
 8005916:	f042 0204 	orr.w	r2, r2, #4
 800591a:	619a      	str	r2, [r3, #24]
 800591c:	f44f 5380 	mov.w	r3, #4096	; 0x1000
 8005920:	f2c4 0302 	movt	r3, #16386	; 0x4002
 8005924:	f44f 5280 	mov.w	r2, #4096	; 0x1000
 8005928:	f2c4 0202 	movt	r2, #16386	; 0x4002
 800592c:	6992      	ldr	r2, [r2, #24]
 800592e:	f442 4280 	orr.w	r2, r2, #16384	; 0x4000
 8005932:	619a      	str	r2, [r3, #24]
 8005934:	f44f 6300 	mov.w	r3, #2048	; 0x800
 8005938:	f2c4 0301 	movt	r3, #16385	; 0x4001
 800593c:	f44f 6200 	mov.w	r2, #2048	; 0x800
 8005940:	f2c4 0201 	movt	r2, #16385	; 0x4001
 8005944:	6852      	ldr	r2, [r2, #4]
 8005946:	f422 627f 	bic.w	r2, r2, #4080	; 0xff0
 800594a:	f442 620a 	orr.w	r2, r2, #2208	; 0x8a0
 800594e:	605a      	str	r2, [r3, #4]
 8005950:	f44f 6300 	mov.w	r3, #2048	; 0x800
 8005954:	f2c4 0301 	movt	r3, #16385	; 0x4001
 8005958:	f44f 6200 	mov.w	r2, #2048	; 0x800
 800595c:	f2c4 0201 	movt	r2, #16385	; 0x4001
 8005960:	68d2      	ldr	r2, [r2, #12]
 8005962:	f442 6280 	orr.w	r2, r2, #1024	; 0x400
 8005966:	60da      	str	r2, [r3, #12]
 8005968:	6878      	ldr	r0, [r7, #4]
 800596a:	f005 fb6d 	bl	800b048 <__aeabi_i2d>
 800596e:	4602      	mov	r2, r0
 8005970:	460b      	mov	r3, r1
 8005972:	4610      	mov	r0, r2
 8005974:	4619      	mov	r1, r3
 8005976:	f04f 0200 	mov.w	r2, #0
 800597a:	f04f 0300 	mov.w	r3, #0
 800597e:	f2c4 0330 	movt	r3, #16432	; 0x4030
 8005982:	f005 fbc7 	bl	800b114 <__aeabi_dmul>
 8005986:	4602      	mov	r2, r0
 8005988:	460b      	mov	r3, r1
 800598a:	a133      	add	r1, pc, #204	; (adr r1, 8005a58 <Uart1_Init+0x15c>)
 800598c:	e9d1 0100 	ldrd	r0, r1, [r1]
 8005990:	f005 fcea 	bl	800b368 <__aeabi_ddiv>
 8005994:	4602      	mov	r2, r0
 8005996:	460b      	mov	r3, r1
 8005998:	e9c7 2304 	strd	r2, r3, [r7, #16]
 800599c:	e9d7 0104 	ldrd	r0, r1, [r7, #16]
 80059a0:	f005 fe52 	bl	800b648 <__aeabi_d2iz>
 80059a4:	4603      	mov	r3, r0
 80059a6:	60fb      	str	r3, [r7, #12]
 80059a8:	68f8      	ldr	r0, [r7, #12]
 80059aa:	f005 fb3d 	bl	800b028 <__aeabi_ui2d>
 80059ae:	4602      	mov	r2, r0
 80059b0:	460b      	mov	r3, r1
 80059b2:	e9d7 0104 	ldrd	r0, r1, [r7, #16]
 80059b6:	f005 f9f9 	bl	800adac <__aeabi_dsub>
 80059ba:	4602      	mov	r2, r0
 80059bc:	460b      	mov	r3, r1
 80059be:	4610      	mov	r0, r2
 80059c0:	4619      	mov	r1, r3
 80059c2:	f04f 0200 	mov.w	r2, #0
 80059c6:	f04f 0300 	mov.w	r3, #0
 80059ca:	f2c4 0330 	movt	r3, #16432	; 0x4030
 80059ce:	f005 fba1 	bl	800b114 <__aeabi_dmul>
 80059d2:	4602      	mov	r2, r0
 80059d4:	460b      	mov	r3, r1
 80059d6:	4610      	mov	r0, r2
 80059d8:	4619      	mov	r1, r3
 80059da:	f04f 0200 	mov.w	r2, #0
 80059de:	f04f 0300 	mov.w	r3, #0
 80059e2:	f6c3 73e0 	movt	r3, #16352	; 0x3fe0
 80059e6:	f005 f9e3 	bl	800adb0 <__adddf3>
 80059ea:	4602      	mov	r2, r0
 80059ec:	460b      	mov	r3, r1
 80059ee:	4610      	mov	r0, r2
 80059f0:	4619      	mov	r1, r3
 80059f2:	f005 fe29 	bl	800b648 <__aeabi_d2iz>
 80059f6:	4603      	mov	r3, r0
 80059f8:	60bb      	str	r3, [r7, #8]
 80059fa:	68bb      	ldr	r3, [r7, #8]
 80059fc:	091b      	lsrs	r3, r3, #4
 80059fe:	68fa      	ldr	r2, [r7, #12]
 8005a00:	4413      	add	r3, r2
 8005a02:	60fb      	str	r3, [r7, #12]
 8005a04:	68bb      	ldr	r3, [r7, #8]
 8005a06:	f003 030f 	and.w	r3, r3, #15
 8005a0a:	60bb      	str	r3, [r7, #8]
 8005a0c:	f44f 5360 	mov.w	r3, #14336	; 0x3800
 8005a10:	f2c4 0301 	movt	r3, #16385	; 0x4001
 8005a14:	68fa      	ldr	r2, [r7, #12]
 8005a16:	b292      	uxth	r2, r2
 8005a18:	0112      	lsls	r2, r2, #4
 8005a1a:	b291      	uxth	r1, r2
 8005a1c:	68ba      	ldr	r2, [r7, #8]
 8005a1e:	b292      	uxth	r2, r2
 8005a20:	440a      	add	r2, r1
 8005a22:	b292      	uxth	r2, r2
 8005a24:	811a      	strh	r2, [r3, #8]
 8005a26:	f44f 5360 	mov.w	r3, #14336	; 0x3800
 8005a2a:	f2c4 0301 	movt	r3, #16385	; 0x4001
 8005a2e:	f242 020c 	movw	r2, #8204	; 0x200c
 8005a32:	819a      	strh	r2, [r3, #12]
 8005a34:	f44f 5360 	mov.w	r3, #14336	; 0x3800
 8005a38:	f2c4 0301 	movt	r3, #16385	; 0x4001
 8005a3c:	2200      	movs	r2, #0
 8005a3e:	821a      	strh	r2, [r3, #16]
 8005a40:	f44f 5360 	mov.w	r3, #14336	; 0x3800
 8005a44:	f2c4 0301 	movt	r3, #16385	; 0x4001
 8005a48:	2200      	movs	r2, #0
 8005a4a:	829a      	strh	r2, [r3, #20]
 8005a4c:	3718      	adds	r7, #24
 8005a4e:	46bd      	mov	sp, r7
 8005a50:	bd80      	pop	{r7, pc}
 8005a52:	bf00      	nop
 8005a54:	f3af 8000 	nop.w
 8005a58:	00000000 	andeq	r0, r0, r0
 8005a5c:	41912a88 	orrsmi	r2, r1, r8, lsl #21

08005a60 <Uart1_Send_Byte>:
 8005a60:	b480      	push	{r7}
 8005a62:	b083      	sub	sp, #12
 8005a64:	af00      	add	r7, sp, #0
 8005a66:	4603      	mov	r3, r0
 8005a68:	71fb      	strb	r3, [r7, #7]
 8005a6a:	79fb      	ldrb	r3, [r7, #7]
 8005a6c:	2b0a      	cmp	r3, #10
 8005a6e:	d113      	bne.n	8005a98 <Uart1_Send_Byte+0x38>
 8005a70:	bf00      	nop
 8005a72:	f44f 5360 	mov.w	r3, #14336	; 0x3800
 8005a76:	f2c4 0301 	movt	r3, #16385	; 0x4001
 8005a7a:	881b      	ldrh	r3, [r3, #0]
 8005a7c:	b29b      	uxth	r3, r3
 8005a7e:	09db      	lsrs	r3, r3, #7
 8005a80:	b29b      	uxth	r3, r3
 8005a82:	f003 0301 	and.w	r3, r3, #1
 8005a86:	2b00      	cmp	r3, #0
 8005a88:	d0f3      	beq.n	8005a72 <Uart1_Send_Byte+0x12>
 8005a8a:	f44f 5360 	mov.w	r3, #14336	; 0x3800
 8005a8e:	f2c4 0301 	movt	r3, #16385	; 0x4001
 8005a92:	220d      	movs	r2, #13
 8005a94:	809a      	strh	r2, [r3, #4]
 8005a96:	e7ff      	b.n	8005a98 <Uart1_Send_Byte+0x38>
 8005a98:	bf00      	nop
 8005a9a:	f44f 5360 	mov.w	r3, #14336	; 0x3800
 8005a9e:	f2c4 0301 	movt	r3, #16385	; 0x4001
 8005aa2:	881b      	ldrh	r3, [r3, #0]
 8005aa4:	b29b      	uxth	r3, r3
 8005aa6:	09db      	lsrs	r3, r3, #7
 8005aa8:	b29b      	uxth	r3, r3
 8005aaa:	f003 0301 	and.w	r3, r3, #1
 8005aae:	2b00      	cmp	r3, #0
 8005ab0:	d0f3      	beq.n	8005a9a <Uart1_Send_Byte+0x3a>
 8005ab2:	f44f 5360 	mov.w	r3, #14336	; 0x3800
 8005ab6:	f2c4 0301 	movt	r3, #16385	; 0x4001
 8005aba:	79fa      	ldrb	r2, [r7, #7]
 8005abc:	b292      	uxth	r2, r2
 8005abe:	809a      	strh	r2, [r3, #4]
 8005ac0:	370c      	adds	r7, #12
 8005ac2:	46bd      	mov	sp, r7
 8005ac4:	f85d 7b04 	ldr.w	r7, [sp], #4
 8005ac8:	4770      	bx	lr
 8005aca:	bf00      	nop

08005acc <Uart1_Send_String>:
 8005acc:	b580      	push	{r7, lr}
 8005ace:	b082      	sub	sp, #8
 8005ad0:	af00      	add	r7, sp, #0
 8005ad2:	6078      	str	r0, [r7, #4]
 8005ad4:	e006      	b.n	8005ae4 <Uart1_Send_String+0x18>
 8005ad6:	687b      	ldr	r3, [r7, #4]
 8005ad8:	1c5a      	adds	r2, r3, #1
 8005ada:	607a      	str	r2, [r7, #4]
 8005adc:	781b      	ldrb	r3, [r3, #0]
 8005ade:	4618      	mov	r0, r3
 8005ae0:	f7ff ffbe 	bl	8005a60 <Uart1_Send_Byte>
 8005ae4:	687b      	ldr	r3, [r7, #4]
 8005ae6:	781b      	ldrb	r3, [r3, #0]
 8005ae8:	2b00      	cmp	r3, #0
 8005aea:	d1f4      	bne.n	8005ad6 <Uart1_Send_String+0xa>
 8005aec:	3708      	adds	r7, #8
 8005aee:	46bd      	mov	sp, r7
 8005af0:	bd80      	pop	{r7, pc}
 8005af2:	bf00      	nop

08005af4 <Uart1_Printf>:
 8005af4:	b40f      	push	{r0, r1, r2, r3}
 8005af6:	b580      	push	{r7, lr}
 8005af8:	b0a2      	sub	sp, #136	; 0x88
 8005afa:	af00      	add	r7, sp, #0
 8005afc:	f107 0394 	add.w	r3, r7, #148	; 0x94
 8005b00:	f8c7 3084 	str.w	r3, [r7, #132]	; 0x84
 8005b04:	1d3b      	adds	r3, r7, #4
 8005b06:	4618      	mov	r0, r3
 8005b08:	f8d7 1090 	ldr.w	r1, [r7, #144]	; 0x90
 8005b0c:	f8d7 2084 	ldr.w	r2, [r7, #132]	; 0x84
 8005b10:	f000 f8f0 	bl	8005cf4 <vsprintf>
 8005b14:	1d3b      	adds	r3, r7, #4
 8005b16:	4618      	mov	r0, r3
 8005b18:	f7ff ffd8 	bl	8005acc <Uart1_Send_String>
 8005b1c:	3788      	adds	r7, #136	; 0x88
 8005b1e:	46bd      	mov	sp, r7
 8005b20:	e8bd 4080 	ldmia.w	sp!, {r7, lr}
 8005b24:	b004      	add	sp, #16
 8005b26:	4770      	bx	lr

08005b28 <Uart1_RX_Interrupt_Enable>:
 8005b28:	b580      	push	{r7, lr}
 8005b2a:	b082      	sub	sp, #8
 8005b2c:	af00      	add	r7, sp, #0
 8005b2e:	6078      	str	r0, [r7, #4]
 8005b30:	687b      	ldr	r3, [r7, #4]
 8005b32:	2b00      	cmp	r3, #0
 8005b34:	d014      	beq.n	8005b60 <Uart1_RX_Interrupt_Enable+0x38>
 8005b36:	f44f 5360 	mov.w	r3, #14336	; 0x3800
 8005b3a:	f2c4 0301 	movt	r3, #16385	; 0x4001
 8005b3e:	f44f 5260 	mov.w	r2, #14336	; 0x3800
 8005b42:	f2c4 0201 	movt	r2, #16385	; 0x4001
 8005b46:	8992      	ldrh	r2, [r2, #12]
 8005b48:	b292      	uxth	r2, r2
 8005b4a:	f042 0220 	orr.w	r2, r2, #32
 8005b4e:	b292      	uxth	r2, r2
 8005b50:	819a      	strh	r2, [r3, #12]
 8005b52:	2025      	movs	r0, #37	; 0x25
 8005b54:	f7ff feb8 	bl	80058c8 <NVIC_ClearPendingIRQ>
 8005b58:	2025      	movs	r0, #37	; 0x25
 8005b5a:	f7ff fe81 	bl	8005860 <NVIC_EnableIRQ>
 8005b5e:	e010      	b.n	8005b82 <Uart1_RX_Interrupt_Enable+0x5a>
 8005b60:	f44f 5360 	mov.w	r3, #14336	; 0x3800
 8005b64:	f2c4 0301 	movt	r3, #16385	; 0x4001
 8005b68:	f44f 5260 	mov.w	r2, #14336	; 0x3800
 8005b6c:	f2c4 0201 	movt	r2, #16385	; 0x4001
 8005b70:	8992      	ldrh	r2, [r2, #12]
 8005b72:	b292      	uxth	r2, r2
 8005b74:	f022 0220 	bic.w	r2, r2, #32
 8005b78:	b292      	uxth	r2, r2
 8005b7a:	819a      	strh	r2, [r3, #12]
 8005b7c:	2025      	movs	r0, #37	; 0x25
 8005b7e:	f7ff fe89 	bl	8005894 <NVIC_DisableIRQ>
 8005b82:	3708      	adds	r7, #8
 8005b84:	46bd      	mov	sp, r7
 8005b86:	bd80      	pop	{r7, pc}

08005b88 <__get_IPSR>:
 8005b88:	f3ef 8005 	mrs	r0, IPSR
 8005b8c:	4770      	bx	lr

08005b8e <_Print_Reg>:
 8005b8e:	e92d 5fff 	stmdb	sp!, {r0, r1, r2, r3, r4, r5, r6, r7, r8, r9, sl, fp, ip, lr}
 8005b92:	f3ef 8103 	mrs	r1, PSR
 8005b96:	b403      	push	{r0, r1}
 8005b98:	f04f 060e 	mov.w	r6, #14
 8005b9c:	f04f 0404 	mov.w	r4, #4
 8005ba0:	4d33      	ldr	r5, [pc, #204]	; (8005c70 <_UsageFault_Handler+0x14>)

08005ba2 <_loop>:
 8005ba2:	4834      	ldr	r0, [pc, #208]	; (8005c74 <_UsageFault_Handler+0x18>)
 8005ba4:	4629      	mov	r1, r5
 8005ba6:	f85d 2004 	ldr.w	r2, [sp, r4]
 8005baa:	f7ff ffa3 	bl	8005af4 <Uart1_Printf>
 8005bae:	f104 0404 	add.w	r4, r4, #4
 8005bb2:	f105 0504 	add.w	r5, r5, #4
 8005bb6:	3e01      	subs	r6, #1
 8005bb8:	dcf3      	bgt.n	8005ba2 <_loop>
 8005bba:	482e      	ldr	r0, [pc, #184]	; (8005c74 <_UsageFault_Handler+0x18>)
 8005bbc:	4629      	mov	r1, r5
 8005bbe:	f3ef 8209 	mrs	r2, PSP
 8005bc2:	f7ff ff97 	bl	8005af4 <Uart1_Printf>
 8005bc6:	bc03      	pop	{r0, r1}
 8005bc8:	f381 8800 	msr	CPSR_f, r1
 8005bcc:	f381 8807 	msr	IEPSR, r1
 8005bd0:	e8bd 9fff 	ldmia.w	sp!, {r0, r1, r2, r3, r4, r5, r6, r7, r8, r9, sl, fp, ip, pc}

08005bd4 <fmt>:
 8005bd4:	3a207325 	bcc	8822870 <__RW_LOAD_ADDR__+0x816618>
 8005bd8:	25783020 	ldrbcs	r3, [r8, #-32]!	; 0xffffffe0
 8005bdc:	0a58382e 	beq	9613c9c <__RW_LOAD_ADDR__+0x1607a44>
	...

08005be1 <_PSR>:
 8005be1:	00525350 	subseq	r5, r2, r0, asr r3

08005be5 <_r0>:
 8005be5:	00303052 	eorseq	r3, r0, r2, asr r0

08005be9 <_r1>:
 8005be9:	00313052 	eorseq	r3, r1, r2, asr r0

08005bed <_r2>:
 8005bed:	00323052 	eorseq	r3, r2, r2, asr r0

08005bf1 <_r3>:
 8005bf1:	00333052 	eorseq	r3, r3, r2, asr r0

08005bf5 <_r4>:
 8005bf5:	00343052 	eorseq	r3, r4, r2, asr r0

08005bf9 <_r5>:
 8005bf9:	00353052 	eorseq	r3, r5, r2, asr r0

08005bfd <_r6>:
 8005bfd:	00363052 	eorseq	r3, r6, r2, asr r0

08005c01 <_r7>:
 8005c01:	00373052 	eorseq	r3, r7, r2, asr r0

08005c05 <_r8>:
 8005c05:	00383052 	eorseq	r3, r8, r2, asr r0

08005c09 <_r9>:
 8005c09:	00393052 	eorseq	r3, r9, r2, asr r0

08005c0d <_r10>:
 8005c0d:	00303152 	eorseq	r3, r0, r2, asr r1

08005c11 <_r11>:
 8005c11:	00313152 	eorseq	r3, r1, r2, asr r1

08005c15 <_r12>:
 8005c15:	00323152 	eorseq	r3, r2, r2, asr r1

08005c19 <_PSP>:
 8005c19:	00505350 	subseq	r5, r0, r0, asr r3
 8005c1d:	01bf0000 			; <UNDEFINED> instruction: 0x01bf0000

08005c20 <_HardFault_Handler>:
 8005c20:	b501      	push	{r0, lr}
 8005c22:	f7ff ffb4 	bl	8005b8e <_Print_Reg>
 8005c26:	a802      	add	r0, sp, #8
 8005c28:	9901      	ldr	r1, [sp, #4]
 8005c2a:	f3ef 8209 	mrs	r2, PSP
 8005c2e:	f7ff fa8b 	bl	8005148 <HardFault_Handler>
 8005c32:	bd01      	pop	{r0, pc}

08005c34 <_MemManage_Handler>:
 8005c34:	b501      	push	{r0, lr}
 8005c36:	f7ff ffaa 	bl	8005b8e <_Print_Reg>
 8005c3a:	a802      	add	r0, sp, #8
 8005c3c:	9901      	ldr	r1, [sp, #4]
 8005c3e:	f3ef 8209 	mrs	r2, PSP
 8005c42:	f7ff fad5 	bl	80051f0 <MemManage_Handler>
 8005c46:	bd01      	pop	{r0, pc}

08005c48 <_BusFault_Handler>:
 8005c48:	b501      	push	{r0, lr}
 8005c4a:	f7ff ffa0 	bl	8005b8e <_Print_Reg>
 8005c4e:	a802      	add	r0, sp, #8
 8005c50:	9901      	ldr	r1, [sp, #4]
 8005c52:	f3ef 8209 	mrs	r2, PSP
 8005c56:	f7ff faf9 	bl	800524c <BusFault_Handler>
 8005c5a:	bd01      	pop	{r0, pc}

08005c5c <_UsageFault_Handler>:
 8005c5c:	b501      	push	{r0, lr}
 8005c5e:	f7ff ff96 	bl	8005b8e <_Print_Reg>
 8005c62:	a802      	add	r0, sp, #8
 8005c64:	9901      	ldr	r1, [sp, #4]
 8005c66:	f3ef 8209 	mrs	r2, PSP
 8005c6a:	f7ff fb1d 	bl	80052a8 <UsageFault_Handler>
 8005c6e:	bd01      	pop	{r0, pc}
 8005c70:	08005be1 	stmdaeq	r0, {r0, r5, r6, r7, r8, r9, fp, ip, lr}
 8005c74:	08005bd4 	stmdaeq	r0, {r2, r4, r6, r7, r8, r9, fp, ip, lr}
	...

08005c80 <PendSV_Handler>:
 8005c80:	f3ef 8009 	mrs	r0, PSP
 8005c84:	e920 0ff0 	stmdb	r0!, {r4, r5, r6, r7, r8, r9, sl, fp}
 8005c88:	490a      	ldr	r1, [pc, #40]	; (8005cb4 <_OS_Start_First_Task+0x4>)
 8005c8a:	680a      	ldr	r2, [r1, #0]
 8005c8c:	6010      	str	r0, [r2, #0]
 8005c8e:	b51f      	push	{r0, r1, r2, r3, r4, lr}
 8005c90:	f7fd fbe2 	bl	8003458 <OS_Scheduler>
 8005c94:	e8bd 401f 	ldmia.w	sp!, {r0, r1, r2, r3, r4, lr}
 8005c98:	f000 b800 	b.w	8005c9c <SVC_Handler>

08005c9c <SVC_Handler>:
 8005c9c:	4b05      	ldr	r3, [pc, #20]	; (8005cb4 <_OS_Start_First_Task+0x4>)
 8005c9e:	6819      	ldr	r1, [r3, #0]
 8005ca0:	6808      	ldr	r0, [r1, #0]
 8005ca2:	e8b0 0ff0 	ldmia.w	r0!, {r4, r5, r6, r7, r8, r9, sl, fp}
 8005ca6:	f380 8809 	msr	PSP, r0
 8005caa:	f04e 0e0d 	orr.w	lr, lr, #13
 8005cae:	4770      	bx	lr

08005cb0 <_OS_Start_First_Task>:
 8005cb0:	df00      	svc	0
 8005cb2:	4770      	bx	lr
 8005cb4:	20002ce0 	andcs	r2, r0, r0, ror #25
 8005cb8:	f3af 8000 	nop.w
 8005cbc:	f3af 8000 	nop.w

08005cc0 <_vsprintf_r>:
 8005cc0:	b530      	push	{r4, r5, lr}
 8005cc2:	b09b      	sub	sp, #108	; 0x6c
 8005cc4:	460c      	mov	r4, r1
 8005cc6:	4669      	mov	r1, sp
 8005cc8:	9400      	str	r4, [sp, #0]
 8005cca:	f44f 7502 	mov.w	r5, #520	; 0x208
 8005cce:	9404      	str	r4, [sp, #16]
 8005cd0:	f06f 4400 	mvn.w	r4, #2147483648	; 0x80000000
 8005cd4:	f8ad 500c 	strh.w	r5, [sp, #12]
 8005cd8:	f64f 75ff 	movw	r5, #65535	; 0xffff
 8005cdc:	9402      	str	r4, [sp, #8]
 8005cde:	9405      	str	r4, [sp, #20]
 8005ce0:	f8ad 500e 	strh.w	r5, [sp, #14]
 8005ce4:	f000 f814 	bl	8005d10 <_svfprintf_r>
 8005ce8:	9b00      	ldr	r3, [sp, #0]
 8005cea:	2200      	movs	r2, #0
 8005cec:	701a      	strb	r2, [r3, #0]
 8005cee:	b01b      	add	sp, #108	; 0x6c
 8005cf0:	bd30      	pop	{r4, r5, pc}
 8005cf2:	bf00      	nop

08005cf4 <vsprintf>:
 8005cf4:	b430      	push	{r4, r5}
 8005cf6:	f240 0440 	movw	r4, #64	; 0x40
 8005cfa:	f2c2 0400 	movt	r4, #8192	; 0x2000
 8005cfe:	460d      	mov	r5, r1
 8005d00:	4613      	mov	r3, r2
 8005d02:	4601      	mov	r1, r0
 8005d04:	462a      	mov	r2, r5
 8005d06:	6820      	ldr	r0, [r4, #0]
 8005d08:	bc30      	pop	{r4, r5}
 8005d0a:	f7ff bfd9 	b.w	8005cc0 <_vsprintf_r>
 8005d0e:	bf00      	nop

08005d10 <_svfprintf_r>:
 8005d10:	e92d 4ff0 	stmdb	sp!, {r4, r5, r6, r7, r8, r9, sl, fp, lr}
 8005d14:	b0c9      	sub	sp, #292	; 0x124
 8005d16:	4691      	mov	r9, r2
 8005d18:	9314      	str	r3, [sp, #80]	; 0x50
 8005d1a:	910b      	str	r1, [sp, #44]	; 0x2c
 8005d1c:	900e      	str	r0, [sp, #56]	; 0x38
 8005d1e:	f002 fafb 	bl	8008318 <_localeconv_r>
 8005d22:	6800      	ldr	r0, [r0, #0]
 8005d24:	901a      	str	r0, [sp, #104]	; 0x68
 8005d26:	f003 fc67 	bl	80095f8 <strlen>
 8005d2a:	9c0b      	ldr	r4, [sp, #44]	; 0x2c
 8005d2c:	89a3      	ldrh	r3, [r4, #12]
 8005d2e:	901d      	str	r0, [sp, #116]	; 0x74
 8005d30:	0618      	lsls	r0, r3, #24
 8005d32:	d503      	bpl.n	8005d3c <_svfprintf_r+0x2c>
 8005d34:	6923      	ldr	r3, [r4, #16]
 8005d36:	2b00      	cmp	r3, #0
 8005d38:	f001 8079 	beq.w	8006e2e <_svfprintf_r+0x111e>
 8005d3c:	f24c 0588 	movw	r5, #49288	; 0xc088
 8005d40:	ac38      	add	r4, sp, #224	; 0xe0
 8005d42:	f6c0 0500 	movt	r5, #2048	; 0x800
 8005d46:	9515      	str	r5, [sp, #84]	; 0x54
 8005d48:	f10d 05df 	add.w	r5, sp, #223	; 0xdf
 8005d4c:	9508      	str	r5, [sp, #32]
 8005d4e:	9d15      	ldr	r5, [sp, #84]	; 0x54
 8005d50:	af38      	add	r7, sp, #224	; 0xe0
 8005d52:	9409      	str	r4, [sp, #36]	; 0x24
 8005d54:	f24c 2434 	movw	r4, #49716	; 0xc234
 8005d58:	f105 0610 	add.w	r6, r5, #16
 8005d5c:	9d08      	ldr	r5, [sp, #32]
 8005d5e:	2300      	movs	r3, #0
 8005d60:	f6c0 0400 	movt	r4, #2048	; 0x800
 8005d64:	9311      	str	r3, [sp, #68]	; 0x44
 8005d66:	9417      	str	r4, [sp, #92]	; 0x5c
 8005d68:	1b7c      	subs	r4, r7, r5
 8005d6a:	931b      	str	r3, [sp, #108]	; 0x6c
 8005d6c:	931c      	str	r3, [sp, #112]	; 0x70
 8005d6e:	9319      	str	r3, [sp, #100]	; 0x64
 8005d70:	931e      	str	r3, [sp, #120]	; 0x78
 8005d72:	9312      	str	r3, [sp, #72]	; 0x48
 8005d74:	9421      	str	r4, [sp, #132]	; 0x84
 8005d76:	932d      	str	r3, [sp, #180]	; 0xb4
 8005d78:	932c      	str	r3, [sp, #176]	; 0xb0
 8005d7a:	972b      	str	r7, [sp, #172]	; 0xac
 8005d7c:	f899 3000 	ldrb.w	r3, [r9]
 8005d80:	2b25      	cmp	r3, #37	; 0x25
 8005d82:	bf18      	it	ne
 8005d84:	2b00      	cmpne	r3, #0
 8005d86:	f000 80b3 	beq.w	8005ef0 <_svfprintf_r+0x1e0>
 8005d8a:	f109 0201 	add.w	r2, r9, #1
 8005d8e:	4614      	mov	r4, r2
 8005d90:	3201      	adds	r2, #1
 8005d92:	7823      	ldrb	r3, [r4, #0]
 8005d94:	2b25      	cmp	r3, #37	; 0x25
 8005d96:	bf18      	it	ne
 8005d98:	2b00      	cmpne	r3, #0
 8005d9a:	d1f8      	bne.n	8005d8e <_svfprintf_r+0x7e>
 8005d9c:	ebb4 0509 	subs.w	r5, r4, r9
 8005da0:	d00f      	beq.n	8005dc2 <_svfprintf_r+0xb2>
 8005da2:	9b2c      	ldr	r3, [sp, #176]	; 0xb0
 8005da4:	9a2d      	ldr	r2, [sp, #180]	; 0xb4
 8005da6:	3301      	adds	r3, #1
 8005da8:	f8c7 9000 	str.w	r9, [r7]
 8005dac:	2b07      	cmp	r3, #7
 8005dae:	607d      	str	r5, [r7, #4]
 8005db0:	442a      	add	r2, r5
 8005db2:	932c      	str	r3, [sp, #176]	; 0xb0
 8005db4:	922d      	str	r2, [sp, #180]	; 0xb4
 8005db6:	bfd8      	it	le
 8005db8:	3708      	addle	r7, #8
 8005dba:	dc7f      	bgt.n	8005ebc <_svfprintf_r+0x1ac>
 8005dbc:	9812      	ldr	r0, [sp, #72]	; 0x48
 8005dbe:	4428      	add	r0, r5
 8005dc0:	9012      	str	r0, [sp, #72]	; 0x48
 8005dc2:	7823      	ldrb	r3, [r4, #0]
 8005dc4:	2b00      	cmp	r3, #0
 8005dc6:	f000 8081 	beq.w	8005ecc <_svfprintf_r+0x1bc>
 8005dca:	2300      	movs	r3, #0
 8005dcc:	f88d 308f 	strb.w	r3, [sp, #143]	; 0x8f
 8005dd0:	461a      	mov	r2, r3
 8005dd2:	9313      	str	r3, [sp, #76]	; 0x4c
 8005dd4:	930a      	str	r3, [sp, #40]	; 0x28
 8005dd6:	f104 0901 	add.w	r9, r4, #1
 8005dda:	7863      	ldrb	r3, [r4, #1]
 8005ddc:	f04f 34ff 	mov.w	r4, #4294967295
 8005de0:	940c      	str	r4, [sp, #48]	; 0x30
 8005de2:	f109 0901 	add.w	r9, r9, #1
 8005de6:	f1a3 0120 	sub.w	r1, r3, #32
 8005dea:	2958      	cmp	r1, #88	; 0x58
 8005dec:	f200 840a 	bhi.w	8006604 <_svfprintf_r+0x8f4>
 8005df0:	e8df f011 	tbh	[pc, r1, lsl #1]
 8005df4:	0408038e 	streq	r0, [r8], #-910	; 0xfffffc72
 8005df8:	03950408 	orrseq	r0, r5, #8, 8	; 0x8000000
 8005dfc:	04080408 	streq	r0, [r8], #-1032	; 0xfffffbf8
 8005e00:	04080408 	streq	r0, [r8], #-1032	; 0xfffffbf8
 8005e04:	04080408 	streq	r0, [r8], #-1032	; 0xfffffbf8
 8005e08:	0348039c 	movteq	r0, #33692	; 0x839c
 8005e0c:	005d0408 	subseq	r0, sp, r8, lsl #8
 8005e10:	04080235 	streq	r0, [r8], #-565	; 0xfffffdcb
 8005e14:	03f603ef 	mvnseq	r0, #-1140850685	; 0xbc000003
 8005e18:	03f603f6 	mvnseq	r0, #-671088637	; 0xd8000003
 8005e1c:	03f603f6 	mvnseq	r0, #-671088637	; 0xd8000003
 8005e20:	03f603f6 	mvnseq	r0, #-671088637	; 0xd8000003
 8005e24:	03f603f6 	mvnseq	r0, #-671088637	; 0xd8000003
 8005e28:	04080408 	streq	r0, [r8], #-1032	; 0xfffffbf8
 8005e2c:	04080408 	streq	r0, [r8], #-1032	; 0xfffffbf8
 8005e30:	04080408 	streq	r0, [r8], #-1032	; 0xfffffbf8
 8005e34:	04080408 	streq	r0, [r8], #-1032	; 0xfffffbf8
 8005e38:	04080408 	streq	r0, [r8], #-1032	; 0xfffffbf8
 8005e3c:	0290026e 	addseq	r0, r0, #-536870906	; 0xe0000006
 8005e40:	02900408 	addseq	r0, r0, #8, 8	; 0x8000000
 8005e44:	04080408 	streq	r0, [r8], #-1032	; 0xfffffbf8
 8005e48:	04080408 	streq	r0, [r8], #-1032	; 0xfffffbf8
 8005e4c:	040802cd 	streq	r0, [r8], #-717	; 0xfffffd33
 8005e50:	02d40408 	sbcseq	r0, r4, #8, 8	; 0x8000000
 8005e54:	04080408 	streq	r0, [r8], #-1032	; 0xfffffbf8
 8005e58:	04080408 	streq	r0, [r8], #-1032	; 0xfffffbf8
 8005e5c:	02550408 	subseq	r0, r5, #8, 8	; 0x8000000
 8005e60:	04080408 	streq	r0, [r8], #-1032	; 0xfffffbf8
 8005e64:	040803bc 	streq	r0, [r8], #-956	; 0xfffffc44
 8005e68:	04080408 	streq	r0, [r8], #-1032	; 0xfffffbf8
 8005e6c:	04080408 	streq	r0, [r8], #-1032	; 0xfffffbf8
 8005e70:	04080408 	streq	r0, [r8], #-1032	; 0xfffffbf8
 8005e74:	04080408 	streq	r0, [r8], #-1032	; 0xfffffbf8
 8005e78:	03a80408 			; <UNDEFINED> instruction: 0x03a80408
 8005e7c:	029003d7 	addseq	r0, r0, #1543503875	; 0x5c000003
 8005e80:	02900290 	addseq	r0, r0, #144, 4
 8005e84:	03d70387 	bicseq	r0, r7, #469762050	; 0x1c000002
 8005e88:	04080408 	streq	r0, [r8], #-1032	; 0xfffffbf8
 8005e8c:	0408034c 	streq	r0, [r8], #-844	; 0xfffffcb4
 8005e90:	0224035e 	eoreq	r0, r4, #2013265921	; 0x78000001
 8005e94:	02f00370 	rscseq	r0, r0, #112, 6	; 0xc0000001
 8005e98:	02f70408 	rscseq	r0, r7, #8, 8	; 0x8000000
 8005e9c:	00800408 	addeq	r0, r0, r8, lsl #8
 8005ea0:	04080408 	streq	r0, [r8], #-1032	; 0xfffffbf8
 8005ea4:	9c130320 	ldcls	3, cr0, [r3], {32}
 8005ea8:	9314      	str	r3, [sp, #80]	; 0x50
 8005eaa:	4264      	negs	r4, r4
 8005eac:	9413      	str	r4, [sp, #76]	; 0x4c
 8005eae:	9d0a      	ldr	r5, [sp, #40]	; 0x28
 8005eb0:	f045 0504 	orr.w	r5, r5, #4
 8005eb4:	950a      	str	r5, [sp, #40]	; 0x28
 8005eb6:	f899 3000 	ldrb.w	r3, [r9]
 8005eba:	e792      	b.n	8005de2 <_svfprintf_r+0xd2>
 8005ebc:	980e      	ldr	r0, [sp, #56]	; 0x38
 8005ebe:	aa2b      	add	r2, sp, #172	; 0xac
 8005ec0:	990b      	ldr	r1, [sp, #44]	; 0x2c
 8005ec2:	f003 fbc9 	bl	8009658 <__ssprint_r>
 8005ec6:	b940      	cbnz	r0, 8005eda <_svfprintf_r+0x1ca>
 8005ec8:	af38      	add	r7, sp, #224	; 0xe0
 8005eca:	e777      	b.n	8005dbc <_svfprintf_r+0xac>
 8005ecc:	9b2d      	ldr	r3, [sp, #180]	; 0xb4
 8005ece:	b123      	cbz	r3, 8005eda <_svfprintf_r+0x1ca>
 8005ed0:	980e      	ldr	r0, [sp, #56]	; 0x38
 8005ed2:	aa2b      	add	r2, sp, #172	; 0xac
 8005ed4:	990b      	ldr	r1, [sp, #44]	; 0x2c
 8005ed6:	f003 fbbf 	bl	8009658 <__ssprint_r>
 8005eda:	9c0b      	ldr	r4, [sp, #44]	; 0x2c
 8005edc:	9812      	ldr	r0, [sp, #72]	; 0x48
 8005ede:	89a3      	ldrh	r3, [r4, #12]
 8005ee0:	f013 0f40 	tst.w	r3, #64	; 0x40
 8005ee4:	bf18      	it	ne
 8005ee6:	f04f 30ff 	movne.w	r0, #4294967295
 8005eea:	b049      	add	sp, #292	; 0x124
 8005eec:	e8bd 8ff0 	ldmia.w	sp!, {r4, r5, r6, r7, r8, r9, sl, fp, pc}
 8005ef0:	464c      	mov	r4, r9
 8005ef2:	e766      	b.n	8005dc2 <_svfprintf_r+0xb2>
 8005ef4:	9c0a      	ldr	r4, [sp, #40]	; 0x28
 8005ef6:	9316      	str	r3, [sp, #88]	; 0x58
 8005ef8:	06a3      	lsls	r3, r4, #26
 8005efa:	f140 81d9 	bpl.w	80062b0 <_svfprintf_r+0x5a0>
 8005efe:	9d14      	ldr	r5, [sp, #80]	; 0x50
 8005f00:	2301      	movs	r3, #1
 8005f02:	1dea      	adds	r2, r5, #7
 8005f04:	f022 0207 	bic.w	r2, r2, #7
 8005f08:	f102 0408 	add.w	r4, r2, #8
 8005f0c:	9414      	str	r4, [sp, #80]	; 0x50
 8005f0e:	e9d2 4500 	ldrd	r4, r5, [r2]
 8005f12:	f04f 0a00 	mov.w	sl, #0
 8005f16:	f88d a08f 	strb.w	sl, [sp, #143]	; 0x8f
 8005f1a:	980c      	ldr	r0, [sp, #48]	; 0x30
 8005f1c:	2800      	cmp	r0, #0
 8005f1e:	980c      	ldr	r0, [sp, #48]	; 0x30
 8005f20:	bfa2      	ittt	ge
 8005f22:	990a      	ldrge	r1, [sp, #40]	; 0x28
 8005f24:	f021 0180 	bicge.w	r1, r1, #128	; 0x80
 8005f28:	910a      	strge	r1, [sp, #40]	; 0x28
 8005f2a:	ea54 0205 	orrs.w	r2, r4, r5
 8005f2e:	bf0c      	ite	eq
 8005f30:	2200      	moveq	r2, #0
 8005f32:	2201      	movne	r2, #1
 8005f34:	2800      	cmp	r0, #0
 8005f36:	bf18      	it	ne
 8005f38:	f042 0201 	orrne.w	r2, r2, #1
 8005f3c:	2a00      	cmp	r2, #0
 8005f3e:	f000 83e5 	beq.w	800670c <_svfprintf_r+0x9fc>
 8005f42:	2b01      	cmp	r3, #1
 8005f44:	f000 8509 	beq.w	800695a <_svfprintf_r+0xc4a>
 8005f48:	2b02      	cmp	r3, #2
 8005f4a:	f10d 02df 	add.w	r2, sp, #223	; 0xdf
 8005f4e:	f040 8159 	bne.w	8006204 <_svfprintf_r+0x4f4>
 8005f52:	f8dd c064 	ldr.w	ip, [sp, #100]	; 0x64
 8005f56:	f004 010f 	and.w	r1, r4, #15
 8005f5a:	0923      	lsrs	r3, r4, #4
 8005f5c:	ea43 7305 	orr.w	r3, r3, r5, lsl #28
 8005f60:	0928      	lsrs	r0, r5, #4
 8005f62:	f81c 1001 	ldrb.w	r1, [ip, r1]
 8005f66:	461c      	mov	r4, r3
 8005f68:	4605      	mov	r5, r0
 8005f6a:	4690      	mov	r8, r2
 8005f6c:	ea54 0005 	orrs.w	r0, r4, r5
 8005f70:	f102 32ff 	add.w	r2, r2, #4294967295
 8005f74:	f888 1000 	strb.w	r1, [r8]
 8005f78:	d1ed      	bne.n	8005f56 <_svfprintf_r+0x246>
 8005f7a:	9b09      	ldr	r3, [sp, #36]	; 0x24
 8005f7c:	ebc8 0303 	rsb	r3, r8, r3
 8005f80:	9310      	str	r3, [sp, #64]	; 0x40
 8005f82:	9c0c      	ldr	r4, [sp, #48]	; 0x30
 8005f84:	9d10      	ldr	r5, [sp, #64]	; 0x40
 8005f86:	42a5      	cmp	r5, r4
 8005f88:	bfb8      	it	lt
 8005f8a:	4625      	movlt	r5, r4
 8005f8c:	2400      	movs	r4, #0
 8005f8e:	950d      	str	r5, [sp, #52]	; 0x34
 8005f90:	9418      	str	r4, [sp, #96]	; 0x60
 8005f92:	f1ba 0f00 	cmp.w	sl, #0
 8005f96:	d002      	beq.n	8005f9e <_svfprintf_r+0x28e>
 8005f98:	9d0d      	ldr	r5, [sp, #52]	; 0x34
 8005f9a:	3501      	adds	r5, #1
 8005f9c:	950d      	str	r5, [sp, #52]	; 0x34
 8005f9e:	9b0a      	ldr	r3, [sp, #40]	; 0x28
 8005fa0:	f013 0302 	ands.w	r3, r3, #2
 8005fa4:	930f      	str	r3, [sp, #60]	; 0x3c
 8005fa6:	bf1e      	ittt	ne
 8005fa8:	9c0d      	ldrne	r4, [sp, #52]	; 0x34
 8005faa:	3402      	addne	r4, #2
 8005fac:	940d      	strne	r4, [sp, #52]	; 0x34
 8005fae:	9c0a      	ldr	r4, [sp, #40]	; 0x28
 8005fb0:	f014 0584 	ands.w	r5, r4, #132	; 0x84
 8005fb4:	f040 8346 	bne.w	8006644 <_svfprintf_r+0x934>
 8005fb8:	9c13      	ldr	r4, [sp, #76]	; 0x4c
 8005fba:	980d      	ldr	r0, [sp, #52]	; 0x34
 8005fbc:	ebc0 0b04 	rsb	fp, r0, r4
 8005fc0:	f1bb 0f00 	cmp.w	fp, #0
 8005fc4:	f340 833e 	ble.w	8006644 <_svfprintf_r+0x934>
 8005fc8:	f1bb 0f10 	cmp.w	fp, #16
 8005fcc:	f24c 0a88 	movw	sl, #49288	; 0xc088
 8005fd0:	992d      	ldr	r1, [sp, #180]	; 0xb4
 8005fd2:	bfdc      	itt	le
 8005fd4:	f6c0 0a00 	movtle	sl, #2048	; 0x800
 8005fd8:	9a2c      	ldrle	r2, [sp, #176]	; 0xb0
 8005fda:	dd32      	ble.n	8006042 <_svfprintf_r+0x332>
 8005fdc:	f6c0 0a00 	movt	sl, #2048	; 0x800
 8005fe0:	f8cd 807c 	str.w	r8, [sp, #124]	; 0x7c
 8005fe4:	9520      	str	r5, [sp, #128]	; 0x80
 8005fe6:	46d8      	mov	r8, fp
 8005fe8:	9a2c      	ldr	r2, [sp, #176]	; 0xb0
 8005fea:	46d3      	mov	fp, sl
 8005fec:	2410      	movs	r4, #16
 8005fee:	46ca      	mov	sl, r9
 8005ff0:	9d15      	ldr	r5, [sp, #84]	; 0x54
 8005ff2:	f8dd 902c 	ldr.w	r9, [sp, #44]	; 0x2c
 8005ff6:	e004      	b.n	8006002 <_svfprintf_r+0x2f2>
 8005ff8:	f1a8 0810 	sub.w	r8, r8, #16
 8005ffc:	f1b8 0f10 	cmp.w	r8, #16
 8006000:	dd19      	ble.n	8006036 <_svfprintf_r+0x326>
 8006002:	3201      	adds	r2, #1
 8006004:	3110      	adds	r1, #16
 8006006:	2a07      	cmp	r2, #7
 8006008:	603d      	str	r5, [r7, #0]
 800600a:	607c      	str	r4, [r7, #4]
 800600c:	f107 0708 	add.w	r7, r7, #8
 8006010:	922c      	str	r2, [sp, #176]	; 0xb0
 8006012:	912d      	str	r1, [sp, #180]	; 0xb4
 8006014:	ddf0      	ble.n	8005ff8 <_svfprintf_r+0x2e8>
 8006016:	980e      	ldr	r0, [sp, #56]	; 0x38
 8006018:	4649      	mov	r1, r9
 800601a:	aa2b      	add	r2, sp, #172	; 0xac
 800601c:	af38      	add	r7, sp, #224	; 0xe0
 800601e:	f003 fb1b 	bl	8009658 <__ssprint_r>
 8006022:	2800      	cmp	r0, #0
 8006024:	f47f af59 	bne.w	8005eda <_svfprintf_r+0x1ca>
 8006028:	f1a8 0810 	sub.w	r8, r8, #16
 800602c:	992d      	ldr	r1, [sp, #180]	; 0xb4
 800602e:	f1b8 0f10 	cmp.w	r8, #16
 8006032:	9a2c      	ldr	r2, [sp, #176]	; 0xb0
 8006034:	dce5      	bgt.n	8006002 <_svfprintf_r+0x2f2>
 8006036:	46d1      	mov	r9, sl
 8006038:	9d20      	ldr	r5, [sp, #128]	; 0x80
 800603a:	46da      	mov	sl, fp
 800603c:	46c3      	mov	fp, r8
 800603e:	f8dd 807c 	ldr.w	r8, [sp, #124]	; 0x7c
 8006042:	3201      	adds	r2, #1
 8006044:	eb0b 0401 	add.w	r4, fp, r1
 8006048:	2a07      	cmp	r2, #7
 800604a:	922c      	str	r2, [sp, #176]	; 0xb0
 800604c:	942d      	str	r4, [sp, #180]	; 0xb4
 800604e:	e887 0c00 	stmia.w	r7, {sl, fp}
 8006052:	f300 82ec 	bgt.w	800662e <_svfprintf_r+0x91e>
 8006056:	f89d a08f 	ldrb.w	sl, [sp, #143]	; 0x8f
 800605a:	3708      	adds	r7, #8
 800605c:	f1ba 0f00 	cmp.w	sl, #0
 8006060:	d00e      	beq.n	8006080 <_svfprintf_r+0x370>
 8006062:	9b2c      	ldr	r3, [sp, #176]	; 0xb0
 8006064:	f10d 028f 	add.w	r2, sp, #143	; 0x8f
 8006068:	3401      	adds	r4, #1
 800606a:	603a      	str	r2, [r7, #0]
 800606c:	3301      	adds	r3, #1
 800606e:	2201      	movs	r2, #1
 8006070:	2b07      	cmp	r3, #7
 8006072:	607a      	str	r2, [r7, #4]
 8006074:	942d      	str	r4, [sp, #180]	; 0xb4
 8006076:	bfd8      	it	le
 8006078:	3708      	addle	r7, #8
 800607a:	932c      	str	r3, [sp, #176]	; 0xb0
 800607c:	f300 8402 	bgt.w	8006884 <_svfprintf_r+0xb74>
 8006080:	9b0f      	ldr	r3, [sp, #60]	; 0x3c
 8006082:	b16b      	cbz	r3, 80060a0 <_svfprintf_r+0x390>
 8006084:	9b2c      	ldr	r3, [sp, #176]	; 0xb0
 8006086:	aa24      	add	r2, sp, #144	; 0x90
 8006088:	3402      	adds	r4, #2
 800608a:	603a      	str	r2, [r7, #0]
 800608c:	3301      	adds	r3, #1
 800608e:	2202      	movs	r2, #2
 8006090:	2b07      	cmp	r3, #7
 8006092:	607a      	str	r2, [r7, #4]
 8006094:	942d      	str	r4, [sp, #180]	; 0xb4
 8006096:	bfd8      	it	le
 8006098:	3708      	addle	r7, #8
 800609a:	932c      	str	r3, [sp, #176]	; 0xb0
 800609c:	f300 83fe 	bgt.w	800689c <_svfprintf_r+0xb8c>
 80060a0:	2d80      	cmp	r5, #128	; 0x80
 80060a2:	f000 8346 	beq.w	8006732 <_svfprintf_r+0xa22>
 80060a6:	9d0c      	ldr	r5, [sp, #48]	; 0x30
 80060a8:	9b10      	ldr	r3, [sp, #64]	; 0x40
 80060aa:	ebc3 0a05 	rsb	sl, r3, r5
 80060ae:	f1ba 0f00 	cmp.w	sl, #0
 80060b2:	dd43      	ble.n	800613c <_svfprintf_r+0x42c>
 80060b4:	f1ba 0f10 	cmp.w	sl, #16
 80060b8:	9b2c      	ldr	r3, [sp, #176]	; 0xb0
 80060ba:	bfdc      	itt	le
 80060bc:	4d94      	ldrle	r5, [pc, #592]	; (8006310 <_svfprintf_r+0x600>)
 80060be:	950f      	strle	r5, [sp, #60]	; 0x3c
 80060c0:	dd27      	ble.n	8006112 <_svfprintf_r+0x402>
 80060c2:	4893      	ldr	r0, [pc, #588]	; (8006310 <_svfprintf_r+0x600>)
 80060c4:	4622      	mov	r2, r4
 80060c6:	2510      	movs	r5, #16
 80060c8:	f8dd b038 	ldr.w	fp, [sp, #56]	; 0x38
 80060cc:	9c0b      	ldr	r4, [sp, #44]	; 0x2c
 80060ce:	900f      	str	r0, [sp, #60]	; 0x3c
 80060d0:	e004      	b.n	80060dc <_svfprintf_r+0x3cc>
 80060d2:	f1aa 0a10 	sub.w	sl, sl, #16
 80060d6:	f1ba 0f10 	cmp.w	sl, #16
 80060da:	dd19      	ble.n	8006110 <_svfprintf_r+0x400>
 80060dc:	3301      	adds	r3, #1
 80060de:	3210      	adds	r2, #16
 80060e0:	2b07      	cmp	r3, #7
 80060e2:	603e      	str	r6, [r7, #0]
 80060e4:	607d      	str	r5, [r7, #4]
 80060e6:	f107 0708 	add.w	r7, r7, #8
 80060ea:	932c      	str	r3, [sp, #176]	; 0xb0
 80060ec:	922d      	str	r2, [sp, #180]	; 0xb4
 80060ee:	ddf0      	ble.n	80060d2 <_svfprintf_r+0x3c2>
 80060f0:	4658      	mov	r0, fp
 80060f2:	4621      	mov	r1, r4
 80060f4:	aa2b      	add	r2, sp, #172	; 0xac
 80060f6:	af38      	add	r7, sp, #224	; 0xe0
 80060f8:	f003 faae 	bl	8009658 <__ssprint_r>
 80060fc:	2800      	cmp	r0, #0
 80060fe:	f47f aeec 	bne.w	8005eda <_svfprintf_r+0x1ca>
 8006102:	f1aa 0a10 	sub.w	sl, sl, #16
 8006106:	9a2d      	ldr	r2, [sp, #180]	; 0xb4
 8006108:	f1ba 0f10 	cmp.w	sl, #16
 800610c:	9b2c      	ldr	r3, [sp, #176]	; 0xb0
 800610e:	dce5      	bgt.n	80060dc <_svfprintf_r+0x3cc>
 8006110:	4614      	mov	r4, r2
 8006112:	3301      	adds	r3, #1
 8006114:	9d0f      	ldr	r5, [sp, #60]	; 0x3c
 8006116:	2b07      	cmp	r3, #7
 8006118:	4454      	add	r4, sl
 800611a:	932c      	str	r3, [sp, #176]	; 0xb0
 800611c:	e887 0420 	stmia.w	r7, {r5, sl}
 8006120:	bfd8      	it	le
 8006122:	3708      	addle	r7, #8
 8006124:	942d      	str	r4, [sp, #180]	; 0xb4
 8006126:	dd09      	ble.n	800613c <_svfprintf_r+0x42c>
 8006128:	980e      	ldr	r0, [sp, #56]	; 0x38
 800612a:	aa2b      	add	r2, sp, #172	; 0xac
 800612c:	990b      	ldr	r1, [sp, #44]	; 0x2c
 800612e:	f003 fa93 	bl	8009658 <__ssprint_r>
 8006132:	2800      	cmp	r0, #0
 8006134:	f47f aed1 	bne.w	8005eda <_svfprintf_r+0x1ca>
 8006138:	9c2d      	ldr	r4, [sp, #180]	; 0xb4
 800613a:	af38      	add	r7, sp, #224	; 0xe0
 800613c:	9d0a      	ldr	r5, [sp, #40]	; 0x28
 800613e:	05eb      	lsls	r3, r5, #23
 8006140:	f100 8282 	bmi.w	8006648 <_svfprintf_r+0x938>
 8006144:	9b2c      	ldr	r3, [sp, #176]	; 0xb0
 8006146:	9d10      	ldr	r5, [sp, #64]	; 0x40
 8006148:	3301      	adds	r3, #1
 800614a:	f8c7 8000 	str.w	r8, [r7]
 800614e:	2b07      	cmp	r3, #7
 8006150:	442c      	add	r4, r5
 8006152:	607d      	str	r5, [r7, #4]
 8006154:	942d      	str	r4, [sp, #180]	; 0xb4
 8006156:	932c      	str	r3, [sp, #176]	; 0xb0
 8006158:	f300 837a 	bgt.w	8006850 <_svfprintf_r+0xb40>
 800615c:	3708      	adds	r7, #8
 800615e:	9d0a      	ldr	r5, [sp, #40]	; 0x28
 8006160:	076b      	lsls	r3, r5, #29
 8006162:	d540      	bpl.n	80061e6 <_svfprintf_r+0x4d6>
 8006164:	9813      	ldr	r0, [sp, #76]	; 0x4c
 8006166:	990d      	ldr	r1, [sp, #52]	; 0x34
 8006168:	1a45      	subs	r5, r0, r1
 800616a:	2d00      	cmp	r5, #0
 800616c:	dd3b      	ble.n	80061e6 <_svfprintf_r+0x4d6>
 800616e:	2d10      	cmp	r5, #16
 8006170:	f24c 0a88 	movw	sl, #49288	; 0xc088
 8006174:	9b2c      	ldr	r3, [sp, #176]	; 0xb0
 8006176:	f6c0 0a00 	movt	sl, #2048	; 0x800
 800617a:	dd22      	ble.n	80061c2 <_svfprintf_r+0x4b2>
 800617c:	4622      	mov	r2, r4
 800617e:	f04f 0810 	mov.w	r8, #16
 8006182:	f8dd b038 	ldr.w	fp, [sp, #56]	; 0x38
 8006186:	9c15      	ldr	r4, [sp, #84]	; 0x54
 8006188:	e002      	b.n	8006190 <_svfprintf_r+0x480>
 800618a:	3d10      	subs	r5, #16
 800618c:	2d10      	cmp	r5, #16
 800618e:	dd17      	ble.n	80061c0 <_svfprintf_r+0x4b0>
 8006190:	3301      	adds	r3, #1
 8006192:	3210      	adds	r2, #16
 8006194:	2b07      	cmp	r3, #7
 8006196:	e887 0110 	stmia.w	r7, {r4, r8}
 800619a:	932c      	str	r3, [sp, #176]	; 0xb0
 800619c:	f107 0708 	add.w	r7, r7, #8
 80061a0:	922d      	str	r2, [sp, #180]	; 0xb4
 80061a2:	ddf2      	ble.n	800618a <_svfprintf_r+0x47a>
 80061a4:	4658      	mov	r0, fp
 80061a6:	990b      	ldr	r1, [sp, #44]	; 0x2c
 80061a8:	aa2b      	add	r2, sp, #172	; 0xac
 80061aa:	af38      	add	r7, sp, #224	; 0xe0
 80061ac:	f003 fa54 	bl	8009658 <__ssprint_r>
 80061b0:	2800      	cmp	r0, #0
 80061b2:	f47f ae92 	bne.w	8005eda <_svfprintf_r+0x1ca>
 80061b6:	3d10      	subs	r5, #16
 80061b8:	9a2d      	ldr	r2, [sp, #180]	; 0xb4
 80061ba:	2d10      	cmp	r5, #16
 80061bc:	9b2c      	ldr	r3, [sp, #176]	; 0xb0
 80061be:	dce7      	bgt.n	8006190 <_svfprintf_r+0x480>
 80061c0:	4614      	mov	r4, r2
 80061c2:	3301      	adds	r3, #1
 80061c4:	442c      	add	r4, r5
 80061c6:	2b07      	cmp	r3, #7
 80061c8:	932c      	str	r3, [sp, #176]	; 0xb0
 80061ca:	942d      	str	r4, [sp, #180]	; 0xb4
 80061cc:	f8c7 a000 	str.w	sl, [r7]
 80061d0:	607d      	str	r5, [r7, #4]
 80061d2:	dd08      	ble.n	80061e6 <_svfprintf_r+0x4d6>
 80061d4:	980e      	ldr	r0, [sp, #56]	; 0x38
 80061d6:	aa2b      	add	r2, sp, #172	; 0xac
 80061d8:	990b      	ldr	r1, [sp, #44]	; 0x2c
 80061da:	f003 fa3d 	bl	8009658 <__ssprint_r>
 80061de:	2800      	cmp	r0, #0
 80061e0:	f47f ae7b 	bne.w	8005eda <_svfprintf_r+0x1ca>
 80061e4:	9c2d      	ldr	r4, [sp, #180]	; 0xb4
 80061e6:	9d12      	ldr	r5, [sp, #72]	; 0x48
 80061e8:	990d      	ldr	r1, [sp, #52]	; 0x34
 80061ea:	9813      	ldr	r0, [sp, #76]	; 0x4c
 80061ec:	4281      	cmp	r1, r0
 80061ee:	bfac      	ite	ge
 80061f0:	186d      	addge	r5, r5, r1
 80061f2:	182d      	addlt	r5, r5, r0
 80061f4:	9512      	str	r5, [sp, #72]	; 0x48
 80061f6:	2c00      	cmp	r4, #0
 80061f8:	f040 8335 	bne.w	8006866 <_svfprintf_r+0xb56>
 80061fc:	2300      	movs	r3, #0
 80061fe:	af38      	add	r7, sp, #224	; 0xe0
 8006200:	932c      	str	r3, [sp, #176]	; 0xb0
 8006202:	e5bb      	b.n	8005d7c <_svfprintf_r+0x6c>
 8006204:	08e3      	lsrs	r3, r4, #3
 8006206:	08e9      	lsrs	r1, r5, #3
 8006208:	ea43 7345 	orr.w	r3, r3, r5, lsl #29
 800620c:	4690      	mov	r8, r2
 800620e:	460d      	mov	r5, r1
 8006210:	f004 0207 	and.w	r2, r4, #7
 8006214:	461c      	mov	r4, r3
 8006216:	f102 0330 	add.w	r3, r2, #48	; 0x30
 800621a:	ea54 0105 	orrs.w	r1, r4, r5
 800621e:	f108 32ff 	add.w	r2, r8, #4294967295
 8006222:	f888 3000 	strb.w	r3, [r8]
 8006226:	d1ed      	bne.n	8006204 <_svfprintf_r+0x4f4>
 8006228:	9c0a      	ldr	r4, [sp, #40]	; 0x28
 800622a:	4641      	mov	r1, r8
 800622c:	07e0      	lsls	r0, r4, #31
 800622e:	f100 84f5 	bmi.w	8006c1c <_svfprintf_r+0xf0c>
 8006232:	9d09      	ldr	r5, [sp, #36]	; 0x24
 8006234:	ebc8 0505 	rsb	r5, r8, r5
 8006238:	9510      	str	r5, [sp, #64]	; 0x40
 800623a:	e6a2      	b.n	8005f82 <_svfprintf_r+0x272>
 800623c:	9d0a      	ldr	r5, [sp, #40]	; 0x28
 800623e:	9316      	str	r3, [sp, #88]	; 0x58
 8006240:	f015 0320 	ands.w	r3, r5, #32
 8006244:	f000 80b4 	beq.w	80063b0 <_svfprintf_r+0x6a0>
 8006248:	9c14      	ldr	r4, [sp, #80]	; 0x50
 800624a:	2300      	movs	r3, #0
 800624c:	1de2      	adds	r2, r4, #7
 800624e:	f022 0207 	bic.w	r2, r2, #7
 8006252:	f102 0508 	add.w	r5, r2, #8
 8006256:	9514      	str	r5, [sp, #80]	; 0x50
 8006258:	e9d2 4500 	ldrd	r4, r5, [r2]
 800625c:	e659      	b.n	8005f12 <_svfprintf_r+0x202>
 800625e:	f899 3000 	ldrb.w	r3, [r9]
 8006262:	f109 0401 	add.w	r4, r9, #1
 8006266:	2b2a      	cmp	r3, #42	; 0x2a
 8006268:	f000 8791 	beq.w	800718e <_svfprintf_r+0x147e>
 800626c:	f1a3 0130 	sub.w	r1, r3, #48	; 0x30
 8006270:	2909      	cmp	r1, #9
 8006272:	bf82      	ittt	hi
 8006274:	46a1      	movhi	r9, r4
 8006276:	2400      	movhi	r4, #0
 8006278:	940c      	strhi	r4, [sp, #48]	; 0x30
 800627a:	f63f adb4 	bhi.w	8005de6 <_svfprintf_r+0xd6>
 800627e:	2000      	movs	r0, #0
 8006280:	eb00 0080 	add.w	r0, r0, r0, lsl #2
 8006284:	f814 3b01 	ldrb.w	r3, [r4], #1
 8006288:	eb01 0040 	add.w	r0, r1, r0, lsl #1
 800628c:	f1a3 0130 	sub.w	r1, r3, #48	; 0x30
 8006290:	2909      	cmp	r1, #9
 8006292:	d9f5      	bls.n	8006280 <_svfprintf_r+0x570>
 8006294:	ea40 70e0 	orr.w	r0, r0, r0, asr #31
 8006298:	46a1      	mov	r9, r4
 800629a:	900c      	str	r0, [sp, #48]	; 0x30
 800629c:	e5a3      	b.n	8005de6 <_svfprintf_r+0xd6>
 800629e:	9d0a      	ldr	r5, [sp, #40]	; 0x28
 80062a0:	9316      	str	r3, [sp, #88]	; 0x58
 80062a2:	f045 0510 	orr.w	r5, r5, #16
 80062a6:	950a      	str	r5, [sp, #40]	; 0x28
 80062a8:	9c0a      	ldr	r4, [sp, #40]	; 0x28
 80062aa:	06a3      	lsls	r3, r4, #26
 80062ac:	f53f ae27 	bmi.w	8005efe <_svfprintf_r+0x1ee>
 80062b0:	9d0a      	ldr	r5, [sp, #40]	; 0x28
 80062b2:	06ed      	lsls	r5, r5, #27
 80062b4:	f100 83c4 	bmi.w	8006a40 <_svfprintf_r+0xd30>
 80062b8:	9c0a      	ldr	r4, [sp, #40]	; 0x28
 80062ba:	0664      	lsls	r4, r4, #25
 80062bc:	f140 83c0 	bpl.w	8006a40 <_svfprintf_r+0xd30>
 80062c0:	9814      	ldr	r0, [sp, #80]	; 0x50
 80062c2:	2500      	movs	r5, #0
 80062c4:	2301      	movs	r3, #1
 80062c6:	3004      	adds	r0, #4
 80062c8:	f830 4c04 	ldrh.w	r4, [r0, #-4]
 80062cc:	9014      	str	r0, [sp, #80]	; 0x50
 80062ce:	e620      	b.n	8005f12 <_svfprintf_r+0x202>
 80062d0:	9c0a      	ldr	r4, [sp, #40]	; 0x28
 80062d2:	9316      	str	r3, [sp, #88]	; 0x58
 80062d4:	f044 0410 	orr.w	r4, r4, #16
 80062d8:	940a      	str	r4, [sp, #40]	; 0x28
 80062da:	9d0a      	ldr	r5, [sp, #40]	; 0x28
 80062dc:	f88d 208f 	strb.w	r2, [sp, #143]	; 0x8f
 80062e0:	06a9      	lsls	r1, r5, #26
 80062e2:	f140 8165 	bpl.w	80065b0 <_svfprintf_r+0x8a0>
 80062e6:	9c14      	ldr	r4, [sp, #80]	; 0x50
 80062e8:	1de3      	adds	r3, r4, #7
 80062ea:	f023 0307 	bic.w	r3, r3, #7
 80062ee:	f103 0508 	add.w	r5, r3, #8
 80062f2:	9514      	str	r5, [sp, #80]	; 0x50
 80062f4:	e9d3 2300 	ldrd	r2, r3, [r3]
 80062f8:	4614      	mov	r4, r2
 80062fa:	461d      	mov	r5, r3
 80062fc:	2a00      	cmp	r2, #0
 80062fe:	f173 0000 	sbcs.w	r0, r3, #0
 8006302:	f2c0 83bb 	blt.w	8006a7c <_svfprintf_r+0xd6c>
 8006306:	f89d a08f 	ldrb.w	sl, [sp, #143]	; 0x8f
 800630a:	2301      	movs	r3, #1
 800630c:	e605      	b.n	8005f1a <_svfprintf_r+0x20a>
 800630e:	bf00      	nop
 8006310:	0800c098 	stmdaeq	r0, {r3, r4, r7, lr, pc}
 8006314:	9c0a      	ldr	r4, [sp, #40]	; 0x28
 8006316:	9316      	str	r3, [sp, #88]	; 0x58
 8006318:	0725      	lsls	r5, r4, #28
 800631a:	f88d 208f 	strb.w	r2, [sp, #143]	; 0x8f
 800631e:	f140 84ab 	bpl.w	8006c78 <_svfprintf_r+0xf68>
 8006322:	9d14      	ldr	r5, [sp, #80]	; 0x50
 8006324:	1deb      	adds	r3, r5, #7
 8006326:	f023 0307 	bic.w	r3, r3, #7
 800632a:	f103 0408 	add.w	r4, r3, #8
 800632e:	9414      	str	r4, [sp, #80]	; 0x50
 8006330:	681d      	ldr	r5, [r3, #0]
 8006332:	951b      	str	r5, [sp, #108]	; 0x6c
 8006334:	685b      	ldr	r3, [r3, #4]
 8006336:	931c      	str	r3, [sp, #112]	; 0x70
 8006338:	981b      	ldr	r0, [sp, #108]	; 0x6c
 800633a:	991c      	ldr	r1, [sp, #112]	; 0x70
 800633c:	f003 f802 	bl	8009344 <__fpclassifyd>
 8006340:	2801      	cmp	r0, #1
 8006342:	981b      	ldr	r0, [sp, #108]	; 0x6c
 8006344:	f040 8478 	bne.w	8006c38 <_svfprintf_r+0xf28>
 8006348:	2200      	movs	r2, #0
 800634a:	2300      	movs	r3, #0
 800634c:	991c      	ldr	r1, [sp, #112]	; 0x70
 800634e:	f005 f953 	bl	800b5f8 <__aeabi_dcmplt>
 8006352:	2800      	cmp	r0, #0
 8006354:	f040 864a 	bne.w	8006fec <_svfprintf_r+0x12dc>
 8006358:	f89d a08f 	ldrb.w	sl, [sp, #143]	; 0x8f
 800635c:	2503      	movs	r5, #3
 800635e:	2400      	movs	r4, #0
 8006360:	f24c 18f8 	movw	r8, #49656	; 0xc1f8
 8006364:	f24c 13f4 	movw	r3, #49652	; 0xc1f4
 8006368:	950d      	str	r5, [sp, #52]	; 0x34
 800636a:	f6c0 0800 	movt	r8, #2048	; 0x800
 800636e:	9d0a      	ldr	r5, [sp, #40]	; 0x28
 8006370:	f6c0 0300 	movt	r3, #2048	; 0x800
 8006374:	940c      	str	r4, [sp, #48]	; 0x30
 8006376:	9c16      	ldr	r4, [sp, #88]	; 0x58
 8006378:	f025 0580 	bic.w	r5, r5, #128	; 0x80
 800637c:	950a      	str	r5, [sp, #40]	; 0x28
 800637e:	2503      	movs	r5, #3
 8006380:	2c47      	cmp	r4, #71	; 0x47
 8006382:	bfd8      	it	le
 8006384:	4698      	movle	r8, r3
 8006386:	9510      	str	r5, [sp, #64]	; 0x40
 8006388:	2400      	movs	r4, #0
 800638a:	9418      	str	r4, [sp, #96]	; 0x60
 800638c:	e601      	b.n	8005f92 <_svfprintf_r+0x282>
 800638e:	9d0a      	ldr	r5, [sp, #40]	; 0x28
 8006390:	f045 0508 	orr.w	r5, r5, #8
 8006394:	950a      	str	r5, [sp, #40]	; 0x28
 8006396:	f899 3000 	ldrb.w	r3, [r9]
 800639a:	e522      	b.n	8005de2 <_svfprintf_r+0xd2>
 800639c:	9c0a      	ldr	r4, [sp, #40]	; 0x28
 800639e:	9316      	str	r3, [sp, #88]	; 0x58
 80063a0:	f044 0410 	orr.w	r4, r4, #16
 80063a4:	940a      	str	r4, [sp, #40]	; 0x28
 80063a6:	9d0a      	ldr	r5, [sp, #40]	; 0x28
 80063a8:	f015 0320 	ands.w	r3, r5, #32
 80063ac:	f47f af4c 	bne.w	8006248 <_svfprintf_r+0x538>
 80063b0:	9c0a      	ldr	r4, [sp, #40]	; 0x28
 80063b2:	f014 0210 	ands.w	r2, r4, #16
 80063b6:	f040 834c 	bne.w	8006a52 <_svfprintf_r+0xd42>
 80063ba:	9c0a      	ldr	r4, [sp, #40]	; 0x28
 80063bc:	f014 0340 	ands.w	r3, r4, #64	; 0x40
 80063c0:	f000 8347 	beq.w	8006a52 <_svfprintf_r+0xd42>
 80063c4:	9814      	ldr	r0, [sp, #80]	; 0x50
 80063c6:	4613      	mov	r3, r2
 80063c8:	2500      	movs	r5, #0
 80063ca:	3004      	adds	r0, #4
 80063cc:	f830 4c04 	ldrh.w	r4, [r0, #-4]
 80063d0:	9014      	str	r0, [sp, #80]	; 0x50
 80063d2:	e59e      	b.n	8005f12 <_svfprintf_r+0x202>
 80063d4:	9d0a      	ldr	r5, [sp, #40]	; 0x28
 80063d6:	f045 0520 	orr.w	r5, r5, #32
 80063da:	950a      	str	r5, [sp, #40]	; 0x28
 80063dc:	f899 3000 	ldrb.w	r3, [r9]
 80063e0:	e4ff      	b.n	8005de2 <_svfprintf_r+0xd2>
 80063e2:	9c14      	ldr	r4, [sp, #80]	; 0x50
 80063e4:	2500      	movs	r5, #0
 80063e6:	9316      	str	r3, [sp, #88]	; 0x58
 80063e8:	3404      	adds	r4, #4
 80063ea:	f88d 508f 	strb.w	r5, [sp, #143]	; 0x8f
 80063ee:	f854 8c04 	ldr.w	r8, [r4, #-4]
 80063f2:	f1b8 0f00 	cmp.w	r8, #0
 80063f6:	f000 85d9 	beq.w	8006fac <_svfprintf_r+0x129c>
 80063fa:	980c      	ldr	r0, [sp, #48]	; 0x30
 80063fc:	2800      	cmp	r0, #0
 80063fe:	4640      	mov	r0, r8
 8006400:	f2c0 85ab 	blt.w	8006f5a <_svfprintf_r+0x124a>
 8006404:	4629      	mov	r1, r5
 8006406:	9a0c      	ldr	r2, [sp, #48]	; 0x30
 8006408:	f002 fa60 	bl	80088cc <memchr>
 800640c:	2800      	cmp	r0, #0
 800640e:	f000 85ff 	beq.w	8007010 <_svfprintf_r+0x1300>
 8006412:	9414      	str	r4, [sp, #80]	; 0x50
 8006414:	ebc8 0000 	rsb	r0, r8, r0
 8006418:	9c0c      	ldr	r4, [sp, #48]	; 0x30
 800641a:	950c      	str	r5, [sp, #48]	; 0x30
 800641c:	42a0      	cmp	r0, r4
 800641e:	bfb8      	it	lt
 8006420:	4604      	movlt	r4, r0
 8006422:	9410      	str	r4, [sp, #64]	; 0x40
 8006424:	ea24 75e4 	bic.w	r5, r4, r4, asr #31
 8006428:	9c0c      	ldr	r4, [sp, #48]	; 0x30
 800642a:	950d      	str	r5, [sp, #52]	; 0x34
 800642c:	f89d a08f 	ldrb.w	sl, [sp, #143]	; 0x8f
 8006430:	9418      	str	r4, [sp, #96]	; 0x60
 8006432:	e5ae      	b.n	8005f92 <_svfprintf_r+0x282>
 8006434:	9d0a      	ldr	r5, [sp, #40]	; 0x28
 8006436:	f24c 2418 	movw	r4, #49688	; 0xc218
 800643a:	f6c0 0400 	movt	r4, #2048	; 0x800
 800643e:	9316      	str	r3, [sp, #88]	; 0x58
 8006440:	06a8      	lsls	r0, r5, #26
 8006442:	f88d 208f 	strb.w	r2, [sp, #143]	; 0x8f
 8006446:	9419      	str	r4, [sp, #100]	; 0x64
 8006448:	f140 809c 	bpl.w	8006584 <_svfprintf_r+0x874>
 800644c:	9c14      	ldr	r4, [sp, #80]	; 0x50
 800644e:	1de3      	adds	r3, r4, #7
 8006450:	f023 0307 	bic.w	r3, r3, #7
 8006454:	f103 0508 	add.w	r5, r3, #8
 8006458:	9514      	str	r5, [sp, #80]	; 0x50
 800645a:	e9d3 4500 	ldrd	r4, r5, [r3]
 800645e:	980a      	ldr	r0, [sp, #40]	; 0x28
 8006460:	07c3      	lsls	r3, r0, #31
 8006462:	f140 8227 	bpl.w	80068b4 <_svfprintf_r+0xba4>
 8006466:	ea54 0105 	orrs.w	r1, r4, r5
 800646a:	f000 8223 	beq.w	80068b4 <_svfprintf_r+0xba4>
 800646e:	9a16      	ldr	r2, [sp, #88]	; 0x58
 8006470:	2330      	movs	r3, #48	; 0x30
 8006472:	f040 0002 	orr.w	r0, r0, #2
 8006476:	f88d 3090 	strb.w	r3, [sp, #144]	; 0x90
 800647a:	900a      	str	r0, [sp, #40]	; 0x28
 800647c:	2302      	movs	r3, #2
 800647e:	f88d 2091 	strb.w	r2, [sp, #145]	; 0x91
 8006482:	e546      	b.n	8005f12 <_svfprintf_r+0x202>
 8006484:	f899 3000 	ldrb.w	r3, [r9]
 8006488:	222b      	movs	r2, #43	; 0x2b
 800648a:	e4aa      	b.n	8005de2 <_svfprintf_r+0xd2>
 800648c:	f899 3000 	ldrb.w	r3, [r9]
 8006490:	4649      	mov	r1, r9
 8006492:	2b6c      	cmp	r3, #108	; 0x6c
 8006494:	bf05      	ittet	eq
 8006496:	f109 0901 	addeq.w	r9, r9, #1
 800649a:	9d0a      	ldreq	r5, [sp, #40]	; 0x28
 800649c:	9c0a      	ldrne	r4, [sp, #40]	; 0x28
 800649e:	f045 0520 	orreq.w	r5, r5, #32
 80064a2:	bf0b      	itete	eq
 80064a4:	784b      	ldrbeq	r3, [r1, #1]
 80064a6:	f044 0410 	orrne.w	r4, r4, #16
 80064aa:	950a      	streq	r5, [sp, #40]	; 0x28
 80064ac:	940a      	strne	r4, [sp, #40]	; 0x28
 80064ae:	e498      	b.n	8005de2 <_svfprintf_r+0xd2>
 80064b0:	9d0a      	ldr	r5, [sp, #40]	; 0x28
 80064b2:	f88d 208f 	strb.w	r2, [sp, #143]	; 0x8f
 80064b6:	06a9      	lsls	r1, r5, #26
 80064b8:	f140 83eb 	bpl.w	8006c92 <_svfprintf_r+0xf82>
 80064bc:	9c14      	ldr	r4, [sp, #80]	; 0x50
 80064be:	6821      	ldr	r1, [r4, #0]
 80064c0:	9c12      	ldr	r4, [sp, #72]	; 0x48
 80064c2:	4622      	mov	r2, r4
 80064c4:	17e5      	asrs	r5, r4, #31
 80064c6:	462b      	mov	r3, r5
 80064c8:	9d14      	ldr	r5, [sp, #80]	; 0x50
 80064ca:	e9c1 2300 	strd	r2, r3, [r1]
 80064ce:	3504      	adds	r5, #4
 80064d0:	9514      	str	r5, [sp, #80]	; 0x50
 80064d2:	e453      	b.n	8005d7c <_svfprintf_r+0x6c>
 80064d4:	9a14      	ldr	r2, [sp, #80]	; 0x50
 80064d6:	f24c 2018 	movw	r0, #49688	; 0xc218
 80064da:	9d0a      	ldr	r5, [sp, #40]	; 0x28
 80064dc:	2378      	movs	r3, #120	; 0x78
 80064de:	f6c0 0000 	movt	r0, #2048	; 0x800
 80064e2:	f88d 3091 	strb.w	r3, [sp, #145]	; 0x91
 80064e6:	f045 0502 	orr.w	r5, r5, #2
 80064ea:	9316      	str	r3, [sp, #88]	; 0x58
 80064ec:	950a      	str	r5, [sp, #40]	; 0x28
 80064ee:	2330      	movs	r3, #48	; 0x30
 80064f0:	1d15      	adds	r5, r2, #4
 80064f2:	f88d 3090 	strb.w	r3, [sp, #144]	; 0x90
 80064f6:	9514      	str	r5, [sp, #80]	; 0x50
 80064f8:	2302      	movs	r3, #2
 80064fa:	6814      	ldr	r4, [r2, #0]
 80064fc:	2500      	movs	r5, #0
 80064fe:	9019      	str	r0, [sp, #100]	; 0x64
 8006500:	e507      	b.n	8005f12 <_svfprintf_r+0x202>
 8006502:	9c0a      	ldr	r4, [sp, #40]	; 0x28
 8006504:	f044 0440 	orr.w	r4, r4, #64	; 0x40
 8006508:	940a      	str	r4, [sp, #40]	; 0x28
 800650a:	f899 3000 	ldrb.w	r3, [r9]
 800650e:	e468      	b.n	8005de2 <_svfprintf_r+0xd2>
 8006510:	f899 3000 	ldrb.w	r3, [r9]
 8006514:	2a00      	cmp	r2, #0
 8006516:	f47f ac64 	bne.w	8005de2 <_svfprintf_r+0xd2>
 800651a:	2220      	movs	r2, #32
 800651c:	e461      	b.n	8005de2 <_svfprintf_r+0xd2>
 800651e:	9d0a      	ldr	r5, [sp, #40]	; 0x28
 8006520:	f045 0501 	orr.w	r5, r5, #1
 8006524:	950a      	str	r5, [sp, #40]	; 0x28
 8006526:	f899 3000 	ldrb.w	r3, [r9]
 800652a:	e45a      	b.n	8005de2 <_svfprintf_r+0xd2>
 800652c:	9c14      	ldr	r4, [sp, #80]	; 0x50
 800652e:	9d14      	ldr	r5, [sp, #80]	; 0x50
 8006530:	6824      	ldr	r4, [r4, #0]
 8006532:	1d2b      	adds	r3, r5, #4
 8006534:	2c00      	cmp	r4, #0
 8006536:	9413      	str	r4, [sp, #76]	; 0x4c
 8006538:	f6ff acb5 	blt.w	8005ea6 <_svfprintf_r+0x196>
 800653c:	9314      	str	r3, [sp, #80]	; 0x50
 800653e:	f899 3000 	ldrb.w	r3, [r9]
 8006542:	e44e      	b.n	8005de2 <_svfprintf_r+0xd2>
 8006544:	9a14      	ldr	r2, [sp, #80]	; 0x50
 8006546:	2401      	movs	r4, #1
 8006548:	9d14      	ldr	r5, [sp, #80]	; 0x50
 800654a:	f10d 08b8 	add.w	r8, sp, #184	; 0xb8
 800654e:	9316      	str	r3, [sp, #88]	; 0x58
 8006550:	2300      	movs	r3, #0
 8006552:	6812      	ldr	r2, [r2, #0]
 8006554:	3504      	adds	r5, #4
 8006556:	469a      	mov	sl, r3
 8006558:	940d      	str	r4, [sp, #52]	; 0x34
 800655a:	9514      	str	r5, [sp, #80]	; 0x50
 800655c:	f88d 308f 	strb.w	r3, [sp, #143]	; 0x8f
 8006560:	930c      	str	r3, [sp, #48]	; 0x30
 8006562:	9318      	str	r3, [sp, #96]	; 0x60
 8006564:	9410      	str	r4, [sp, #64]	; 0x40
 8006566:	f88d 20b8 	strb.w	r2, [sp, #184]	; 0xb8
 800656a:	e518      	b.n	8005f9e <_svfprintf_r+0x28e>
 800656c:	9d0a      	ldr	r5, [sp, #40]	; 0x28
 800656e:	f24c 2404 	movw	r4, #49668	; 0xc204
 8006572:	f6c0 0400 	movt	r4, #2048	; 0x800
 8006576:	9316      	str	r3, [sp, #88]	; 0x58
 8006578:	06a8      	lsls	r0, r5, #26
 800657a:	f88d 208f 	strb.w	r2, [sp, #143]	; 0x8f
 800657e:	9419      	str	r4, [sp, #100]	; 0x64
 8006580:	f53f af64 	bmi.w	800644c <_svfprintf_r+0x73c>
 8006584:	9c0a      	ldr	r4, [sp, #40]	; 0x28
 8006586:	06e1      	lsls	r1, r4, #27
 8006588:	f100 8253 	bmi.w	8006a32 <_svfprintf_r+0xd22>
 800658c:	9c0a      	ldr	r4, [sp, #40]	; 0x28
 800658e:	0662      	lsls	r2, r4, #25
 8006590:	f140 824f 	bpl.w	8006a32 <_svfprintf_r+0xd22>
 8006594:	9814      	ldr	r0, [sp, #80]	; 0x50
 8006596:	2500      	movs	r5, #0
 8006598:	3004      	adds	r0, #4
 800659a:	f830 4c04 	ldrh.w	r4, [r0, #-4]
 800659e:	9014      	str	r0, [sp, #80]	; 0x50
 80065a0:	e75d      	b.n	800645e <_svfprintf_r+0x74e>
 80065a2:	9d0a      	ldr	r5, [sp, #40]	; 0x28
 80065a4:	9316      	str	r3, [sp, #88]	; 0x58
 80065a6:	06a9      	lsls	r1, r5, #26
 80065a8:	f88d 208f 	strb.w	r2, [sp, #143]	; 0x8f
 80065ac:	f53f ae9b 	bmi.w	80062e6 <_svfprintf_r+0x5d6>
 80065b0:	9c0a      	ldr	r4, [sp, #40]	; 0x28
 80065b2:	06e2      	lsls	r2, r4, #27
 80065b4:	f100 8255 	bmi.w	8006a62 <_svfprintf_r+0xd52>
 80065b8:	9c0a      	ldr	r4, [sp, #40]	; 0x28
 80065ba:	0663      	lsls	r3, r4, #25
 80065bc:	f140 8251 	bpl.w	8006a62 <_svfprintf_r+0xd52>
 80065c0:	9814      	ldr	r0, [sp, #80]	; 0x50
 80065c2:	3004      	adds	r0, #4
 80065c4:	f930 4c04 	ldrsh.w	r4, [r0, #-4]
 80065c8:	9014      	str	r0, [sp, #80]	; 0x50
 80065ca:	4622      	mov	r2, r4
 80065cc:	17e5      	asrs	r5, r4, #31
 80065ce:	462b      	mov	r3, r5
 80065d0:	e694      	b.n	80062fc <_svfprintf_r+0x5ec>
 80065d2:	9d0a      	ldr	r5, [sp, #40]	; 0x28
 80065d4:	f045 0580 	orr.w	r5, r5, #128	; 0x80
 80065d8:	950a      	str	r5, [sp, #40]	; 0x28
 80065da:	f899 3000 	ldrb.w	r3, [r9]
 80065de:	e400      	b.n	8005de2 <_svfprintf_r+0xd2>
 80065e0:	2400      	movs	r4, #0
 80065e2:	f1a3 0130 	sub.w	r1, r3, #48	; 0x30
 80065e6:	4620      	mov	r0, r4
 80065e8:	9413      	str	r4, [sp, #76]	; 0x4c
 80065ea:	eb00 0080 	add.w	r0, r0, r0, lsl #2
 80065ee:	f819 3b01 	ldrb.w	r3, [r9], #1
 80065f2:	eb01 0040 	add.w	r0, r1, r0, lsl #1
 80065f6:	f1a3 0130 	sub.w	r1, r3, #48	; 0x30
 80065fa:	2909      	cmp	r1, #9
 80065fc:	d9f5      	bls.n	80065ea <_svfprintf_r+0x8da>
 80065fe:	9013      	str	r0, [sp, #76]	; 0x4c
 8006600:	f7ff bbf1 	b.w	8005de6 <_svfprintf_r+0xd6>
 8006604:	9316      	str	r3, [sp, #88]	; 0x58
 8006606:	f88d 208f 	strb.w	r2, [sp, #143]	; 0x8f
 800660a:	2b00      	cmp	r3, #0
 800660c:	f43f ac5e 	beq.w	8005ecc <_svfprintf_r+0x1bc>
 8006610:	9c16      	ldr	r4, [sp, #88]	; 0x58
 8006612:	2300      	movs	r3, #0
 8006614:	2501      	movs	r5, #1
 8006616:	469a      	mov	sl, r3
 8006618:	950d      	str	r5, [sp, #52]	; 0x34
 800661a:	f10d 08b8 	add.w	r8, sp, #184	; 0xb8
 800661e:	f88d 40b8 	strb.w	r4, [sp, #184]	; 0xb8
 8006622:	f88d 308f 	strb.w	r3, [sp, #143]	; 0x8f
 8006626:	930c      	str	r3, [sp, #48]	; 0x30
 8006628:	9318      	str	r3, [sp, #96]	; 0x60
 800662a:	9510      	str	r5, [sp, #64]	; 0x40
 800662c:	e4b7      	b.n	8005f9e <_svfprintf_r+0x28e>
 800662e:	980e      	ldr	r0, [sp, #56]	; 0x38
 8006630:	aa2b      	add	r2, sp, #172	; 0xac
 8006632:	990b      	ldr	r1, [sp, #44]	; 0x2c
 8006634:	f003 f810 	bl	8009658 <__ssprint_r>
 8006638:	2800      	cmp	r0, #0
 800663a:	f47f ac4e 	bne.w	8005eda <_svfprintf_r+0x1ca>
 800663e:	f89d a08f 	ldrb.w	sl, [sp, #143]	; 0x8f
 8006642:	af38      	add	r7, sp, #224	; 0xe0
 8006644:	9c2d      	ldr	r4, [sp, #180]	; 0xb4
 8006646:	e509      	b.n	800605c <_svfprintf_r+0x34c>
 8006648:	9d16      	ldr	r5, [sp, #88]	; 0x58
 800664a:	2d65      	cmp	r5, #101	; 0x65
 800664c:	f340 80b9 	ble.w	80067c2 <_svfprintf_r+0xab2>
 8006650:	981b      	ldr	r0, [sp, #108]	; 0x6c
 8006652:	2200      	movs	r2, #0
 8006654:	2300      	movs	r3, #0
 8006656:	991c      	ldr	r1, [sp, #112]	; 0x70
 8006658:	f004 ffc4 	bl	800b5e4 <__aeabi_dcmpeq>
 800665c:	2800      	cmp	r0, #0
 800665e:	f000 812c 	beq.w	80068ba <_svfprintf_r+0xbaa>
 8006662:	9b2c      	ldr	r3, [sp, #176]	; 0xb0
 8006664:	2201      	movs	r2, #1
 8006666:	9d17      	ldr	r5, [sp, #92]	; 0x5c
 8006668:	3401      	adds	r4, #1
 800666a:	4413      	add	r3, r2
 800666c:	607a      	str	r2, [r7, #4]
 800666e:	2b07      	cmp	r3, #7
 8006670:	942d      	str	r4, [sp, #180]	; 0xb4
 8006672:	603d      	str	r5, [r7, #0]
 8006674:	bfd8      	it	le
 8006676:	3708      	addle	r7, #8
 8006678:	932c      	str	r3, [sp, #176]	; 0xb0
 800667a:	f300 8316 	bgt.w	8006caa <_svfprintf_r+0xf9a>
 800667e:	9b25      	ldr	r3, [sp, #148]	; 0x94
 8006680:	9d11      	ldr	r5, [sp, #68]	; 0x44
 8006682:	42ab      	cmp	r3, r5
 8006684:	db03      	blt.n	800668e <_svfprintf_r+0x97e>
 8006686:	9d0a      	ldr	r5, [sp, #40]	; 0x28
 8006688:	07ed      	lsls	r5, r5, #31
 800668a:	f57f ad68 	bpl.w	800615e <_svfprintf_r+0x44e>
 800668e:	9d1d      	ldr	r5, [sp, #116]	; 0x74
 8006690:	9b2c      	ldr	r3, [sp, #176]	; 0xb0
 8006692:	442c      	add	r4, r5
 8006694:	9d1a      	ldr	r5, [sp, #104]	; 0x68
 8006696:	3301      	adds	r3, #1
 8006698:	942d      	str	r4, [sp, #180]	; 0xb4
 800669a:	2b07      	cmp	r3, #7
 800669c:	932c      	str	r3, [sp, #176]	; 0xb0
 800669e:	603d      	str	r5, [r7, #0]
 80066a0:	9d1d      	ldr	r5, [sp, #116]	; 0x74
 80066a2:	607d      	str	r5, [r7, #4]
 80066a4:	bfd8      	it	le
 80066a6:	3708      	addle	r7, #8
 80066a8:	f300 835e 	bgt.w	8006d68 <_svfprintf_r+0x1058>
 80066ac:	9d11      	ldr	r5, [sp, #68]	; 0x44
 80066ae:	f105 38ff 	add.w	r8, r5, #4294967295
 80066b2:	f1b8 0f00 	cmp.w	r8, #0
 80066b6:	f77f ad52 	ble.w	800615e <_svfprintf_r+0x44e>
 80066ba:	f1b8 0f10 	cmp.w	r8, #16
 80066be:	9b2c      	ldr	r3, [sp, #176]	; 0xb0
 80066c0:	f340 81aa 	ble.w	8006a18 <_svfprintf_r+0xd08>
 80066c4:	4dac      	ldr	r5, [pc, #688]	; (8006978 <_svfprintf_r+0xc68>)
 80066c6:	f04f 0a10 	mov.w	sl, #16
 80066ca:	f8dd b02c 	ldr.w	fp, [sp, #44]	; 0x2c
 80066ce:	950f      	str	r5, [sp, #60]	; 0x3c
 80066d0:	9d0e      	ldr	r5, [sp, #56]	; 0x38
 80066d2:	e005      	b.n	80066e0 <_svfprintf_r+0x9d0>
 80066d4:	f1a8 0810 	sub.w	r8, r8, #16
 80066d8:	f1b8 0f10 	cmp.w	r8, #16
 80066dc:	f340 819e 	ble.w	8006a1c <_svfprintf_r+0xd0c>
 80066e0:	3301      	adds	r3, #1
 80066e2:	3410      	adds	r4, #16
 80066e4:	2b07      	cmp	r3, #7
 80066e6:	e887 0440 	stmia.w	r7, {r6, sl}
 80066ea:	932c      	str	r3, [sp, #176]	; 0xb0
 80066ec:	f107 0708 	add.w	r7, r7, #8
 80066f0:	942d      	str	r4, [sp, #180]	; 0xb4
 80066f2:	ddef      	ble.n	80066d4 <_svfprintf_r+0x9c4>
 80066f4:	4628      	mov	r0, r5
 80066f6:	4659      	mov	r1, fp
 80066f8:	aa2b      	add	r2, sp, #172	; 0xac
 80066fa:	af38      	add	r7, sp, #224	; 0xe0
 80066fc:	f002 ffac 	bl	8009658 <__ssprint_r>
 8006700:	2800      	cmp	r0, #0
 8006702:	f47f abea 	bne.w	8005eda <_svfprintf_r+0x1ca>
 8006706:	9c2d      	ldr	r4, [sp, #180]	; 0xb4
 8006708:	9b2c      	ldr	r3, [sp, #176]	; 0xb0
 800670a:	e7e3      	b.n	80066d4 <_svfprintf_r+0x9c4>
 800670c:	2b00      	cmp	r3, #0
 800670e:	f040 80b4 	bne.w	800687a <_svfprintf_r+0xb6a>
 8006712:	9c0a      	ldr	r4, [sp, #40]	; 0x28
 8006714:	07e2      	lsls	r2, r4, #31
 8006716:	bf5c      	itt	pl
 8006718:	9310      	strpl	r3, [sp, #64]	; 0x40
 800671a:	f10d 08e0 	addpl.w	r8, sp, #224	; 0xe0
 800671e:	f57f ac30 	bpl.w	8005f82 <_svfprintf_r+0x272>
 8006722:	9d21      	ldr	r5, [sp, #132]	; 0x84
 8006724:	2330      	movs	r3, #48	; 0x30
 8006726:	f10d 08df 	add.w	r8, sp, #223	; 0xdf
 800672a:	f88d 30df 	strb.w	r3, [sp, #223]	; 0xdf
 800672e:	9510      	str	r5, [sp, #64]	; 0x40
 8006730:	e427      	b.n	8005f82 <_svfprintf_r+0x272>
 8006732:	9813      	ldr	r0, [sp, #76]	; 0x4c
 8006734:	990d      	ldr	r1, [sp, #52]	; 0x34
 8006736:	1a45      	subs	r5, r0, r1
 8006738:	2d00      	cmp	r5, #0
 800673a:	f77f acb4 	ble.w	80060a6 <_svfprintf_r+0x396>
 800673e:	2d10      	cmp	r5, #16
 8006740:	9b2c      	ldr	r3, [sp, #176]	; 0xb0
 8006742:	bfdc      	itt	le
 8006744:	4a8c      	ldrle	r2, [pc, #560]	; (8006978 <_svfprintf_r+0xc68>)
 8006746:	920f      	strle	r2, [sp, #60]	; 0x3c
 8006748:	dd24      	ble.n	8006794 <_svfprintf_r+0xa84>
 800674a:	488b      	ldr	r0, [pc, #556]	; (8006978 <_svfprintf_r+0xc68>)
 800674c:	4622      	mov	r2, r4
 800674e:	f04f 0b10 	mov.w	fp, #16
 8006752:	f8dd a038 	ldr.w	sl, [sp, #56]	; 0x38
 8006756:	9c0b      	ldr	r4, [sp, #44]	; 0x2c
 8006758:	900f      	str	r0, [sp, #60]	; 0x3c
 800675a:	e002      	b.n	8006762 <_svfprintf_r+0xa52>
 800675c:	3d10      	subs	r5, #16
 800675e:	2d10      	cmp	r5, #16
 8006760:	dd17      	ble.n	8006792 <_svfprintf_r+0xa82>
 8006762:	3301      	adds	r3, #1
 8006764:	3210      	adds	r2, #16
 8006766:	2b07      	cmp	r3, #7
 8006768:	e887 0840 	stmia.w	r7, {r6, fp}
 800676c:	932c      	str	r3, [sp, #176]	; 0xb0
 800676e:	f107 0708 	add.w	r7, r7, #8
 8006772:	922d      	str	r2, [sp, #180]	; 0xb4
 8006774:	ddf2      	ble.n	800675c <_svfprintf_r+0xa4c>
 8006776:	4650      	mov	r0, sl
 8006778:	4621      	mov	r1, r4
 800677a:	aa2b      	add	r2, sp, #172	; 0xac
 800677c:	af38      	add	r7, sp, #224	; 0xe0
 800677e:	f002 ff6b 	bl	8009658 <__ssprint_r>
 8006782:	2800      	cmp	r0, #0
 8006784:	f47f aba9 	bne.w	8005eda <_svfprintf_r+0x1ca>
 8006788:	3d10      	subs	r5, #16
 800678a:	9a2d      	ldr	r2, [sp, #180]	; 0xb4
 800678c:	2d10      	cmp	r5, #16
 800678e:	9b2c      	ldr	r3, [sp, #176]	; 0xb0
 8006790:	dce7      	bgt.n	8006762 <_svfprintf_r+0xa52>
 8006792:	4614      	mov	r4, r2
 8006794:	3301      	adds	r3, #1
 8006796:	990f      	ldr	r1, [sp, #60]	; 0x3c
 8006798:	2b07      	cmp	r3, #7
 800679a:	442c      	add	r4, r5
 800679c:	932c      	str	r3, [sp, #176]	; 0xb0
 800679e:	e887 0022 	stmia.w	r7, {r1, r5}
 80067a2:	bfd8      	it	le
 80067a4:	3708      	addle	r7, #8
 80067a6:	942d      	str	r4, [sp, #180]	; 0xb4
 80067a8:	f77f ac7d 	ble.w	80060a6 <_svfprintf_r+0x396>
 80067ac:	980e      	ldr	r0, [sp, #56]	; 0x38
 80067ae:	aa2b      	add	r2, sp, #172	; 0xac
 80067b0:	990b      	ldr	r1, [sp, #44]	; 0x2c
 80067b2:	f002 ff51 	bl	8009658 <__ssprint_r>
 80067b6:	2800      	cmp	r0, #0
 80067b8:	f47f ab8f 	bne.w	8005eda <_svfprintf_r+0x1ca>
 80067bc:	9c2d      	ldr	r4, [sp, #180]	; 0xb4
 80067be:	af38      	add	r7, sp, #224	; 0xe0
 80067c0:	e471      	b.n	80060a6 <_svfprintf_r+0x396>
 80067c2:	9d11      	ldr	r5, [sp, #68]	; 0x44
 80067c4:	9b2c      	ldr	r3, [sp, #176]	; 0xb0
 80067c6:	2d01      	cmp	r5, #1
 80067c8:	f340 81e2 	ble.w	8006b90 <_svfprintf_r+0xe80>
 80067cc:	2101      	movs	r1, #1
 80067ce:	1c62      	adds	r2, r4, #1
 80067d0:	440b      	add	r3, r1
 80067d2:	f8c7 8000 	str.w	r8, [r7]
 80067d6:	2b07      	cmp	r3, #7
 80067d8:	6079      	str	r1, [r7, #4]
 80067da:	922d      	str	r2, [sp, #180]	; 0xb4
 80067dc:	bfd8      	it	le
 80067de:	3708      	addle	r7, #8
 80067e0:	932c      	str	r3, [sp, #176]	; 0xb0
 80067e2:	f300 81f4 	bgt.w	8006bce <_svfprintf_r+0xebe>
 80067e6:	9d1a      	ldr	r5, [sp, #104]	; 0x68
 80067e8:	1c5c      	adds	r4, r3, #1
 80067ea:	f8dd a074 	ldr.w	sl, [sp, #116]	; 0x74
 80067ee:	2c07      	cmp	r4, #7
 80067f0:	942c      	str	r4, [sp, #176]	; 0xb0
 80067f2:	603d      	str	r5, [r7, #0]
 80067f4:	4492      	add	sl, r2
 80067f6:	9d1d      	ldr	r5, [sp, #116]	; 0x74
 80067f8:	f8cd a0b4 	str.w	sl, [sp, #180]	; 0xb4
 80067fc:	607d      	str	r5, [r7, #4]
 80067fe:	bfd8      	it	le
 8006800:	3708      	addle	r7, #8
 8006802:	f300 81d7 	bgt.w	8006bb4 <_svfprintf_r+0xea4>
 8006806:	981b      	ldr	r0, [sp, #108]	; 0x6c
 8006808:	2200      	movs	r2, #0
 800680a:	2300      	movs	r3, #0
 800680c:	991c      	ldr	r1, [sp, #112]	; 0x70
 800680e:	f004 fee9 	bl	800b5e4 <__aeabi_dcmpeq>
 8006812:	2800      	cmp	r0, #0
 8006814:	f040 80b2 	bne.w	800697c <_svfprintf_r+0xc6c>
 8006818:	3401      	adds	r4, #1
 800681a:	9d11      	ldr	r5, [sp, #68]	; 0x44
 800681c:	2c07      	cmp	r4, #7
 800681e:	f108 0201 	add.w	r2, r8, #1
 8006822:	f105 33ff 	add.w	r3, r5, #4294967295
 8006826:	942c      	str	r4, [sp, #176]	; 0xb0
 8006828:	449a      	add	sl, r3
 800682a:	603a      	str	r2, [r7, #0]
 800682c:	f8cd a0b4 	str.w	sl, [sp, #180]	; 0xb4
 8006830:	607b      	str	r3, [r7, #4]
 8006832:	f300 80e4 	bgt.w	80069fe <_svfprintf_r+0xcee>
 8006836:	3708      	adds	r7, #8
 8006838:	1c63      	adds	r3, r4, #1
 800683a:	9d1e      	ldr	r5, [sp, #120]	; 0x78
 800683c:	9c1e      	ldr	r4, [sp, #120]	; 0x78
 800683e:	2b07      	cmp	r3, #7
 8006840:	aa27      	add	r2, sp, #156	; 0x9c
 8006842:	932c      	str	r3, [sp, #176]	; 0xb0
 8006844:	4454      	add	r4, sl
 8006846:	e887 0024 	stmia.w	r7, {r2, r5}
 800684a:	942d      	str	r4, [sp, #180]	; 0xb4
 800684c:	f77f ac86 	ble.w	800615c <_svfprintf_r+0x44c>
 8006850:	980e      	ldr	r0, [sp, #56]	; 0x38
 8006852:	aa2b      	add	r2, sp, #172	; 0xac
 8006854:	990b      	ldr	r1, [sp, #44]	; 0x2c
 8006856:	f002 feff 	bl	8009658 <__ssprint_r>
 800685a:	2800      	cmp	r0, #0
 800685c:	f47f ab3d 	bne.w	8005eda <_svfprintf_r+0x1ca>
 8006860:	9c2d      	ldr	r4, [sp, #180]	; 0xb4
 8006862:	af38      	add	r7, sp, #224	; 0xe0
 8006864:	e47b      	b.n	800615e <_svfprintf_r+0x44e>
 8006866:	980e      	ldr	r0, [sp, #56]	; 0x38
 8006868:	aa2b      	add	r2, sp, #172	; 0xac
 800686a:	990b      	ldr	r1, [sp, #44]	; 0x2c
 800686c:	f002 fef4 	bl	8009658 <__ssprint_r>
 8006870:	2800      	cmp	r0, #0
 8006872:	f43f acc3 	beq.w	80061fc <_svfprintf_r+0x4ec>
 8006876:	f7ff bb30 	b.w	8005eda <_svfprintf_r+0x1ca>
 800687a:	9210      	str	r2, [sp, #64]	; 0x40
 800687c:	f10d 08e0 	add.w	r8, sp, #224	; 0xe0
 8006880:	f7ff bb7f 	b.w	8005f82 <_svfprintf_r+0x272>
 8006884:	980e      	ldr	r0, [sp, #56]	; 0x38
 8006886:	aa2b      	add	r2, sp, #172	; 0xac
 8006888:	990b      	ldr	r1, [sp, #44]	; 0x2c
 800688a:	f002 fee5 	bl	8009658 <__ssprint_r>
 800688e:	2800      	cmp	r0, #0
 8006890:	f47f ab23 	bne.w	8005eda <_svfprintf_r+0x1ca>
 8006894:	9c2d      	ldr	r4, [sp, #180]	; 0xb4
 8006896:	af38      	add	r7, sp, #224	; 0xe0
 8006898:	f7ff bbf2 	b.w	8006080 <_svfprintf_r+0x370>
 800689c:	980e      	ldr	r0, [sp, #56]	; 0x38
 800689e:	aa2b      	add	r2, sp, #172	; 0xac
 80068a0:	990b      	ldr	r1, [sp, #44]	; 0x2c
 80068a2:	f002 fed9 	bl	8009658 <__ssprint_r>
 80068a6:	2800      	cmp	r0, #0
 80068a8:	f47f ab17 	bne.w	8005eda <_svfprintf_r+0x1ca>
 80068ac:	9c2d      	ldr	r4, [sp, #180]	; 0xb4
 80068ae:	af38      	add	r7, sp, #224	; 0xe0
 80068b0:	f7ff bbf6 	b.w	80060a0 <_svfprintf_r+0x390>
 80068b4:	2302      	movs	r3, #2
 80068b6:	f7ff bb2c 	b.w	8005f12 <_svfprintf_r+0x202>
 80068ba:	9b25      	ldr	r3, [sp, #148]	; 0x94
 80068bc:	2b00      	cmp	r3, #0
 80068be:	f340 81ff 	ble.w	8006cc0 <_svfprintf_r+0xfb0>
 80068c2:	9d11      	ldr	r5, [sp, #68]	; 0x44
 80068c4:	9818      	ldr	r0, [sp, #96]	; 0x60
 80068c6:	9911      	ldr	r1, [sp, #68]	; 0x44
 80068c8:	4285      	cmp	r5, r0
 80068ca:	bfa8      	it	ge
 80068cc:	4605      	movge	r5, r0
 80068ce:	2d00      	cmp	r5, #0
 80068d0:	4441      	add	r1, r8
 80068d2:	910c      	str	r1, [sp, #48]	; 0x30
 80068d4:	dd0c      	ble.n	80068f0 <_svfprintf_r+0xbe0>
 80068d6:	9b2c      	ldr	r3, [sp, #176]	; 0xb0
 80068d8:	442c      	add	r4, r5
 80068da:	f8c7 8000 	str.w	r8, [r7]
 80068de:	3301      	adds	r3, #1
 80068e0:	607d      	str	r5, [r7, #4]
 80068e2:	2b07      	cmp	r3, #7
 80068e4:	942d      	str	r4, [sp, #180]	; 0xb4
 80068e6:	932c      	str	r3, [sp, #176]	; 0xb0
 80068e8:	bfd8      	it	le
 80068ea:	3708      	addle	r7, #8
 80068ec:	f300 8343 	bgt.w	8006f76 <_svfprintf_r+0x1266>
 80068f0:	9a18      	ldr	r2, [sp, #96]	; 0x60
 80068f2:	ea25 75e5 	bic.w	r5, r5, r5, asr #31
 80068f6:	ebc5 0a02 	rsb	sl, r5, r2
 80068fa:	f1ba 0f00 	cmp.w	sl, #0
 80068fe:	f340 80dd 	ble.w	8006abc <_svfprintf_r+0xdac>
 8006902:	f1ba 0f10 	cmp.w	sl, #16
 8006906:	9b2c      	ldr	r3, [sp, #176]	; 0xb0
 8006908:	bfdc      	itt	le
 800690a:	4d1b      	ldrle	r5, [pc, #108]	; (8006978 <_svfprintf_r+0xc68>)
 800690c:	950f      	strle	r5, [sp, #60]	; 0x3c
 800690e:	f340 80c0 	ble.w	8006a92 <_svfprintf_r+0xd82>
 8006912:	4d19      	ldr	r5, [pc, #100]	; (8006978 <_svfprintf_r+0xc68>)
 8006914:	4622      	mov	r2, r4
 8006916:	f04f 0b10 	mov.w	fp, #16
 800691a:	9c0b      	ldr	r4, [sp, #44]	; 0x2c
 800691c:	950f      	str	r5, [sp, #60]	; 0x3c
 800691e:	9d0e      	ldr	r5, [sp, #56]	; 0x38
 8006920:	e005      	b.n	800692e <_svfprintf_r+0xc1e>
 8006922:	f1aa 0a10 	sub.w	sl, sl, #16
 8006926:	f1ba 0f10 	cmp.w	sl, #16
 800692a:	f340 80b1 	ble.w	8006a90 <_svfprintf_r+0xd80>
 800692e:	3301      	adds	r3, #1
 8006930:	3210      	adds	r2, #16
 8006932:	2b07      	cmp	r3, #7
 8006934:	e887 0840 	stmia.w	r7, {r6, fp}
 8006938:	932c      	str	r3, [sp, #176]	; 0xb0
 800693a:	f107 0708 	add.w	r7, r7, #8
 800693e:	922d      	str	r2, [sp, #180]	; 0xb4
 8006940:	ddef      	ble.n	8006922 <_svfprintf_r+0xc12>
 8006942:	4628      	mov	r0, r5
 8006944:	4621      	mov	r1, r4
 8006946:	aa2b      	add	r2, sp, #172	; 0xac
 8006948:	af38      	add	r7, sp, #224	; 0xe0
 800694a:	f002 fe85 	bl	8009658 <__ssprint_r>
 800694e:	2800      	cmp	r0, #0
 8006950:	f47f aac3 	bne.w	8005eda <_svfprintf_r+0x1ca>
 8006954:	9a2d      	ldr	r2, [sp, #180]	; 0xb4
 8006956:	9b2c      	ldr	r3, [sp, #176]	; 0xb0
 8006958:	e7e3      	b.n	8006922 <_svfprintf_r+0xc12>
 800695a:	2d00      	cmp	r5, #0
 800695c:	bf08      	it	eq
 800695e:	2c0a      	cmpeq	r4, #10
 8006960:	f080 8141 	bcs.w	8006be6 <_svfprintf_r+0xed6>
 8006964:	9d21      	ldr	r5, [sp, #132]	; 0x84
 8006966:	3430      	adds	r4, #48	; 0x30
 8006968:	f10d 08df 	add.w	r8, sp, #223	; 0xdf
 800696c:	f88d 40df 	strb.w	r4, [sp, #223]	; 0xdf
 8006970:	9510      	str	r5, [sp, #64]	; 0x40
 8006972:	f7ff bb06 	b.w	8005f82 <_svfprintf_r+0x272>
 8006976:	bf00      	nop
 8006978:	0800c098 	stmdaeq	r0, {r3, r4, r7, lr, pc}
 800697c:	9d11      	ldr	r5, [sp, #68]	; 0x44
 800697e:	f105 38ff 	add.w	r8, r5, #4294967295
 8006982:	f1b8 0f00 	cmp.w	r8, #0
 8006986:	f77f af57 	ble.w	8006838 <_svfprintf_r+0xb28>
 800698a:	f1b8 0f10 	cmp.w	r8, #16
 800698e:	bfdc      	itt	le
 8006990:	4ba8      	ldrle	r3, [pc, #672]	; (8006c34 <_svfprintf_r+0xf24>)
 8006992:	930f      	strle	r3, [sp, #60]	; 0x3c
 8006994:	dd28      	ble.n	80069e8 <_svfprintf_r+0xcd8>
 8006996:	4da7      	ldr	r5, [pc, #668]	; (8006c34 <_svfprintf_r+0xf24>)
 8006998:	4653      	mov	r3, sl
 800699a:	f04f 0b10 	mov.w	fp, #16
 800699e:	f8dd a02c 	ldr.w	sl, [sp, #44]	; 0x2c
 80069a2:	950f      	str	r5, [sp, #60]	; 0x3c
 80069a4:	9d0e      	ldr	r5, [sp, #56]	; 0x38
 80069a6:	e004      	b.n	80069b2 <_svfprintf_r+0xca2>
 80069a8:	f1a8 0810 	sub.w	r8, r8, #16
 80069ac:	f1b8 0f10 	cmp.w	r8, #16
 80069b0:	dd19      	ble.n	80069e6 <_svfprintf_r+0xcd6>
 80069b2:	3401      	adds	r4, #1
 80069b4:	3310      	adds	r3, #16
 80069b6:	2c07      	cmp	r4, #7
 80069b8:	e887 0840 	stmia.w	r7, {r6, fp}
 80069bc:	942c      	str	r4, [sp, #176]	; 0xb0
 80069be:	f107 0708 	add.w	r7, r7, #8
 80069c2:	932d      	str	r3, [sp, #180]	; 0xb4
 80069c4:	ddf0      	ble.n	80069a8 <_svfprintf_r+0xc98>
 80069c6:	4628      	mov	r0, r5
 80069c8:	4651      	mov	r1, sl
 80069ca:	aa2b      	add	r2, sp, #172	; 0xac
 80069cc:	af38      	add	r7, sp, #224	; 0xe0
 80069ce:	f002 fe43 	bl	8009658 <__ssprint_r>
 80069d2:	2800      	cmp	r0, #0
 80069d4:	f47f aa81 	bne.w	8005eda <_svfprintf_r+0x1ca>
 80069d8:	f1a8 0810 	sub.w	r8, r8, #16
 80069dc:	9b2d      	ldr	r3, [sp, #180]	; 0xb4
 80069de:	f1b8 0f10 	cmp.w	r8, #16
 80069e2:	9c2c      	ldr	r4, [sp, #176]	; 0xb0
 80069e4:	dce5      	bgt.n	80069b2 <_svfprintf_r+0xca2>
 80069e6:	469a      	mov	sl, r3
 80069e8:	3401      	adds	r4, #1
 80069ea:	9b0f      	ldr	r3, [sp, #60]	; 0x3c
 80069ec:	2c07      	cmp	r4, #7
 80069ee:	44c2      	add	sl, r8
 80069f0:	942c      	str	r4, [sp, #176]	; 0xb0
 80069f2:	f8cd a0b4 	str.w	sl, [sp, #180]	; 0xb4
 80069f6:	e887 0108 	stmia.w	r7, {r3, r8}
 80069fa:	f77f af1c 	ble.w	8006836 <_svfprintf_r+0xb26>
 80069fe:	980e      	ldr	r0, [sp, #56]	; 0x38
 8006a00:	aa2b      	add	r2, sp, #172	; 0xac
 8006a02:	990b      	ldr	r1, [sp, #44]	; 0x2c
 8006a04:	f002 fe28 	bl	8009658 <__ssprint_r>
 8006a08:	2800      	cmp	r0, #0
 8006a0a:	f47f aa66 	bne.w	8005eda <_svfprintf_r+0x1ca>
 8006a0e:	f8dd a0b4 	ldr.w	sl, [sp, #180]	; 0xb4
 8006a12:	af38      	add	r7, sp, #224	; 0xe0
 8006a14:	9c2c      	ldr	r4, [sp, #176]	; 0xb0
 8006a16:	e70f      	b.n	8006838 <_svfprintf_r+0xb28>
 8006a18:	4d86      	ldr	r5, [pc, #536]	; (8006c34 <_svfprintf_r+0xf24>)
 8006a1a:	950f      	str	r5, [sp, #60]	; 0x3c
 8006a1c:	3301      	adds	r3, #1
 8006a1e:	9d0f      	ldr	r5, [sp, #60]	; 0x3c
 8006a20:	2b07      	cmp	r3, #7
 8006a22:	4444      	add	r4, r8
 8006a24:	932c      	str	r3, [sp, #176]	; 0xb0
 8006a26:	942d      	str	r4, [sp, #180]	; 0xb4
 8006a28:	e887 0120 	stmia.w	r7, {r5, r8}
 8006a2c:	f77f ab96 	ble.w	800615c <_svfprintf_r+0x44c>
 8006a30:	e70e      	b.n	8006850 <_svfprintf_r+0xb40>
 8006a32:	9d14      	ldr	r5, [sp, #80]	; 0x50
 8006a34:	3504      	adds	r5, #4
 8006a36:	f855 4c04 	ldr.w	r4, [r5, #-4]
 8006a3a:	9514      	str	r5, [sp, #80]	; 0x50
 8006a3c:	2500      	movs	r5, #0
 8006a3e:	e50e      	b.n	800645e <_svfprintf_r+0x74e>
 8006a40:	9d14      	ldr	r5, [sp, #80]	; 0x50
 8006a42:	2301      	movs	r3, #1
 8006a44:	3504      	adds	r5, #4
 8006a46:	f855 4c04 	ldr.w	r4, [r5, #-4]
 8006a4a:	9514      	str	r5, [sp, #80]	; 0x50
 8006a4c:	2500      	movs	r5, #0
 8006a4e:	f7ff ba60 	b.w	8005f12 <_svfprintf_r+0x202>
 8006a52:	9d14      	ldr	r5, [sp, #80]	; 0x50
 8006a54:	3504      	adds	r5, #4
 8006a56:	f855 4c04 	ldr.w	r4, [r5, #-4]
 8006a5a:	9514      	str	r5, [sp, #80]	; 0x50
 8006a5c:	2500      	movs	r5, #0
 8006a5e:	f7ff ba58 	b.w	8005f12 <_svfprintf_r+0x202>
 8006a62:	9d14      	ldr	r5, [sp, #80]	; 0x50
 8006a64:	3504      	adds	r5, #4
 8006a66:	f855 4c04 	ldr.w	r4, [r5, #-4]
 8006a6a:	9514      	str	r5, [sp, #80]	; 0x50
 8006a6c:	4622      	mov	r2, r4
 8006a6e:	17e5      	asrs	r5, r4, #31
 8006a70:	462b      	mov	r3, r5
 8006a72:	2a00      	cmp	r2, #0
 8006a74:	f173 0000 	sbcs.w	r0, r3, #0
 8006a78:	f6bf ac45 	bge.w	8006306 <_svfprintf_r+0x5f6>
 8006a7c:	f04f 0a2d 	mov.w	sl, #45	; 0x2d
 8006a80:	4264      	negs	r4, r4
 8006a82:	eb65 0545 	sbc.w	r5, r5, r5, lsl #1
 8006a86:	f88d a08f 	strb.w	sl, [sp, #143]	; 0x8f
 8006a8a:	2301      	movs	r3, #1
 8006a8c:	f7ff ba45 	b.w	8005f1a <_svfprintf_r+0x20a>
 8006a90:	4614      	mov	r4, r2
 8006a92:	3301      	adds	r3, #1
 8006a94:	9d0f      	ldr	r5, [sp, #60]	; 0x3c
 8006a96:	2b07      	cmp	r3, #7
 8006a98:	4454      	add	r4, sl
 8006a9a:	932c      	str	r3, [sp, #176]	; 0xb0
 8006a9c:	e887 0420 	stmia.w	r7, {r5, sl}
 8006aa0:	bfd8      	it	le
 8006aa2:	3708      	addle	r7, #8
 8006aa4:	942d      	str	r4, [sp, #180]	; 0xb4
 8006aa6:	dd09      	ble.n	8006abc <_svfprintf_r+0xdac>
 8006aa8:	980e      	ldr	r0, [sp, #56]	; 0x38
 8006aaa:	aa2b      	add	r2, sp, #172	; 0xac
 8006aac:	990b      	ldr	r1, [sp, #44]	; 0x2c
 8006aae:	f002 fdd3 	bl	8009658 <__ssprint_r>
 8006ab2:	2800      	cmp	r0, #0
 8006ab4:	f47f aa11 	bne.w	8005eda <_svfprintf_r+0x1ca>
 8006ab8:	9c2d      	ldr	r4, [sp, #180]	; 0xb4
 8006aba:	af38      	add	r7, sp, #224	; 0xe0
 8006abc:	9d18      	ldr	r5, [sp, #96]	; 0x60
 8006abe:	9b25      	ldr	r3, [sp, #148]	; 0x94
 8006ac0:	44a8      	add	r8, r5
 8006ac2:	9d11      	ldr	r5, [sp, #68]	; 0x44
 8006ac4:	42ab      	cmp	r3, r5
 8006ac6:	db49      	blt.n	8006b5c <_svfprintf_r+0xe4c>
 8006ac8:	9d0a      	ldr	r5, [sp, #40]	; 0x28
 8006aca:	07e9      	lsls	r1, r5, #31
 8006acc:	d446      	bmi.n	8006b5c <_svfprintf_r+0xe4c>
 8006ace:	980c      	ldr	r0, [sp, #48]	; 0x30
 8006ad0:	9911      	ldr	r1, [sp, #68]	; 0x44
 8006ad2:	ebc8 0500 	rsb	r5, r8, r0
 8006ad6:	1acb      	subs	r3, r1, r3
 8006ad8:	42ab      	cmp	r3, r5
 8006ada:	bfb8      	it	lt
 8006adc:	461d      	movlt	r5, r3
 8006ade:	2d00      	cmp	r5, #0
 8006ae0:	dd0c      	ble.n	8006afc <_svfprintf_r+0xdec>
 8006ae2:	9a2c      	ldr	r2, [sp, #176]	; 0xb0
 8006ae4:	442c      	add	r4, r5
 8006ae6:	f8c7 8000 	str.w	r8, [r7]
 8006aea:	3201      	adds	r2, #1
 8006aec:	607d      	str	r5, [r7, #4]
 8006aee:	2a07      	cmp	r2, #7
 8006af0:	942d      	str	r4, [sp, #180]	; 0xb4
 8006af2:	922c      	str	r2, [sp, #176]	; 0xb0
 8006af4:	bfd8      	it	le
 8006af6:	3708      	addle	r7, #8
 8006af8:	f300 824a 	bgt.w	8006f90 <_svfprintf_r+0x1280>
 8006afc:	ea25 75e5 	bic.w	r5, r5, r5, asr #31
 8006b00:	ebc5 0803 	rsb	r8, r5, r3
 8006b04:	f1b8 0f00 	cmp.w	r8, #0
 8006b08:	f77f ab29 	ble.w	800615e <_svfprintf_r+0x44e>
 8006b0c:	f1b8 0f10 	cmp.w	r8, #16
 8006b10:	9b2c      	ldr	r3, [sp, #176]	; 0xb0
 8006b12:	dd81      	ble.n	8006a18 <_svfprintf_r+0xd08>
 8006b14:	4d47      	ldr	r5, [pc, #284]	; (8006c34 <_svfprintf_r+0xf24>)
 8006b16:	f04f 0a10 	mov.w	sl, #16
 8006b1a:	f8dd b02c 	ldr.w	fp, [sp, #44]	; 0x2c
 8006b1e:	950f      	str	r5, [sp, #60]	; 0x3c
 8006b20:	9d0e      	ldr	r5, [sp, #56]	; 0x38
 8006b22:	e005      	b.n	8006b30 <_svfprintf_r+0xe20>
 8006b24:	f1a8 0810 	sub.w	r8, r8, #16
 8006b28:	f1b8 0f10 	cmp.w	r8, #16
 8006b2c:	f77f af76 	ble.w	8006a1c <_svfprintf_r+0xd0c>
 8006b30:	3301      	adds	r3, #1
 8006b32:	3410      	adds	r4, #16
 8006b34:	2b07      	cmp	r3, #7
 8006b36:	e887 0440 	stmia.w	r7, {r6, sl}
 8006b3a:	932c      	str	r3, [sp, #176]	; 0xb0
 8006b3c:	f107 0708 	add.w	r7, r7, #8
 8006b40:	942d      	str	r4, [sp, #180]	; 0xb4
 8006b42:	ddef      	ble.n	8006b24 <_svfprintf_r+0xe14>
 8006b44:	4628      	mov	r0, r5
 8006b46:	4659      	mov	r1, fp
 8006b48:	aa2b      	add	r2, sp, #172	; 0xac
 8006b4a:	af38      	add	r7, sp, #224	; 0xe0
 8006b4c:	f002 fd84 	bl	8009658 <__ssprint_r>
 8006b50:	2800      	cmp	r0, #0
 8006b52:	f47f a9c2 	bne.w	8005eda <_svfprintf_r+0x1ca>
 8006b56:	9c2d      	ldr	r4, [sp, #180]	; 0xb4
 8006b58:	9b2c      	ldr	r3, [sp, #176]	; 0xb0
 8006b5a:	e7e3      	b.n	8006b24 <_svfprintf_r+0xe14>
 8006b5c:	9d1d      	ldr	r5, [sp, #116]	; 0x74
 8006b5e:	9a2c      	ldr	r2, [sp, #176]	; 0xb0
 8006b60:	442c      	add	r4, r5
 8006b62:	9d1a      	ldr	r5, [sp, #104]	; 0x68
 8006b64:	3201      	adds	r2, #1
 8006b66:	942d      	str	r4, [sp, #180]	; 0xb4
 8006b68:	2a07      	cmp	r2, #7
 8006b6a:	922c      	str	r2, [sp, #176]	; 0xb0
 8006b6c:	603d      	str	r5, [r7, #0]
 8006b6e:	9d1d      	ldr	r5, [sp, #116]	; 0x74
 8006b70:	607d      	str	r5, [r7, #4]
 8006b72:	bfd8      	it	le
 8006b74:	3708      	addle	r7, #8
 8006b76:	ddaa      	ble.n	8006ace <_svfprintf_r+0xdbe>
 8006b78:	980e      	ldr	r0, [sp, #56]	; 0x38
 8006b7a:	aa2b      	add	r2, sp, #172	; 0xac
 8006b7c:	990b      	ldr	r1, [sp, #44]	; 0x2c
 8006b7e:	f002 fd6b 	bl	8009658 <__ssprint_r>
 8006b82:	2800      	cmp	r0, #0
 8006b84:	f47f a9a9 	bne.w	8005eda <_svfprintf_r+0x1ca>
 8006b88:	9b25      	ldr	r3, [sp, #148]	; 0x94
 8006b8a:	af38      	add	r7, sp, #224	; 0xe0
 8006b8c:	9c2d      	ldr	r4, [sp, #180]	; 0xb4
 8006b8e:	e79e      	b.n	8006ace <_svfprintf_r+0xdbe>
 8006b90:	9d0a      	ldr	r5, [sp, #40]	; 0x28
 8006b92:	07ea      	lsls	r2, r5, #31
 8006b94:	f53f ae1a 	bmi.w	80067cc <_svfprintf_r+0xabc>
 8006b98:	2201      	movs	r2, #1
 8006b9a:	f104 0a01 	add.w	sl, r4, #1
 8006b9e:	189c      	adds	r4, r3, r2
 8006ba0:	f8c7 8000 	str.w	r8, [r7]
 8006ba4:	2c07      	cmp	r4, #7
 8006ba6:	f8cd a0b4 	str.w	sl, [sp, #180]	; 0xb4
 8006baa:	942c      	str	r4, [sp, #176]	; 0xb0
 8006bac:	607a      	str	r2, [r7, #4]
 8006bae:	f77f ae42 	ble.w	8006836 <_svfprintf_r+0xb26>
 8006bb2:	e724      	b.n	80069fe <_svfprintf_r+0xcee>
 8006bb4:	980e      	ldr	r0, [sp, #56]	; 0x38
 8006bb6:	aa2b      	add	r2, sp, #172	; 0xac
 8006bb8:	990b      	ldr	r1, [sp, #44]	; 0x2c
 8006bba:	f002 fd4d 	bl	8009658 <__ssprint_r>
 8006bbe:	2800      	cmp	r0, #0
 8006bc0:	f47f a98b 	bne.w	8005eda <_svfprintf_r+0x1ca>
 8006bc4:	f8dd a0b4 	ldr.w	sl, [sp, #180]	; 0xb4
 8006bc8:	af38      	add	r7, sp, #224	; 0xe0
 8006bca:	9c2c      	ldr	r4, [sp, #176]	; 0xb0
 8006bcc:	e61b      	b.n	8006806 <_svfprintf_r+0xaf6>
 8006bce:	980e      	ldr	r0, [sp, #56]	; 0x38
 8006bd0:	aa2b      	add	r2, sp, #172	; 0xac
 8006bd2:	990b      	ldr	r1, [sp, #44]	; 0x2c
 8006bd4:	f002 fd40 	bl	8009658 <__ssprint_r>
 8006bd8:	2800      	cmp	r0, #0
 8006bda:	f47f a97e 	bne.w	8005eda <_svfprintf_r+0x1ca>
 8006bde:	9a2d      	ldr	r2, [sp, #180]	; 0xb4
 8006be0:	af38      	add	r7, sp, #224	; 0xe0
 8006be2:	9b2c      	ldr	r3, [sp, #176]	; 0xb0
 8006be4:	e5ff      	b.n	80067e6 <_svfprintf_r+0xad6>
 8006be6:	f10d 0bdf 	add.w	fp, sp, #223	; 0xdf
 8006bea:	4620      	mov	r0, r4
 8006bec:	4629      	mov	r1, r5
 8006bee:	220a      	movs	r2, #10
 8006bf0:	2300      	movs	r3, #0
 8006bf2:	f004 fd71 	bl	800b6d8 <__aeabi_uldivmod>
 8006bf6:	46d8      	mov	r8, fp
 8006bf8:	4620      	mov	r0, r4
 8006bfa:	4629      	mov	r1, r5
 8006bfc:	2300      	movs	r3, #0
 8006bfe:	f10b 3bff 	add.w	fp, fp, #4294967295
 8006c02:	3230      	adds	r2, #48	; 0x30
 8006c04:	f888 2000 	strb.w	r2, [r8]
 8006c08:	220a      	movs	r2, #10
 8006c0a:	f004 fd65 	bl	800b6d8 <__aeabi_uldivmod>
 8006c0e:	4604      	mov	r4, r0
 8006c10:	460d      	mov	r5, r1
 8006c12:	ea54 0005 	orrs.w	r0, r4, r5
 8006c16:	d1e8      	bne.n	8006bea <_svfprintf_r+0xeda>
 8006c18:	f7ff b9af 	b.w	8005f7a <_svfprintf_r+0x26a>
 8006c1c:	2b30      	cmp	r3, #48	; 0x30
 8006c1e:	f43f a9ac 	beq.w	8005f7a <_svfprintf_r+0x26a>
 8006c22:	9c09      	ldr	r4, [sp, #36]	; 0x24
 8006c24:	2330      	movs	r3, #48	; 0x30
 8006c26:	4690      	mov	r8, r2
 8006c28:	f801 3c01 	strb.w	r3, [r1, #-1]
 8006c2c:	1aa4      	subs	r4, r4, r2
 8006c2e:	9410      	str	r4, [sp, #64]	; 0x40
 8006c30:	f7ff b9a7 	b.w	8005f82 <_svfprintf_r+0x272>
 8006c34:	0800c098 	stmdaeq	r0, {r3, r4, r7, lr, pc}
 8006c38:	991c      	ldr	r1, [sp, #112]	; 0x70
 8006c3a:	f002 fb83 	bl	8009344 <__fpclassifyd>
 8006c3e:	2800      	cmp	r0, #0
 8006c40:	f040 80ab 	bne.w	8006d9a <_svfprintf_r+0x108a>
 8006c44:	2503      	movs	r5, #3
 8006c46:	9c0a      	ldr	r4, [sp, #40]	; 0x28
 8006c48:	f24c 2800 	movw	r8, #49664	; 0xc200
 8006c4c:	f24c 13fc 	movw	r3, #49660	; 0xc1fc
 8006c50:	950d      	str	r5, [sp, #52]	; 0x34
 8006c52:	f6c0 0800 	movt	r8, #2048	; 0x800
 8006c56:	9d16      	ldr	r5, [sp, #88]	; 0x58
 8006c58:	f6c0 0300 	movt	r3, #2048	; 0x800
 8006c5c:	f024 0480 	bic.w	r4, r4, #128	; 0x80
 8006c60:	900c      	str	r0, [sp, #48]	; 0x30
 8006c62:	940a      	str	r4, [sp, #40]	; 0x28
 8006c64:	2d47      	cmp	r5, #71	; 0x47
 8006c66:	bfd8      	it	le
 8006c68:	4698      	movle	r8, r3
 8006c6a:	2403      	movs	r4, #3
 8006c6c:	9018      	str	r0, [sp, #96]	; 0x60
 8006c6e:	9410      	str	r4, [sp, #64]	; 0x40
 8006c70:	f89d a08f 	ldrb.w	sl, [sp, #143]	; 0x8f
 8006c74:	f7ff b98d 	b.w	8005f92 <_svfprintf_r+0x282>
 8006c78:	9c14      	ldr	r4, [sp, #80]	; 0x50
 8006c7a:	1de3      	adds	r3, r4, #7
 8006c7c:	f023 0307 	bic.w	r3, r3, #7
 8006c80:	f103 0508 	add.w	r5, r3, #8
 8006c84:	9514      	str	r5, [sp, #80]	; 0x50
 8006c86:	681c      	ldr	r4, [r3, #0]
 8006c88:	941b      	str	r4, [sp, #108]	; 0x6c
 8006c8a:	685b      	ldr	r3, [r3, #4]
 8006c8c:	931c      	str	r3, [sp, #112]	; 0x70
 8006c8e:	f7ff bb53 	b.w	8006338 <_svfprintf_r+0x628>
 8006c92:	9c0a      	ldr	r4, [sp, #40]	; 0x28
 8006c94:	06e2      	lsls	r2, r4, #27
 8006c96:	d572      	bpl.n	8006d7e <_svfprintf_r+0x106e>
 8006c98:	9d14      	ldr	r5, [sp, #80]	; 0x50
 8006c9a:	9c12      	ldr	r4, [sp, #72]	; 0x48
 8006c9c:	3504      	adds	r5, #4
 8006c9e:	f855 3c04 	ldr.w	r3, [r5, #-4]
 8006ca2:	9514      	str	r5, [sp, #80]	; 0x50
 8006ca4:	601c      	str	r4, [r3, #0]
 8006ca6:	f7ff b869 	b.w	8005d7c <_svfprintf_r+0x6c>
 8006caa:	980e      	ldr	r0, [sp, #56]	; 0x38
 8006cac:	aa2b      	add	r2, sp, #172	; 0xac
 8006cae:	990b      	ldr	r1, [sp, #44]	; 0x2c
 8006cb0:	f002 fcd2 	bl	8009658 <__ssprint_r>
 8006cb4:	2800      	cmp	r0, #0
 8006cb6:	f47f a910 	bne.w	8005eda <_svfprintf_r+0x1ca>
 8006cba:	9c2d      	ldr	r4, [sp, #180]	; 0xb4
 8006cbc:	af38      	add	r7, sp, #224	; 0xe0
 8006cbe:	e4de      	b.n	800667e <_svfprintf_r+0x96e>
 8006cc0:	9a2c      	ldr	r2, [sp, #176]	; 0xb0
 8006cc2:	2101      	movs	r1, #1
 8006cc4:	9d17      	ldr	r5, [sp, #92]	; 0x5c
 8006cc6:	3401      	adds	r4, #1
 8006cc8:	440a      	add	r2, r1
 8006cca:	942d      	str	r4, [sp, #180]	; 0xb4
 8006ccc:	2a07      	cmp	r2, #7
 8006cce:	922c      	str	r2, [sp, #176]	; 0xb0
 8006cd0:	603d      	str	r5, [r7, #0]
 8006cd2:	6079      	str	r1, [r7, #4]
 8006cd4:	f300 8112 	bgt.w	8006efc <_svfprintf_r+0x11ec>
 8006cd8:	3708      	adds	r7, #8
 8006cda:	4619      	mov	r1, r3
 8006cdc:	b929      	cbnz	r1, 8006cea <_svfprintf_r+0xfda>
 8006cde:	9d11      	ldr	r5, [sp, #68]	; 0x44
 8006ce0:	b91d      	cbnz	r5, 8006cea <_svfprintf_r+0xfda>
 8006ce2:	9d0a      	ldr	r5, [sp, #40]	; 0x28
 8006ce4:	07e8      	lsls	r0, r5, #31
 8006ce6:	f57f aa3a 	bpl.w	800615e <_svfprintf_r+0x44e>
 8006cea:	9b2c      	ldr	r3, [sp, #176]	; 0xb0
 8006cec:	9a1d      	ldr	r2, [sp, #116]	; 0x74
 8006cee:	3301      	adds	r3, #1
 8006cf0:	9d1d      	ldr	r5, [sp, #116]	; 0x74
 8006cf2:	4422      	add	r2, r4
 8006cf4:	9c1a      	ldr	r4, [sp, #104]	; 0x68
 8006cf6:	2b07      	cmp	r3, #7
 8006cf8:	922d      	str	r2, [sp, #180]	; 0xb4
 8006cfa:	607d      	str	r5, [r7, #4]
 8006cfc:	603c      	str	r4, [r7, #0]
 8006cfe:	bfd8      	it	le
 8006d00:	3708      	addle	r7, #8
 8006d02:	932c      	str	r3, [sp, #176]	; 0xb0
 8006d04:	f300 81ba 	bgt.w	800707c <_svfprintf_r+0x136c>
 8006d08:	f1c1 0a00 	rsb	sl, r1, #0
 8006d0c:	f1ba 0f00 	cmp.w	sl, #0
 8006d10:	f340 8116 	ble.w	8006f40 <_svfprintf_r+0x1230>
 8006d14:	f1ba 0f10 	cmp.w	sl, #16
 8006d18:	bfdc      	itt	le
 8006d1a:	4c9c      	ldrle	r4, [pc, #624]	; (8006f8c <_svfprintf_r+0x127c>)
 8006d1c:	940f      	strle	r4, [sp, #60]	; 0x3c
 8006d1e:	f340 80f9 	ble.w	8006f14 <_svfprintf_r+0x1204>
 8006d22:	4d9a      	ldr	r5, [pc, #616]	; (8006f8c <_svfprintf_r+0x127c>)
 8006d24:	2410      	movs	r4, #16
 8006d26:	f8dd b02c 	ldr.w	fp, [sp, #44]	; 0x2c
 8006d2a:	950f      	str	r5, [sp, #60]	; 0x3c
 8006d2c:	9d0e      	ldr	r5, [sp, #56]	; 0x38
 8006d2e:	e005      	b.n	8006d3c <_svfprintf_r+0x102c>
 8006d30:	f1aa 0a10 	sub.w	sl, sl, #16
 8006d34:	f1ba 0f10 	cmp.w	sl, #16
 8006d38:	f340 80ec 	ble.w	8006f14 <_svfprintf_r+0x1204>
 8006d3c:	3301      	adds	r3, #1
 8006d3e:	3210      	adds	r2, #16
 8006d40:	2b07      	cmp	r3, #7
 8006d42:	603e      	str	r6, [r7, #0]
 8006d44:	607c      	str	r4, [r7, #4]
 8006d46:	f107 0708 	add.w	r7, r7, #8
 8006d4a:	932c      	str	r3, [sp, #176]	; 0xb0
 8006d4c:	922d      	str	r2, [sp, #180]	; 0xb4
 8006d4e:	ddef      	ble.n	8006d30 <_svfprintf_r+0x1020>
 8006d50:	4628      	mov	r0, r5
 8006d52:	4659      	mov	r1, fp
 8006d54:	aa2b      	add	r2, sp, #172	; 0xac
 8006d56:	af38      	add	r7, sp, #224	; 0xe0
 8006d58:	f002 fc7e 	bl	8009658 <__ssprint_r>
 8006d5c:	2800      	cmp	r0, #0
 8006d5e:	f47f a8bc 	bne.w	8005eda <_svfprintf_r+0x1ca>
 8006d62:	9a2d      	ldr	r2, [sp, #180]	; 0xb4
 8006d64:	9b2c      	ldr	r3, [sp, #176]	; 0xb0
 8006d66:	e7e3      	b.n	8006d30 <_svfprintf_r+0x1020>
 8006d68:	980e      	ldr	r0, [sp, #56]	; 0x38
 8006d6a:	aa2b      	add	r2, sp, #172	; 0xac
 8006d6c:	990b      	ldr	r1, [sp, #44]	; 0x2c
 8006d6e:	f002 fc73 	bl	8009658 <__ssprint_r>
 8006d72:	2800      	cmp	r0, #0
 8006d74:	f47f a8b1 	bne.w	8005eda <_svfprintf_r+0x1ca>
 8006d78:	9c2d      	ldr	r4, [sp, #180]	; 0xb4
 8006d7a:	af38      	add	r7, sp, #224	; 0xe0
 8006d7c:	e496      	b.n	80066ac <_svfprintf_r+0x99c>
 8006d7e:	9c14      	ldr	r4, [sp, #80]	; 0x50
 8006d80:	9d0a      	ldr	r5, [sp, #40]	; 0x28
 8006d82:	3404      	adds	r4, #4
 8006d84:	f854 3c04 	ldr.w	r3, [r4, #-4]
 8006d88:	f015 0f40 	tst.w	r5, #64	; 0x40
 8006d8c:	9d12      	ldr	r5, [sp, #72]	; 0x48
 8006d8e:	9414      	str	r4, [sp, #80]	; 0x50
 8006d90:	bf14      	ite	ne
 8006d92:	801d      	strhne	r5, [r3, #0]
 8006d94:	601d      	streq	r5, [r3, #0]
 8006d96:	f7fe bff1 	b.w	8005d7c <_svfprintf_r+0x6c>
 8006d9a:	9d0c      	ldr	r5, [sp, #48]	; 0x30
 8006d9c:	9c16      	ldr	r4, [sp, #88]	; 0x58
 8006d9e:	3501      	adds	r5, #1
 8006da0:	f024 0520 	bic.w	r5, r4, #32
 8006da4:	bf04      	itt	eq
 8006da6:	2406      	moveq	r4, #6
 8006da8:	940c      	streq	r4, [sp, #48]	; 0x30
 8006daa:	d006      	beq.n	8006dba <_svfprintf_r+0x10aa>
 8006dac:	2d47      	cmp	r5, #71	; 0x47
 8006dae:	d104      	bne.n	8006dba <_svfprintf_r+0x10aa>
 8006db0:	9c0c      	ldr	r4, [sp, #48]	; 0x30
 8006db2:	2c00      	cmp	r4, #0
 8006db4:	bf08      	it	eq
 8006db6:	2401      	moveq	r4, #1
 8006db8:	940c      	str	r4, [sp, #48]	; 0x30
 8006dba:	9b1c      	ldr	r3, [sp, #112]	; 0x70
 8006dbc:	9c0a      	ldr	r4, [sp, #40]	; 0x28
 8006dbe:	2b00      	cmp	r3, #0
 8006dc0:	f444 7480 	orr.w	r4, r4, #256	; 0x100
 8006dc4:	940f      	str	r4, [sp, #60]	; 0x3c
 8006dc6:	bfbd      	ittte	lt
 8006dc8:	461c      	movlt	r4, r3
 8006dca:	f04f 0b2d 	movlt.w	fp, #45	; 0x2d
 8006dce:	f104 4a00 	addlt.w	sl, r4, #2147483648	; 0x80000000
 8006dd2:	f8dd a070 	ldrge.w	sl, [sp, #112]	; 0x70
 8006dd6:	bfa8      	it	ge
 8006dd8:	f04f 0b00 	movge.w	fp, #0
 8006ddc:	f1b5 0446 	subs.w	r4, r5, #70	; 0x46
 8006de0:	4261      	negs	r1, r4
 8006de2:	4161      	adcs	r1, r4
 8006de4:	2900      	cmp	r1, #0
 8006de6:	d030      	beq.n	8006e4a <_svfprintf_r+0x113a>
 8006de8:	2003      	movs	r0, #3
 8006dea:	9c0c      	ldr	r4, [sp, #48]	; 0x30
 8006dec:	4653      	mov	r3, sl
 8006dee:	9000      	str	r0, [sp, #0]
 8006df0:	a825      	add	r0, sp, #148	; 0x94
 8006df2:	9a1b      	ldr	r2, [sp, #108]	; 0x6c
 8006df4:	9002      	str	r0, [sp, #8]
 8006df6:	a826      	add	r0, sp, #152	; 0x98
 8006df8:	9401      	str	r4, [sp, #4]
 8006dfa:	9003      	str	r0, [sp, #12]
 8006dfc:	a829      	add	r0, sp, #164	; 0xa4
 8006dfe:	9004      	str	r0, [sp, #16]
 8006e00:	980e      	ldr	r0, [sp, #56]	; 0x38
 8006e02:	9107      	str	r1, [sp, #28]
 8006e04:	f000 fa86 	bl	8007314 <_dtoa_r>
 8006e08:	2d47      	cmp	r5, #71	; 0x47
 8006e0a:	9907      	ldr	r1, [sp, #28]
 8006e0c:	4680      	mov	r8, r0
 8006e0e:	d103      	bne.n	8006e18 <_svfprintf_r+0x1108>
 8006e10:	9c0a      	ldr	r4, [sp, #40]	; 0x28
 8006e12:	07e0      	lsls	r0, r4, #31
 8006e14:	f140 80f0 	bpl.w	8006ff8 <_svfprintf_r+0x12e8>
 8006e18:	9c0c      	ldr	r4, [sp, #48]	; 0x30
 8006e1a:	4444      	add	r4, r8
 8006e1c:	b351      	cbz	r1, 8006e74 <_svfprintf_r+0x1164>
 8006e1e:	f898 3000 	ldrb.w	r3, [r8]
 8006e22:	2b30      	cmp	r3, #48	; 0x30
 8006e24:	f000 8184 	beq.w	8007130 <_svfprintf_r+0x1420>
 8006e28:	9b25      	ldr	r3, [sp, #148]	; 0x94
 8006e2a:	441c      	add	r4, r3
 8006e2c:	e022      	b.n	8006e74 <_svfprintf_r+0x1164>
 8006e2e:	980e      	ldr	r0, [sp, #56]	; 0x38
 8006e30:	2140      	movs	r1, #64	; 0x40
 8006e32:	f001 fa93 	bl	800835c <_malloc_r>
 8006e36:	6020      	str	r0, [r4, #0]
 8006e38:	6120      	str	r0, [r4, #16]
 8006e3a:	2800      	cmp	r0, #0
 8006e3c:	f000 81b6 	beq.w	80071ac <_svfprintf_r+0x149c>
 8006e40:	9c0b      	ldr	r4, [sp, #44]	; 0x2c
 8006e42:	2340      	movs	r3, #64	; 0x40
 8006e44:	6163      	str	r3, [r4, #20]
 8006e46:	f7fe bf79 	b.w	8005d3c <_svfprintf_r+0x2c>
 8006e4a:	2d45      	cmp	r5, #69	; 0x45
 8006e4c:	f040 8131 	bne.w	80070b2 <_svfprintf_r+0x13a2>
 8006e50:	980c      	ldr	r0, [sp, #48]	; 0x30
 8006e52:	2102      	movs	r1, #2
 8006e54:	9a1b      	ldr	r2, [sp, #108]	; 0x6c
 8006e56:	4653      	mov	r3, sl
 8006e58:	1c44      	adds	r4, r0, #1
 8006e5a:	9100      	str	r1, [sp, #0]
 8006e5c:	9401      	str	r4, [sp, #4]
 8006e5e:	a925      	add	r1, sp, #148	; 0x94
 8006e60:	980e      	ldr	r0, [sp, #56]	; 0x38
 8006e62:	9102      	str	r1, [sp, #8]
 8006e64:	a926      	add	r1, sp, #152	; 0x98
 8006e66:	9103      	str	r1, [sp, #12]
 8006e68:	a929      	add	r1, sp, #164	; 0xa4
 8006e6a:	9104      	str	r1, [sp, #16]
 8006e6c:	f000 fa52 	bl	8007314 <_dtoa_r>
 8006e70:	4680      	mov	r8, r0
 8006e72:	4404      	add	r4, r0
 8006e74:	2300      	movs	r3, #0
 8006e76:	981b      	ldr	r0, [sp, #108]	; 0x6c
 8006e78:	2200      	movs	r2, #0
 8006e7a:	4651      	mov	r1, sl
 8006e7c:	f004 fbb2 	bl	800b5e4 <__aeabi_dcmpeq>
 8006e80:	4623      	mov	r3, r4
 8006e82:	b948      	cbnz	r0, 8006e98 <_svfprintf_r+0x1188>
 8006e84:	9b29      	ldr	r3, [sp, #164]	; 0xa4
 8006e86:	429c      	cmp	r4, r3
 8006e88:	d906      	bls.n	8006e98 <_svfprintf_r+0x1188>
 8006e8a:	2130      	movs	r1, #48	; 0x30
 8006e8c:	1c5a      	adds	r2, r3, #1
 8006e8e:	9229      	str	r2, [sp, #164]	; 0xa4
 8006e90:	7019      	strb	r1, [r3, #0]
 8006e92:	9b29      	ldr	r3, [sp, #164]	; 0xa4
 8006e94:	429c      	cmp	r4, r3
 8006e96:	d8f9      	bhi.n	8006e8c <_svfprintf_r+0x117c>
 8006e98:	2d47      	cmp	r5, #71	; 0x47
 8006e9a:	ebc8 0303 	rsb	r3, r8, r3
 8006e9e:	9311      	str	r3, [sp, #68]	; 0x44
 8006ea0:	f000 80ae 	beq.w	8007000 <_svfprintf_r+0x12f0>
 8006ea4:	9c16      	ldr	r4, [sp, #88]	; 0x58
 8006ea6:	2c65      	cmp	r4, #101	; 0x65
 8006ea8:	f340 818a 	ble.w	80071c0 <_svfprintf_r+0x14b0>
 8006eac:	9d16      	ldr	r5, [sp, #88]	; 0x58
 8006eae:	2d66      	cmp	r5, #102	; 0x66
 8006eb0:	f000 8101 	beq.w	80070b6 <_svfprintf_r+0x13a6>
 8006eb4:	9c25      	ldr	r4, [sp, #148]	; 0x94
 8006eb6:	9418      	str	r4, [sp, #96]	; 0x60
 8006eb8:	9c18      	ldr	r4, [sp, #96]	; 0x60
 8006eba:	9d11      	ldr	r5, [sp, #68]	; 0x44
 8006ebc:	42ac      	cmp	r4, r5
 8006ebe:	f2c0 80ea 	blt.w	8007096 <_svfprintf_r+0x1386>
 8006ec2:	9c0a      	ldr	r4, [sp, #40]	; 0x28
 8006ec4:	9d18      	ldr	r5, [sp, #96]	; 0x60
 8006ec6:	07e0      	lsls	r0, r4, #31
 8006ec8:	bf4b      	itete	mi
 8006eca:	3501      	addmi	r5, #1
 8006ecc:	ea25 73e5 	bicpl.w	r3, r5, r5, asr #31
 8006ed0:	ea25 73e5 	bicmi.w	r3, r5, r5, asr #31
 8006ed4:	2467      	movpl	r4, #103	; 0x67
 8006ed6:	bf4d      	iteet	mi
 8006ed8:	2467      	movmi	r4, #103	; 0x67
 8006eda:	9510      	strpl	r5, [sp, #64]	; 0x40
 8006edc:	9416      	strpl	r4, [sp, #88]	; 0x58
 8006ede:	9510      	strmi	r5, [sp, #64]	; 0x40
 8006ee0:	bf48      	it	mi
 8006ee2:	9416      	strmi	r4, [sp, #88]	; 0x58
 8006ee4:	f1bb 0f00 	cmp.w	fp, #0
 8006ee8:	d175      	bne.n	8006fd6 <_svfprintf_r+0x12c6>
 8006eea:	9c0f      	ldr	r4, [sp, #60]	; 0x3c
 8006eec:	930d      	str	r3, [sp, #52]	; 0x34
 8006eee:	f8cd b030 	str.w	fp, [sp, #48]	; 0x30
 8006ef2:	940a      	str	r4, [sp, #40]	; 0x28
 8006ef4:	f89d a08f 	ldrb.w	sl, [sp, #143]	; 0x8f
 8006ef8:	f7ff b84b 	b.w	8005f92 <_svfprintf_r+0x282>
 8006efc:	980e      	ldr	r0, [sp, #56]	; 0x38
 8006efe:	aa2b      	add	r2, sp, #172	; 0xac
 8006f00:	990b      	ldr	r1, [sp, #44]	; 0x2c
 8006f02:	f002 fba9 	bl	8009658 <__ssprint_r>
 8006f06:	2800      	cmp	r0, #0
 8006f08:	f47e afe7 	bne.w	8005eda <_svfprintf_r+0x1ca>
 8006f0c:	9925      	ldr	r1, [sp, #148]	; 0x94
 8006f0e:	af38      	add	r7, sp, #224	; 0xe0
 8006f10:	9c2d      	ldr	r4, [sp, #180]	; 0xb4
 8006f12:	e6e3      	b.n	8006cdc <_svfprintf_r+0xfcc>
 8006f14:	3301      	adds	r3, #1
 8006f16:	9c0f      	ldr	r4, [sp, #60]	; 0x3c
 8006f18:	2b07      	cmp	r3, #7
 8006f1a:	4452      	add	r2, sl
 8006f1c:	932c      	str	r3, [sp, #176]	; 0xb0
 8006f1e:	e887 0410 	stmia.w	r7, {r4, sl}
 8006f22:	bfd8      	it	le
 8006f24:	3708      	addle	r7, #8
 8006f26:	922d      	str	r2, [sp, #180]	; 0xb4
 8006f28:	dd0a      	ble.n	8006f40 <_svfprintf_r+0x1230>
 8006f2a:	980e      	ldr	r0, [sp, #56]	; 0x38
 8006f2c:	aa2b      	add	r2, sp, #172	; 0xac
 8006f2e:	990b      	ldr	r1, [sp, #44]	; 0x2c
 8006f30:	f002 fb92 	bl	8009658 <__ssprint_r>
 8006f34:	2800      	cmp	r0, #0
 8006f36:	f47e afd0 	bne.w	8005eda <_svfprintf_r+0x1ca>
 8006f3a:	9a2d      	ldr	r2, [sp, #180]	; 0xb4
 8006f3c:	af38      	add	r7, sp, #224	; 0xe0
 8006f3e:	9b2c      	ldr	r3, [sp, #176]	; 0xb0
 8006f40:	3301      	adds	r3, #1
 8006f42:	9d11      	ldr	r5, [sp, #68]	; 0x44
 8006f44:	9c11      	ldr	r4, [sp, #68]	; 0x44
 8006f46:	2b07      	cmp	r3, #7
 8006f48:	932c      	str	r3, [sp, #176]	; 0xb0
 8006f4a:	4414      	add	r4, r2
 8006f4c:	f8c7 8000 	str.w	r8, [r7]
 8006f50:	942d      	str	r4, [sp, #180]	; 0xb4
 8006f52:	607d      	str	r5, [r7, #4]
 8006f54:	f77f a902 	ble.w	800615c <_svfprintf_r+0x44c>
 8006f58:	e47a      	b.n	8006850 <_svfprintf_r+0xb40>
 8006f5a:	950c      	str	r5, [sp, #48]	; 0x30
 8006f5c:	f002 fb4c 	bl	80095f8 <strlen>
 8006f60:	9414      	str	r4, [sp, #80]	; 0x50
 8006f62:	9c0c      	ldr	r4, [sp, #48]	; 0x30
 8006f64:	f89d a08f 	ldrb.w	sl, [sp, #143]	; 0x8f
 8006f68:	9418      	str	r4, [sp, #96]	; 0x60
 8006f6a:	ea20 75e0 	bic.w	r5, r0, r0, asr #31
 8006f6e:	9010      	str	r0, [sp, #64]	; 0x40
 8006f70:	950d      	str	r5, [sp, #52]	; 0x34
 8006f72:	f7ff b80e 	b.w	8005f92 <_svfprintf_r+0x282>
 8006f76:	980e      	ldr	r0, [sp, #56]	; 0x38
 8006f78:	aa2b      	add	r2, sp, #172	; 0xac
 8006f7a:	990b      	ldr	r1, [sp, #44]	; 0x2c
 8006f7c:	f002 fb6c 	bl	8009658 <__ssprint_r>
 8006f80:	2800      	cmp	r0, #0
 8006f82:	f47e afaa 	bne.w	8005eda <_svfprintf_r+0x1ca>
 8006f86:	9c2d      	ldr	r4, [sp, #180]	; 0xb4
 8006f88:	af38      	add	r7, sp, #224	; 0xe0
 8006f8a:	e4b1      	b.n	80068f0 <_svfprintf_r+0xbe0>
 8006f8c:	0800c098 	stmdaeq	r0, {r3, r4, r7, lr, pc}
 8006f90:	980e      	ldr	r0, [sp, #56]	; 0x38
 8006f92:	aa2b      	add	r2, sp, #172	; 0xac
 8006f94:	990b      	ldr	r1, [sp, #44]	; 0x2c
 8006f96:	f002 fb5f 	bl	8009658 <__ssprint_r>
 8006f9a:	2800      	cmp	r0, #0
 8006f9c:	f47e af9d 	bne.w	8005eda <_svfprintf_r+0x1ca>
 8006fa0:	9b25      	ldr	r3, [sp, #148]	; 0x94
 8006fa2:	af38      	add	r7, sp, #224	; 0xe0
 8006fa4:	9a11      	ldr	r2, [sp, #68]	; 0x44
 8006fa6:	9c2d      	ldr	r4, [sp, #180]	; 0xb4
 8006fa8:	1ad3      	subs	r3, r2, r3
 8006faa:	e5a7      	b.n	8006afc <_svfprintf_r+0xdec>
 8006fac:	9d0c      	ldr	r5, [sp, #48]	; 0x30
 8006fae:	46c2      	mov	sl, r8
 8006fb0:	f24c 282c 	movw	r8, #49708	; 0xc22c
 8006fb4:	9414      	str	r4, [sp, #80]	; 0x50
 8006fb6:	2d06      	cmp	r5, #6
 8006fb8:	bf28      	it	cs
 8006fba:	2506      	movcs	r5, #6
 8006fbc:	f8cd a030 	str.w	sl, [sp, #48]	; 0x30
 8006fc0:	9510      	str	r5, [sp, #64]	; 0x40
 8006fc2:	4654      	mov	r4, sl
 8006fc4:	ea25 75e5 	bic.w	r5, r5, r5, asr #31
 8006fc8:	f8cd a060 	str.w	sl, [sp, #96]	; 0x60
 8006fcc:	950d      	str	r5, [sp, #52]	; 0x34
 8006fce:	f6c0 0800 	movt	r8, #2048	; 0x800
 8006fd2:	f7fe bfde 	b.w	8005f92 <_svfprintf_r+0x282>
 8006fd6:	9d0f      	ldr	r5, [sp, #60]	; 0x3c
 8006fd8:	f04f 0a2d 	mov.w	sl, #45	; 0x2d
 8006fdc:	2400      	movs	r4, #0
 8006fde:	930d      	str	r3, [sp, #52]	; 0x34
 8006fe0:	f88d a08f 	strb.w	sl, [sp, #143]	; 0x8f
 8006fe4:	950a      	str	r5, [sp, #40]	; 0x28
 8006fe6:	940c      	str	r4, [sp, #48]	; 0x30
 8006fe8:	f7fe bfd6 	b.w	8005f98 <_svfprintf_r+0x288>
 8006fec:	f04f 0a2d 	mov.w	sl, #45	; 0x2d
 8006ff0:	f88d a08f 	strb.w	sl, [sp, #143]	; 0x8f
 8006ff4:	f7ff b9b2 	b.w	800635c <_svfprintf_r+0x64c>
 8006ff8:	9b29      	ldr	r3, [sp, #164]	; 0xa4
 8006ffa:	ebc8 0303 	rsb	r3, r8, r3
 8006ffe:	9311      	str	r3, [sp, #68]	; 0x44
 8007000:	9b25      	ldr	r3, [sp, #148]	; 0x94
 8007002:	1cda      	adds	r2, r3, #3
 8007004:	db11      	blt.n	800702a <_svfprintf_r+0x131a>
 8007006:	9c0c      	ldr	r4, [sp, #48]	; 0x30
 8007008:	429c      	cmp	r4, r3
 800700a:	db0e      	blt.n	800702a <_svfprintf_r+0x131a>
 800700c:	9318      	str	r3, [sp, #96]	; 0x60
 800700e:	e753      	b.n	8006eb8 <_svfprintf_r+0x11a8>
 8007010:	9d0c      	ldr	r5, [sp, #48]	; 0x30
 8007012:	9414      	str	r4, [sp, #80]	; 0x50
 8007014:	ea25 75e5 	bic.w	r5, r5, r5, asr #31
 8007018:	950d      	str	r5, [sp, #52]	; 0x34
 800701a:	9d0c      	ldr	r5, [sp, #48]	; 0x30
 800701c:	9018      	str	r0, [sp, #96]	; 0x60
 800701e:	900c      	str	r0, [sp, #48]	; 0x30
 8007020:	9510      	str	r5, [sp, #64]	; 0x40
 8007022:	f89d a08f 	ldrb.w	sl, [sp, #143]	; 0x8f
 8007026:	f7fe bfb4 	b.w	8005f92 <_svfprintf_r+0x282>
 800702a:	9d16      	ldr	r5, [sp, #88]	; 0x58
 800702c:	3d02      	subs	r5, #2
 800702e:	9516      	str	r5, [sp, #88]	; 0x58
 8007030:	3b01      	subs	r3, #1
 8007032:	9d16      	ldr	r5, [sp, #88]	; 0x58
 8007034:	2b00      	cmp	r3, #0
 8007036:	9325      	str	r3, [sp, #148]	; 0x94
 8007038:	bfba      	itte	lt
 800703a:	425b      	neglt	r3, r3
 800703c:	222d      	movlt	r2, #45	; 0x2d
 800703e:	222b      	movge	r2, #43	; 0x2b
 8007040:	2b09      	cmp	r3, #9
 8007042:	f88d 509c 	strb.w	r5, [sp, #156]	; 0x9c
 8007046:	f88d 209d 	strb.w	r2, [sp, #157]	; 0x9d
 800704a:	dc43      	bgt.n	80070d4 <_svfprintf_r+0x13c4>
 800704c:	3330      	adds	r3, #48	; 0x30
 800704e:	f88d 309f 	strb.w	r3, [sp, #159]	; 0x9f
 8007052:	2330      	movs	r3, #48	; 0x30
 8007054:	f88d 309e 	strb.w	r3, [sp, #158]	; 0x9e
 8007058:	ab28      	add	r3, sp, #160	; 0xa0
 800705a:	9d11      	ldr	r5, [sp, #68]	; 0x44
 800705c:	aa27      	add	r2, sp, #156	; 0x9c
 800705e:	9c11      	ldr	r4, [sp, #68]	; 0x44
 8007060:	1a9a      	subs	r2, r3, r2
 8007062:	2d01      	cmp	r5, #1
 8007064:	921e      	str	r2, [sp, #120]	; 0x78
 8007066:	4414      	add	r4, r2
 8007068:	9410      	str	r4, [sp, #64]	; 0x40
 800706a:	dd78      	ble.n	800715e <_svfprintf_r+0x144e>
 800706c:	9b10      	ldr	r3, [sp, #64]	; 0x40
 800706e:	2400      	movs	r4, #0
 8007070:	9418      	str	r4, [sp, #96]	; 0x60
 8007072:	3301      	adds	r3, #1
 8007074:	9310      	str	r3, [sp, #64]	; 0x40
 8007076:	ea23 73e3 	bic.w	r3, r3, r3, asr #31
 800707a:	e733      	b.n	8006ee4 <_svfprintf_r+0x11d4>
 800707c:	980e      	ldr	r0, [sp, #56]	; 0x38
 800707e:	aa2b      	add	r2, sp, #172	; 0xac
 8007080:	990b      	ldr	r1, [sp, #44]	; 0x2c
 8007082:	f002 fae9 	bl	8009658 <__ssprint_r>
 8007086:	2800      	cmp	r0, #0
 8007088:	f47e af27 	bne.w	8005eda <_svfprintf_r+0x1ca>
 800708c:	9925      	ldr	r1, [sp, #148]	; 0x94
 800708e:	af38      	add	r7, sp, #224	; 0xe0
 8007090:	9a2d      	ldr	r2, [sp, #180]	; 0xb4
 8007092:	9b2c      	ldr	r3, [sp, #176]	; 0xb0
 8007094:	e638      	b.n	8006d08 <_svfprintf_r+0xff8>
 8007096:	9d18      	ldr	r5, [sp, #96]	; 0x60
 8007098:	9c11      	ldr	r4, [sp, #68]	; 0x44
 800709a:	2d00      	cmp	r5, #0
 800709c:	bfd4      	ite	le
 800709e:	f1c5 0302 	rsble	r3, r5, #2
 80070a2:	2301      	movgt	r3, #1
 80070a4:	441c      	add	r4, r3
 80070a6:	2567      	movs	r5, #103	; 0x67
 80070a8:	9410      	str	r4, [sp, #64]	; 0x40
 80070aa:	ea24 73e4 	bic.w	r3, r4, r4, asr #31
 80070ae:	9516      	str	r5, [sp, #88]	; 0x58
 80070b0:	e718      	b.n	8006ee4 <_svfprintf_r+0x11d4>
 80070b2:	2002      	movs	r0, #2
 80070b4:	e699      	b.n	8006dea <_svfprintf_r+0x10da>
 80070b6:	9d25      	ldr	r5, [sp, #148]	; 0x94
 80070b8:	2d00      	cmp	r5, #0
 80070ba:	9518      	str	r5, [sp, #96]	; 0x60
 80070bc:	dd58      	ble.n	8007170 <_svfprintf_r+0x1460>
 80070be:	9c0c      	ldr	r4, [sp, #48]	; 0x30
 80070c0:	2c00      	cmp	r4, #0
 80070c2:	d144      	bne.n	800714e <_svfprintf_r+0x143e>
 80070c4:	9d0a      	ldr	r5, [sp, #40]	; 0x28
 80070c6:	07ed      	lsls	r5, r5, #31
 80070c8:	d441      	bmi.n	800714e <_svfprintf_r+0x143e>
 80070ca:	9c18      	ldr	r4, [sp, #96]	; 0x60
 80070cc:	ea24 73e4 	bic.w	r3, r4, r4, asr #31
 80070d0:	9410      	str	r4, [sp, #64]	; 0x40
 80070d2:	e707      	b.n	8006ee4 <_svfprintf_r+0x11d4>
 80070d4:	f246 6167 	movw	r1, #26215	; 0x6667
 80070d8:	f10d 05aa 	add.w	r5, sp, #170	; 0xaa
 80070dc:	f2c6 6166 	movt	r1, #26214	; 0x6666
 80070e0:	fb81 2003 	smull	r2, r0, r1, r3
 80070e4:	17da      	asrs	r2, r3, #31
 80070e6:	462c      	mov	r4, r5
 80070e8:	3d01      	subs	r5, #1
 80070ea:	ebc2 02a0 	rsb	r2, r2, r0, asr #2
 80070ee:	eb02 0082 	add.w	r0, r2, r2, lsl #2
 80070f2:	eba3 0040 	sub.w	r0, r3, r0, lsl #1
 80070f6:	4613      	mov	r3, r2
 80070f8:	2b09      	cmp	r3, #9
 80070fa:	f100 0230 	add.w	r2, r0, #48	; 0x30
 80070fe:	7022      	strb	r2, [r4, #0]
 8007100:	dcee      	bgt.n	80070e0 <_svfprintf_r+0x13d0>
 8007102:	f10d 00ab 	add.w	r0, sp, #171	; 0xab
 8007106:	3330      	adds	r3, #48	; 0x30
 8007108:	42a8      	cmp	r0, r5
 800710a:	b2da      	uxtb	r2, r3
 800710c:	f804 2c01 	strb.w	r2, [r4, #-1]
 8007110:	d953      	bls.n	80071ba <_svfprintf_r+0x14aa>
 8007112:	f10d 019d 	add.w	r1, sp, #157	; 0x9d
 8007116:	4623      	mov	r3, r4
 8007118:	e001      	b.n	800711e <_svfprintf_r+0x140e>
 800711a:	f813 2b01 	ldrb.w	r2, [r3], #1
 800711e:	4283      	cmp	r3, r0
 8007120:	f801 2f01 	strb.w	r2, [r1, #1]!
 8007124:	d1f9      	bne.n	800711a <_svfprintf_r+0x140a>
 8007126:	ad48      	add	r5, sp, #288	; 0x120
 8007128:	ebc4 0345 	rsb	r3, r4, r5, lsl #1
 800712c:	3bf6      	subs	r3, #246	; 0xf6
 800712e:	e794      	b.n	800705a <_svfprintf_r+0x134a>
 8007130:	981b      	ldr	r0, [sp, #108]	; 0x6c
 8007132:	2200      	movs	r2, #0
 8007134:	2300      	movs	r3, #0
 8007136:	4651      	mov	r1, sl
 8007138:	f004 fa54 	bl	800b5e4 <__aeabi_dcmpeq>
 800713c:	2800      	cmp	r0, #0
 800713e:	f47f ae73 	bne.w	8006e28 <_svfprintf_r+0x1118>
 8007142:	980c      	ldr	r0, [sp, #48]	; 0x30
 8007144:	f1c0 0301 	rsb	r3, r0, #1
 8007148:	9325      	str	r3, [sp, #148]	; 0x94
 800714a:	441c      	add	r4, r3
 800714c:	e692      	b.n	8006e74 <_svfprintf_r+0x1164>
 800714e:	9d0c      	ldr	r5, [sp, #48]	; 0x30
 8007150:	9c18      	ldr	r4, [sp, #96]	; 0x60
 8007152:	1c6b      	adds	r3, r5, #1
 8007154:	441c      	add	r4, r3
 8007156:	9410      	str	r4, [sp, #64]	; 0x40
 8007158:	ea24 73e4 	bic.w	r3, r4, r4, asr #31
 800715c:	e6c2      	b.n	8006ee4 <_svfprintf_r+0x11d4>
 800715e:	9c0a      	ldr	r4, [sp, #40]	; 0x28
 8007160:	f014 0301 	ands.w	r3, r4, #1
 8007164:	d182      	bne.n	800706c <_svfprintf_r+0x135c>
 8007166:	9d10      	ldr	r5, [sp, #64]	; 0x40
 8007168:	9318      	str	r3, [sp, #96]	; 0x60
 800716a:	ea25 73e5 	bic.w	r3, r5, r5, asr #31
 800716e:	e6b9      	b.n	8006ee4 <_svfprintf_r+0x11d4>
 8007170:	9d0c      	ldr	r5, [sp, #48]	; 0x30
 8007172:	b935      	cbnz	r5, 8007182 <_svfprintf_r+0x1472>
 8007174:	9c0a      	ldr	r4, [sp, #40]	; 0x28
 8007176:	07e4      	lsls	r4, r4, #31
 8007178:	bf5c      	itt	pl
 800717a:	2301      	movpl	r3, #1
 800717c:	9310      	strpl	r3, [sp, #64]	; 0x40
 800717e:	f57f aeb1 	bpl.w	8006ee4 <_svfprintf_r+0x11d4>
 8007182:	9d0c      	ldr	r5, [sp, #48]	; 0x30
 8007184:	3502      	adds	r5, #2
 8007186:	9510      	str	r5, [sp, #64]	; 0x40
 8007188:	ea25 73e5 	bic.w	r3, r5, r5, asr #31
 800718c:	e6aa      	b.n	8006ee4 <_svfprintf_r+0x11d4>
 800718e:	9d14      	ldr	r5, [sp, #80]	; 0x50
 8007190:	f899 3001 	ldrb.w	r3, [r9, #1]
 8007194:	46a1      	mov	r9, r4
 8007196:	682d      	ldr	r5, [r5, #0]
 8007198:	950c      	str	r5, [sp, #48]	; 0x30
 800719a:	9d14      	ldr	r5, [sp, #80]	; 0x50
 800719c:	1d29      	adds	r1, r5, #4
 800719e:	9d0c      	ldr	r5, [sp, #48]	; 0x30
 80071a0:	9114      	str	r1, [sp, #80]	; 0x50
 80071a2:	2d00      	cmp	r5, #0
 80071a4:	f6be ae1d 	bge.w	8005de2 <_svfprintf_r+0xd2>
 80071a8:	f7fe be18 	b.w	8005ddc <_svfprintf_r+0xcc>
 80071ac:	9d0e      	ldr	r5, [sp, #56]	; 0x38
 80071ae:	230c      	movs	r3, #12
 80071b0:	f04f 30ff 	mov.w	r0, #4294967295
 80071b4:	602b      	str	r3, [r5, #0]
 80071b6:	f7fe be98 	b.w	8005eea <_svfprintf_r+0x1da>
 80071ba:	f10d 039e 	add.w	r3, sp, #158	; 0x9e
 80071be:	e74c      	b.n	800705a <_svfprintf_r+0x134a>
 80071c0:	9b25      	ldr	r3, [sp, #148]	; 0x94
 80071c2:	e735      	b.n	8007030 <_svfprintf_r+0x1320>
 80071c4:	0000      	movs	r0, r0
	...

080071c8 <quorem>:
 80071c8:	e92d 4ff0 	stmdb	sp!, {r4, r5, r6, r7, r8, r9, sl, fp, lr}
 80071cc:	468c      	mov	ip, r1
 80071ce:	6903      	ldr	r3, [r0, #16]
 80071d0:	4683      	mov	fp, r0
 80071d2:	690d      	ldr	r5, [r1, #16]
 80071d4:	b085      	sub	sp, #20
 80071d6:	429d      	cmp	r5, r3
 80071d8:	bfc8      	it	gt
 80071da:	2000      	movgt	r0, #0
 80071dc:	f300 8096 	bgt.w	800730c <quorem+0x144>
 80071e0:	3d01      	subs	r5, #1
 80071e2:	f101 0414 	add.w	r4, r1, #20
 80071e6:	f10b 0a14 	add.w	sl, fp, #20
 80071ea:	f854 1025 	ldr.w	r1, [r4, r5, lsl #2]
 80071ee:	00aa      	lsls	r2, r5, #2
 80071f0:	f85a 0025 	ldr.w	r0, [sl, r5, lsl #2]
 80071f4:	4691      	mov	r9, r2
 80071f6:	3101      	adds	r1, #1
 80071f8:	9202      	str	r2, [sp, #8]
 80071fa:	f8cd c004 	str.w	ip, [sp, #4]
 80071fe:	4452      	add	r2, sl
 8007200:	9203      	str	r2, [sp, #12]
 8007202:	f003 fc91 	bl	800ab28 <__aeabi_uidiv>
 8007206:	44a1      	add	r9, r4
 8007208:	f8dd c004 	ldr.w	ip, [sp, #4]
 800720c:	4680      	mov	r8, r0
 800720e:	2800      	cmp	r0, #0
 8007210:	d041      	beq.n	8007296 <quorem+0xce>
 8007212:	2100      	movs	r1, #0
 8007214:	4622      	mov	r2, r4
 8007216:	4608      	mov	r0, r1
 8007218:	4653      	mov	r3, sl
 800721a:	460f      	mov	r7, r1
 800721c:	f852 1b04 	ldr.w	r1, [r2], #4
 8007220:	681e      	ldr	r6, [r3, #0]
 8007222:	4591      	cmp	r9, r2
 8007224:	fa1f fe81 	uxth.w	lr, r1
 8007228:	ea4f 4111 	mov.w	r1, r1, lsr #16
 800722c:	fb0e 7708 	mla	r7, lr, r8, r7
 8007230:	fa1f fe86 	uxth.w	lr, r6
 8007234:	fb01 f108 	mul.w	r1, r1, r8
 8007238:	eb01 4117 	add.w	r1, r1, r7, lsr #16
 800723c:	b2bf      	uxth	r7, r7
 800723e:	ebc7 0000 	rsb	r0, r7, r0
 8007242:	4486      	add	lr, r0
 8007244:	b288      	uxth	r0, r1
 8007246:	ebc0 4016 	rsb	r0, r0, r6, lsr #16
 800724a:	ea4f 4711 	mov.w	r7, r1, lsr #16
 800724e:	eb00 402e 	add.w	r0, r0, lr, asr #16
 8007252:	fa1f fe8e 	uxth.w	lr, lr
 8007256:	ea4e 4100 	orr.w	r1, lr, r0, lsl #16
 800725a:	ea4f 4020 	mov.w	r0, r0, asr #16
 800725e:	f843 1b04 	str.w	r1, [r3], #4
 8007262:	d2db      	bcs.n	800721c <quorem+0x54>
 8007264:	9a02      	ldr	r2, [sp, #8]
 8007266:	f85a 3002 	ldr.w	r3, [sl, r2]
 800726a:	b9a3      	cbnz	r3, 8007296 <quorem+0xce>
 800726c:	9a03      	ldr	r2, [sp, #12]
 800726e:	1f13      	subs	r3, r2, #4
 8007270:	459a      	cmp	sl, r3
 8007272:	d20e      	bcs.n	8007292 <quorem+0xca>
 8007274:	f852 3c04 	ldr.w	r3, [r2, #-4]
 8007278:	b95b      	cbnz	r3, 8007292 <quorem+0xca>
 800727a:	f1a2 0308 	sub.w	r3, r2, #8
 800727e:	e001      	b.n	8007284 <quorem+0xbc>
 8007280:	6812      	ldr	r2, [r2, #0]
 8007282:	b932      	cbnz	r2, 8007292 <quorem+0xca>
 8007284:	459a      	cmp	sl, r3
 8007286:	461a      	mov	r2, r3
 8007288:	f105 35ff 	add.w	r5, r5, #4294967295
 800728c:	f1a3 0304 	sub.w	r3, r3, #4
 8007290:	d3f6      	bcc.n	8007280 <quorem+0xb8>
 8007292:	f8cb 5010 	str.w	r5, [fp, #16]
 8007296:	4661      	mov	r1, ip
 8007298:	4658      	mov	r0, fp
 800729a:	f001 fe47 	bl	8008f2c <__mcmp>
 800729e:	2800      	cmp	r0, #0
 80072a0:	db33      	blt.n	800730a <quorem+0x142>
 80072a2:	f108 0801 	add.w	r8, r8, #1
 80072a6:	4653      	mov	r3, sl
 80072a8:	2200      	movs	r2, #0
 80072aa:	f854 6b04 	ldr.w	r6, [r4], #4
 80072ae:	6818      	ldr	r0, [r3, #0]
 80072b0:	45a1      	cmp	r9, r4
 80072b2:	b2b1      	uxth	r1, r6
 80072b4:	ea4f 4616 	mov.w	r6, r6, lsr #16
 80072b8:	ebc1 0202 	rsb	r2, r1, r2
 80072bc:	b287      	uxth	r7, r0
 80072be:	eb02 0107 	add.w	r1, r2, r7
 80072c2:	ebc6 4210 	rsb	r2, r6, r0, lsr #16
 80072c6:	eb02 4221 	add.w	r2, r2, r1, asr #16
 80072ca:	b289      	uxth	r1, r1
 80072cc:	ea41 4102 	orr.w	r1, r1, r2, lsl #16
 80072d0:	ea4f 4222 	mov.w	r2, r2, asr #16
 80072d4:	f843 1b04 	str.w	r1, [r3], #4
 80072d8:	d2e7      	bcs.n	80072aa <quorem+0xe2>
 80072da:	f85a 2025 	ldr.w	r2, [sl, r5, lsl #2]
 80072de:	eb0a 0385 	add.w	r3, sl, r5, lsl #2
 80072e2:	b992      	cbnz	r2, 800730a <quorem+0x142>
 80072e4:	1f1a      	subs	r2, r3, #4
 80072e6:	4592      	cmp	sl, r2
 80072e8:	d20d      	bcs.n	8007306 <quorem+0x13e>
 80072ea:	f853 2c04 	ldr.w	r2, [r3, #-4]
 80072ee:	b952      	cbnz	r2, 8007306 <quorem+0x13e>
 80072f0:	3b08      	subs	r3, #8
 80072f2:	e001      	b.n	80072f8 <quorem+0x130>
 80072f4:	6812      	ldr	r2, [r2, #0]
 80072f6:	b932      	cbnz	r2, 8007306 <quorem+0x13e>
 80072f8:	459a      	cmp	sl, r3
 80072fa:	461a      	mov	r2, r3
 80072fc:	f105 35ff 	add.w	r5, r5, #4294967295
 8007300:	f1a3 0304 	sub.w	r3, r3, #4
 8007304:	d3f6      	bcc.n	80072f4 <quorem+0x12c>
 8007306:	f8cb 5010 	str.w	r5, [fp, #16]
 800730a:	4640      	mov	r0, r8
 800730c:	b005      	add	sp, #20
 800730e:	e8bd 8ff0 	ldmia.w	sp!, {r4, r5, r6, r7, r8, r9, sl, fp, pc}
 8007312:	bf00      	nop

08007314 <_dtoa_r>:
 8007314:	e92d 4ff0 	stmdb	sp!, {r4, r5, r6, r7, r8, r9, sl, fp, lr}
 8007318:	b09b      	sub	sp, #108	; 0x6c
 800731a:	6a46      	ldr	r6, [r0, #36]	; 0x24
 800731c:	4604      	mov	r4, r0
 800731e:	4692      	mov	sl, r2
 8007320:	469b      	mov	fp, r3
 8007322:	9d27      	ldr	r5, [sp, #156]	; 0x9c
 8007324:	2e00      	cmp	r6, #0
 8007326:	f000 82bb 	beq.w	80078a0 <_dtoa_r+0x58c>
 800732a:	6833      	ldr	r3, [r6, #0]
 800732c:	b153      	cbz	r3, 8007344 <_dtoa_r+0x30>
 800732e:	6872      	ldr	r2, [r6, #4]
 8007330:	2601      	movs	r6, #1
 8007332:	4619      	mov	r1, r3
 8007334:	4096      	lsls	r6, r2
 8007336:	609e      	str	r6, [r3, #8]
 8007338:	605a      	str	r2, [r3, #4]
 800733a:	f001 fb9d 	bl	8008a78 <_Bfree>
 800733e:	6a63      	ldr	r3, [r4, #36]	; 0x24
 8007340:	2200      	movs	r2, #0
 8007342:	601a      	str	r2, [r3, #0]
 8007344:	f1bb 0f00 	cmp.w	fp, #0
 8007348:	bfb4      	ite	lt
 800734a:	2301      	movlt	r3, #1
 800734c:	2300      	movge	r3, #0
 800734e:	602b      	str	r3, [r5, #0]
 8007350:	f04f 0300 	mov.w	r3, #0
 8007354:	bfb4      	ite	lt
 8007356:	f02b 4900 	biclt.w	r9, fp, #2147483648	; 0x80000000
 800735a:	46d9      	movge	r9, fp
 800735c:	461a      	mov	r2, r3
 800735e:	f6c7 73f0 	movt	r3, #32752	; 0x7ff0
 8007362:	f6c7 72f0 	movt	r2, #32752	; 0x7ff0
 8007366:	ea09 0303 	and.w	r3, r9, r3
 800736a:	bfb8      	it	lt
 800736c:	46cb      	movlt	fp, r9
 800736e:	4293      	cmp	r3, r2
 8007370:	d014      	beq.n	800739c <_dtoa_r+0x88>
 8007372:	2200      	movs	r2, #0
 8007374:	2300      	movs	r3, #0
 8007376:	4650      	mov	r0, sl
 8007378:	4659      	mov	r1, fp
 800737a:	f004 f933 	bl	800b5e4 <__aeabi_dcmpeq>
 800737e:	4680      	mov	r8, r0
 8007380:	b328      	cbz	r0, 80073ce <_dtoa_r+0xba>
 8007382:	9e26      	ldr	r6, [sp, #152]	; 0x98
 8007384:	2301      	movs	r3, #1
 8007386:	6033      	str	r3, [r6, #0]
 8007388:	9e28      	ldr	r6, [sp, #160]	; 0xa0
 800738a:	2e00      	cmp	r6, #0
 800738c:	f000 80dc 	beq.w	8007548 <_dtoa_r+0x234>
 8007390:	4baf      	ldr	r3, [pc, #700]	; (8007650 <_dtoa_r+0x33c>)
 8007392:	1e58      	subs	r0, r3, #1
 8007394:	6033      	str	r3, [r6, #0]
 8007396:	b01b      	add	sp, #108	; 0x6c
 8007398:	e8bd 8ff0 	ldmia.w	sp!, {r4, r5, r6, r7, r8, r9, sl, fp, pc}
 800739c:	9e26      	ldr	r6, [sp, #152]	; 0x98
 800739e:	f24c 2044 	movw	r0, #49732	; 0xc244
 80073a2:	f242 730f 	movw	r3, #9999	; 0x270f
 80073a6:	f6c0 0000 	movt	r0, #2048	; 0x800
 80073aa:	6033      	str	r3, [r6, #0]
 80073ac:	f1ba 0f00 	cmp.w	sl, #0
 80073b0:	f000 80aa 	beq.w	8007508 <_dtoa_r+0x1f4>
 80073b4:	9e28      	ldr	r6, [sp, #160]	; 0xa0
 80073b6:	2e00      	cmp	r6, #0
 80073b8:	d0ed      	beq.n	8007396 <_dtoa_r+0x82>
 80073ba:	78c3      	ldrb	r3, [r0, #3]
 80073bc:	2b00      	cmp	r3, #0
 80073be:	f040 80b2 	bne.w	8007526 <_dtoa_r+0x212>
 80073c2:	1cc3      	adds	r3, r0, #3
 80073c4:	9e28      	ldr	r6, [sp, #160]	; 0xa0
 80073c6:	6033      	str	r3, [r6, #0]
 80073c8:	b01b      	add	sp, #108	; 0x6c
 80073ca:	e8bd 8ff0 	ldmia.w	sp!, {r4, r5, r6, r7, r8, r9, sl, fp, pc}
 80073ce:	aa19      	add	r2, sp, #100	; 0x64
 80073d0:	ab18      	add	r3, sp, #96	; 0x60
 80073d2:	9200      	str	r2, [sp, #0]
 80073d4:	4620      	mov	r0, r4
 80073d6:	9301      	str	r3, [sp, #4]
 80073d8:	4652      	mov	r2, sl
 80073da:	465b      	mov	r3, fp
 80073dc:	f001 feb6 	bl	800914c <__d2b>
 80073e0:	ea5f 5519 	movs.w	r5, r9, lsr #20
 80073e4:	900b      	str	r0, [sp, #44]	; 0x2c
 80073e6:	f040 80a1 	bne.w	800752c <_dtoa_r+0x218>
 80073ea:	9f18      	ldr	r7, [sp, #96]	; 0x60
 80073ec:	f46f 6382 	mvn.w	r3, #1040	; 0x410
 80073f0:	9d19      	ldr	r5, [sp, #100]	; 0x64
 80073f2:	443d      	add	r5, r7
 80073f4:	429d      	cmp	r5, r3
 80073f6:	f2c0 8278 	blt.w	80078ea <_dtoa_r+0x5d6>
 80073fa:	f64f 430e 	movw	r3, #64526	; 0xfc0e
 80073fe:	f205 4212 	addw	r2, r5, #1042	; 0x412
 8007402:	f6cf 73ff 	movt	r3, #65535	; 0xffff
 8007406:	fa2a f202 	lsr.w	r2, sl, r2
 800740a:	1b5b      	subs	r3, r3, r5
 800740c:	fa09 f003 	lsl.w	r0, r9, r3
 8007410:	4310      	orrs	r0, r2
 8007412:	f003 fe09 	bl	800b028 <__aeabi_ui2d>
 8007416:	3d01      	subs	r5, #1
 8007418:	46b8      	mov	r8, r7
 800741a:	2601      	movs	r6, #1
 800741c:	9615      	str	r6, [sp, #84]	; 0x54
 800741e:	f1a1 71f8 	sub.w	r1, r1, #32505856	; 0x1f00000
 8007422:	2300      	movs	r3, #0
 8007424:	2200      	movs	r2, #0
 8007426:	f6c3 73f8 	movt	r3, #16376	; 0x3ff8
 800742a:	f003 fcbf 	bl	800adac <__aeabi_dsub>
 800742e:	a382      	add	r3, pc, #520	; (adr r3, 8007638 <_dtoa_r+0x324>)
 8007430:	e9d3 2300 	ldrd	r2, r3, [r3]
 8007434:	f003 fe6e 	bl	800b114 <__aeabi_dmul>
 8007438:	a381      	add	r3, pc, #516	; (adr r3, 8007640 <_dtoa_r+0x32c>)
 800743a:	e9d3 2300 	ldrd	r2, r3, [r3]
 800743e:	f003 fcb7 	bl	800adb0 <__adddf3>
 8007442:	4606      	mov	r6, r0
 8007444:	4628      	mov	r0, r5
 8007446:	460f      	mov	r7, r1
 8007448:	f003 fdfe 	bl	800b048 <__aeabi_i2d>
 800744c:	a37e      	add	r3, pc, #504	; (adr r3, 8007648 <_dtoa_r+0x334>)
 800744e:	e9d3 2300 	ldrd	r2, r3, [r3]
 8007452:	f003 fe5f 	bl	800b114 <__aeabi_dmul>
 8007456:	4602      	mov	r2, r0
 8007458:	460b      	mov	r3, r1
 800745a:	4630      	mov	r0, r6
 800745c:	4639      	mov	r1, r7
 800745e:	f003 fca7 	bl	800adb0 <__adddf3>
 8007462:	4606      	mov	r6, r0
 8007464:	460f      	mov	r7, r1
 8007466:	f004 f8ef 	bl	800b648 <__aeabi_d2iz>
 800746a:	4639      	mov	r1, r7
 800746c:	2200      	movs	r2, #0
 800746e:	2300      	movs	r3, #0
 8007470:	9004      	str	r0, [sp, #16]
 8007472:	4630      	mov	r0, r6
 8007474:	f004 f8c0 	bl	800b5f8 <__aeabi_dcmplt>
 8007478:	2800      	cmp	r0, #0
 800747a:	f040 8226 	bne.w	80078ca <_dtoa_r+0x5b6>
 800747e:	9e04      	ldr	r6, [sp, #16]
 8007480:	2e16      	cmp	r6, #22
 8007482:	bf84      	itt	hi
 8007484:	2601      	movhi	r6, #1
 8007486:	960f      	strhi	r6, [sp, #60]	; 0x3c
 8007488:	d812      	bhi.n	80074b0 <_dtoa_r+0x19c>
 800748a:	f24c 01b8 	movw	r1, #49336	; 0xc0b8
 800748e:	4652      	mov	r2, sl
 8007490:	f6c0 0100 	movt	r1, #2048	; 0x800
 8007494:	465b      	mov	r3, fp
 8007496:	eb01 01c6 	add.w	r1, r1, r6, lsl #3
 800749a:	e9d1 0100 	ldrd	r0, r1, [r1]
 800749e:	f004 f8c9 	bl	800b634 <__aeabi_dcmpgt>
 80074a2:	2800      	cmp	r0, #0
 80074a4:	f000 821f 	beq.w	80078e6 <_dtoa_r+0x5d2>
 80074a8:	3e01      	subs	r6, #1
 80074aa:	9604      	str	r6, [sp, #16]
 80074ac:	2600      	movs	r6, #0
 80074ae:	960f      	str	r6, [sp, #60]	; 0x3c
 80074b0:	ebc5 0508 	rsb	r5, r5, r8
 80074b4:	3d01      	subs	r5, #1
 80074b6:	9506      	str	r5, [sp, #24]
 80074b8:	bf49      	itett	mi
 80074ba:	426e      	negmi	r6, r5
 80074bc:	2600      	movpl	r6, #0
 80074be:	960a      	strmi	r6, [sp, #40]	; 0x28
 80074c0:	2600      	movmi	r6, #0
 80074c2:	bf54      	ite	pl
 80074c4:	960a      	strpl	r6, [sp, #40]	; 0x28
 80074c6:	9606      	strmi	r6, [sp, #24]
 80074c8:	9e04      	ldr	r6, [sp, #16]
 80074ca:	2e00      	cmp	r6, #0
 80074cc:	f2c0 81f1 	blt.w	80078b2 <_dtoa_r+0x59e>
 80074d0:	f8dd e018 	ldr.w	lr, [sp, #24]
 80074d4:	960e      	str	r6, [sp, #56]	; 0x38
 80074d6:	44b6      	add	lr, r6
 80074d8:	2600      	movs	r6, #0
 80074da:	f8cd e018 	str.w	lr, [sp, #24]
 80074de:	960c      	str	r6, [sp, #48]	; 0x30
 80074e0:	9e24      	ldr	r6, [sp, #144]	; 0x90
 80074e2:	2e09      	cmp	r6, #9
 80074e4:	d835      	bhi.n	8007552 <_dtoa_r+0x23e>
 80074e6:	2e05      	cmp	r6, #5
 80074e8:	bfc4      	itt	gt
 80074ea:	3e04      	subgt	r6, #4
 80074ec:	9624      	strgt	r6, [sp, #144]	; 0x90
 80074ee:	9e24      	ldr	r6, [sp, #144]	; 0x90
 80074f0:	bfcc      	ite	gt
 80074f2:	2500      	movgt	r5, #0
 80074f4:	2501      	movle	r5, #1
 80074f6:	1eb3      	subs	r3, r6, #2
 80074f8:	2b03      	cmp	r3, #3
 80074fa:	d82c      	bhi.n	8007556 <_dtoa_r+0x242>
 80074fc:	e8df f013 	tbh	[pc, r3, lsl #1]
 8007500:	02290361 	eoreq	r0, r9, #-2080374783	; 0x84000001
 8007504:	058d0370 	streq	r0, [sp, #880]	; 0x370
 8007508:	f24c 2238 	movw	r2, #49720	; 0xc238
 800750c:	f24c 2344 	movw	r3, #49732	; 0xc244
 8007510:	f3c9 0013 	ubfx	r0, r9, #0, #20
 8007514:	f6c0 0200 	movt	r2, #2048	; 0x800
 8007518:	f6c0 0300 	movt	r3, #2048	; 0x800
 800751c:	2800      	cmp	r0, #0
 800751e:	bf0c      	ite	eq
 8007520:	4610      	moveq	r0, r2
 8007522:	4618      	movne	r0, r3
 8007524:	e746      	b.n	80073b4 <_dtoa_r+0xa0>
 8007526:	f100 0308 	add.w	r3, r0, #8
 800752a:	e74b      	b.n	80073c4 <_dtoa_r+0xb0>
 800752c:	f3cb 0313 	ubfx	r3, fp, #0, #20
 8007530:	f8cd 8054 	str.w	r8, [sp, #84]	; 0x54
 8007534:	f043 537f 	orr.w	r3, r3, #1069547520	; 0x3fc00000
 8007538:	4650      	mov	r0, sl
 800753a:	f2a5 35ff 	subw	r5, r5, #1023	; 0x3ff
 800753e:	f8dd 8060 	ldr.w	r8, [sp, #96]	; 0x60
 8007542:	f443 1140 	orr.w	r1, r3, #3145728	; 0x300000
 8007546:	e76c      	b.n	8007422 <_dtoa_r+0x10e>
 8007548:	f24c 2034 	movw	r0, #49716	; 0xc234
 800754c:	f6c0 0000 	movt	r0, #2048	; 0x800
 8007550:	e721      	b.n	8007396 <_dtoa_r+0x82>
 8007552:	2600      	movs	r6, #0
 8007554:	9624      	str	r6, [sp, #144]	; 0x90
 8007556:	6a65      	ldr	r5, [r4, #36]	; 0x24
 8007558:	2300      	movs	r3, #0
 800755a:	4619      	mov	r1, r3
 800755c:	4620      	mov	r0, r4
 800755e:	f04f 36ff 	mov.w	r6, #4294967295
 8007562:	9325      	str	r3, [sp, #148]	; 0x94
 8007564:	606b      	str	r3, [r5, #4]
 8007566:	9609      	str	r6, [sp, #36]	; 0x24
 8007568:	9614      	str	r6, [sp, #80]	; 0x50
 800756a:	f001 fa4f 	bl	8008a0c <_Balloc>
 800756e:	6a63      	ldr	r3, [r4, #36]	; 0x24
 8007570:	2601      	movs	r6, #1
 8007572:	960d      	str	r6, [sp, #52]	; 0x34
 8007574:	6028      	str	r0, [r5, #0]
 8007576:	681b      	ldr	r3, [r3, #0]
 8007578:	9308      	str	r3, [sp, #32]
 800757a:	9b19      	ldr	r3, [sp, #100]	; 0x64
 800757c:	2b00      	cmp	r3, #0
 800757e:	f2c0 80c7 	blt.w	8007710 <_dtoa_r+0x3fc>
 8007582:	9e04      	ldr	r6, [sp, #16]
 8007584:	2e0e      	cmp	r6, #14
 8007586:	f300 80c3 	bgt.w	8007710 <_dtoa_r+0x3fc>
 800758a:	f8dd e094 	ldr.w	lr, [sp, #148]	; 0x94
 800758e:	f24c 03b8 	movw	r3, #49336	; 0xc0b8
 8007592:	9e09      	ldr	r6, [sp, #36]	; 0x24
 8007594:	f6c0 0300 	movt	r3, #2048	; 0x800
 8007598:	ea4f 72de 	mov.w	r2, lr, lsr #31
 800759c:	2e00      	cmp	r6, #0
 800759e:	bfcc      	ite	gt
 80075a0:	2200      	movgt	r2, #0
 80075a2:	f002 0201 	andle.w	r2, r2, #1
 80075a6:	9e04      	ldr	r6, [sp, #16]
 80075a8:	eb03 03c6 	add.w	r3, r3, r6, lsl #3
 80075ac:	e9d3 0100 	ldrd	r0, r1, [r3]
 80075b0:	e9cd 0106 	strd	r0, r1, [sp, #24]
 80075b4:	2a00      	cmp	r2, #0
 80075b6:	f040 846e 	bne.w	8007e96 <_dtoa_r+0xb82>
 80075ba:	4602      	mov	r2, r0
 80075bc:	460b      	mov	r3, r1
 80075be:	4650      	mov	r0, sl
 80075c0:	4659      	mov	r1, fp
 80075c2:	f003 fed1 	bl	800b368 <__aeabi_ddiv>
 80075c6:	9e08      	ldr	r6, [sp, #32]
 80075c8:	f004 f83e 	bl	800b648 <__aeabi_d2iz>
 80075cc:	1c75      	adds	r5, r6, #1
 80075ce:	4680      	mov	r8, r0
 80075d0:	f003 fd3a 	bl	800b048 <__aeabi_i2d>
 80075d4:	e9dd 2306 	ldrd	r2, r3, [sp, #24]
 80075d8:	f003 fd9c 	bl	800b114 <__aeabi_dmul>
 80075dc:	4602      	mov	r2, r0
 80075de:	460b      	mov	r3, r1
 80075e0:	4650      	mov	r0, sl
 80075e2:	4659      	mov	r1, fp
 80075e4:	f003 fbe2 	bl	800adac <__aeabi_dsub>
 80075e8:	9a09      	ldr	r2, [sp, #36]	; 0x24
 80075ea:	f8dd e020 	ldr.w	lr, [sp, #32]
 80075ee:	f108 0330 	add.w	r3, r8, #48	; 0x30
 80075f2:	2a01      	cmp	r2, #1
 80075f4:	f88e 3000 	strb.w	r3, [lr]
 80075f8:	4606      	mov	r6, r0
 80075fa:	460f      	mov	r7, r1
 80075fc:	d05b      	beq.n	80076b6 <_dtoa_r+0x3a2>
 80075fe:	2300      	movs	r3, #0
 8007600:	2200      	movs	r2, #0
 8007602:	f2c4 0324 	movt	r3, #16420	; 0x4024
 8007606:	f003 fd85 	bl	800b114 <__aeabi_dmul>
 800760a:	2200      	movs	r2, #0
 800760c:	2300      	movs	r3, #0
 800760e:	4606      	mov	r6, r0
 8007610:	460f      	mov	r7, r1
 8007612:	f003 ffe7 	bl	800b5e4 <__aeabi_dcmpeq>
 8007616:	2800      	cmp	r0, #0
 8007618:	f040 8519 	bne.w	800804e <_dtoa_r+0xd3a>
 800761c:	f8dd a020 	ldr.w	sl, [sp, #32]
 8007620:	9809      	ldr	r0, [sp, #36]	; 0x24
 8007622:	9908      	ldr	r1, [sp, #32]
 8007624:	4482      	add	sl, r0
 8007626:	f8cd a00c 	str.w	sl, [sp, #12]
 800762a:	f101 0902 	add.w	r9, r1, #2
 800762e:	e9dd ab06 	ldrd	sl, fp, [sp, #24]
 8007632:	e01a      	b.n	800766a <_dtoa_r+0x356>
 8007634:	f3af 8000 	nop.w
 8007638:	636f4361 	cmnvs	pc, #-2080374783	; 0x84000001
 800763c:	3fd287a7 	svccc	0x00d287a7
 8007640:	8b60c8b3 	blhi	9839914 <__RW_LOAD_ADDR__+0x182d6bc>
 8007644:	3fc68a28 	svccc	0x00c68a28
 8007648:	509f79fb 			; <UNDEFINED> instruction: 0x509f79fb
 800764c:	3fd34413 	svccc	0x00d34413
 8007650:	0800c235 	stmdaeq	r0, {r0, r2, r4, r5, r9, lr, pc}
 8007654:	f003 fd5e 	bl	800b114 <__aeabi_dmul>
 8007658:	2200      	movs	r2, #0
 800765a:	2300      	movs	r3, #0
 800765c:	4606      	mov	r6, r0
 800765e:	460f      	mov	r7, r1
 8007660:	f003 ffc0 	bl	800b5e4 <__aeabi_dcmpeq>
 8007664:	2800      	cmp	r0, #0
 8007666:	f040 84f2 	bne.w	800804e <_dtoa_r+0xd3a>
 800766a:	4652      	mov	r2, sl
 800766c:	465b      	mov	r3, fp
 800766e:	4630      	mov	r0, r6
 8007670:	4639      	mov	r1, r7
 8007672:	f003 fe79 	bl	800b368 <__aeabi_ddiv>
 8007676:	464d      	mov	r5, r9
 8007678:	f003 ffe6 	bl	800b648 <__aeabi_d2iz>
 800767c:	4680      	mov	r8, r0
 800767e:	f003 fce3 	bl	800b048 <__aeabi_i2d>
 8007682:	4652      	mov	r2, sl
 8007684:	465b      	mov	r3, fp
 8007686:	f003 fd45 	bl	800b114 <__aeabi_dmul>
 800768a:	4602      	mov	r2, r0
 800768c:	460b      	mov	r3, r1
 800768e:	4630      	mov	r0, r6
 8007690:	4639      	mov	r1, r7
 8007692:	f003 fb8b 	bl	800adac <__aeabi_dsub>
 8007696:	f108 0e30 	add.w	lr, r8, #48	; 0x30
 800769a:	f809 ec01 	strb.w	lr, [r9, #-1]
 800769e:	2300      	movs	r3, #0
 80076a0:	f8dd e00c 	ldr.w	lr, [sp, #12]
 80076a4:	2200      	movs	r2, #0
 80076a6:	f2c4 0324 	movt	r3, #16420	; 0x4024
 80076aa:	45f1      	cmp	r9, lr
 80076ac:	f109 0901 	add.w	r9, r9, #1
 80076b0:	4606      	mov	r6, r0
 80076b2:	460f      	mov	r7, r1
 80076b4:	d1ce      	bne.n	8007654 <_dtoa_r+0x340>
 80076b6:	4632      	mov	r2, r6
 80076b8:	463b      	mov	r3, r7
 80076ba:	4630      	mov	r0, r6
 80076bc:	4639      	mov	r1, r7
 80076be:	f003 fb77 	bl	800adb0 <__adddf3>
 80076c2:	4606      	mov	r6, r0
 80076c4:	460f      	mov	r7, r1
 80076c6:	4632      	mov	r2, r6
 80076c8:	e9dd 0106 	ldrd	r0, r1, [sp, #24]
 80076cc:	463b      	mov	r3, r7
 80076ce:	f003 ff93 	bl	800b5f8 <__aeabi_dcmplt>
 80076d2:	2800      	cmp	r0, #0
 80076d4:	f000 8570 	beq.w	80081b8 <_dtoa_r+0xea4>
 80076d8:	f8dd 9020 	ldr.w	r9, [sp, #32]
 80076dc:	9e04      	ldr	r6, [sp, #16]
 80076de:	462a      	mov	r2, r5
 80076e0:	f815 8c01 	ldrb.w	r8, [r5, #-1]
 80076e4:	9508      	str	r5, [sp, #32]
 80076e6:	9616      	str	r6, [sp, #88]	; 0x58
 80076e8:	e005      	b.n	80076f6 <_dtoa_r+0x3e2>
 80076ea:	454b      	cmp	r3, r9
 80076ec:	f000 84b8 	beq.w	8008060 <_dtoa_r+0xd4c>
 80076f0:	f813 8c01 	ldrb.w	r8, [r3, #-1]
 80076f4:	461a      	mov	r2, r3
 80076f6:	f1b8 0f39 	cmp.w	r8, #57	; 0x39
 80076fa:	f102 33ff 	add.w	r3, r2, #4294967295
 80076fe:	d0f4      	beq.n	80076ea <_dtoa_r+0x3d6>
 8007700:	9e16      	ldr	r6, [sp, #88]	; 0x58
 8007702:	9208      	str	r2, [sp, #32]
 8007704:	f108 0201 	add.w	r2, r8, #1
 8007708:	9604      	str	r6, [sp, #16]
 800770a:	b2d2      	uxtb	r2, r2
 800770c:	701a      	strb	r2, [r3, #0]
 800770e:	e0b1      	b.n	8007874 <_dtoa_r+0x560>
 8007710:	9e0d      	ldr	r6, [sp, #52]	; 0x34
 8007712:	2e00      	cmp	r6, #0
 8007714:	f040 80f1 	bne.w	80078fa <_dtoa_r+0x5e6>
 8007718:	9e0c      	ldr	r6, [sp, #48]	; 0x30
 800771a:	9d0a      	ldr	r5, [sp, #40]	; 0x28
 800771c:	f8dd 8034 	ldr.w	r8, [sp, #52]	; 0x34
 8007720:	9806      	ldr	r0, [sp, #24]
 8007722:	2800      	cmp	r0, #0
 8007724:	bfc8      	it	gt
 8007726:	2d00      	cmpgt	r5, #0
 8007728:	dd09      	ble.n	800773e <_dtoa_r+0x42a>
 800772a:	4603      	mov	r3, r0
 800772c:	990a      	ldr	r1, [sp, #40]	; 0x28
 800772e:	42ab      	cmp	r3, r5
 8007730:	bfa8      	it	ge
 8007732:	462b      	movge	r3, r5
 8007734:	1aed      	subs	r5, r5, r3
 8007736:	1ac9      	subs	r1, r1, r3
 8007738:	1ac0      	subs	r0, r0, r3
 800773a:	910a      	str	r1, [sp, #40]	; 0x28
 800773c:	9006      	str	r0, [sp, #24]
 800773e:	9a0c      	ldr	r2, [sp, #48]	; 0x30
 8007740:	2a00      	cmp	r2, #0
 8007742:	dd1c      	ble.n	800777e <_dtoa_r+0x46a>
 8007744:	9b0d      	ldr	r3, [sp, #52]	; 0x34
 8007746:	2b00      	cmp	r3, #0
 8007748:	f000 8479 	beq.w	800803e <_dtoa_r+0xd2a>
 800774c:	2e00      	cmp	r6, #0
 800774e:	dd10      	ble.n	8007772 <_dtoa_r+0x45e>
 8007750:	4641      	mov	r1, r8
 8007752:	4632      	mov	r2, r6
 8007754:	4620      	mov	r0, r4
 8007756:	f001 fb31 	bl	8008dbc <__pow5mult>
 800775a:	9a0b      	ldr	r2, [sp, #44]	; 0x2c
 800775c:	4680      	mov	r8, r0
 800775e:	4620      	mov	r0, r4
 8007760:	4641      	mov	r1, r8
 8007762:	f001 fa8b 	bl	8008c7c <__multiply>
 8007766:	990b      	ldr	r1, [sp, #44]	; 0x2c
 8007768:	4607      	mov	r7, r0
 800776a:	4620      	mov	r0, r4
 800776c:	f001 f984 	bl	8008a78 <_Bfree>
 8007770:	970b      	str	r7, [sp, #44]	; 0x2c
 8007772:	f8dd e030 	ldr.w	lr, [sp, #48]	; 0x30
 8007776:	ebbe 0206 	subs.w	r2, lr, r6
 800777a:	f040 84a7 	bne.w	80080cc <_dtoa_r+0xdb8>
 800777e:	4620      	mov	r0, r4
 8007780:	2101      	movs	r1, #1
 8007782:	f001 fa71 	bl	8008c68 <__i2b>
 8007786:	4606      	mov	r6, r0
 8007788:	980e      	ldr	r0, [sp, #56]	; 0x38
 800778a:	2800      	cmp	r0, #0
 800778c:	dd05      	ble.n	800779a <_dtoa_r+0x486>
 800778e:	4631      	mov	r1, r6
 8007790:	4620      	mov	r0, r4
 8007792:	9a0e      	ldr	r2, [sp, #56]	; 0x38
 8007794:	f001 fb12 	bl	8008dbc <__pow5mult>
 8007798:	4606      	mov	r6, r0
 800779a:	9924      	ldr	r1, [sp, #144]	; 0x90
 800779c:	2901      	cmp	r1, #1
 800779e:	f340 8390 	ble.w	8007ec2 <_dtoa_r+0xbae>
 80077a2:	2700      	movs	r7, #0
 80077a4:	980e      	ldr	r0, [sp, #56]	; 0x38
 80077a6:	2800      	cmp	r0, #0
 80077a8:	f040 836c 	bne.w	8007e84 <_dtoa_r+0xb70>
 80077ac:	2001      	movs	r0, #1
 80077ae:	9b06      	ldr	r3, [sp, #24]
 80077b0:	4403      	add	r3, r0
 80077b2:	f013 031f 	ands.w	r3, r3, #31
 80077b6:	f000 8293 	beq.w	8007ce0 <_dtoa_r+0x9cc>
 80077ba:	f1c3 0220 	rsb	r2, r3, #32
 80077be:	2a04      	cmp	r2, #4
 80077c0:	f340 8568 	ble.w	8008294 <_dtoa_r+0xf80>
 80077c4:	f1c3 031c 	rsb	r3, r3, #28
 80077c8:	990a      	ldr	r1, [sp, #40]	; 0x28
 80077ca:	9a06      	ldr	r2, [sp, #24]
 80077cc:	441d      	add	r5, r3
 80077ce:	4419      	add	r1, r3
 80077d0:	910a      	str	r1, [sp, #40]	; 0x28
 80077d2:	441a      	add	r2, r3
 80077d4:	9206      	str	r2, [sp, #24]
 80077d6:	990a      	ldr	r1, [sp, #40]	; 0x28
 80077d8:	2900      	cmp	r1, #0
 80077da:	dd05      	ble.n	80077e8 <_dtoa_r+0x4d4>
 80077dc:	990b      	ldr	r1, [sp, #44]	; 0x2c
 80077de:	4620      	mov	r0, r4
 80077e0:	9a0a      	ldr	r2, [sp, #40]	; 0x28
 80077e2:	f001 fb47 	bl	8008e74 <__lshift>
 80077e6:	900b      	str	r0, [sp, #44]	; 0x2c
 80077e8:	9a06      	ldr	r2, [sp, #24]
 80077ea:	2a00      	cmp	r2, #0
 80077ec:	dd04      	ble.n	80077f8 <_dtoa_r+0x4e4>
 80077ee:	4631      	mov	r1, r6
 80077f0:	4620      	mov	r0, r4
 80077f2:	f001 fb3f 	bl	8008e74 <__lshift>
 80077f6:	4606      	mov	r6, r0
 80077f8:	9b0f      	ldr	r3, [sp, #60]	; 0x3c
 80077fa:	2b00      	cmp	r3, #0
 80077fc:	f040 8321 	bne.w	8007e42 <_dtoa_r+0xb2e>
 8007800:	9824      	ldr	r0, [sp, #144]	; 0x90
 8007802:	9909      	ldr	r1, [sp, #36]	; 0x24
 8007804:	2802      	cmp	r0, #2
 8007806:	bfd4      	ite	le
 8007808:	2300      	movle	r3, #0
 800780a:	2301      	movgt	r3, #1
 800780c:	2900      	cmp	r1, #0
 800780e:	bfc8      	it	gt
 8007810:	2300      	movgt	r3, #0
 8007812:	2b00      	cmp	r3, #0
 8007814:	f000 821a 	beq.w	8007c4c <_dtoa_r+0x938>
 8007818:	9809      	ldr	r0, [sp, #36]	; 0x24
 800781a:	2800      	cmp	r0, #0
 800781c:	f040 820f 	bne.w	8007c3e <_dtoa_r+0x92a>
 8007820:	4631      	mov	r1, r6
 8007822:	4603      	mov	r3, r0
 8007824:	2205      	movs	r2, #5
 8007826:	4620      	mov	r0, r4
 8007828:	f001 f942 	bl	8008ab0 <__multadd>
 800782c:	4606      	mov	r6, r0
 800782e:	980b      	ldr	r0, [sp, #44]	; 0x2c
 8007830:	4631      	mov	r1, r6
 8007832:	f001 fb7b 	bl	8008f2c <__mcmp>
 8007836:	2800      	cmp	r0, #0
 8007838:	f340 8201 	ble.w	8007c3e <_dtoa_r+0x92a>
 800783c:	f8dd 9020 	ldr.w	r9, [sp, #32]
 8007840:	2500      	movs	r5, #0
 8007842:	9a04      	ldr	r2, [sp, #16]
 8007844:	2331      	movs	r3, #49	; 0x31
 8007846:	3201      	adds	r2, #1
 8007848:	f889 3000 	strb.w	r3, [r9]
 800784c:	9204      	str	r2, [sp, #16]
 800784e:	f109 0301 	add.w	r3, r9, #1
 8007852:	9308      	str	r3, [sp, #32]
 8007854:	4631      	mov	r1, r6
 8007856:	4620      	mov	r0, r4
 8007858:	f001 f90e 	bl	8008a78 <_Bfree>
 800785c:	f1b8 0f00 	cmp.w	r8, #0
 8007860:	d008      	beq.n	8007874 <_dtoa_r+0x560>
 8007862:	4545      	cmp	r5, r8
 8007864:	bf18      	it	ne
 8007866:	2d00      	cmpne	r5, #0
 8007868:	f040 824a 	bne.w	8007d00 <_dtoa_r+0x9ec>
 800786c:	4641      	mov	r1, r8
 800786e:	4620      	mov	r0, r4
 8007870:	f001 f902 	bl	8008a78 <_Bfree>
 8007874:	4620      	mov	r0, r4
 8007876:	990b      	ldr	r1, [sp, #44]	; 0x2c
 8007878:	f001 f8fe 	bl	8008a78 <_Bfree>
 800787c:	9e04      	ldr	r6, [sp, #16]
 800787e:	2200      	movs	r2, #0
 8007880:	4648      	mov	r0, r9
 8007882:	1c73      	adds	r3, r6, #1
 8007884:	9e08      	ldr	r6, [sp, #32]
 8007886:	7032      	strb	r2, [r6, #0]
 8007888:	9e26      	ldr	r6, [sp, #152]	; 0x98
 800788a:	6033      	str	r3, [r6, #0]
 800788c:	9e28      	ldr	r6, [sp, #160]	; 0xa0
 800788e:	2e00      	cmp	r6, #0
 8007890:	f43f ad81 	beq.w	8007396 <_dtoa_r+0x82>
 8007894:	9808      	ldr	r0, [sp, #32]
 8007896:	6030      	str	r0, [r6, #0]
 8007898:	4648      	mov	r0, r9
 800789a:	b01b      	add	sp, #108	; 0x6c
 800789c:	e8bd 8ff0 	ldmia.w	sp!, {r4, r5, r6, r7, r8, r9, sl, fp, pc}
 80078a0:	2010      	movs	r0, #16
 80078a2:	f000 fd4b 	bl	800833c <malloc>
 80078a6:	6260      	str	r0, [r4, #36]	; 0x24
 80078a8:	6046      	str	r6, [r0, #4]
 80078aa:	6086      	str	r6, [r0, #8]
 80078ac:	6006      	str	r6, [r0, #0]
 80078ae:	60c6      	str	r6, [r0, #12]
 80078b0:	e548      	b.n	8007344 <_dtoa_r+0x30>
 80078b2:	9e0a      	ldr	r6, [sp, #40]	; 0x28
 80078b4:	f8dd e010 	ldr.w	lr, [sp, #16]
 80078b8:	ebce 0606 	rsb	r6, lr, r6
 80078bc:	960a      	str	r6, [sp, #40]	; 0x28
 80078be:	f1ce 0600 	rsb	r6, lr, #0
 80078c2:	960c      	str	r6, [sp, #48]	; 0x30
 80078c4:	2600      	movs	r6, #0
 80078c6:	960e      	str	r6, [sp, #56]	; 0x38
 80078c8:	e60a      	b.n	80074e0 <_dtoa_r+0x1cc>
 80078ca:	9804      	ldr	r0, [sp, #16]
 80078cc:	f003 fbbc 	bl	800b048 <__aeabi_i2d>
 80078d0:	4632      	mov	r2, r6
 80078d2:	463b      	mov	r3, r7
 80078d4:	f003 fe86 	bl	800b5e4 <__aeabi_dcmpeq>
 80078d8:	2800      	cmp	r0, #0
 80078da:	f47f add0 	bne.w	800747e <_dtoa_r+0x16a>
 80078de:	9e04      	ldr	r6, [sp, #16]
 80078e0:	3e01      	subs	r6, #1
 80078e2:	9604      	str	r6, [sp, #16]
 80078e4:	e5cb      	b.n	800747e <_dtoa_r+0x16a>
 80078e6:	900f      	str	r0, [sp, #60]	; 0x3c
 80078e8:	e5e2      	b.n	80074b0 <_dtoa_r+0x19c>
 80078ea:	f64f 30ee 	movw	r0, #64494	; 0xfbee
 80078ee:	f6cf 70ff 	movt	r0, #65535	; 0xffff
 80078f2:	1b40      	subs	r0, r0, r5
 80078f4:	fa0a f000 	lsl.w	r0, sl, r0
 80078f8:	e58b      	b.n	8007412 <_dtoa_r+0xfe>
 80078fa:	9e24      	ldr	r6, [sp, #144]	; 0x90
 80078fc:	2e01      	cmp	r6, #1
 80078fe:	f340 8415 	ble.w	800812c <_dtoa_r+0xe18>
 8007902:	9809      	ldr	r0, [sp, #36]	; 0x24
 8007904:	990c      	ldr	r1, [sp, #48]	; 0x30
 8007906:	1e46      	subs	r6, r0, #1
 8007908:	9809      	ldr	r0, [sp, #36]	; 0x24
 800790a:	42b1      	cmp	r1, r6
 800790c:	bfaf      	iteee	ge
 800790e:	ebc6 0601 	rsbge	r6, r6, r1
 8007912:	9a0c      	ldrlt	r2, [sp, #48]	; 0x30
 8007914:	960c      	strlt	r6, [sp, #48]	; 0x30
 8007916:	ebc2 0306 	rsblt	r3, r2, r6
 800791a:	bfbf      	itttt	lt
 800791c:	9e0e      	ldrlt	r6, [sp, #56]	; 0x38
 800791e:	18f6      	addlt	r6, r6, r3
 8007920:	960e      	strlt	r6, [sp, #56]	; 0x38
 8007922:	2600      	movlt	r6, #0
 8007924:	2800      	cmp	r0, #0
 8007926:	bfb9      	ittee	lt
 8007928:	2300      	movlt	r3, #0
 800792a:	990a      	ldrlt	r1, [sp, #40]	; 0x28
 800792c:	9d0a      	ldrge	r5, [sp, #40]	; 0x28
 800792e:	9b09      	ldrge	r3, [sp, #36]	; 0x24
 8007930:	bfb8      	it	lt
 8007932:	ebc0 0501 	rsblt	r5, r0, r1
 8007936:	9a0a      	ldr	r2, [sp, #40]	; 0x28
 8007938:	4620      	mov	r0, r4
 800793a:	f8dd e018 	ldr.w	lr, [sp, #24]
 800793e:	2101      	movs	r1, #1
 8007940:	441a      	add	r2, r3
 8007942:	920a      	str	r2, [sp, #40]	; 0x28
 8007944:	449e      	add	lr, r3
 8007946:	f8cd e018 	str.w	lr, [sp, #24]
 800794a:	f001 f98d 	bl	8008c68 <__i2b>
 800794e:	4680      	mov	r8, r0
 8007950:	e6e6      	b.n	8007720 <_dtoa_r+0x40c>
 8007952:	2600      	movs	r6, #0
 8007954:	960d      	str	r6, [sp, #52]	; 0x34
 8007956:	9e04      	ldr	r6, [sp, #16]
 8007958:	f8dd e094 	ldr.w	lr, [sp, #148]	; 0x94
 800795c:	44b6      	add	lr, r6
 800795e:	f8cd e050 	str.w	lr, [sp, #80]	; 0x50
 8007962:	f10e 0601 	add.w	r6, lr, #1
 8007966:	9609      	str	r6, [sp, #36]	; 0x24
 8007968:	2e00      	cmp	r6, #0
 800796a:	f340 8359 	ble.w	8008020 <_dtoa_r+0xd0c>
 800796e:	9e09      	ldr	r6, [sp, #36]	; 0x24
 8007970:	2e0e      	cmp	r6, #14
 8007972:	bf8c      	ite	hi
 8007974:	2500      	movhi	r5, #0
 8007976:	f005 0501 	andls.w	r5, r5, #1
 800797a:	4637      	mov	r7, r6
 800797c:	6a66      	ldr	r6, [r4, #36]	; 0x24
 800797e:	2f17      	cmp	r7, #23
 8007980:	f04f 0100 	mov.w	r1, #0
 8007984:	6071      	str	r1, [r6, #4]
 8007986:	d909      	bls.n	800799c <_dtoa_r+0x688>
 8007988:	2201      	movs	r2, #1
 800798a:	2304      	movs	r3, #4
 800798c:	005b      	lsls	r3, r3, #1
 800798e:	4611      	mov	r1, r2
 8007990:	f103 0014 	add.w	r0, r3, #20
 8007994:	3201      	adds	r2, #1
 8007996:	42b8      	cmp	r0, r7
 8007998:	d9f8      	bls.n	800798c <_dtoa_r+0x678>
 800799a:	6071      	str	r1, [r6, #4]
 800799c:	4620      	mov	r0, r4
 800799e:	f001 f835 	bl	8008a0c <_Balloc>
 80079a2:	6a63      	ldr	r3, [r4, #36]	; 0x24
 80079a4:	6030      	str	r0, [r6, #0]
 80079a6:	681b      	ldr	r3, [r3, #0]
 80079a8:	9308      	str	r3, [sp, #32]
 80079aa:	2d00      	cmp	r5, #0
 80079ac:	f43f ade5 	beq.w	800757a <_dtoa_r+0x266>
 80079b0:	9e04      	ldr	r6, [sp, #16]
 80079b2:	e9cd ab12 	strd	sl, fp, [sp, #72]	; 0x48
 80079b6:	2e00      	cmp	r6, #0
 80079b8:	f340 81ab 	ble.w	8007d12 <_dtoa_r+0x9fe>
 80079bc:	f006 020f 	and.w	r2, r6, #15
 80079c0:	f24c 03b8 	movw	r3, #49336	; 0xc0b8
 80079c4:	1135      	asrs	r5, r6, #4
 80079c6:	f6c0 0300 	movt	r3, #2048	; 0x800
 80079ca:	eb03 03c2 	add.w	r3, r3, r2, lsl #3
 80079ce:	06e9      	lsls	r1, r5, #27
 80079d0:	e9d3 6700 	ldrd	r6, r7, [r3]
 80079d4:	f140 818f 	bpl.w	8007cf6 <_dtoa_r+0x9e2>
 80079d8:	f24c 13a8 	movw	r3, #49576	; 0xc1a8
 80079dc:	4650      	mov	r0, sl
 80079de:	f6c0 0300 	movt	r3, #2048	; 0x800
 80079e2:	4659      	mov	r1, fp
 80079e4:	f005 050f 	and.w	r5, r5, #15
 80079e8:	f04f 0803 	mov.w	r8, #3
 80079ec:	e9d3 2308 	ldrd	r2, r3, [r3, #32]
 80079f0:	f003 fcba 	bl	800b368 <__aeabi_ddiv>
 80079f4:	4682      	mov	sl, r0
 80079f6:	468b      	mov	fp, r1
 80079f8:	b19d      	cbz	r5, 8007a22 <_dtoa_r+0x70e>
 80079fa:	f24c 19a8 	movw	r9, #49576	; 0xc1a8
 80079fe:	f6c0 0900 	movt	r9, #2048	; 0x800
 8007a02:	07ea      	lsls	r2, r5, #31
 8007a04:	4630      	mov	r0, r6
 8007a06:	4639      	mov	r1, r7
 8007a08:	d507      	bpl.n	8007a1a <_dtoa_r+0x706>
 8007a0a:	e9d9 2300 	ldrd	r2, r3, [r9]
 8007a0e:	f108 0801 	add.w	r8, r8, #1
 8007a12:	f003 fb7f 	bl	800b114 <__aeabi_dmul>
 8007a16:	4606      	mov	r6, r0
 8007a18:	460f      	mov	r7, r1
 8007a1a:	106d      	asrs	r5, r5, #1
 8007a1c:	f109 0908 	add.w	r9, r9, #8
 8007a20:	d1ef      	bne.n	8007a02 <_dtoa_r+0x6ee>
 8007a22:	4632      	mov	r2, r6
 8007a24:	463b      	mov	r3, r7
 8007a26:	4650      	mov	r0, sl
 8007a28:	4659      	mov	r1, fp
 8007a2a:	f003 fc9d 	bl	800b368 <__aeabi_ddiv>
 8007a2e:	4606      	mov	r6, r0
 8007a30:	460f      	mov	r7, r1
 8007a32:	980f      	ldr	r0, [sp, #60]	; 0x3c
 8007a34:	b150      	cbz	r0, 8007a4c <_dtoa_r+0x738>
 8007a36:	2300      	movs	r3, #0
 8007a38:	4630      	mov	r0, r6
 8007a3a:	4639      	mov	r1, r7
 8007a3c:	2200      	movs	r2, #0
 8007a3e:	f6c3 73f0 	movt	r3, #16368	; 0x3ff0
 8007a42:	f003 fdd9 	bl	800b5f8 <__aeabi_dcmplt>
 8007a46:	2800      	cmp	r0, #0
 8007a48:	f040 8315 	bne.w	8008076 <_dtoa_r+0xd62>
 8007a4c:	4640      	mov	r0, r8
 8007a4e:	f003 fafb 	bl	800b048 <__aeabi_i2d>
 8007a52:	4632      	mov	r2, r6
 8007a54:	463b      	mov	r3, r7
 8007a56:	f003 fb5d 	bl	800b114 <__aeabi_dmul>
 8007a5a:	2300      	movs	r3, #0
 8007a5c:	2200      	movs	r2, #0
 8007a5e:	f2c4 031c 	movt	r3, #16412	; 0x401c
 8007a62:	f003 f9a5 	bl	800adb0 <__adddf3>
 8007a66:	4680      	mov	r8, r0
 8007a68:	9809      	ldr	r0, [sp, #36]	; 0x24
 8007a6a:	f1a1 7950 	sub.w	r9, r1, #54525952	; 0x3400000
 8007a6e:	2800      	cmp	r0, #0
 8007a70:	f000 80c9 	beq.w	8007c06 <_dtoa_r+0x8f2>
 8007a74:	9904      	ldr	r1, [sp, #16]
 8007a76:	f8dd c024 	ldr.w	ip, [sp, #36]	; 0x24
 8007a7a:	9116      	str	r1, [sp, #88]	; 0x58
 8007a7c:	9a0d      	ldr	r2, [sp, #52]	; 0x34
 8007a7e:	2a00      	cmp	r2, #0
 8007a80:	f000 8179 	beq.w	8007d76 <_dtoa_r+0xa62>
 8007a84:	f24c 03b8 	movw	r3, #49336	; 0xc0b8
 8007a88:	9a08      	ldr	r2, [sp, #32]
 8007a8a:	f6c0 0300 	movt	r3, #2048	; 0x800
 8007a8e:	2100      	movs	r1, #0
 8007a90:	eb03 03cc 	add.w	r3, r3, ip, lsl #3
 8007a94:	2000      	movs	r0, #0
 8007a96:	f6c3 71e0 	movt	r1, #16352	; 0x3fe0
 8007a9a:	1c55      	adds	r5, r2, #1
 8007a9c:	e953 2302 	ldrd	r2, r3, [r3, #-8]
 8007aa0:	f8cd c008 	str.w	ip, [sp, #8]
 8007aa4:	f003 fc60 	bl	800b368 <__aeabi_ddiv>
 8007aa8:	4642      	mov	r2, r8
 8007aaa:	464b      	mov	r3, r9
 8007aac:	f003 f97e 	bl	800adac <__aeabi_dsub>
 8007ab0:	4682      	mov	sl, r0
 8007ab2:	468b      	mov	fp, r1
 8007ab4:	4630      	mov	r0, r6
 8007ab6:	4639      	mov	r1, r7
 8007ab8:	f003 fdc6 	bl	800b648 <__aeabi_d2iz>
 8007abc:	4680      	mov	r8, r0
 8007abe:	f003 fac3 	bl	800b048 <__aeabi_i2d>
 8007ac2:	f108 0830 	add.w	r8, r8, #48	; 0x30
 8007ac6:	fa5f f888 	uxtb.w	r8, r8
 8007aca:	4602      	mov	r2, r0
 8007acc:	460b      	mov	r3, r1
 8007ace:	4630      	mov	r0, r6
 8007ad0:	4639      	mov	r1, r7
 8007ad2:	f003 f96b 	bl	800adac <__aeabi_dsub>
 8007ad6:	f8dd e020 	ldr.w	lr, [sp, #32]
 8007ada:	f88e 8000 	strb.w	r8, [lr]
 8007ade:	4606      	mov	r6, r0
 8007ae0:	460f      	mov	r7, r1
 8007ae2:	4650      	mov	r0, sl
 8007ae4:	4659      	mov	r1, fp
 8007ae6:	4632      	mov	r2, r6
 8007ae8:	463b      	mov	r3, r7
 8007aea:	f003 fda3 	bl	800b634 <__aeabi_dcmpgt>
 8007aee:	2800      	cmp	r0, #0
 8007af0:	f040 83c2 	bne.w	8008278 <_dtoa_r+0xf64>
 8007af4:	2100      	movs	r1, #0
 8007af6:	4632      	mov	r2, r6
 8007af8:	463b      	mov	r3, r7
 8007afa:	2000      	movs	r0, #0
 8007afc:	f6c3 71f0 	movt	r1, #16368	; 0x3ff0
 8007b00:	f003 f954 	bl	800adac <__aeabi_dsub>
 8007b04:	4602      	mov	r2, r0
 8007b06:	460b      	mov	r3, r1
 8007b08:	4650      	mov	r0, sl
 8007b0a:	4659      	mov	r1, fp
 8007b0c:	f003 fd92 	bl	800b634 <__aeabi_dcmpgt>
 8007b10:	f8dd c008 	ldr.w	ip, [sp, #8]
 8007b14:	2800      	cmp	r0, #0
 8007b16:	f040 8314 	bne.w	8008142 <_dtoa_r+0xe2e>
 8007b1a:	f1bc 0f01 	cmp.w	ip, #1
 8007b1e:	f340 80f5 	ble.w	8007d0c <_dtoa_r+0x9f8>
 8007b22:	f8dd 9020 	ldr.w	r9, [sp, #32]
 8007b26:	9417      	str	r4, [sp, #92]	; 0x5c
 8007b28:	44e1      	add	r9, ip
 8007b2a:	f8cd 9040 	str.w	r9, [sp, #64]	; 0x40
 8007b2e:	46a9      	mov	r9, r5
 8007b30:	e010      	b.n	8007b54 <_dtoa_r+0x840>
 8007b32:	2100      	movs	r1, #0
 8007b34:	2000      	movs	r0, #0
 8007b36:	f6c3 71f0 	movt	r1, #16368	; 0x3ff0
 8007b3a:	f003 f937 	bl	800adac <__aeabi_dsub>
 8007b3e:	4652      	mov	r2, sl
 8007b40:	465b      	mov	r3, fp
 8007b42:	f003 fd59 	bl	800b5f8 <__aeabi_dcmplt>
 8007b46:	2800      	cmp	r0, #0
 8007b48:	f040 82f9 	bne.w	800813e <_dtoa_r+0xe2a>
 8007b4c:	9810      	ldr	r0, [sp, #64]	; 0x40
 8007b4e:	4581      	cmp	r9, r0
 8007b50:	f000 80db 	beq.w	8007d0a <_dtoa_r+0x9f6>
 8007b54:	2300      	movs	r3, #0
 8007b56:	4650      	mov	r0, sl
 8007b58:	4659      	mov	r1, fp
 8007b5a:	2200      	movs	r2, #0
 8007b5c:	f2c4 0324 	movt	r3, #16420	; 0x4024
 8007b60:	f003 fad8 	bl	800b114 <__aeabi_dmul>
 8007b64:	2300      	movs	r3, #0
 8007b66:	2200      	movs	r2, #0
 8007b68:	f2c4 0324 	movt	r3, #16420	; 0x4024
 8007b6c:	4682      	mov	sl, r0
 8007b6e:	468b      	mov	fp, r1
 8007b70:	4630      	mov	r0, r6
 8007b72:	4639      	mov	r1, r7
 8007b74:	f003 face 	bl	800b114 <__aeabi_dmul>
 8007b78:	460d      	mov	r5, r1
 8007b7a:	4604      	mov	r4, r0
 8007b7c:	f003 fd64 	bl	800b648 <__aeabi_d2iz>
 8007b80:	4680      	mov	r8, r0
 8007b82:	f003 fa61 	bl	800b048 <__aeabi_i2d>
 8007b86:	f108 0830 	add.w	r8, r8, #48	; 0x30
 8007b8a:	fa5f f888 	uxtb.w	r8, r8
 8007b8e:	4602      	mov	r2, r0
 8007b90:	460b      	mov	r3, r1
 8007b92:	4620      	mov	r0, r4
 8007b94:	4629      	mov	r1, r5
 8007b96:	f003 f909 	bl	800adac <__aeabi_dsub>
 8007b9a:	4652      	mov	r2, sl
 8007b9c:	465b      	mov	r3, fp
 8007b9e:	f809 8b01 	strb.w	r8, [r9], #1
 8007ba2:	4606      	mov	r6, r0
 8007ba4:	460f      	mov	r7, r1
 8007ba6:	f003 fd27 	bl	800b5f8 <__aeabi_dcmplt>
 8007baa:	4632      	mov	r2, r6
 8007bac:	463b      	mov	r3, r7
 8007bae:	2800      	cmp	r0, #0
 8007bb0:	d0bf      	beq.n	8007b32 <_dtoa_r+0x81e>
 8007bb2:	9e16      	ldr	r6, [sp, #88]	; 0x58
 8007bb4:	464d      	mov	r5, r9
 8007bb6:	9c17      	ldr	r4, [sp, #92]	; 0x5c
 8007bb8:	f8dd 9020 	ldr.w	r9, [sp, #32]
 8007bbc:	9604      	str	r6, [sp, #16]
 8007bbe:	9508      	str	r5, [sp, #32]
 8007bc0:	e658      	b.n	8007874 <_dtoa_r+0x560>
 8007bc2:	2600      	movs	r6, #0
 8007bc4:	960d      	str	r6, [sp, #52]	; 0x34
 8007bc6:	9825      	ldr	r0, [sp, #148]	; 0x94
 8007bc8:	2800      	cmp	r0, #0
 8007bca:	f340 8233 	ble.w	8008034 <_dtoa_r+0xd20>
 8007bce:	280e      	cmp	r0, #14
 8007bd0:	bf8c      	ite	hi
 8007bd2:	2500      	movhi	r5, #0
 8007bd4:	f005 0501 	andls.w	r5, r5, #1
 8007bd8:	4607      	mov	r7, r0
 8007bda:	9014      	str	r0, [sp, #80]	; 0x50
 8007bdc:	9009      	str	r0, [sp, #36]	; 0x24
 8007bde:	e6cd      	b.n	800797c <_dtoa_r+0x668>
 8007be0:	2601      	movs	r6, #1
 8007be2:	960d      	str	r6, [sp, #52]	; 0x34
 8007be4:	e7ef      	b.n	8007bc6 <_dtoa_r+0x8b2>
 8007be6:	4640      	mov	r0, r8
 8007be8:	f003 fa2e 	bl	800b048 <__aeabi_i2d>
 8007bec:	4632      	mov	r2, r6
 8007bee:	463b      	mov	r3, r7
 8007bf0:	f003 fa90 	bl	800b114 <__aeabi_dmul>
 8007bf4:	2300      	movs	r3, #0
 8007bf6:	2200      	movs	r2, #0
 8007bf8:	f2c4 031c 	movt	r3, #16412	; 0x401c
 8007bfc:	f003 f8d8 	bl	800adb0 <__adddf3>
 8007c00:	4680      	mov	r8, r0
 8007c02:	f1a1 7950 	sub.w	r9, r1, #54525952	; 0x3400000
 8007c06:	2300      	movs	r3, #0
 8007c08:	4630      	mov	r0, r6
 8007c0a:	2200      	movs	r2, #0
 8007c0c:	f2c4 0314 	movt	r3, #16404	; 0x4014
 8007c10:	4639      	mov	r1, r7
 8007c12:	f003 f8cb 	bl	800adac <__aeabi_dsub>
 8007c16:	4642      	mov	r2, r8
 8007c18:	464b      	mov	r3, r9
 8007c1a:	4682      	mov	sl, r0
 8007c1c:	468b      	mov	fp, r1
 8007c1e:	f003 fd09 	bl	800b634 <__aeabi_dcmpgt>
 8007c22:	4606      	mov	r6, r0
 8007c24:	2800      	cmp	r0, #0
 8007c26:	f040 80a3 	bne.w	8007d70 <_dtoa_r+0xa5c>
 8007c2a:	4642      	mov	r2, r8
 8007c2c:	4650      	mov	r0, sl
 8007c2e:	4659      	mov	r1, fp
 8007c30:	f109 4300 	add.w	r3, r9, #2147483648	; 0x80000000
 8007c34:	f003 fce0 	bl	800b5f8 <__aeabi_dcmplt>
 8007c38:	2800      	cmp	r0, #0
 8007c3a:	d067      	beq.n	8007d0c <_dtoa_r+0x9f8>
 8007c3c:	46b0      	mov	r8, r6
 8007c3e:	9925      	ldr	r1, [sp, #148]	; 0x94
 8007c40:	2500      	movs	r5, #0
 8007c42:	f8dd 9020 	ldr.w	r9, [sp, #32]
 8007c46:	43c9      	mvns	r1, r1
 8007c48:	9104      	str	r1, [sp, #16]
 8007c4a:	e603      	b.n	8007854 <_dtoa_r+0x540>
 8007c4c:	980d      	ldr	r0, [sp, #52]	; 0x34
 8007c4e:	2800      	cmp	r0, #0
 8007c50:	f040 8164 	bne.w	8007f1c <_dtoa_r+0xc08>
 8007c54:	2500      	movs	r5, #0
 8007c56:	f8dd a024 	ldr.w	sl, [sp, #36]	; 0x24
 8007c5a:	f8dd b020 	ldr.w	fp, [sp, #32]
 8007c5e:	f8dd 902c 	ldr.w	r9, [sp, #44]	; 0x2c
 8007c62:	e002      	b.n	8007c6a <_dtoa_r+0x956>
 8007c64:	f000 ff24 	bl	8008ab0 <__multadd>
 8007c68:	4681      	mov	r9, r0
 8007c6a:	4631      	mov	r1, r6
 8007c6c:	4648      	mov	r0, r9
 8007c6e:	f7ff faab 	bl	80071c8 <quorem>
 8007c72:	4649      	mov	r1, r9
 8007c74:	220a      	movs	r2, #10
 8007c76:	2300      	movs	r3, #0
 8007c78:	f100 0730 	add.w	r7, r0, #48	; 0x30
 8007c7c:	f80b 7005 	strb.w	r7, [fp, r5]
 8007c80:	3501      	adds	r5, #1
 8007c82:	4620      	mov	r0, r4
 8007c84:	4555      	cmp	r5, sl
 8007c86:	dbed      	blt.n	8007c64 <_dtoa_r+0x950>
 8007c88:	f8dd b020 	ldr.w	fp, [sp, #32]
 8007c8c:	461d      	mov	r5, r3
 8007c8e:	9809      	ldr	r0, [sp, #36]	; 0x24
 8007c90:	f8cd 902c 	str.w	r9, [sp, #44]	; 0x2c
 8007c94:	2801      	cmp	r0, #1
 8007c96:	bfac      	ite	ge
 8007c98:	4483      	addge	fp, r0
 8007c9a:	f10b 0b01 	addlt.w	fp, fp, #1
 8007c9e:	990b      	ldr	r1, [sp, #44]	; 0x2c
 8007ca0:	2201      	movs	r2, #1
 8007ca2:	4620      	mov	r0, r4
 8007ca4:	f001 f8e6 	bl	8008e74 <__lshift>
 8007ca8:	4631      	mov	r1, r6
 8007caa:	900b      	str	r0, [sp, #44]	; 0x2c
 8007cac:	f001 f93e 	bl	8008f2c <__mcmp>
 8007cb0:	2800      	cmp	r0, #0
 8007cb2:	f340 826f 	ble.w	8008194 <_dtoa_r+0xe80>
 8007cb6:	f81b 2c01 	ldrb.w	r2, [fp, #-1]
 8007cba:	9908      	ldr	r1, [sp, #32]
 8007cbc:	e005      	b.n	8007cca <_dtoa_r+0x9b6>
 8007cbe:	428b      	cmp	r3, r1
 8007cc0:	f000 8228 	beq.w	8008114 <_dtoa_r+0xe00>
 8007cc4:	f813 2c01 	ldrb.w	r2, [r3, #-1]
 8007cc8:	469b      	mov	fp, r3
 8007cca:	2a39      	cmp	r2, #57	; 0x39
 8007ccc:	f10b 33ff 	add.w	r3, fp, #4294967295
 8007cd0:	d0f5      	beq.n	8007cbe <_dtoa_r+0x9aa>
 8007cd2:	3201      	adds	r2, #1
 8007cd4:	f8dd 9020 	ldr.w	r9, [sp, #32]
 8007cd8:	701a      	strb	r2, [r3, #0]
 8007cda:	f8cd b020 	str.w	fp, [sp, #32]
 8007cde:	e5b9      	b.n	8007854 <_dtoa_r+0x540>
 8007ce0:	231c      	movs	r3, #28
 8007ce2:	f8dd e028 	ldr.w	lr, [sp, #40]	; 0x28
 8007ce6:	441d      	add	r5, r3
 8007ce8:	9806      	ldr	r0, [sp, #24]
 8007cea:	449e      	add	lr, r3
 8007cec:	f8cd e028 	str.w	lr, [sp, #40]	; 0x28
 8007cf0:	4418      	add	r0, r3
 8007cf2:	9006      	str	r0, [sp, #24]
 8007cf4:	e56f      	b.n	80077d6 <_dtoa_r+0x4c2>
 8007cf6:	e9dd ab12 	ldrd	sl, fp, [sp, #72]	; 0x48
 8007cfa:	f04f 0802 	mov.w	r8, #2
 8007cfe:	e67b      	b.n	80079f8 <_dtoa_r+0x6e4>
 8007d00:	4629      	mov	r1, r5
 8007d02:	4620      	mov	r0, r4
 8007d04:	f000 feb8 	bl	8008a78 <_Bfree>
 8007d08:	e5b0      	b.n	800786c <_dtoa_r+0x558>
 8007d0a:	9c17      	ldr	r4, [sp, #92]	; 0x5c
 8007d0c:	e9dd ab12 	ldrd	sl, fp, [sp, #72]	; 0x48
 8007d10:	e433      	b.n	800757a <_dtoa_r+0x266>
 8007d12:	9e04      	ldr	r6, [sp, #16]
 8007d14:	4275      	negs	r5, r6
 8007d16:	2d00      	cmp	r5, #0
 8007d18:	f000 819d 	beq.w	8008056 <_dtoa_r+0xd42>
 8007d1c:	f005 020f 	and.w	r2, r5, #15
 8007d20:	f24c 03b8 	movw	r3, #49336	; 0xc0b8
 8007d24:	f6c0 0300 	movt	r3, #2048	; 0x800
 8007d28:	e9dd 0112 	ldrd	r0, r1, [sp, #72]	; 0x48
 8007d2c:	eb03 03c2 	add.w	r3, r3, r2, lsl #3
 8007d30:	e9d3 2300 	ldrd	r2, r3, [r3]
 8007d34:	f003 f9ee 	bl	800b114 <__aeabi_dmul>
 8007d38:	112d      	asrs	r5, r5, #4
 8007d3a:	4606      	mov	r6, r0
 8007d3c:	460f      	mov	r7, r1
 8007d3e:	f000 8297 	beq.w	8008270 <_dtoa_r+0xf5c>
 8007d42:	f24c 19a8 	movw	r9, #49576	; 0xc1a8
 8007d46:	f04f 0802 	mov.w	r8, #2
 8007d4a:	f6c0 0900 	movt	r9, #2048	; 0x800
 8007d4e:	07eb      	lsls	r3, r5, #31
 8007d50:	4630      	mov	r0, r6
 8007d52:	4639      	mov	r1, r7
 8007d54:	d507      	bpl.n	8007d66 <_dtoa_r+0xa52>
 8007d56:	e9d9 2300 	ldrd	r2, r3, [r9]
 8007d5a:	f108 0801 	add.w	r8, r8, #1
 8007d5e:	f003 f9d9 	bl	800b114 <__aeabi_dmul>
 8007d62:	4606      	mov	r6, r0
 8007d64:	460f      	mov	r7, r1
 8007d66:	106d      	asrs	r5, r5, #1
 8007d68:	f109 0908 	add.w	r9, r9, #8
 8007d6c:	d1ef      	bne.n	8007d4e <_dtoa_r+0xa3a>
 8007d6e:	e660      	b.n	8007a32 <_dtoa_r+0x71e>
 8007d70:	2600      	movs	r6, #0
 8007d72:	46b0      	mov	r8, r6
 8007d74:	e562      	b.n	800783c <_dtoa_r+0x528>
 8007d76:	f10c 3bff 	add.w	fp, ip, #4294967295
 8007d7a:	f24c 01b8 	movw	r1, #49336	; 0xc0b8
 8007d7e:	f6c0 0100 	movt	r1, #2048	; 0x800
 8007d82:	9808      	ldr	r0, [sp, #32]
 8007d84:	eb01 01cb 	add.w	r1, r1, fp, lsl #3
 8007d88:	4642      	mov	r2, r8
 8007d8a:	464b      	mov	r3, r9
 8007d8c:	f100 0a01 	add.w	sl, r0, #1
 8007d90:	e9d1 0100 	ldrd	r0, r1, [r1]
 8007d94:	f8cd c008 	str.w	ip, [sp, #8]
 8007d98:	f003 f9bc 	bl	800b114 <__aeabi_dmul>
 8007d9c:	e9cd 0110 	strd	r0, r1, [sp, #64]	; 0x40
 8007da0:	4639      	mov	r1, r7
 8007da2:	4630      	mov	r0, r6
 8007da4:	f003 fc50 	bl	800b648 <__aeabi_d2iz>
 8007da8:	4605      	mov	r5, r0
 8007daa:	f003 f94d 	bl	800b048 <__aeabi_i2d>
 8007dae:	3530      	adds	r5, #48	; 0x30
 8007db0:	4602      	mov	r2, r0
 8007db2:	460b      	mov	r3, r1
 8007db4:	4630      	mov	r0, r6
 8007db6:	4639      	mov	r1, r7
 8007db8:	f002 fff8 	bl	800adac <__aeabi_dsub>
 8007dbc:	460f      	mov	r7, r1
 8007dbe:	9908      	ldr	r1, [sp, #32]
 8007dc0:	4606      	mov	r6, r0
 8007dc2:	700d      	strb	r5, [r1, #0]
 8007dc4:	f8dd c008 	ldr.w	ip, [sp, #8]
 8007dc8:	f1bc 0f01 	cmp.w	ip, #1
 8007dcc:	d022      	beq.n	8007e14 <_dtoa_r+0xb00>
 8007dce:	9a08      	ldr	r2, [sp, #32]
 8007dd0:	4630      	mov	r0, r6
 8007dd2:	4639      	mov	r1, r7
 8007dd4:	f102 39ff 	add.w	r9, r2, #4294967295
 8007dd8:	4615      	mov	r5, r2
 8007dda:	44e1      	add	r9, ip
 8007ddc:	2300      	movs	r3, #0
 8007dde:	2200      	movs	r2, #0
 8007de0:	f2c4 0324 	movt	r3, #16420	; 0x4024
 8007de4:	f003 f996 	bl	800b114 <__aeabi_dmul>
 8007de8:	460f      	mov	r7, r1
 8007dea:	4606      	mov	r6, r0
 8007dec:	f003 fc2c 	bl	800b648 <__aeabi_d2iz>
 8007df0:	4680      	mov	r8, r0
 8007df2:	f003 f929 	bl	800b048 <__aeabi_i2d>
 8007df6:	f108 0830 	add.w	r8, r8, #48	; 0x30
 8007dfa:	4602      	mov	r2, r0
 8007dfc:	460b      	mov	r3, r1
 8007dfe:	4630      	mov	r0, r6
 8007e00:	4639      	mov	r1, r7
 8007e02:	f002 ffd3 	bl	800adac <__aeabi_dsub>
 8007e06:	f805 8f01 	strb.w	r8, [r5, #1]!
 8007e0a:	454d      	cmp	r5, r9
 8007e0c:	d1e6      	bne.n	8007ddc <_dtoa_r+0xac8>
 8007e0e:	4606      	mov	r6, r0
 8007e10:	460f      	mov	r7, r1
 8007e12:	44da      	add	sl, fp
 8007e14:	2300      	movs	r3, #0
 8007e16:	2200      	movs	r2, #0
 8007e18:	f6c3 73e0 	movt	r3, #16352	; 0x3fe0
 8007e1c:	e9dd 0110 	ldrd	r0, r1, [sp, #64]	; 0x40
 8007e20:	f002 ffc6 	bl	800adb0 <__adddf3>
 8007e24:	4632      	mov	r2, r6
 8007e26:	463b      	mov	r3, r7
 8007e28:	f003 fbe6 	bl	800b5f8 <__aeabi_dcmplt>
 8007e2c:	2800      	cmp	r0, #0
 8007e2e:	f000 8154 	beq.w	80080da <_dtoa_r+0xdc6>
 8007e32:	f8dd 9020 	ldr.w	r9, [sp, #32]
 8007e36:	4652      	mov	r2, sl
 8007e38:	f81a 8c01 	ldrb.w	r8, [sl, #-1]
 8007e3c:	f8cd a020 	str.w	sl, [sp, #32]
 8007e40:	e459      	b.n	80076f6 <_dtoa_r+0x3e2>
 8007e42:	980b      	ldr	r0, [sp, #44]	; 0x2c
 8007e44:	4631      	mov	r1, r6
 8007e46:	f001 f871 	bl	8008f2c <__mcmp>
 8007e4a:	2800      	cmp	r0, #0
 8007e4c:	f6bf acd8 	bge.w	8007800 <_dtoa_r+0x4ec>
 8007e50:	f8dd e010 	ldr.w	lr, [sp, #16]
 8007e54:	4620      	mov	r0, r4
 8007e56:	990b      	ldr	r1, [sp, #44]	; 0x2c
 8007e58:	220a      	movs	r2, #10
 8007e5a:	2300      	movs	r3, #0
 8007e5c:	f10e 3eff 	add.w	lr, lr, #4294967295
 8007e60:	f8cd e010 	str.w	lr, [sp, #16]
 8007e64:	f000 fe24 	bl	8008ab0 <__multadd>
 8007e68:	900b      	str	r0, [sp, #44]	; 0x2c
 8007e6a:	980d      	ldr	r0, [sp, #52]	; 0x34
 8007e6c:	2800      	cmp	r0, #0
 8007e6e:	d141      	bne.n	8007ef4 <_dtoa_r+0xbe0>
 8007e70:	9914      	ldr	r1, [sp, #80]	; 0x50
 8007e72:	9b14      	ldr	r3, [sp, #80]	; 0x50
 8007e74:	2900      	cmp	r1, #0
 8007e76:	dc03      	bgt.n	8007e80 <_dtoa_r+0xb6c>
 8007e78:	9a24      	ldr	r2, [sp, #144]	; 0x90
 8007e7a:	2a02      	cmp	r2, #2
 8007e7c:	f300 8207 	bgt.w	800828e <_dtoa_r+0xf7a>
 8007e80:	9309      	str	r3, [sp, #36]	; 0x24
 8007e82:	e6e7      	b.n	8007c54 <_dtoa_r+0x940>
 8007e84:	6933      	ldr	r3, [r6, #16]
 8007e86:	eb06 0383 	add.w	r3, r6, r3, lsl #2
 8007e8a:	6918      	ldr	r0, [r3, #16]
 8007e8c:	f000 fea2 	bl	8008bd4 <__hi0bits>
 8007e90:	f1c0 0020 	rsb	r0, r0, #32
 8007e94:	e48b      	b.n	80077ae <_dtoa_r+0x49a>
 8007e96:	9e09      	ldr	r6, [sp, #36]	; 0x24
 8007e98:	2e00      	cmp	r6, #0
 8007e9a:	f040 818b 	bne.w	80081b4 <_dtoa_r+0xea0>
 8007e9e:	2300      	movs	r3, #0
 8007ea0:	2200      	movs	r2, #0
 8007ea2:	f2c4 0314 	movt	r3, #16404	; 0x4014
 8007ea6:	e9dd 0106 	ldrd	r0, r1, [sp, #24]
 8007eaa:	f003 f933 	bl	800b114 <__aeabi_dmul>
 8007eae:	4652      	mov	r2, sl
 8007eb0:	465b      	mov	r3, fp
 8007eb2:	f003 fbb5 	bl	800b620 <__aeabi_dcmpge>
 8007eb6:	9e09      	ldr	r6, [sp, #36]	; 0x24
 8007eb8:	46b0      	mov	r8, r6
 8007eba:	2800      	cmp	r0, #0
 8007ebc:	f47f aebf 	bne.w	8007c3e <_dtoa_r+0x92a>
 8007ec0:	e4bc      	b.n	800783c <_dtoa_r+0x528>
 8007ec2:	f1ba 0f00 	cmp.w	sl, #0
 8007ec6:	f47f ac6c 	bne.w	80077a2 <_dtoa_r+0x48e>
 8007eca:	f3cb 0313 	ubfx	r3, fp, #0, #20
 8007ece:	4657      	mov	r7, sl
 8007ed0:	2b00      	cmp	r3, #0
 8007ed2:	f47f ac67 	bne.w	80077a4 <_dtoa_r+0x490>
 8007ed6:	f02b 4700 	bic.w	r7, fp, #2147483648	; 0x80000000
 8007eda:	0d3f      	lsrs	r7, r7, #20
 8007edc:	053f      	lsls	r7, r7, #20
 8007ede:	2f00      	cmp	r7, #0
 8007ee0:	f43f ac60 	beq.w	80077a4 <_dtoa_r+0x490>
 8007ee4:	9a0a      	ldr	r2, [sp, #40]	; 0x28
 8007ee6:	2701      	movs	r7, #1
 8007ee8:	9b06      	ldr	r3, [sp, #24]
 8007eea:	3201      	adds	r2, #1
 8007eec:	920a      	str	r2, [sp, #40]	; 0x28
 8007eee:	3301      	adds	r3, #1
 8007ef0:	9306      	str	r3, [sp, #24]
 8007ef2:	e457      	b.n	80077a4 <_dtoa_r+0x490>
 8007ef4:	2300      	movs	r3, #0
 8007ef6:	4641      	mov	r1, r8
 8007ef8:	220a      	movs	r2, #10
 8007efa:	4620      	mov	r0, r4
 8007efc:	f000 fdd8 	bl	8008ab0 <__multadd>
 8007f00:	9a14      	ldr	r2, [sp, #80]	; 0x50
 8007f02:	9924      	ldr	r1, [sp, #144]	; 0x90
 8007f04:	2a00      	cmp	r2, #0
 8007f06:	bfcc      	ite	gt
 8007f08:	2300      	movgt	r3, #0
 8007f0a:	2301      	movle	r3, #1
 8007f0c:	2902      	cmp	r1, #2
 8007f0e:	bfd8      	it	le
 8007f10:	2300      	movle	r3, #0
 8007f12:	4680      	mov	r8, r0
 8007f14:	2b00      	cmp	r3, #0
 8007f16:	f040 81b6 	bne.w	8008286 <_dtoa_r+0xf72>
 8007f1a:	9209      	str	r2, [sp, #36]	; 0x24
 8007f1c:	2d00      	cmp	r5, #0
 8007f1e:	dd05      	ble.n	8007f2c <_dtoa_r+0xc18>
 8007f20:	4641      	mov	r1, r8
 8007f22:	462a      	mov	r2, r5
 8007f24:	4620      	mov	r0, r4
 8007f26:	f000 ffa5 	bl	8008e74 <__lshift>
 8007f2a:	4680      	mov	r8, r0
 8007f2c:	46c4      	mov	ip, r8
 8007f2e:	2f00      	cmp	r7, #0
 8007f30:	f040 8153 	bne.w	80081da <_dtoa_r+0xec6>
 8007f34:	9909      	ldr	r1, [sp, #36]	; 0x24
 8007f36:	f00a 0301 	and.w	r3, sl, #1
 8007f3a:	9a08      	ldr	r2, [sp, #32]
 8007f3c:	4637      	mov	r7, r6
 8007f3e:	9808      	ldr	r0, [sp, #32]
 8007f40:	46e1      	mov	r9, ip
 8007f42:	440a      	add	r2, r1
 8007f44:	9309      	str	r3, [sp, #36]	; 0x24
 8007f46:	920a      	str	r2, [sp, #40]	; 0x28
 8007f48:	1c45      	adds	r5, r0, #1
 8007f4a:	9e0b      	ldr	r6, [sp, #44]	; 0x2c
 8007f4c:	e00a      	b.n	8007f64 <_dtoa_r+0xc50>
 8007f4e:	f000 fdaf 	bl	8008ab0 <__multadd>
 8007f52:	4649      	mov	r1, r9
 8007f54:	220a      	movs	r2, #10
 8007f56:	2300      	movs	r3, #0
 8007f58:	4680      	mov	r8, r0
 8007f5a:	4620      	mov	r0, r4
 8007f5c:	f000 fda8 	bl	8008ab0 <__multadd>
 8007f60:	4681      	mov	r9, r0
 8007f62:	3501      	adds	r5, #1
 8007f64:	4639      	mov	r1, r7
 8007f66:	4630      	mov	r0, r6
 8007f68:	f7ff f92e 	bl	80071c8 <quorem>
 8007f6c:	4641      	mov	r1, r8
 8007f6e:	4682      	mov	sl, r0
 8007f70:	4630      	mov	r0, r6
 8007f72:	f000 ffdb 	bl	8008f2c <__mcmp>
 8007f76:	464a      	mov	r2, r9
 8007f78:	4639      	mov	r1, r7
 8007f7a:	4683      	mov	fp, r0
 8007f7c:	4620      	mov	r0, r4
 8007f7e:	f000 fff7 	bl	8008f70 <__mdiff>
 8007f82:	f10a 0230 	add.w	r2, sl, #48	; 0x30
 8007f86:	9205      	str	r2, [sp, #20]
 8007f88:	f105 3eff 	add.w	lr, r5, #4294967295
 8007f8c:	f8cd e018 	str.w	lr, [sp, #24]
 8007f90:	68c2      	ldr	r2, [r0, #12]
 8007f92:	4603      	mov	r3, r0
 8007f94:	2a00      	cmp	r2, #0
 8007f96:	d13e      	bne.n	8008016 <_dtoa_r+0xd02>
 8007f98:	4619      	mov	r1, r3
 8007f9a:	4630      	mov	r0, r6
 8007f9c:	9302      	str	r3, [sp, #8]
 8007f9e:	f000 ffc5 	bl	8008f2c <__mcmp>
 8007fa2:	9b02      	ldr	r3, [sp, #8]
 8007fa4:	4602      	mov	r2, r0
 8007fa6:	4620      	mov	r0, r4
 8007fa8:	4619      	mov	r1, r3
 8007faa:	9202      	str	r2, [sp, #8]
 8007fac:	f000 fd64 	bl	8008a78 <_Bfree>
 8007fb0:	9a02      	ldr	r2, [sp, #8]
 8007fb2:	9824      	ldr	r0, [sp, #144]	; 0x90
 8007fb4:	4310      	orrs	r0, r2
 8007fb6:	d103      	bne.n	8007fc0 <_dtoa_r+0xcac>
 8007fb8:	9909      	ldr	r1, [sp, #36]	; 0x24
 8007fba:	2900      	cmp	r1, #0
 8007fbc:	f000 814a 	beq.w	8008254 <_dtoa_r+0xf40>
 8007fc0:	f1bb 0f00 	cmp.w	fp, #0
 8007fc4:	f2c0 80c3 	blt.w	800814e <_dtoa_r+0xe3a>
 8007fc8:	9924      	ldr	r1, [sp, #144]	; 0x90
 8007fca:	ea5b 0101 	orrs.w	r1, fp, r1
 8007fce:	d103      	bne.n	8007fd8 <_dtoa_r+0xcc4>
 8007fd0:	9b09      	ldr	r3, [sp, #36]	; 0x24
 8007fd2:	2b00      	cmp	r3, #0
 8007fd4:	f000 80bb 	beq.w	800814e <_dtoa_r+0xe3a>
 8007fd8:	2a00      	cmp	r2, #0
 8007fda:	f300 811b 	bgt.w	8008214 <_dtoa_r+0xf00>
 8007fde:	9b0a      	ldr	r3, [sp, #40]	; 0x28
 8007fe0:	46ab      	mov	fp, r5
 8007fe2:	9a05      	ldr	r2, [sp, #20]
 8007fe4:	429d      	cmp	r5, r3
 8007fe6:	f805 2c01 	strb.w	r2, [r5, #-1]
 8007fea:	f000 8124 	beq.w	8008236 <_dtoa_r+0xf22>
 8007fee:	4631      	mov	r1, r6
 8007ff0:	220a      	movs	r2, #10
 8007ff2:	2300      	movs	r3, #0
 8007ff4:	4620      	mov	r0, r4
 8007ff6:	f000 fd5b 	bl	8008ab0 <__multadd>
 8007ffa:	45c8      	cmp	r8, r9
 8007ffc:	4641      	mov	r1, r8
 8007ffe:	f04f 020a 	mov.w	r2, #10
 8008002:	f04f 0300 	mov.w	r3, #0
 8008006:	4606      	mov	r6, r0
 8008008:	4620      	mov	r0, r4
 800800a:	d1a0      	bne.n	8007f4e <_dtoa_r+0xc3a>
 800800c:	f000 fd50 	bl	8008ab0 <__multadd>
 8008010:	4680      	mov	r8, r0
 8008012:	4681      	mov	r9, r0
 8008014:	e7a5      	b.n	8007f62 <_dtoa_r+0xc4e>
 8008016:	2201      	movs	r2, #1
 8008018:	e7c5      	b.n	8007fa6 <_dtoa_r+0xc92>
 800801a:	2601      	movs	r6, #1
 800801c:	960d      	str	r6, [sp, #52]	; 0x34
 800801e:	e49a      	b.n	8007956 <_dtoa_r+0x642>
 8008020:	2e0e      	cmp	r6, #14
 8008022:	bf8c      	ite	hi
 8008024:	2200      	movhi	r2, #0
 8008026:	2201      	movls	r2, #1
 8008028:	6a66      	ldr	r6, [r4, #36]	; 0x24
 800802a:	2300      	movs	r3, #0
 800802c:	4015      	ands	r5, r2
 800802e:	4619      	mov	r1, r3
 8008030:	6073      	str	r3, [r6, #4]
 8008032:	e4b3      	b.n	800799c <_dtoa_r+0x688>
 8008034:	2201      	movs	r2, #1
 8008036:	9225      	str	r2, [sp, #148]	; 0x94
 8008038:	9214      	str	r2, [sp, #80]	; 0x50
 800803a:	9209      	str	r2, [sp, #36]	; 0x24
 800803c:	e7f4      	b.n	8008028 <_dtoa_r+0xd14>
 800803e:	990b      	ldr	r1, [sp, #44]	; 0x2c
 8008040:	4620      	mov	r0, r4
 8008042:	9a0c      	ldr	r2, [sp, #48]	; 0x30
 8008044:	f000 feba 	bl	8008dbc <__pow5mult>
 8008048:	900b      	str	r0, [sp, #44]	; 0x2c
 800804a:	f7ff bb98 	b.w	800777e <_dtoa_r+0x46a>
 800804e:	f8dd 9020 	ldr.w	r9, [sp, #32]
 8008052:	9508      	str	r5, [sp, #32]
 8008054:	e40e      	b.n	8007874 <_dtoa_r+0x560>
 8008056:	e9dd 6712 	ldrd	r6, r7, [sp, #72]	; 0x48
 800805a:	f04f 0802 	mov.w	r8, #2
 800805e:	e4e8      	b.n	8007a32 <_dtoa_r+0x71e>
 8008060:	9e16      	ldr	r6, [sp, #88]	; 0x58
 8008062:	2130      	movs	r1, #48	; 0x30
 8008064:	9208      	str	r2, [sp, #32]
 8008066:	2231      	movs	r2, #49	; 0x31
 8008068:	3601      	adds	r6, #1
 800806a:	f889 1000 	strb.w	r1, [r9]
 800806e:	9604      	str	r6, [sp, #16]
 8008070:	701a      	strb	r2, [r3, #0]
 8008072:	f7ff bbff 	b.w	8007874 <_dtoa_r+0x560>
 8008076:	9909      	ldr	r1, [sp, #36]	; 0x24
 8008078:	2900      	cmp	r1, #0
 800807a:	f43f adb4 	beq.w	8007be6 <_dtoa_r+0x8d2>
 800807e:	9a14      	ldr	r2, [sp, #80]	; 0x50
 8008080:	2a00      	cmp	r2, #0
 8008082:	f77f ae43 	ble.w	8007d0c <_dtoa_r+0x9f8>
 8008086:	2300      	movs	r3, #0
 8008088:	2200      	movs	r2, #0
 800808a:	4630      	mov	r0, r6
 800808c:	4639      	mov	r1, r7
 800808e:	f2c4 0324 	movt	r3, #16420	; 0x4024
 8008092:	f003 f83f 	bl	800b114 <__aeabi_dmul>
 8008096:	9b04      	ldr	r3, [sp, #16]
 8008098:	3b01      	subs	r3, #1
 800809a:	9316      	str	r3, [sp, #88]	; 0x58
 800809c:	4606      	mov	r6, r0
 800809e:	f108 0001 	add.w	r0, r8, #1
 80080a2:	460f      	mov	r7, r1
 80080a4:	f002 ffd0 	bl	800b048 <__aeabi_i2d>
 80080a8:	4602      	mov	r2, r0
 80080aa:	460b      	mov	r3, r1
 80080ac:	4630      	mov	r0, r6
 80080ae:	4639      	mov	r1, r7
 80080b0:	f003 f830 	bl	800b114 <__aeabi_dmul>
 80080b4:	2300      	movs	r3, #0
 80080b6:	2200      	movs	r2, #0
 80080b8:	f2c4 031c 	movt	r3, #16412	; 0x401c
 80080bc:	f002 fe78 	bl	800adb0 <__adddf3>
 80080c0:	f8dd c050 	ldr.w	ip, [sp, #80]	; 0x50
 80080c4:	4680      	mov	r8, r0
 80080c6:	f1a1 7950 	sub.w	r9, r1, #54525952	; 0x3400000
 80080ca:	e4d7      	b.n	8007a7c <_dtoa_r+0x768>
 80080cc:	990b      	ldr	r1, [sp, #44]	; 0x2c
 80080ce:	4620      	mov	r0, r4
 80080d0:	f000 fe74 	bl	8008dbc <__pow5mult>
 80080d4:	900b      	str	r0, [sp, #44]	; 0x2c
 80080d6:	f7ff bb52 	b.w	800777e <_dtoa_r+0x46a>
 80080da:	2100      	movs	r1, #0
 80080dc:	e9dd 2310 	ldrd	r2, r3, [sp, #64]	; 0x40
 80080e0:	2000      	movs	r0, #0
 80080e2:	f6c3 71e0 	movt	r1, #16352	; 0x3fe0
 80080e6:	f002 fe61 	bl	800adac <__aeabi_dsub>
 80080ea:	4632      	mov	r2, r6
 80080ec:	463b      	mov	r3, r7
 80080ee:	f003 faa1 	bl	800b634 <__aeabi_dcmpgt>
 80080f2:	2800      	cmp	r0, #0
 80080f4:	f43f ae0a 	beq.w	8007d0c <_dtoa_r+0x9f8>
 80080f8:	4653      	mov	r3, sl
 80080fa:	f10a 3aff 	add.w	sl, sl, #4294967295
 80080fe:	f813 2c01 	ldrb.w	r2, [r3, #-1]
 8008102:	2a30      	cmp	r2, #48	; 0x30
 8008104:	d0f8      	beq.n	80080f8 <_dtoa_r+0xde4>
 8008106:	9e16      	ldr	r6, [sp, #88]	; 0x58
 8008108:	f8dd 9020 	ldr.w	r9, [sp, #32]
 800810c:	9308      	str	r3, [sp, #32]
 800810e:	9604      	str	r6, [sp, #16]
 8008110:	f7ff bbb0 	b.w	8007874 <_dtoa_r+0x560>
 8008114:	f8dd 9020 	ldr.w	r9, [sp, #32]
 8008118:	2331      	movs	r3, #49	; 0x31
 800811a:	9904      	ldr	r1, [sp, #16]
 800811c:	f8cd b020 	str.w	fp, [sp, #32]
 8008120:	3101      	adds	r1, #1
 8008122:	f889 3000 	strb.w	r3, [r9]
 8008126:	9104      	str	r1, [sp, #16]
 8008128:	f7ff bb94 	b.w	8007854 <_dtoa_r+0x540>
 800812c:	9e15      	ldr	r6, [sp, #84]	; 0x54
 800812e:	2e00      	cmp	r6, #0
 8008130:	d069      	beq.n	8008206 <_dtoa_r+0xef2>
 8008132:	f203 4333 	addw	r3, r3, #1075	; 0x433
 8008136:	9e0c      	ldr	r6, [sp, #48]	; 0x30
 8008138:	9d0a      	ldr	r5, [sp, #40]	; 0x28
 800813a:	f7ff bbfc 	b.w	8007936 <_dtoa_r+0x622>
 800813e:	9c17      	ldr	r4, [sp, #92]	; 0x5c
 8008140:	464d      	mov	r5, r9
 8008142:	f8dd 9020 	ldr.w	r9, [sp, #32]
 8008146:	462a      	mov	r2, r5
 8008148:	9508      	str	r5, [sp, #32]
 800814a:	f7ff bad4 	b.w	80076f6 <_dtoa_r+0x3e2>
 800814e:	2a00      	cmp	r2, #0
 8008150:	960b      	str	r6, [sp, #44]	; 0x2c
 8008152:	46cc      	mov	ip, r9
 8008154:	463e      	mov	r6, r7
 8008156:	9f05      	ldr	r7, [sp, #20]
 8008158:	dd12      	ble.n	8008180 <_dtoa_r+0xe6c>
 800815a:	990b      	ldr	r1, [sp, #44]	; 0x2c
 800815c:	2201      	movs	r2, #1
 800815e:	4620      	mov	r0, r4
 8008160:	f8cd 9008 	str.w	r9, [sp, #8]
 8008164:	f000 fe86 	bl	8008e74 <__lshift>
 8008168:	4631      	mov	r1, r6
 800816a:	900b      	str	r0, [sp, #44]	; 0x2c
 800816c:	f000 fede 	bl	8008f2c <__mcmp>
 8008170:	f8dd c008 	ldr.w	ip, [sp, #8]
 8008174:	2800      	cmp	r0, #0
 8008176:	dd77      	ble.n	8008268 <_dtoa_r+0xf54>
 8008178:	2f39      	cmp	r7, #57	; 0x39
 800817a:	d062      	beq.n	8008242 <_dtoa_r+0xf2e>
 800817c:	f10a 0731 	add.w	r7, sl, #49	; 0x31
 8008180:	9b06      	ldr	r3, [sp, #24]
 8008182:	4645      	mov	r5, r8
 8008184:	f8dd 9020 	ldr.w	r9, [sp, #32]
 8008188:	46e0      	mov	r8, ip
 800818a:	1c58      	adds	r0, r3, #1
 800818c:	701f      	strb	r7, [r3, #0]
 800818e:	9008      	str	r0, [sp, #32]
 8008190:	f7ff bb60 	b.w	8007854 <_dtoa_r+0x540>
 8008194:	d102      	bne.n	800819c <_dtoa_r+0xe88>
 8008196:	07fb      	lsls	r3, r7, #31
 8008198:	f53f ad8d 	bmi.w	8007cb6 <_dtoa_r+0x9a2>
 800819c:	465b      	mov	r3, fp
 800819e:	f10b 3bff 	add.w	fp, fp, #4294967295
 80081a2:	f813 2c01 	ldrb.w	r2, [r3, #-1]
 80081a6:	2a30      	cmp	r2, #48	; 0x30
 80081a8:	d0f8      	beq.n	800819c <_dtoa_r+0xe88>
 80081aa:	f8dd 9020 	ldr.w	r9, [sp, #32]
 80081ae:	9308      	str	r3, [sp, #32]
 80081b0:	f7ff bb50 	b.w	8007854 <_dtoa_r+0x540>
 80081b4:	2600      	movs	r6, #0
 80081b6:	e541      	b.n	8007c3c <_dtoa_r+0x928>
 80081b8:	e9dd 0106 	ldrd	r0, r1, [sp, #24]
 80081bc:	4632      	mov	r2, r6
 80081be:	463b      	mov	r3, r7
 80081c0:	f003 fa10 	bl	800b5e4 <__aeabi_dcmpeq>
 80081c4:	2800      	cmp	r0, #0
 80081c6:	f43f af42 	beq.w	800804e <_dtoa_r+0xd3a>
 80081ca:	f018 0f01 	tst.w	r8, #1
 80081ce:	f8dd 9020 	ldr.w	r9, [sp, #32]
 80081d2:	f43f af3e 	beq.w	8008052 <_dtoa_r+0xd3e>
 80081d6:	f7ff ba81 	b.w	80076dc <_dtoa_r+0x3c8>
 80081da:	f8d8 1004 	ldr.w	r1, [r8, #4]
 80081de:	4620      	mov	r0, r4
 80081e0:	f000 fc14 	bl	8008a0c <_Balloc>
 80081e4:	f8d8 3010 	ldr.w	r3, [r8, #16]
 80081e8:	f108 010c 	add.w	r1, r8, #12
 80081ec:	1c9a      	adds	r2, r3, #2
 80081ee:	0092      	lsls	r2, r2, #2
 80081f0:	4605      	mov	r5, r0
 80081f2:	300c      	adds	r0, #12
 80081f4:	f000 fbb2 	bl	800895c <memcpy>
 80081f8:	4620      	mov	r0, r4
 80081fa:	4629      	mov	r1, r5
 80081fc:	2201      	movs	r2, #1
 80081fe:	f000 fe39 	bl	8008e74 <__lshift>
 8008202:	4684      	mov	ip, r0
 8008204:	e696      	b.n	8007f34 <_dtoa_r+0xc20>
 8008206:	9b18      	ldr	r3, [sp, #96]	; 0x60
 8008208:	9e0c      	ldr	r6, [sp, #48]	; 0x30
 800820a:	9d0a      	ldr	r5, [sp, #40]	; 0x28
 800820c:	f1c3 0336 	rsb	r3, r3, #54	; 0x36
 8008210:	f7ff bb91 	b.w	8007936 <_dtoa_r+0x622>
 8008214:	960b      	str	r6, [sp, #44]	; 0x2c
 8008216:	463e      	mov	r6, r7
 8008218:	9f05      	ldr	r7, [sp, #20]
 800821a:	46cc      	mov	ip, r9
 800821c:	2f39      	cmp	r7, #57	; 0x39
 800821e:	d010      	beq.n	8008242 <_dtoa_r+0xf2e>
 8008220:	9b06      	ldr	r3, [sp, #24]
 8008222:	3701      	adds	r7, #1
 8008224:	f8dd 9020 	ldr.w	r9, [sp, #32]
 8008228:	4645      	mov	r5, r8
 800822a:	1c58      	adds	r0, r3, #1
 800822c:	46e0      	mov	r8, ip
 800822e:	701f      	strb	r7, [r3, #0]
 8008230:	9008      	str	r0, [sp, #32]
 8008232:	f7ff bb0f 	b.w	8007854 <_dtoa_r+0x540>
 8008236:	960b      	str	r6, [sp, #44]	; 0x2c
 8008238:	4645      	mov	r5, r8
 800823a:	463e      	mov	r6, r7
 800823c:	46c8      	mov	r8, r9
 800823e:	9f05      	ldr	r7, [sp, #20]
 8008240:	e52d      	b.n	8007c9e <_dtoa_r+0x98a>
 8008242:	9b06      	ldr	r3, [sp, #24]
 8008244:	2239      	movs	r2, #57	; 0x39
 8008246:	4645      	mov	r5, r8
 8008248:	9908      	ldr	r1, [sp, #32]
 800824a:	46e0      	mov	r8, ip
 800824c:	f103 0b01 	add.w	fp, r3, #1
 8008250:	701a      	strb	r2, [r3, #0]
 8008252:	e53a      	b.n	8007cca <_dtoa_r+0x9b6>
 8008254:	960b      	str	r6, [sp, #44]	; 0x2c
 8008256:	463e      	mov	r6, r7
 8008258:	9f05      	ldr	r7, [sp, #20]
 800825a:	46cc      	mov	ip, r9
 800825c:	2f39      	cmp	r7, #57	; 0x39
 800825e:	d0f0      	beq.n	8008242 <_dtoa_r+0xf2e>
 8008260:	f1bb 0f00 	cmp.w	fp, #0
 8008264:	dc8a      	bgt.n	800817c <_dtoa_r+0xe68>
 8008266:	e78b      	b.n	8008180 <_dtoa_r+0xe6c>
 8008268:	d18a      	bne.n	8008180 <_dtoa_r+0xe6c>
 800826a:	07fa      	lsls	r2, r7, #31
 800826c:	d588      	bpl.n	8008180 <_dtoa_r+0xe6c>
 800826e:	e783      	b.n	8008178 <_dtoa_r+0xe64>
 8008270:	f04f 0802 	mov.w	r8, #2
 8008274:	f7ff bbdd 	b.w	8007a32 <_dtoa_r+0x71e>
 8008278:	9e16      	ldr	r6, [sp, #88]	; 0x58
 800827a:	f8dd 9020 	ldr.w	r9, [sp, #32]
 800827e:	9508      	str	r5, [sp, #32]
 8008280:	9604      	str	r6, [sp, #16]
 8008282:	f7ff baf7 	b.w	8007874 <_dtoa_r+0x560>
 8008286:	9a14      	ldr	r2, [sp, #80]	; 0x50
 8008288:	9209      	str	r2, [sp, #36]	; 0x24
 800828a:	f7ff bac5 	b.w	8007818 <_dtoa_r+0x504>
 800828e:	9309      	str	r3, [sp, #36]	; 0x24
 8008290:	f7ff bac2 	b.w	8007818 <_dtoa_r+0x504>
 8008294:	f43f aa9f 	beq.w	80077d6 <_dtoa_r+0x4c2>
 8008298:	f1c3 033c 	rsb	r3, r3, #60	; 0x3c
 800829c:	e521      	b.n	8007ce2 <_dtoa_r+0x9ce>
 800829e:	bf00      	nop

080082a0 <_setlocale_r>:
 80082a0:	b510      	push	{r4, lr}
 80082a2:	4614      	mov	r4, r2
 80082a4:	b13a      	cbz	r2, 80082b6 <_setlocale_r+0x16>
 80082a6:	f24c 2148 	movw	r1, #49736	; 0xc248
 80082aa:	4610      	mov	r0, r2
 80082ac:	f6c0 0100 	movt	r1, #2048	; 0x800
 80082b0:	f001 f884 	bl	80093bc <strcmp>
 80082b4:	b920      	cbnz	r0, 80082c0 <_setlocale_r+0x20>
 80082b6:	f24c 10f0 	movw	r0, #49648	; 0xc1f0
 80082ba:	f6c0 0000 	movt	r0, #2048	; 0x800
 80082be:	bd10      	pop	{r4, pc}
 80082c0:	f24c 11f0 	movw	r1, #49648	; 0xc1f0
 80082c4:	4620      	mov	r0, r4
 80082c6:	f6c0 0100 	movt	r1, #2048	; 0x800
 80082ca:	f001 f877 	bl	80093bc <strcmp>
 80082ce:	2800      	cmp	r0, #0
 80082d0:	d0f1      	beq.n	80082b6 <_setlocale_r+0x16>
 80082d2:	f24c 2114 	movw	r1, #49684	; 0xc214
 80082d6:	4620      	mov	r0, r4
 80082d8:	f6c0 0100 	movt	r1, #2048	; 0x800
 80082dc:	f001 f86e 	bl	80093bc <strcmp>
 80082e0:	f24c 13f0 	movw	r3, #49648	; 0xc1f0
 80082e4:	f6c0 0300 	movt	r3, #2048	; 0x800
 80082e8:	2800      	cmp	r0, #0
 80082ea:	bf0c      	ite	eq
 80082ec:	4618      	moveq	r0, r3
 80082ee:	2000      	movne	r0, #0
 80082f0:	bd10      	pop	{r4, pc}
 80082f2:	bf00      	nop

080082f4 <__locale_charset>:
 80082f4:	f240 1034 	movw	r0, #308	; 0x134
 80082f8:	f2c2 0000 	movt	r0, #8192	; 0x2000
 80082fc:	4770      	bx	lr
 80082fe:	bf00      	nop

08008300 <__locale_mb_cur_max>:
 8008300:	f240 1334 	movw	r3, #308	; 0x134
 8008304:	f2c2 0300 	movt	r3, #8192	; 0x2000
 8008308:	6a18      	ldr	r0, [r3, #32]
 800830a:	4770      	bx	lr

0800830c <__locale_msgcharset>:
 800830c:	4800      	ldr	r0, [pc, #0]	; (8008310 <__locale_msgcharset+0x4>)
 800830e:	4770      	bx	lr
 8008310:	20000158 	andcs	r0, r0, r8, asr r1

08008314 <__locale_cjk_lang>:
 8008314:	2000      	movs	r0, #0
 8008316:	4770      	bx	lr

08008318 <_localeconv_r>:
 8008318:	4800      	ldr	r0, [pc, #0]	; (800831c <_localeconv_r+0x4>)
 800831a:	4770      	bx	lr
 800831c:	20000178 	andcs	r0, r0, r8, ror r1

08008320 <setlocale>:
 8008320:	f240 0340 	movw	r3, #64	; 0x40
 8008324:	460a      	mov	r2, r1
 8008326:	f2c2 0300 	movt	r3, #8192	; 0x2000
 800832a:	4601      	mov	r1, r0
 800832c:	6818      	ldr	r0, [r3, #0]
 800832e:	f7ff bfb7 	b.w	80082a0 <_setlocale_r>
 8008332:	bf00      	nop

08008334 <localeconv>:
 8008334:	4800      	ldr	r0, [pc, #0]	; (8008338 <localeconv+0x4>)
 8008336:	4770      	bx	lr
 8008338:	20000178 	andcs	r0, r0, r8, ror r1

0800833c <malloc>:
 800833c:	f240 0340 	movw	r3, #64	; 0x40
 8008340:	4601      	mov	r1, r0
 8008342:	f2c2 0300 	movt	r3, #8192	; 0x2000
 8008346:	6818      	ldr	r0, [r3, #0]
 8008348:	f000 b808 	b.w	800835c <_malloc_r>

0800834c <free>:
 800834c:	f240 0340 	movw	r3, #64	; 0x40
 8008350:	4601      	mov	r1, r0
 8008352:	f2c2 0300 	movt	r3, #8192	; 0x2000
 8008356:	6818      	ldr	r0, [r3, #0]
 8008358:	f001 bff2 	b.w	800a340 <_free_r>

0800835c <_malloc_r>:
 800835c:	e92d 4ff0 	stmdb	sp!, {r4, r5, r6, r7, r8, r9, sl, fp, lr}
 8008360:	f101 040b 	add.w	r4, r1, #11
 8008364:	2c16      	cmp	r4, #22
 8008366:	b083      	sub	sp, #12
 8008368:	bf8e      	itee	hi
 800836a:	f024 0407 	bichi.w	r4, r4, #7
 800836e:	2300      	movls	r3, #0
 8008370:	2410      	movls	r4, #16
 8008372:	4607      	mov	r7, r0
 8008374:	bf88      	it	hi
 8008376:	0fe3      	lsrhi	r3, r4, #31
 8008378:	428c      	cmp	r4, r1
 800837a:	bf2c      	ite	cs
 800837c:	4619      	movcs	r1, r3
 800837e:	f043 0101 	orrcc.w	r1, r3, #1
 8008382:	2900      	cmp	r1, #0
 8008384:	f040 80ba 	bne.w	80084fc <_malloc_r+0x1a0>
 8008388:	f000 fb3c 	bl	8008a04 <__malloc_lock>
 800838c:	f5b4 7ffc 	cmp.w	r4, #504	; 0x1f8
 8008390:	d220      	bcs.n	80083d4 <_malloc_r+0x78>
 8008392:	f240 16b0 	movw	r6, #432	; 0x1b0
 8008396:	ea4f 0cd4 	mov.w	ip, r4, lsr #3
 800839a:	f2c2 0600 	movt	r6, #8192	; 0x2000
 800839e:	eb06 02cc 	add.w	r2, r6, ip, lsl #3
 80083a2:	68d3      	ldr	r3, [r2, #12]
 80083a4:	4293      	cmp	r3, r2
 80083a6:	f000 81f7 	beq.w	8008798 <_malloc_r+0x43c>
 80083aa:	6859      	ldr	r1, [r3, #4]
 80083ac:	f103 0808 	add.w	r8, r3, #8
 80083b0:	68da      	ldr	r2, [r3, #12]
 80083b2:	4638      	mov	r0, r7
 80083b4:	f021 0403 	bic.w	r4, r1, #3
 80083b8:	6899      	ldr	r1, [r3, #8]
 80083ba:	4423      	add	r3, r4
 80083bc:	685c      	ldr	r4, [r3, #4]
 80083be:	60ca      	str	r2, [r1, #12]
 80083c0:	f044 0401 	orr.w	r4, r4, #1
 80083c4:	6091      	str	r1, [r2, #8]
 80083c6:	605c      	str	r4, [r3, #4]
 80083c8:	f000 fb1e 	bl	8008a08 <__malloc_unlock>
 80083cc:	4640      	mov	r0, r8
 80083ce:	b003      	add	sp, #12
 80083d0:	e8bd 8ff0 	ldmia.w	sp!, {r4, r5, r6, r7, r8, r9, sl, fp, pc}
 80083d4:	ea5f 2c54 	movs.w	ip, r4, lsr #9
 80083d8:	bf04      	itt	eq
 80083da:	257e      	moveq	r5, #126	; 0x7e
 80083dc:	f04f 0c3f 	moveq.w	ip, #63	; 0x3f
 80083e0:	f040 8094 	bne.w	800850c <_malloc_r+0x1b0>
 80083e4:	f240 16b0 	movw	r6, #432	; 0x1b0
 80083e8:	f2c2 0600 	movt	r6, #8192	; 0x2000
 80083ec:	eb06 0585 	add.w	r5, r6, r5, lsl #2
 80083f0:	68eb      	ldr	r3, [r5, #12]
 80083f2:	429d      	cmp	r5, r3
 80083f4:	d106      	bne.n	8008404 <_malloc_r+0xa8>
 80083f6:	e00d      	b.n	8008414 <_malloc_r+0xb8>
 80083f8:	2a00      	cmp	r2, #0
 80083fa:	f280 8164 	bge.w	80086c6 <_malloc_r+0x36a>
 80083fe:	68db      	ldr	r3, [r3, #12]
 8008400:	429d      	cmp	r5, r3
 8008402:	d007      	beq.n	8008414 <_malloc_r+0xb8>
 8008404:	6859      	ldr	r1, [r3, #4]
 8008406:	f021 0103 	bic.w	r1, r1, #3
 800840a:	1b0a      	subs	r2, r1, r4
 800840c:	2a0f      	cmp	r2, #15
 800840e:	ddf3      	ble.n	80083f8 <_malloc_r+0x9c>
 8008410:	f10c 3cff 	add.w	ip, ip, #4294967295
 8008414:	f10c 0c01 	add.w	ip, ip, #1
 8008418:	f240 12b0 	movw	r2, #432	; 0x1b0
 800841c:	6933      	ldr	r3, [r6, #16]
 800841e:	f2c2 0200 	movt	r2, #8192	; 0x2000
 8008422:	f102 0e08 	add.w	lr, r2, #8
 8008426:	4573      	cmp	r3, lr
 8008428:	bf08      	it	eq
 800842a:	6851      	ldreq	r1, [r2, #4]
 800842c:	d023      	beq.n	8008476 <_malloc_r+0x11a>
 800842e:	6858      	ldr	r0, [r3, #4]
 8008430:	f020 0003 	bic.w	r0, r0, #3
 8008434:	1b01      	subs	r1, r0, r4
 8008436:	290f      	cmp	r1, #15
 8008438:	f300 8192 	bgt.w	8008760 <_malloc_r+0x404>
 800843c:	2900      	cmp	r1, #0
 800843e:	f8c2 e014 	str.w	lr, [r2, #20]
 8008442:	f8c2 e010 	str.w	lr, [r2, #16]
 8008446:	da6c      	bge.n	8008522 <_malloc_r+0x1c6>
 8008448:	f5b0 7f00 	cmp.w	r0, #512	; 0x200
 800844c:	f080 8161 	bcs.w	8008712 <_malloc_r+0x3b6>
 8008450:	08c0      	lsrs	r0, r0, #3
 8008452:	f04f 0801 	mov.w	r8, #1
 8008456:	6851      	ldr	r1, [r2, #4]
 8008458:	eb02 05c0 	add.w	r5, r2, r0, lsl #3
 800845c:	1080      	asrs	r0, r0, #2
 800845e:	fa08 f800 	lsl.w	r8, r8, r0
 8008462:	ea48 0801 	orr.w	r8, r8, r1
 8008466:	68a8      	ldr	r0, [r5, #8]
 8008468:	4641      	mov	r1, r8
 800846a:	60dd      	str	r5, [r3, #12]
 800846c:	f8c2 8004 	str.w	r8, [r2, #4]
 8008470:	6098      	str	r0, [r3, #8]
 8008472:	60ab      	str	r3, [r5, #8]
 8008474:	60c3      	str	r3, [r0, #12]
 8008476:	2201      	movs	r2, #1
 8008478:	ea4f 03ac 	mov.w	r3, ip, asr #2
 800847c:	fa02 f303 	lsl.w	r3, r2, r3
 8008480:	428b      	cmp	r3, r1
 8008482:	d85c      	bhi.n	800853e <_malloc_r+0x1e2>
 8008484:	4219      	tst	r1, r3
 8008486:	d10b      	bne.n	80084a0 <_malloc_r+0x144>
 8008488:	4093      	lsls	r3, r2
 800848a:	f02c 0c03 	bic.w	ip, ip, #3
 800848e:	4219      	tst	r1, r3
 8008490:	f10c 0c04 	add.w	ip, ip, #4
 8008494:	d104      	bne.n	80084a0 <_malloc_r+0x144>
 8008496:	005b      	lsls	r3, r3, #1
 8008498:	f10c 0c04 	add.w	ip, ip, #4
 800849c:	4219      	tst	r1, r3
 800849e:	d0fa      	beq.n	8008496 <_malloc_r+0x13a>
 80084a0:	eb06 08cc 	add.w	r8, r6, ip, lsl #3
 80084a4:	46e1      	mov	r9, ip
 80084a6:	4640      	mov	r0, r8
 80084a8:	68c2      	ldr	r2, [r0, #12]
 80084aa:	4290      	cmp	r0, r2
 80084ac:	d107      	bne.n	80084be <_malloc_r+0x162>
 80084ae:	e16b      	b.n	8008788 <_malloc_r+0x42c>
 80084b0:	2900      	cmp	r1, #0
 80084b2:	f280 817b 	bge.w	80087ac <_malloc_r+0x450>
 80084b6:	68d2      	ldr	r2, [r2, #12]
 80084b8:	4290      	cmp	r0, r2
 80084ba:	f000 8165 	beq.w	8008788 <_malloc_r+0x42c>
 80084be:	6855      	ldr	r5, [r2, #4]
 80084c0:	f025 0503 	bic.w	r5, r5, #3
 80084c4:	1b29      	subs	r1, r5, r4
 80084c6:	290f      	cmp	r1, #15
 80084c8:	ddf2      	ble.n	80084b0 <_malloc_r+0x154>
 80084ca:	4690      	mov	r8, r2
 80084cc:	68d5      	ldr	r5, [r2, #12]
 80084ce:	4638      	mov	r0, r7
 80084d0:	1913      	adds	r3, r2, r4
 80084d2:	f858 7f08 	ldr.w	r7, [r8, #8]!
 80084d6:	f044 0c01 	orr.w	ip, r4, #1
 80084da:	f041 0401 	orr.w	r4, r1, #1
 80084de:	f8c2 c004 	str.w	ip, [r2, #4]
 80084e2:	60fd      	str	r5, [r7, #12]
 80084e4:	60af      	str	r7, [r5, #8]
 80084e6:	6173      	str	r3, [r6, #20]
 80084e8:	6133      	str	r3, [r6, #16]
 80084ea:	f8c3 e00c 	str.w	lr, [r3, #12]
 80084ee:	f8c3 e008 	str.w	lr, [r3, #8]
 80084f2:	605c      	str	r4, [r3, #4]
 80084f4:	5059      	str	r1, [r3, r1]
 80084f6:	f000 fa87 	bl	8008a08 <__malloc_unlock>
 80084fa:	e767      	b.n	80083cc <_malloc_r+0x70>
 80084fc:	f04f 0800 	mov.w	r8, #0
 8008500:	230c      	movs	r3, #12
 8008502:	6003      	str	r3, [r0, #0]
 8008504:	4640      	mov	r0, r8
 8008506:	b003      	add	sp, #12
 8008508:	e8bd 8ff0 	ldmia.w	sp!, {r4, r5, r6, r7, r8, r9, sl, fp, pc}
 800850c:	f1bc 0f04 	cmp.w	ip, #4
 8008510:	f200 80eb 	bhi.w	80086ea <_malloc_r+0x38e>
 8008514:	ea4f 1c94 	mov.w	ip, r4, lsr #6
 8008518:	f10c 0c38 	add.w	ip, ip, #56	; 0x38
 800851c:	ea4f 054c 	mov.w	r5, ip, lsl #1
 8008520:	e760      	b.n	80083e4 <_malloc_r+0x88>
 8008522:	181a      	adds	r2, r3, r0
 8008524:	f103 0808 	add.w	r8, r3, #8
 8008528:	4638      	mov	r0, r7
 800852a:	6853      	ldr	r3, [r2, #4]
 800852c:	f043 0301 	orr.w	r3, r3, #1
 8008530:	6053      	str	r3, [r2, #4]
 8008532:	f000 fa69 	bl	8008a08 <__malloc_unlock>
 8008536:	4640      	mov	r0, r8
 8008538:	b003      	add	sp, #12
 800853a:	e8bd 8ff0 	ldmia.w	sp!, {r4, r5, r6, r7, r8, r9, sl, fp, pc}
 800853e:	68b5      	ldr	r5, [r6, #8]
 8008540:	686b      	ldr	r3, [r5, #4]
 8008542:	f023 0a03 	bic.w	sl, r3, #3
 8008546:	4554      	cmp	r4, sl
 8008548:	d804      	bhi.n	8008554 <_malloc_r+0x1f8>
 800854a:	ebc4 030a 	rsb	r3, r4, sl
 800854e:	2b0f      	cmp	r3, #15
 8008550:	f300 80a8 	bgt.w	80086a4 <_malloc_r+0x348>
 8008554:	f642 795c 	movw	r9, #12124	; 0x2f5c
 8008558:	f8d6 1408 	ldr.w	r1, [r6, #1032]	; 0x408
 800855c:	f2c2 0900 	movt	r9, #8192	; 0x2000
 8008560:	4638      	mov	r0, r7
 8008562:	3101      	adds	r1, #1
 8008564:	eb05 020a 	add.w	r2, r5, sl
 8008568:	f8d9 3000 	ldr.w	r3, [r9]
 800856c:	9201      	str	r2, [sp, #4]
 800856e:	4423      	add	r3, r4
 8008570:	bf17      	itett	ne
 8008572:	f503 5380 	addne.w	r3, r3, #4096	; 0x1000
 8008576:	f103 0b10 	addeq.w	fp, r3, #16
 800857a:	330f      	addne	r3, #15
 800857c:	f423 637f 	bicne.w	r3, r3, #4080	; 0xff0
 8008580:	bf18      	it	ne
 8008582:	f023 0b0f 	bicne.w	fp, r3, #15
 8008586:	4659      	mov	r1, fp
 8008588:	f000 ff04 	bl	8009394 <_sbrk_r>
 800858c:	9a01      	ldr	r2, [sp, #4]
 800858e:	f1b0 3fff 	cmp.w	r0, #4294967295
 8008592:	4680      	mov	r8, r0
 8008594:	f000 8120 	beq.w	80087d8 <_malloc_r+0x47c>
 8008598:	4282      	cmp	r2, r0
 800859a:	f200 811a 	bhi.w	80087d2 <_malloc_r+0x476>
 800859e:	f8d9 3004 	ldr.w	r3, [r9, #4]
 80085a2:	4542      	cmp	r2, r8
 80085a4:	445b      	add	r3, fp
 80085a6:	f8c9 3004 	str.w	r3, [r9, #4]
 80085aa:	f000 8165 	beq.w	8008878 <_malloc_r+0x51c>
 80085ae:	f8d6 1408 	ldr.w	r1, [r6, #1032]	; 0x408
 80085b2:	f240 10b0 	movw	r0, #432	; 0x1b0
 80085b6:	f2c2 0000 	movt	r0, #8192	; 0x2000
 80085ba:	3101      	adds	r1, #1
 80085bc:	bf17      	itett	ne
 80085be:	ebc2 0208 	rsbne	r2, r2, r8
 80085c2:	f8c0 8408 	streq.w	r8, [r0, #1032]	; 0x408
 80085c6:	189b      	addne	r3, r3, r2
 80085c8:	f8c9 3004 	strne.w	r3, [r9, #4]
 80085cc:	f018 0307 	ands.w	r3, r8, #7
 80085d0:	4638      	mov	r0, r7
 80085d2:	bf1f      	itttt	ne
 80085d4:	f1c3 0208 	rsbne	r2, r3, #8
 80085d8:	f5c3 5380 	rsbne	r3, r3, #4096	; 0x1000
 80085dc:	4490      	addne	r8, r2
 80085de:	f103 0208 	addne.w	r2, r3, #8
 80085e2:	eb08 030b 	add.w	r3, r8, fp
 80085e6:	bf08      	it	eq
 80085e8:	f44f 5280 	moveq.w	r2, #4096	; 0x1000
 80085ec:	f3c3 030b 	ubfx	r3, r3, #0, #12
 80085f0:	ebc3 0b02 	rsb	fp, r3, r2
 80085f4:	4659      	mov	r1, fp
 80085f6:	f000 fecd 	bl	8009394 <_sbrk_r>
 80085fa:	f642 725c 	movw	r2, #12124	; 0x2f5c
 80085fe:	f8c6 8008 	str.w	r8, [r6, #8]
 8008602:	f2c2 0200 	movt	r2, #8192	; 0x2000
 8008606:	1c43      	adds	r3, r0, #1
 8008608:	f8d9 3004 	ldr.w	r3, [r9, #4]
 800860c:	bf15      	itete	ne
 800860e:	ebc8 0100 	rsbne	r1, r8, r0
 8008612:	2101      	moveq	r1, #1
 8008614:	4459      	addne	r1, fp
 8008616:	f04f 0b00 	moveq.w	fp, #0
 800861a:	bf18      	it	ne
 800861c:	f041 0101 	orrne.w	r1, r1, #1
 8008620:	42b5      	cmp	r5, r6
 8008622:	445b      	add	r3, fp
 8008624:	f8c8 1004 	str.w	r1, [r8, #4]
 8008628:	f8c9 3004 	str.w	r3, [r9, #4]
 800862c:	d018      	beq.n	8008660 <_malloc_r+0x304>
 800862e:	f1ba 0f0f 	cmp.w	sl, #15
 8008632:	f240 8100 	bls.w	8008836 <_malloc_r+0x4da>
 8008636:	f1aa 000c 	sub.w	r0, sl, #12
 800863a:	6869      	ldr	r1, [r5, #4]
 800863c:	f020 0007 	bic.w	r0, r0, #7
 8008640:	f04f 0c05 	mov.w	ip, #5
 8008644:	eb05 0e00 	add.w	lr, r5, r0
 8008648:	280f      	cmp	r0, #15
 800864a:	f001 0101 	and.w	r1, r1, #1
 800864e:	ea40 0101 	orr.w	r1, r0, r1
 8008652:	6069      	str	r1, [r5, #4]
 8008654:	f8ce c004 	str.w	ip, [lr, #4]
 8008658:	f8ce c008 	str.w	ip, [lr, #8]
 800865c:	f200 8118 	bhi.w	8008890 <_malloc_r+0x534>
 8008660:	f642 725c 	movw	r2, #12124	; 0x2f5c
 8008664:	f8d9 102c 	ldr.w	r1, [r9, #44]	; 0x2c
 8008668:	f2c2 0200 	movt	r2, #8192	; 0x2000
 800866c:	68b5      	ldr	r5, [r6, #8]
 800866e:	428b      	cmp	r3, r1
 8008670:	f8d9 1030 	ldr.w	r1, [r9, #48]	; 0x30
 8008674:	bf88      	it	hi
 8008676:	62d3      	strhi	r3, [r2, #44]	; 0x2c
 8008678:	f642 725c 	movw	r2, #12124	; 0x2f5c
 800867c:	f2c2 0200 	movt	r2, #8192	; 0x2000
 8008680:	428b      	cmp	r3, r1
 8008682:	bf88      	it	hi
 8008684:	6313      	strhi	r3, [r2, #48]	; 0x30
 8008686:	686a      	ldr	r2, [r5, #4]
 8008688:	f022 0203 	bic.w	r2, r2, #3
 800868c:	4294      	cmp	r4, r2
 800868e:	ebc4 0302 	rsb	r3, r4, r2
 8008692:	d801      	bhi.n	8008698 <_malloc_r+0x33c>
 8008694:	2b0f      	cmp	r3, #15
 8008696:	dc05      	bgt.n	80086a4 <_malloc_r+0x348>
 8008698:	4638      	mov	r0, r7
 800869a:	f04f 0800 	mov.w	r8, #0
 800869e:	f000 f9b3 	bl	8008a08 <__malloc_unlock>
 80086a2:	e693      	b.n	80083cc <_malloc_r+0x70>
 80086a4:	192a      	adds	r2, r5, r4
 80086a6:	f043 0301 	orr.w	r3, r3, #1
 80086aa:	4638      	mov	r0, r7
 80086ac:	f044 0401 	orr.w	r4, r4, #1
 80086b0:	606c      	str	r4, [r5, #4]
 80086b2:	f105 0808 	add.w	r8, r5, #8
 80086b6:	60b2      	str	r2, [r6, #8]
 80086b8:	6053      	str	r3, [r2, #4]
 80086ba:	f000 f9a5 	bl	8008a08 <__malloc_unlock>
 80086be:	4640      	mov	r0, r8
 80086c0:	b003      	add	sp, #12
 80086c2:	e8bd 8ff0 	ldmia.w	sp!, {r4, r5, r6, r7, r8, r9, sl, fp, pc}
 80086c6:	4419      	add	r1, r3
 80086c8:	68da      	ldr	r2, [r3, #12]
 80086ca:	689c      	ldr	r4, [r3, #8]
 80086cc:	4638      	mov	r0, r7
 80086ce:	684d      	ldr	r5, [r1, #4]
 80086d0:	f103 0808 	add.w	r8, r3, #8
 80086d4:	60e2      	str	r2, [r4, #12]
 80086d6:	f045 0501 	orr.w	r5, r5, #1
 80086da:	6094      	str	r4, [r2, #8]
 80086dc:	604d      	str	r5, [r1, #4]
 80086de:	f000 f993 	bl	8008a08 <__malloc_unlock>
 80086e2:	4640      	mov	r0, r8
 80086e4:	b003      	add	sp, #12
 80086e6:	e8bd 8ff0 	ldmia.w	sp!, {r4, r5, r6, r7, r8, r9, sl, fp, pc}
 80086ea:	f1bc 0f14 	cmp.w	ip, #20
 80086ee:	bf9c      	itt	ls
 80086f0:	f10c 0c5b 	addls.w	ip, ip, #91	; 0x5b
 80086f4:	ea4f 054c 	movls.w	r5, ip, lsl #1
 80086f8:	f67f ae74 	bls.w	80083e4 <_malloc_r+0x88>
 80086fc:	f1bc 0f54 	cmp.w	ip, #84	; 0x54
 8008700:	f200 808f 	bhi.w	8008822 <_malloc_r+0x4c6>
 8008704:	ea4f 3c14 	mov.w	ip, r4, lsr #12
 8008708:	f10c 0c6e 	add.w	ip, ip, #110	; 0x6e
 800870c:	ea4f 054c 	mov.w	r5, ip, lsl #1
 8008710:	e668      	b.n	80083e4 <_malloc_r+0x88>
 8008712:	0a42      	lsrs	r2, r0, #9
 8008714:	2a04      	cmp	r2, #4
 8008716:	d958      	bls.n	80087ca <_malloc_r+0x46e>
 8008718:	2a14      	cmp	r2, #20
 800871a:	bf9c      	itt	ls
 800871c:	f102 015b 	addls.w	r1, r2, #91	; 0x5b
 8008720:	004d      	lslls	r5, r1, #1
 8008722:	d905      	bls.n	8008730 <_malloc_r+0x3d4>
 8008724:	2a54      	cmp	r2, #84	; 0x54
 8008726:	f200 80bc 	bhi.w	80088a2 <_malloc_r+0x546>
 800872a:	0b01      	lsrs	r1, r0, #12
 800872c:	316e      	adds	r1, #110	; 0x6e
 800872e:	004d      	lsls	r5, r1, #1
 8008730:	eb06 0585 	add.w	r5, r6, r5, lsl #2
 8008734:	f240 18b0 	movw	r8, #432	; 0x1b0
 8008738:	f2c2 0800 	movt	r8, #8192	; 0x2000
 800873c:	68aa      	ldr	r2, [r5, #8]
 800873e:	42aa      	cmp	r2, r5
 8008740:	d07f      	beq.n	8008842 <_malloc_r+0x4e6>
 8008742:	6851      	ldr	r1, [r2, #4]
 8008744:	f021 0103 	bic.w	r1, r1, #3
 8008748:	4288      	cmp	r0, r1
 800874a:	d202      	bcs.n	8008752 <_malloc_r+0x3f6>
 800874c:	6892      	ldr	r2, [r2, #8]
 800874e:	4295      	cmp	r5, r2
 8008750:	d1f7      	bne.n	8008742 <_malloc_r+0x3e6>
 8008752:	68d0      	ldr	r0, [r2, #12]
 8008754:	6871      	ldr	r1, [r6, #4]
 8008756:	60d8      	str	r0, [r3, #12]
 8008758:	609a      	str	r2, [r3, #8]
 800875a:	6083      	str	r3, [r0, #8]
 800875c:	60d3      	str	r3, [r2, #12]
 800875e:	e68a      	b.n	8008476 <_malloc_r+0x11a>
 8008760:	191d      	adds	r5, r3, r4
 8008762:	f041 0601 	orr.w	r6, r1, #1
 8008766:	f044 0401 	orr.w	r4, r4, #1
 800876a:	4638      	mov	r0, r7
 800876c:	605c      	str	r4, [r3, #4]
 800876e:	f103 0808 	add.w	r8, r3, #8
 8008772:	6155      	str	r5, [r2, #20]
 8008774:	6115      	str	r5, [r2, #16]
 8008776:	f8c5 e00c 	str.w	lr, [r5, #12]
 800877a:	f8c5 e008 	str.w	lr, [r5, #8]
 800877e:	606e      	str	r6, [r5, #4]
 8008780:	5069      	str	r1, [r5, r1]
 8008782:	f000 f941 	bl	8008a08 <__malloc_unlock>
 8008786:	e621      	b.n	80083cc <_malloc_r+0x70>
 8008788:	f109 0901 	add.w	r9, r9, #1
 800878c:	3008      	adds	r0, #8
 800878e:	f019 0f03 	tst.w	r9, #3
 8008792:	f47f ae89 	bne.w	80084a8 <_malloc_r+0x14c>
 8008796:	e028      	b.n	80087ea <_malloc_r+0x48e>
 8008798:	f103 0208 	add.w	r2, r3, #8
 800879c:	695b      	ldr	r3, [r3, #20]
 800879e:	429a      	cmp	r2, r3
 80087a0:	bf08      	it	eq
 80087a2:	f10c 0c02 	addeq.w	ip, ip, #2
 80087a6:	f43f ae37 	beq.w	8008418 <_malloc_r+0xbc>
 80087aa:	e5fe      	b.n	80083aa <_malloc_r+0x4e>
 80087ac:	4690      	mov	r8, r2
 80087ae:	4415      	add	r5, r2
 80087b0:	68d3      	ldr	r3, [r2, #12]
 80087b2:	4638      	mov	r0, r7
 80087b4:	f858 2f08 	ldr.w	r2, [r8, #8]!
 80087b8:	6869      	ldr	r1, [r5, #4]
 80087ba:	f041 0101 	orr.w	r1, r1, #1
 80087be:	6069      	str	r1, [r5, #4]
 80087c0:	60d3      	str	r3, [r2, #12]
 80087c2:	609a      	str	r2, [r3, #8]
 80087c4:	f000 f920 	bl	8008a08 <__malloc_unlock>
 80087c8:	e600      	b.n	80083cc <_malloc_r+0x70>
 80087ca:	0981      	lsrs	r1, r0, #6
 80087cc:	3138      	adds	r1, #56	; 0x38
 80087ce:	004d      	lsls	r5, r1, #1
 80087d0:	e7ae      	b.n	8008730 <_malloc_r+0x3d4>
 80087d2:	42b5      	cmp	r5, r6
 80087d4:	f43f aee3 	beq.w	800859e <_malloc_r+0x242>
 80087d8:	68b5      	ldr	r5, [r6, #8]
 80087da:	686a      	ldr	r2, [r5, #4]
 80087dc:	f022 0203 	bic.w	r2, r2, #3
 80087e0:	e754      	b.n	800868c <_malloc_r+0x330>
 80087e2:	f8d8 8000 	ldr.w	r8, [r8]
 80087e6:	4590      	cmp	r8, r2
 80087e8:	d16d      	bne.n	80088c6 <_malloc_r+0x56a>
 80087ea:	f01c 0f03 	tst.w	ip, #3
 80087ee:	f1a8 0208 	sub.w	r2, r8, #8
 80087f2:	f10c 3cff 	add.w	ip, ip, #4294967295
 80087f6:	d1f4      	bne.n	80087e2 <_malloc_r+0x486>
 80087f8:	6872      	ldr	r2, [r6, #4]
 80087fa:	ea22 0203 	bic.w	r2, r2, r3
 80087fe:	6072      	str	r2, [r6, #4]
 8008800:	005b      	lsls	r3, r3, #1
 8008802:	4293      	cmp	r3, r2
 8008804:	f63f ae9b 	bhi.w	800853e <_malloc_r+0x1e2>
 8008808:	2b00      	cmp	r3, #0
 800880a:	f43f ae98 	beq.w	800853e <_malloc_r+0x1e2>
 800880e:	421a      	tst	r2, r3
 8008810:	46cc      	mov	ip, r9
 8008812:	f47f ae45 	bne.w	80084a0 <_malloc_r+0x144>
 8008816:	005b      	lsls	r3, r3, #1
 8008818:	f10c 0c04 	add.w	ip, ip, #4
 800881c:	421a      	tst	r2, r3
 800881e:	d0fa      	beq.n	8008816 <_malloc_r+0x4ba>
 8008820:	e63e      	b.n	80084a0 <_malloc_r+0x144>
 8008822:	f5bc 7faa 	cmp.w	ip, #340	; 0x154
 8008826:	d818      	bhi.n	800885a <_malloc_r+0x4fe>
 8008828:	ea4f 3cd4 	mov.w	ip, r4, lsr #15
 800882c:	f10c 0c77 	add.w	ip, ip, #119	; 0x77
 8008830:	ea4f 054c 	mov.w	r5, ip, lsl #1
 8008834:	e5d6      	b.n	80083e4 <_malloc_r+0x88>
 8008836:	2301      	movs	r3, #1
 8008838:	4645      	mov	r5, r8
 800883a:	f8c8 3004 	str.w	r3, [r8, #4]
 800883e:	2200      	movs	r2, #0
 8008840:	e724      	b.n	800868c <_malloc_r+0x330>
 8008842:	f04f 0901 	mov.w	r9, #1
 8008846:	108d      	asrs	r5, r1, #2
 8008848:	f8d8 1004 	ldr.w	r1, [r8, #4]
 800884c:	4610      	mov	r0, r2
 800884e:	fa09 f505 	lsl.w	r5, r9, r5
 8008852:	4329      	orrs	r1, r5
 8008854:	f8c8 1004 	str.w	r1, [r8, #4]
 8008858:	e77d      	b.n	8008756 <_malloc_r+0x3fa>
 800885a:	f240 5354 	movw	r3, #1364	; 0x554
 800885e:	459c      	cmp	ip, r3
 8008860:	bf95      	itete	ls
 8008862:	ea4f 4c94 	movls.w	ip, r4, lsr #18
 8008866:	25fc      	movhi	r5, #252	; 0xfc
 8008868:	f10c 0c7c 	addls.w	ip, ip, #124	; 0x7c
 800886c:	f04f 0c7e 	movhi.w	ip, #126	; 0x7e
 8008870:	bf98      	it	ls
 8008872:	ea4f 054c 	movls.w	r5, ip, lsl #1
 8008876:	e5b5      	b.n	80083e4 <_malloc_r+0x88>
 8008878:	f3c2 010b 	ubfx	r1, r2, #0, #12
 800887c:	2900      	cmp	r1, #0
 800887e:	f47f ae96 	bne.w	80085ae <_malloc_r+0x252>
 8008882:	68b2      	ldr	r2, [r6, #8]
 8008884:	eb0b 010a 	add.w	r1, fp, sl
 8008888:	f041 0101 	orr.w	r1, r1, #1
 800888c:	6051      	str	r1, [r2, #4]
 800888e:	e6e7      	b.n	8008660 <_malloc_r+0x304>
 8008890:	f105 0108 	add.w	r1, r5, #8
 8008894:	4638      	mov	r0, r7
 8008896:	9201      	str	r2, [sp, #4]
 8008898:	f001 fd52 	bl	800a340 <_free_r>
 800889c:	9a01      	ldr	r2, [sp, #4]
 800889e:	6853      	ldr	r3, [r2, #4]
 80088a0:	e6de      	b.n	8008660 <_malloc_r+0x304>
 80088a2:	f5b2 7faa 	cmp.w	r2, #340	; 0x154
 80088a6:	d803      	bhi.n	80088b0 <_malloc_r+0x554>
 80088a8:	0bc1      	lsrs	r1, r0, #15
 80088aa:	3177      	adds	r1, #119	; 0x77
 80088ac:	004d      	lsls	r5, r1, #1
 80088ae:	e73f      	b.n	8008730 <_malloc_r+0x3d4>
 80088b0:	f240 5154 	movw	r1, #1364	; 0x554
 80088b4:	428a      	cmp	r2, r1
 80088b6:	bf95      	itete	ls
 80088b8:	0c81      	lsrls	r1, r0, #18
 80088ba:	25fc      	movhi	r5, #252	; 0xfc
 80088bc:	317c      	addls	r1, #124	; 0x7c
 80088be:	217e      	movhi	r1, #126	; 0x7e
 80088c0:	bf98      	it	ls
 80088c2:	004d      	lslls	r5, r1, #1
 80088c4:	e734      	b.n	8008730 <_malloc_r+0x3d4>
 80088c6:	6872      	ldr	r2, [r6, #4]
 80088c8:	e79a      	b.n	8008800 <_malloc_r+0x4a4>
 80088ca:	bf00      	nop

080088cc <memchr>:
 80088cc:	0783      	lsls	r3, r0, #30
 80088ce:	b2c9      	uxtb	r1, r1
 80088d0:	b470      	push	{r4, r5, r6}
 80088d2:	d03f      	beq.n	8008954 <memchr+0x88>
 80088d4:	1e54      	subs	r4, r2, #1
 80088d6:	b32a      	cbz	r2, 8008924 <memchr+0x58>
 80088d8:	7803      	ldrb	r3, [r0, #0]
 80088da:	428b      	cmp	r3, r1
 80088dc:	d023      	beq.n	8008926 <memchr+0x5a>
 80088de:	1c43      	adds	r3, r0, #1
 80088e0:	e004      	b.n	80088ec <memchr+0x20>
 80088e2:	b1fc      	cbz	r4, 8008924 <memchr+0x58>
 80088e4:	7805      	ldrb	r5, [r0, #0]
 80088e6:	4614      	mov	r4, r2
 80088e8:	428d      	cmp	r5, r1
 80088ea:	d01c      	beq.n	8008926 <memchr+0x5a>
 80088ec:	f013 0f03 	tst.w	r3, #3
 80088f0:	4618      	mov	r0, r3
 80088f2:	f104 32ff 	add.w	r2, r4, #4294967295
 80088f6:	f103 0301 	add.w	r3, r3, #1
 80088fa:	d1f2      	bne.n	80088e2 <memchr+0x16>
 80088fc:	2c03      	cmp	r4, #3
 80088fe:	d814      	bhi.n	800892a <memchr+0x5e>
 8008900:	1e65      	subs	r5, r4, #1
 8008902:	b34c      	cbz	r4, 8008958 <memchr+0x8c>
 8008904:	7803      	ldrb	r3, [r0, #0]
 8008906:	428b      	cmp	r3, r1
 8008908:	d00d      	beq.n	8008926 <memchr+0x5a>
 800890a:	1c42      	adds	r2, r0, #1
 800890c:	2300      	movs	r3, #0
 800890e:	e002      	b.n	8008916 <memchr+0x4a>
 8008910:	7804      	ldrb	r4, [r0, #0]
 8008912:	428c      	cmp	r4, r1
 8008914:	d007      	beq.n	8008926 <memchr+0x5a>
 8008916:	42ab      	cmp	r3, r5
 8008918:	4610      	mov	r0, r2
 800891a:	f103 0301 	add.w	r3, r3, #1
 800891e:	f102 0201 	add.w	r2, r2, #1
 8008922:	d1f5      	bne.n	8008910 <memchr+0x44>
 8008924:	2000      	movs	r0, #0
 8008926:	bc70      	pop	{r4, r5, r6}
 8008928:	4770      	bx	lr
 800892a:	ea41 2601 	orr.w	r6, r1, r1, lsl #8
 800892e:	4603      	mov	r3, r0
 8008930:	ea46 4606 	orr.w	r6, r6, r6, lsl #16
 8008934:	4618      	mov	r0, r3
 8008936:	3304      	adds	r3, #4
 8008938:	6802      	ldr	r2, [r0, #0]
 800893a:	4072      	eors	r2, r6
 800893c:	f1a2 3501 	sub.w	r5, r2, #16843009	; 0x1010101
 8008940:	ea25 0202 	bic.w	r2, r5, r2
 8008944:	f012 3f80 	tst.w	r2, #2155905152	; 0x80808080
 8008948:	d1da      	bne.n	8008900 <memchr+0x34>
 800894a:	3c04      	subs	r4, #4
 800894c:	4618      	mov	r0, r3
 800894e:	2c03      	cmp	r4, #3
 8008950:	d8f0      	bhi.n	8008934 <memchr+0x68>
 8008952:	e7d5      	b.n	8008900 <memchr+0x34>
 8008954:	4614      	mov	r4, r2
 8008956:	e7d1      	b.n	80088fc <memchr+0x30>
 8008958:	4620      	mov	r0, r4
 800895a:	e7e4      	b.n	8008926 <memchr+0x5a>

0800895c <memcpy>:
 800895c:	2a0f      	cmp	r2, #15
 800895e:	b4f0      	push	{r4, r5, r6, r7}
 8008960:	d945      	bls.n	80089ee <memcpy+0x92>
 8008962:	ea40 0301 	orr.w	r3, r0, r1
 8008966:	079b      	lsls	r3, r3, #30
 8008968:	d145      	bne.n	80089f6 <memcpy+0x9a>
 800896a:	f1a2 0710 	sub.w	r7, r2, #16
 800896e:	460c      	mov	r4, r1
 8008970:	4603      	mov	r3, r0
 8008972:	093f      	lsrs	r7, r7, #4
 8008974:	eb00 1607 	add.w	r6, r0, r7, lsl #4
 8008978:	3610      	adds	r6, #16
 800897a:	6825      	ldr	r5, [r4, #0]
 800897c:	3310      	adds	r3, #16
 800897e:	3410      	adds	r4, #16
 8008980:	f843 5c10 	str.w	r5, [r3, #-16]
 8008984:	f854 5c0c 	ldr.w	r5, [r4, #-12]
 8008988:	f843 5c0c 	str.w	r5, [r3, #-12]
 800898c:	f854 5c08 	ldr.w	r5, [r4, #-8]
 8008990:	f843 5c08 	str.w	r5, [r3, #-8]
 8008994:	f854 5c04 	ldr.w	r5, [r4, #-4]
 8008998:	f843 5c04 	str.w	r5, [r3, #-4]
 800899c:	42b3      	cmp	r3, r6
 800899e:	d1ec      	bne.n	800897a <memcpy+0x1e>
 80089a0:	1c7b      	adds	r3, r7, #1
 80089a2:	f002 0c0f 	and.w	ip, r2, #15
 80089a6:	f1bc 0f03 	cmp.w	ip, #3
 80089aa:	ea4f 1303 	mov.w	r3, r3, lsl #4
 80089ae:	4419      	add	r1, r3
 80089b0:	4403      	add	r3, r0
 80089b2:	d922      	bls.n	80089fa <memcpy+0x9e>
 80089b4:	460e      	mov	r6, r1
 80089b6:	461d      	mov	r5, r3
 80089b8:	4664      	mov	r4, ip
 80089ba:	f856 7b04 	ldr.w	r7, [r6], #4
 80089be:	3c04      	subs	r4, #4
 80089c0:	2c03      	cmp	r4, #3
 80089c2:	f845 7b04 	str.w	r7, [r5], #4
 80089c6:	d8f8      	bhi.n	80089ba <memcpy+0x5e>
 80089c8:	f1ac 0404 	sub.w	r4, ip, #4
 80089cc:	f002 0203 	and.w	r2, r2, #3
 80089d0:	f024 0403 	bic.w	r4, r4, #3
 80089d4:	3404      	adds	r4, #4
 80089d6:	4423      	add	r3, r4
 80089d8:	4421      	add	r1, r4
 80089da:	b132      	cbz	r2, 80089ea <memcpy+0x8e>
 80089dc:	440a      	add	r2, r1
 80089de:	f811 4b01 	ldrb.w	r4, [r1], #1
 80089e2:	4291      	cmp	r1, r2
 80089e4:	f803 4b01 	strb.w	r4, [r3], #1
 80089e8:	d1f9      	bne.n	80089de <memcpy+0x82>
 80089ea:	bcf0      	pop	{r4, r5, r6, r7}
 80089ec:	4770      	bx	lr
 80089ee:	4603      	mov	r3, r0
 80089f0:	2a00      	cmp	r2, #0
 80089f2:	d1f3      	bne.n	80089dc <memcpy+0x80>
 80089f4:	e7f9      	b.n	80089ea <memcpy+0x8e>
 80089f6:	4603      	mov	r3, r0
 80089f8:	e7f0      	b.n	80089dc <memcpy+0x80>
 80089fa:	4662      	mov	r2, ip
 80089fc:	2a00      	cmp	r2, #0
 80089fe:	d1ed      	bne.n	80089dc <memcpy+0x80>
 8008a00:	e7f3      	b.n	80089ea <memcpy+0x8e>
 8008a02:	bf00      	nop

08008a04 <__malloc_lock>:
 8008a04:	4770      	bx	lr
 8008a06:	bf00      	nop

08008a08 <__malloc_unlock>:
 8008a08:	4770      	bx	lr
 8008a0a:	bf00      	nop

08008a0c <_Balloc>:
 8008a0c:	b570      	push	{r4, r5, r6, lr}
 8008a0e:	4606      	mov	r6, r0
 8008a10:	6a44      	ldr	r4, [r0, #36]	; 0x24
 8008a12:	460d      	mov	r5, r1
 8008a14:	b164      	cbz	r4, 8008a30 <_Balloc+0x24>
 8008a16:	68e2      	ldr	r2, [r4, #12]
 8008a18:	b19a      	cbz	r2, 8008a42 <_Balloc+0x36>
 8008a1a:	f852 3025 	ldr.w	r3, [r2, r5, lsl #2]
 8008a1e:	b1e3      	cbz	r3, 8008a5a <_Balloc+0x4e>
 8008a20:	6819      	ldr	r1, [r3, #0]
 8008a22:	f842 1025 	str.w	r1, [r2, r5, lsl #2]
 8008a26:	2200      	movs	r2, #0
 8008a28:	4618      	mov	r0, r3
 8008a2a:	611a      	str	r2, [r3, #16]
 8008a2c:	60da      	str	r2, [r3, #12]
 8008a2e:	bd70      	pop	{r4, r5, r6, pc}
 8008a30:	2010      	movs	r0, #16
 8008a32:	f7ff fc83 	bl	800833c <malloc>
 8008a36:	6270      	str	r0, [r6, #36]	; 0x24
 8008a38:	6044      	str	r4, [r0, #4]
 8008a3a:	6084      	str	r4, [r0, #8]
 8008a3c:	6004      	str	r4, [r0, #0]
 8008a3e:	60c4      	str	r4, [r0, #12]
 8008a40:	4604      	mov	r4, r0
 8008a42:	2221      	movs	r2, #33	; 0x21
 8008a44:	4630      	mov	r0, r6
 8008a46:	2104      	movs	r1, #4
 8008a48:	f001 fbf6 	bl	800a238 <_calloc_r>
 8008a4c:	6a73      	ldr	r3, [r6, #36]	; 0x24
 8008a4e:	60e0      	str	r0, [r4, #12]
 8008a50:	68da      	ldr	r2, [r3, #12]
 8008a52:	2a00      	cmp	r2, #0
 8008a54:	d1e1      	bne.n	8008a1a <_Balloc+0xe>
 8008a56:	2000      	movs	r0, #0
 8008a58:	bd70      	pop	{r4, r5, r6, pc}
 8008a5a:	2301      	movs	r3, #1
 8008a5c:	4630      	mov	r0, r6
 8008a5e:	4619      	mov	r1, r3
 8008a60:	fa03 f405 	lsl.w	r4, r3, r5
 8008a64:	1d62      	adds	r2, r4, #5
 8008a66:	0092      	lsls	r2, r2, #2
 8008a68:	f001 fbe6 	bl	800a238 <_calloc_r>
 8008a6c:	4603      	mov	r3, r0
 8008a6e:	2800      	cmp	r0, #0
 8008a70:	d0f1      	beq.n	8008a56 <_Balloc+0x4a>
 8008a72:	6045      	str	r5, [r0, #4]
 8008a74:	6084      	str	r4, [r0, #8]
 8008a76:	e7d6      	b.n	8008a26 <_Balloc+0x1a>

08008a78 <_Bfree>:
 8008a78:	b530      	push	{r4, r5, lr}
 8008a7a:	4604      	mov	r4, r0
 8008a7c:	6a45      	ldr	r5, [r0, #36]	; 0x24
 8008a7e:	b083      	sub	sp, #12
 8008a80:	b155      	cbz	r5, 8008a98 <_Bfree+0x20>
 8008a82:	b139      	cbz	r1, 8008a94 <_Bfree+0x1c>
 8008a84:	6a63      	ldr	r3, [r4, #36]	; 0x24
 8008a86:	684a      	ldr	r2, [r1, #4]
 8008a88:	68db      	ldr	r3, [r3, #12]
 8008a8a:	f853 0022 	ldr.w	r0, [r3, r2, lsl #2]
 8008a8e:	6008      	str	r0, [r1, #0]
 8008a90:	f843 1022 	str.w	r1, [r3, r2, lsl #2]
 8008a94:	b003      	add	sp, #12
 8008a96:	bd30      	pop	{r4, r5, pc}
 8008a98:	2010      	movs	r0, #16
 8008a9a:	9101      	str	r1, [sp, #4]
 8008a9c:	f7ff fc4e 	bl	800833c <malloc>
 8008aa0:	9901      	ldr	r1, [sp, #4]
 8008aa2:	6260      	str	r0, [r4, #36]	; 0x24
 8008aa4:	6045      	str	r5, [r0, #4]
 8008aa6:	6085      	str	r5, [r0, #8]
 8008aa8:	6005      	str	r5, [r0, #0]
 8008aaa:	60c5      	str	r5, [r0, #12]
 8008aac:	e7e9      	b.n	8008a82 <_Bfree+0xa>
 8008aae:	bf00      	nop

08008ab0 <__multadd>:
 8008ab0:	e92d 47f0 	stmdb	sp!, {r4, r5, r6, r7, r8, r9, sl, lr}
 8008ab4:	4688      	mov	r8, r1
 8008ab6:	f8d1 a010 	ldr.w	sl, [r1, #16]
 8008aba:	b082      	sub	sp, #8
 8008abc:	4681      	mov	r9, r0
 8008abe:	f101 0514 	add.w	r5, r1, #20
 8008ac2:	2400      	movs	r4, #0
 8008ac4:	682f      	ldr	r7, [r5, #0]
 8008ac6:	3401      	adds	r4, #1
 8008ac8:	45a2      	cmp	sl, r4
 8008aca:	b2be      	uxth	r6, r7
 8008acc:	ea4f 4717 	mov.w	r7, r7, lsr #16
 8008ad0:	fb02 3606 	mla	r6, r2, r6, r3
 8008ad4:	fb02 f307 	mul.w	r3, r2, r7
 8008ad8:	eb03 4316 	add.w	r3, r3, r6, lsr #16
 8008adc:	b2b6      	uxth	r6, r6
 8008ade:	eb06 4603 	add.w	r6, r6, r3, lsl #16
 8008ae2:	ea4f 4313 	mov.w	r3, r3, lsr #16
 8008ae6:	f845 6b04 	str.w	r6, [r5], #4
 8008aea:	dceb      	bgt.n	8008ac4 <__multadd+0x14>
 8008aec:	b153      	cbz	r3, 8008b04 <__multadd+0x54>
 8008aee:	f8d8 2008 	ldr.w	r2, [r8, #8]
 8008af2:	4592      	cmp	sl, r2
 8008af4:	da0a      	bge.n	8008b0c <__multadd+0x5c>
 8008af6:	eb08 018a 	add.w	r1, r8, sl, lsl #2
 8008afa:	f10a 0201 	add.w	r2, sl, #1
 8008afe:	614b      	str	r3, [r1, #20]
 8008b00:	f8c8 2010 	str.w	r2, [r8, #16]
 8008b04:	4640      	mov	r0, r8
 8008b06:	b002      	add	sp, #8
 8008b08:	e8bd 87f0 	ldmia.w	sp!, {r4, r5, r6, r7, r8, r9, sl, pc}
 8008b0c:	f8d8 1004 	ldr.w	r1, [r8, #4]
 8008b10:	4648      	mov	r0, r9
 8008b12:	9301      	str	r3, [sp, #4]
 8008b14:	3101      	adds	r1, #1
 8008b16:	f7ff ff79 	bl	8008a0c <_Balloc>
 8008b1a:	f8d8 2010 	ldr.w	r2, [r8, #16]
 8008b1e:	f108 010c 	add.w	r1, r8, #12
 8008b22:	3202      	adds	r2, #2
 8008b24:	0092      	lsls	r2, r2, #2
 8008b26:	4604      	mov	r4, r0
 8008b28:	300c      	adds	r0, #12
 8008b2a:	f7ff ff17 	bl	800895c <memcpy>
 8008b2e:	4641      	mov	r1, r8
 8008b30:	4648      	mov	r0, r9
 8008b32:	46a0      	mov	r8, r4
 8008b34:	f7ff ffa0 	bl	8008a78 <_Bfree>
 8008b38:	9b01      	ldr	r3, [sp, #4]
 8008b3a:	e7dc      	b.n	8008af6 <__multadd+0x46>

08008b3c <__s2b>:
 8008b3c:	e92d 43f8 	stmdb	sp!, {r3, r4, r5, r6, r7, r8, r9, lr}
 8008b40:	4699      	mov	r9, r3
 8008b42:	f648 6339 	movw	r3, #36409	; 0x8e39
 8008b46:	f109 0508 	add.w	r5, r9, #8
 8008b4a:	f6c3 03e3 	movt	r3, #14563	; 0x38e3
 8008b4e:	460c      	mov	r4, r1
 8008b50:	4607      	mov	r7, r0
 8008b52:	4690      	mov	r8, r2
 8008b54:	fb83 1305 	smull	r1, r3, r3, r5
 8008b58:	17ed      	asrs	r5, r5, #31
 8008b5a:	9e08      	ldr	r6, [sp, #32]
 8008b5c:	ebc5 0363 	rsb	r3, r5, r3, asr #1
 8008b60:	2b01      	cmp	r3, #1
 8008b62:	dd35      	ble.n	8008bd0 <__s2b+0x94>
 8008b64:	2501      	movs	r5, #1
 8008b66:	2100      	movs	r1, #0
 8008b68:	006d      	lsls	r5, r5, #1
 8008b6a:	3101      	adds	r1, #1
 8008b6c:	42ab      	cmp	r3, r5
 8008b6e:	dcfb      	bgt.n	8008b68 <__s2b+0x2c>
 8008b70:	4638      	mov	r0, r7
 8008b72:	f7ff ff4b 	bl	8008a0c <_Balloc>
 8008b76:	f1b8 0f09 	cmp.w	r8, #9
 8008b7a:	f04f 0301 	mov.w	r3, #1
 8008b7e:	bfdc      	itt	le
 8008b80:	340a      	addle	r4, #10
 8008b82:	f04f 0809 	movle.w	r8, #9
 8008b86:	6146      	str	r6, [r0, #20]
 8008b88:	6103      	str	r3, [r0, #16]
 8008b8a:	dd10      	ble.n	8008bae <__s2b+0x72>
 8008b8c:	f104 0609 	add.w	r6, r4, #9
 8008b90:	4444      	add	r4, r8
 8008b92:	4635      	mov	r5, r6
 8008b94:	f815 3b01 	ldrb.w	r3, [r5], #1
 8008b98:	4601      	mov	r1, r0
 8008b9a:	220a      	movs	r2, #10
 8008b9c:	4638      	mov	r0, r7
 8008b9e:	3b30      	subs	r3, #48	; 0x30
 8008ba0:	f7ff ff86 	bl	8008ab0 <__multadd>
 8008ba4:	42a5      	cmp	r5, r4
 8008ba6:	d1f5      	bne.n	8008b94 <__s2b+0x58>
 8008ba8:	eb06 0408 	add.w	r4, r6, r8
 8008bac:	3c08      	subs	r4, #8
 8008bae:	45c1      	cmp	r9, r8
 8008bb0:	dd0c      	ble.n	8008bcc <__s2b+0x90>
 8008bb2:	ebc8 0809 	rsb	r8, r8, r9
 8008bb6:	44a0      	add	r8, r4
 8008bb8:	f814 3b01 	ldrb.w	r3, [r4], #1
 8008bbc:	4601      	mov	r1, r0
 8008bbe:	220a      	movs	r2, #10
 8008bc0:	4638      	mov	r0, r7
 8008bc2:	3b30      	subs	r3, #48	; 0x30
 8008bc4:	f7ff ff74 	bl	8008ab0 <__multadd>
 8008bc8:	4544      	cmp	r4, r8
 8008bca:	d1f5      	bne.n	8008bb8 <__s2b+0x7c>
 8008bcc:	e8bd 83f8 	ldmia.w	sp!, {r3, r4, r5, r6, r7, r8, r9, pc}
 8008bd0:	2100      	movs	r1, #0
 8008bd2:	e7cd      	b.n	8008b70 <__s2b+0x34>

08008bd4 <__hi0bits>:
 8008bd4:	0c03      	lsrs	r3, r0, #16
 8008bd6:	bf06      	itte	eq
 8008bd8:	0400      	lsleq	r0, r0, #16
 8008bda:	2310      	moveq	r3, #16
 8008bdc:	2300      	movne	r3, #0
 8008bde:	f010 4f7f 	tst.w	r0, #4278190080	; 0xff000000
 8008be2:	bf04      	itt	eq
 8008be4:	0200      	lsleq	r0, r0, #8
 8008be6:	3308      	addeq	r3, #8
 8008be8:	f010 4f70 	tst.w	r0, #4026531840	; 0xf0000000
 8008bec:	bf04      	itt	eq
 8008bee:	0100      	lsleq	r0, r0, #4
 8008bf0:	3304      	addeq	r3, #4
 8008bf2:	f010 4f40 	tst.w	r0, #3221225472	; 0xc0000000
 8008bf6:	bf04      	itt	eq
 8008bf8:	0080      	lsleq	r0, r0, #2
 8008bfa:	3302      	addeq	r3, #2
 8008bfc:	2800      	cmp	r0, #0
 8008bfe:	db05      	blt.n	8008c0c <__hi0bits+0x38>
 8008c00:	0042      	lsls	r2, r0, #1
 8008c02:	d401      	bmi.n	8008c08 <__hi0bits+0x34>
 8008c04:	2020      	movs	r0, #32
 8008c06:	4770      	bx	lr
 8008c08:	1c58      	adds	r0, r3, #1
 8008c0a:	4770      	bx	lr
 8008c0c:	4618      	mov	r0, r3
 8008c0e:	4770      	bx	lr

08008c10 <__lo0bits>:
 8008c10:	6803      	ldr	r3, [r0, #0]
 8008c12:	4602      	mov	r2, r0
 8008c14:	f013 0007 	ands.w	r0, r3, #7
 8008c18:	d009      	beq.n	8008c2e <__lo0bits+0x1e>
 8008c1a:	07d9      	lsls	r1, r3, #31
 8008c1c:	d421      	bmi.n	8008c62 <__lo0bits+0x52>
 8008c1e:	0798      	lsls	r0, r3, #30
 8008c20:	bf4b      	itete	mi
 8008c22:	085b      	lsrmi	r3, r3, #1
 8008c24:	089b      	lsrpl	r3, r3, #2
 8008c26:	2001      	movmi	r0, #1
 8008c28:	2002      	movpl	r0, #2
 8008c2a:	6013      	str	r3, [r2, #0]
 8008c2c:	4770      	bx	lr
 8008c2e:	b299      	uxth	r1, r3
 8008c30:	b909      	cbnz	r1, 8008c36 <__lo0bits+0x26>
 8008c32:	0c1b      	lsrs	r3, r3, #16
 8008c34:	2010      	movs	r0, #16
 8008c36:	f013 0fff 	tst.w	r3, #255	; 0xff
 8008c3a:	bf04      	itt	eq
 8008c3c:	0a1b      	lsreq	r3, r3, #8
 8008c3e:	3008      	addeq	r0, #8
 8008c40:	0719      	lsls	r1, r3, #28
 8008c42:	bf04      	itt	eq
 8008c44:	091b      	lsreq	r3, r3, #4
 8008c46:	3004      	addeq	r0, #4
 8008c48:	0799      	lsls	r1, r3, #30
 8008c4a:	bf04      	itt	eq
 8008c4c:	089b      	lsreq	r3, r3, #2
 8008c4e:	3002      	addeq	r0, #2
 8008c50:	07d9      	lsls	r1, r3, #31
 8008c52:	d404      	bmi.n	8008c5e <__lo0bits+0x4e>
 8008c54:	085b      	lsrs	r3, r3, #1
 8008c56:	d101      	bne.n	8008c5c <__lo0bits+0x4c>
 8008c58:	2020      	movs	r0, #32
 8008c5a:	4770      	bx	lr
 8008c5c:	3001      	adds	r0, #1
 8008c5e:	6013      	str	r3, [r2, #0]
 8008c60:	4770      	bx	lr
 8008c62:	2000      	movs	r0, #0
 8008c64:	4770      	bx	lr
 8008c66:	bf00      	nop

08008c68 <__i2b>:
 8008c68:	b510      	push	{r4, lr}
 8008c6a:	460c      	mov	r4, r1
 8008c6c:	2101      	movs	r1, #1
 8008c6e:	f7ff fecd 	bl	8008a0c <_Balloc>
 8008c72:	2201      	movs	r2, #1
 8008c74:	6144      	str	r4, [r0, #20]
 8008c76:	6102      	str	r2, [r0, #16]
 8008c78:	bd10      	pop	{r4, pc}
 8008c7a:	bf00      	nop

08008c7c <__multiply>:
 8008c7c:	e92d 4ff0 	stmdb	sp!, {r4, r5, r6, r7, r8, r9, sl, fp, lr}
 8008c80:	460c      	mov	r4, r1
 8008c82:	690e      	ldr	r6, [r1, #16]
 8008c84:	b085      	sub	sp, #20
 8008c86:	6915      	ldr	r5, [r2, #16]
 8008c88:	4693      	mov	fp, r2
 8008c8a:	42ae      	cmp	r6, r5
 8008c8c:	da04      	bge.n	8008c98 <__multiply+0x1c>
 8008c8e:	4632      	mov	r2, r6
 8008c90:	465c      	mov	r4, fp
 8008c92:	462e      	mov	r6, r5
 8008c94:	468b      	mov	fp, r1
 8008c96:	4615      	mov	r5, r2
 8008c98:	68a3      	ldr	r3, [r4, #8]
 8008c9a:	eb06 0905 	add.w	r9, r6, r5
 8008c9e:	6861      	ldr	r1, [r4, #4]
 8008ca0:	4599      	cmp	r9, r3
 8008ca2:	bfc8      	it	gt
 8008ca4:	3101      	addgt	r1, #1
 8008ca6:	f7ff feb1 	bl	8008a0c <_Balloc>
 8008caa:	f100 0a14 	add.w	sl, r0, #20
 8008cae:	9002      	str	r0, [sp, #8]
 8008cb0:	eb0a 0189 	add.w	r1, sl, r9, lsl #2
 8008cb4:	9101      	str	r1, [sp, #4]
 8008cb6:	458a      	cmp	sl, r1
 8008cb8:	d206      	bcs.n	8008cc8 <__multiply+0x4c>
 8008cba:	9a01      	ldr	r2, [sp, #4]
 8008cbc:	4653      	mov	r3, sl
 8008cbe:	2000      	movs	r0, #0
 8008cc0:	f843 0b04 	str.w	r0, [r3], #4
 8008cc4:	429a      	cmp	r2, r3
 8008cc6:	d8fb      	bhi.n	8008cc0 <__multiply+0x44>
 8008cc8:	f10b 0b14 	add.w	fp, fp, #20
 8008ccc:	3414      	adds	r4, #20
 8008cce:	eb0b 0585 	add.w	r5, fp, r5, lsl #2
 8008cd2:	9400      	str	r4, [sp, #0]
 8008cd4:	45ab      	cmp	fp, r5
 8008cd6:	eb04 0686 	add.w	r6, r4, r6, lsl #2
 8008cda:	bf3c      	itt	cc
 8008cdc:	f8cd 900c 	strcc.w	r9, [sp, #12]
 8008ce0:	46a9      	movcc	r9, r5
 8008ce2:	d254      	bcs.n	8008d8e <__multiply+0x112>
 8008ce4:	f85b 3b04 	ldr.w	r3, [fp], #4
 8008ce8:	b29c      	uxth	r4, r3
 8008cea:	2c00      	cmp	r4, #0
 8008cec:	d064      	beq.n	8008db8 <__multiply+0x13c>
 8008cee:	9900      	ldr	r1, [sp, #0]
 8008cf0:	4652      	mov	r2, sl
 8008cf2:	2500      	movs	r5, #0
 8008cf4:	46a4      	mov	ip, r4
 8008cf6:	e000      	b.n	8008cfa <__multiply+0x7e>
 8008cf8:	461a      	mov	r2, r3
 8008cfa:	f851 4b04 	ldr.w	r4, [r1], #4
 8008cfe:	4613      	mov	r3, r2
 8008d00:	6817      	ldr	r7, [r2, #0]
 8008d02:	428e      	cmp	r6, r1
 8008d04:	fa1f f884 	uxth.w	r8, r4
 8008d08:	ea4f 4414 	mov.w	r4, r4, lsr #16
 8008d0c:	b2b8      	uxth	r0, r7
 8008d0e:	ea4f 4717 	mov.w	r7, r7, lsr #16
 8008d12:	fb0c 0808 	mla	r8, ip, r8, r0
 8008d16:	fb0c 7004 	mla	r0, ip, r4, r7
 8008d1a:	4445      	add	r5, r8
 8008d1c:	eb00 4015 	add.w	r0, r0, r5, lsr #16
 8008d20:	b2ad      	uxth	r5, r5
 8008d22:	ea45 4400 	orr.w	r4, r5, r0, lsl #16
 8008d26:	ea4f 4510 	mov.w	r5, r0, lsr #16
 8008d2a:	f843 4b04 	str.w	r4, [r3], #4
 8008d2e:	d8e3      	bhi.n	8008cf8 <__multiply+0x7c>
 8008d30:	6055      	str	r5, [r2, #4]
 8008d32:	f85b 4c04 	ldr.w	r4, [fp, #-4]
 8008d36:	0c24      	lsrs	r4, r4, #16
 8008d38:	d023      	beq.n	8008d82 <__multiply+0x106>
 8008d3a:	f8da 1000 	ldr.w	r1, [sl]
 8008d3e:	4650      	mov	r0, sl
 8008d40:	9b00      	ldr	r3, [sp, #0]
 8008d42:	2700      	movs	r7, #0
 8008d44:	460d      	mov	r5, r1
 8008d46:	e000      	b.n	8008d4a <__multiply+0xce>
 8008d48:	4610      	mov	r0, r2
 8008d4a:	f8b3 c000 	ldrh.w	ip, [r3]
 8008d4e:	0c2d      	lsrs	r5, r5, #16
 8008d50:	4602      	mov	r2, r0
 8008d52:	b289      	uxth	r1, r1
 8008d54:	fb04 550c 	mla	r5, r4, ip, r5
 8008d58:	442f      	add	r7, r5
 8008d5a:	ea41 4107 	orr.w	r1, r1, r7, lsl #16
 8008d5e:	f842 1b04 	str.w	r1, [r2], #4
 8008d62:	6841      	ldr	r1, [r0, #4]
 8008d64:	f853 cb04 	ldr.w	ip, [r3], #4
 8008d68:	460d      	mov	r5, r1
 8008d6a:	b289      	uxth	r1, r1
 8008d6c:	429e      	cmp	r6, r3
 8008d6e:	ea4f 4c1c 	mov.w	ip, ip, lsr #16
 8008d72:	fb04 110c 	mla	r1, r4, ip, r1
 8008d76:	eb01 4117 	add.w	r1, r1, r7, lsr #16
 8008d7a:	ea4f 4711 	mov.w	r7, r1, lsr #16
 8008d7e:	d8e3      	bhi.n	8008d48 <__multiply+0xcc>
 8008d80:	6041      	str	r1, [r0, #4]
 8008d82:	45d9      	cmp	r9, fp
 8008d84:	f10a 0a04 	add.w	sl, sl, #4
 8008d88:	d8ac      	bhi.n	8008ce4 <__multiply+0x68>
 8008d8a:	f8dd 900c 	ldr.w	r9, [sp, #12]
 8008d8e:	f1b9 0f00 	cmp.w	r9, #0
 8008d92:	dd0a      	ble.n	8008daa <__multiply+0x12e>
 8008d94:	9b01      	ldr	r3, [sp, #4]
 8008d96:	3b04      	subs	r3, #4
 8008d98:	681a      	ldr	r2, [r3, #0]
 8008d9a:	b11a      	cbz	r2, 8008da4 <__multiply+0x128>
 8008d9c:	e005      	b.n	8008daa <__multiply+0x12e>
 8008d9e:	f853 2d04 	ldr.w	r2, [r3, #-4]!
 8008da2:	b912      	cbnz	r2, 8008daa <__multiply+0x12e>
 8008da4:	f1b9 0901 	subs.w	r9, r9, #1
 8008da8:	d1f9      	bne.n	8008d9e <__multiply+0x122>
 8008daa:	9902      	ldr	r1, [sp, #8]
 8008dac:	4608      	mov	r0, r1
 8008dae:	f8c1 9010 	str.w	r9, [r1, #16]
 8008db2:	b005      	add	sp, #20
 8008db4:	e8bd 8ff0 	ldmia.w	sp!, {r4, r5, r6, r7, r8, r9, sl, fp, pc}
 8008db8:	461c      	mov	r4, r3
 8008dba:	e7bc      	b.n	8008d36 <__multiply+0xba>

08008dbc <__pow5mult>:
 8008dbc:	f012 0303 	ands.w	r3, r2, #3
 8008dc0:	e92d 43f0 	stmdb	sp!, {r4, r5, r6, r7, r8, r9, lr}
 8008dc4:	4614      	mov	r4, r2
 8008dc6:	b083      	sub	sp, #12
 8008dc8:	4607      	mov	r7, r0
 8008dca:	460e      	mov	r6, r1
 8008dcc:	d12b      	bne.n	8008e26 <__pow5mult+0x6a>
 8008dce:	10a4      	asrs	r4, r4, #2
 8008dd0:	d01c      	beq.n	8008e0c <__pow5mult+0x50>
 8008dd2:	6a7b      	ldr	r3, [r7, #36]	; 0x24
 8008dd4:	2b00      	cmp	r3, #0
 8008dd6:	d032      	beq.n	8008e3e <__pow5mult+0x82>
 8008dd8:	689d      	ldr	r5, [r3, #8]
 8008dda:	2d00      	cmp	r5, #0
 8008ddc:	d03a      	beq.n	8008e54 <__pow5mult+0x98>
 8008dde:	f04f 0900 	mov.w	r9, #0
 8008de2:	e004      	b.n	8008dee <__pow5mult+0x32>
 8008de4:	1064      	asrs	r4, r4, #1
 8008de6:	d011      	beq.n	8008e0c <__pow5mult+0x50>
 8008de8:	6828      	ldr	r0, [r5, #0]
 8008dea:	b198      	cbz	r0, 8008e14 <__pow5mult+0x58>
 8008dec:	4605      	mov	r5, r0
 8008dee:	07e0      	lsls	r0, r4, #31
 8008df0:	d5f8      	bpl.n	8008de4 <__pow5mult+0x28>
 8008df2:	4631      	mov	r1, r6
 8008df4:	462a      	mov	r2, r5
 8008df6:	4638      	mov	r0, r7
 8008df8:	f7ff ff40 	bl	8008c7c <__multiply>
 8008dfc:	4631      	mov	r1, r6
 8008dfe:	4680      	mov	r8, r0
 8008e00:	4638      	mov	r0, r7
 8008e02:	f7ff fe39 	bl	8008a78 <_Bfree>
 8008e06:	1064      	asrs	r4, r4, #1
 8008e08:	4646      	mov	r6, r8
 8008e0a:	d1ed      	bne.n	8008de8 <__pow5mult+0x2c>
 8008e0c:	4630      	mov	r0, r6
 8008e0e:	b003      	add	sp, #12
 8008e10:	e8bd 83f0 	ldmia.w	sp!, {r4, r5, r6, r7, r8, r9, pc}
 8008e14:	4638      	mov	r0, r7
 8008e16:	4629      	mov	r1, r5
 8008e18:	462a      	mov	r2, r5
 8008e1a:	f7ff ff2f 	bl	8008c7c <__multiply>
 8008e1e:	6028      	str	r0, [r5, #0]
 8008e20:	f8c0 9000 	str.w	r9, [r0]
 8008e24:	e7e2      	b.n	8008dec <__pow5mult+0x30>
 8008e26:	f24c 02a8 	movw	r2, #49320	; 0xc0a8
 8008e2a:	1e5d      	subs	r5, r3, #1
 8008e2c:	f6c0 0200 	movt	r2, #2048	; 0x800
 8008e30:	2300      	movs	r3, #0
 8008e32:	f852 2025 	ldr.w	r2, [r2, r5, lsl #2]
 8008e36:	f7ff fe3b 	bl	8008ab0 <__multadd>
 8008e3a:	4606      	mov	r6, r0
 8008e3c:	e7c7      	b.n	8008dce <__pow5mult+0x12>
 8008e3e:	2010      	movs	r0, #16
 8008e40:	9301      	str	r3, [sp, #4]
 8008e42:	f7ff fa7b 	bl	800833c <malloc>
 8008e46:	9b01      	ldr	r3, [sp, #4]
 8008e48:	6278      	str	r0, [r7, #36]	; 0x24
 8008e4a:	6043      	str	r3, [r0, #4]
 8008e4c:	6083      	str	r3, [r0, #8]
 8008e4e:	6003      	str	r3, [r0, #0]
 8008e50:	60c3      	str	r3, [r0, #12]
 8008e52:	4603      	mov	r3, r0
 8008e54:	2101      	movs	r1, #1
 8008e56:	4638      	mov	r0, r7
 8008e58:	9301      	str	r3, [sp, #4]
 8008e5a:	f7ff fdd7 	bl	8008a0c <_Balloc>
 8008e5e:	9b01      	ldr	r3, [sp, #4]
 8008e60:	f240 2271 	movw	r2, #625	; 0x271
 8008e64:	2101      	movs	r1, #1
 8008e66:	6142      	str	r2, [r0, #20]
 8008e68:	4605      	mov	r5, r0
 8008e6a:	2200      	movs	r2, #0
 8008e6c:	6101      	str	r1, [r0, #16]
 8008e6e:	6098      	str	r0, [r3, #8]
 8008e70:	6002      	str	r2, [r0, #0]
 8008e72:	e7b4      	b.n	8008dde <__pow5mult+0x22>

08008e74 <__lshift>:
 8008e74:	e92d 4ff8 	stmdb	sp!, {r3, r4, r5, r6, r7, r8, r9, sl, fp, lr}
 8008e78:	4693      	mov	fp, r2
 8008e7a:	690a      	ldr	r2, [r1, #16]
 8008e7c:	460f      	mov	r7, r1
 8008e7e:	ea4f 156b 	mov.w	r5, fp, asr #5
 8008e82:	688b      	ldr	r3, [r1, #8]
 8008e84:	eb05 0902 	add.w	r9, r5, r2
 8008e88:	4680      	mov	r8, r0
 8008e8a:	f109 0601 	add.w	r6, r9, #1
 8008e8e:	6849      	ldr	r1, [r1, #4]
 8008e90:	429e      	cmp	r6, r3
 8008e92:	dd03      	ble.n	8008e9c <__lshift+0x28>
 8008e94:	005b      	lsls	r3, r3, #1
 8008e96:	3101      	adds	r1, #1
 8008e98:	429e      	cmp	r6, r3
 8008e9a:	dcfb      	bgt.n	8008e94 <__lshift+0x20>
 8008e9c:	4640      	mov	r0, r8
 8008e9e:	f7ff fdb5 	bl	8008a0c <_Balloc>
 8008ea2:	2d00      	cmp	r5, #0
 8008ea4:	4682      	mov	sl, r0
 8008ea6:	f100 0414 	add.w	r4, r0, #20
 8008eaa:	dd09      	ble.n	8008ec0 <__lshift+0x4c>
 8008eac:	2300      	movs	r3, #0
 8008eae:	4622      	mov	r2, r4
 8008eb0:	4619      	mov	r1, r3
 8008eb2:	3301      	adds	r3, #1
 8008eb4:	f842 1b04 	str.w	r1, [r2], #4
 8008eb8:	42ab      	cmp	r3, r5
 8008eba:	d1fa      	bne.n	8008eb2 <__lshift+0x3e>
 8008ebc:	eb04 0483 	add.w	r4, r4, r3, lsl #2
 8008ec0:	693a      	ldr	r2, [r7, #16]
 8008ec2:	f01b 0b1f 	ands.w	fp, fp, #31
 8008ec6:	f107 0314 	add.w	r3, r7, #20
 8008eca:	eb03 0282 	add.w	r2, r3, r2, lsl #2
 8008ece:	d01f      	beq.n	8008f10 <__lshift+0x9c>
 8008ed0:	f1cb 0e20 	rsb	lr, fp, #32
 8008ed4:	2000      	movs	r0, #0
 8008ed6:	e000      	b.n	8008eda <__lshift+0x66>
 8008ed8:	462c      	mov	r4, r5
 8008eda:	6819      	ldr	r1, [r3, #0]
 8008edc:	4625      	mov	r5, r4
 8008ede:	fa01 f10b 	lsl.w	r1, r1, fp
 8008ee2:	4308      	orrs	r0, r1
 8008ee4:	f845 0b04 	str.w	r0, [r5], #4
 8008ee8:	f853 0b04 	ldr.w	r0, [r3], #4
 8008eec:	4293      	cmp	r3, r2
 8008eee:	fa20 f00e 	lsr.w	r0, r0, lr
 8008ef2:	d3f1      	bcc.n	8008ed8 <__lshift+0x64>
 8008ef4:	6060      	str	r0, [r4, #4]
 8008ef6:	b108      	cbz	r0, 8008efc <__lshift+0x88>
 8008ef8:	f109 0602 	add.w	r6, r9, #2
 8008efc:	4640      	mov	r0, r8
 8008efe:	3e01      	subs	r6, #1
 8008f00:	4639      	mov	r1, r7
 8008f02:	f8ca 6010 	str.w	r6, [sl, #16]
 8008f06:	f7ff fdb7 	bl	8008a78 <_Bfree>
 8008f0a:	4650      	mov	r0, sl
 8008f0c:	e8bd 8ff8 	ldmia.w	sp!, {r3, r4, r5, r6, r7, r8, r9, sl, fp, pc}
 8008f10:	f853 1b04 	ldr.w	r1, [r3], #4
 8008f14:	429a      	cmp	r2, r3
 8008f16:	f844 1b04 	str.w	r1, [r4], #4
 8008f1a:	d9ef      	bls.n	8008efc <__lshift+0x88>
 8008f1c:	f853 1b04 	ldr.w	r1, [r3], #4
 8008f20:	429a      	cmp	r2, r3
 8008f22:	f844 1b04 	str.w	r1, [r4], #4
 8008f26:	d8f3      	bhi.n	8008f10 <__lshift+0x9c>
 8008f28:	e7e8      	b.n	8008efc <__lshift+0x88>
 8008f2a:	bf00      	nop

08008f2c <__mcmp>:
 8008f2c:	6902      	ldr	r2, [r0, #16]
 8008f2e:	690b      	ldr	r3, [r1, #16]
 8008f30:	b410      	push	{r4}
 8008f32:	1ad2      	subs	r2, r2, r3
 8008f34:	bf18      	it	ne
 8008f36:	4610      	movne	r0, r2
 8008f38:	d112      	bne.n	8008f60 <__mcmp+0x34>
 8008f3a:	009a      	lsls	r2, r3, #2
 8008f3c:	3014      	adds	r0, #20
 8008f3e:	3114      	adds	r1, #20
 8008f40:	1883      	adds	r3, r0, r2
 8008f42:	4411      	add	r1, r2
 8008f44:	e001      	b.n	8008f4a <__mcmp+0x1e>
 8008f46:	4298      	cmp	r0, r3
 8008f48:	d20d      	bcs.n	8008f66 <__mcmp+0x3a>
 8008f4a:	f853 2d04 	ldr.w	r2, [r3, #-4]!
 8008f4e:	f851 4d04 	ldr.w	r4, [r1, #-4]!
 8008f52:	42a2      	cmp	r2, r4
 8008f54:	d0f7      	beq.n	8008f46 <__mcmp+0x1a>
 8008f56:	4294      	cmp	r4, r2
 8008f58:	bf94      	ite	ls
 8008f5a:	2001      	movls	r0, #1
 8008f5c:	f04f 30ff 	movhi.w	r0, #4294967295
 8008f60:	f85d 4b04 	ldr.w	r4, [sp], #4
 8008f64:	4770      	bx	lr
 8008f66:	2000      	movs	r0, #0
 8008f68:	f85d 4b04 	ldr.w	r4, [sp], #4
 8008f6c:	4770      	bx	lr
 8008f6e:	bf00      	nop

08008f70 <__mdiff>:
 8008f70:	e92d 4ff8 	stmdb	sp!, {r3, r4, r5, r6, r7, r8, r9, sl, fp, lr}
 8008f74:	4688      	mov	r8, r1
 8008f76:	4605      	mov	r5, r0
 8008f78:	4611      	mov	r1, r2
 8008f7a:	4640      	mov	r0, r8
 8008f7c:	4614      	mov	r4, r2
 8008f7e:	f7ff ffd5 	bl	8008f2c <__mcmp>
 8008f82:	1e06      	subs	r6, r0, #0
 8008f84:	d05f      	beq.n	8009046 <__mdiff+0xd6>
 8008f86:	bfbc      	itt	lt
 8008f88:	4643      	movlt	r3, r8
 8008f8a:	46a0      	movlt	r8, r4
 8008f8c:	4628      	mov	r0, r5
 8008f8e:	bfb8      	it	lt
 8008f90:	461c      	movlt	r4, r3
 8008f92:	f8d8 1004 	ldr.w	r1, [r8, #4]
 8008f96:	bfac      	ite	ge
 8008f98:	2600      	movge	r6, #0
 8008f9a:	2601      	movlt	r6, #1
 8008f9c:	f7ff fd36 	bl	8008a0c <_Balloc>
 8008fa0:	f8d8 c010 	ldr.w	ip, [r8, #16]
 8008fa4:	f104 0914 	add.w	r9, r4, #20
 8008fa8:	6922      	ldr	r2, [r4, #16]
 8008faa:	f108 0814 	add.w	r8, r8, #20
 8008fae:	4644      	mov	r4, r8
 8008fb0:	464d      	mov	r5, r9
 8008fb2:	eb08 088c 	add.w	r8, r8, ip, lsl #2
 8008fb6:	eb09 0982 	add.w	r9, r9, r2, lsl #2
 8008fba:	2200      	movs	r2, #0
 8008fbc:	4682      	mov	sl, r0
 8008fbe:	f100 0314 	add.w	r3, r0, #20
 8008fc2:	60c6      	str	r6, [r0, #12]
 8008fc4:	f854 7b04 	ldr.w	r7, [r4], #4
 8008fc8:	f855 0b04 	ldr.w	r0, [r5], #4
 8008fcc:	4621      	mov	r1, r4
 8008fce:	b2be      	uxth	r6, r7
 8008fd0:	45a9      	cmp	r9, r5
 8008fd2:	4432      	add	r2, r6
 8008fd4:	fa1f fb80 	uxth.w	fp, r0
 8008fd8:	ebcb 0602 	rsb	r6, fp, r2
 8008fdc:	ea4f 4210 	mov.w	r2, r0, lsr #16
 8008fe0:	ebc2 4217 	rsb	r2, r2, r7, lsr #16
 8008fe4:	eb02 4226 	add.w	r2, r2, r6, asr #16
 8008fe8:	b2b6      	uxth	r6, r6
 8008fea:	ea46 4602 	orr.w	r6, r6, r2, lsl #16
 8008fee:	ea4f 4222 	mov.w	r2, r2, asr #16
 8008ff2:	f843 6b04 	str.w	r6, [r3], #4
 8008ff6:	d8e5      	bhi.n	8008fc4 <__mdiff+0x54>
 8008ff8:	45a0      	cmp	r8, r4
 8008ffa:	461d      	mov	r5, r3
 8008ffc:	d916      	bls.n	800902c <__mdiff+0xbc>
 8008ffe:	f851 0b04 	ldr.w	r0, [r1], #4
 8009002:	4588      	cmp	r8, r1
 8009004:	b286      	uxth	r6, r0
 8009006:	ea4f 4010 	mov.w	r0, r0, lsr #16
 800900a:	4432      	add	r2, r6
 800900c:	eb00 4022 	add.w	r0, r0, r2, asr #16
 8009010:	b292      	uxth	r2, r2
 8009012:	ea42 4600 	orr.w	r6, r2, r0, lsl #16
 8009016:	ea4f 4220 	mov.w	r2, r0, asr #16
 800901a:	f843 6b04 	str.w	r6, [r3], #4
 800901e:	d8ee      	bhi.n	8008ffe <__mdiff+0x8e>
 8009020:	43e3      	mvns	r3, r4
 8009022:	4443      	add	r3, r8
 8009024:	f023 0303 	bic.w	r3, r3, #3
 8009028:	3304      	adds	r3, #4
 800902a:	442b      	add	r3, r5
 800902c:	3b04      	subs	r3, #4
 800902e:	b92e      	cbnz	r6, 800903c <__mdiff+0xcc>
 8009030:	f853 2d04 	ldr.w	r2, [r3, #-4]!
 8009034:	f10c 3cff 	add.w	ip, ip, #4294967295
 8009038:	2a00      	cmp	r2, #0
 800903a:	d0f9      	beq.n	8009030 <__mdiff+0xc0>
 800903c:	4650      	mov	r0, sl
 800903e:	f8ca c010 	str.w	ip, [sl, #16]
 8009042:	e8bd 8ff8 	ldmia.w	sp!, {r3, r4, r5, r6, r7, r8, r9, sl, fp, pc}
 8009046:	4628      	mov	r0, r5
 8009048:	4631      	mov	r1, r6
 800904a:	f7ff fcdf 	bl	8008a0c <_Balloc>
 800904e:	2201      	movs	r2, #1
 8009050:	4603      	mov	r3, r0
 8009052:	615e      	str	r6, [r3, #20]
 8009054:	611a      	str	r2, [r3, #16]
 8009056:	e8bd 8ff8 	ldmia.w	sp!, {r3, r4, r5, r6, r7, r8, r9, sl, fp, pc}
 800905a:	bf00      	nop

0800905c <__ulp>:
 800905c:	2300      	movs	r3, #0
 800905e:	f6c7 73f0 	movt	r3, #32752	; 0x7ff0
 8009062:	400b      	ands	r3, r1
 8009064:	f1a3 7350 	sub.w	r3, r3, #54525952	; 0x3400000
 8009068:	2b00      	cmp	r3, #0
 800906a:	dd02      	ble.n	8009072 <__ulp+0x16>
 800906c:	4619      	mov	r1, r3
 800906e:	2000      	movs	r0, #0
 8009070:	4770      	bx	lr
 8009072:	425b      	negs	r3, r3
 8009074:	151b      	asrs	r3, r3, #20
 8009076:	2b13      	cmp	r3, #19
 8009078:	dd0b      	ble.n	8009092 <__ulp+0x36>
 800907a:	2b32      	cmp	r3, #50	; 0x32
 800907c:	f04f 0100 	mov.w	r1, #0
 8009080:	bfdb      	ittet	le
 8009082:	2201      	movle	r2, #1
 8009084:	f1c3 0333 	rsble	r3, r3, #51	; 0x33
 8009088:	2301      	movgt	r3, #1
 800908a:	fa02 f303 	lslle.w	r3, r2, r3
 800908e:	4618      	mov	r0, r3
 8009090:	4770      	bx	lr
 8009092:	f44f 2200 	mov.w	r2, #524288	; 0x80000
 8009096:	2000      	movs	r0, #0
 8009098:	fa42 f103 	asr.w	r1, r2, r3
 800909c:	4770      	bx	lr
 800909e:	bf00      	nop

080090a0 <__b2d>:
 80090a0:	b5f8      	push	{r3, r4, r5, r6, r7, lr}
 80090a2:	f100 0614 	add.w	r6, r0, #20
 80090a6:	6904      	ldr	r4, [r0, #16]
 80090a8:	eb06 0484 	add.w	r4, r6, r4, lsl #2
 80090ac:	1f27      	subs	r7, r4, #4
 80090ae:	f854 5c04 	ldr.w	r5, [r4, #-4]
 80090b2:	4628      	mov	r0, r5
 80090b4:	f7ff fd8e 	bl	8008bd4 <__hi0bits>
 80090b8:	280a      	cmp	r0, #10
 80090ba:	f1c0 0320 	rsb	r3, r0, #32
 80090be:	600b      	str	r3, [r1, #0]
 80090c0:	dc18      	bgt.n	80090f4 <__b2d+0x54>
 80090c2:	42be      	cmp	r6, r7
 80090c4:	f1c0 010b 	rsb	r1, r0, #11
 80090c8:	fa25 fc01 	lsr.w	ip, r5, r1
 80090cc:	f100 0015 	add.w	r0, r0, #21
 80090d0:	bf34      	ite	cc
 80090d2:	f854 4c08 	ldrcc.w	r4, [r4, #-8]
 80090d6:	2100      	movcs	r1, #0
 80090d8:	fa05 f500 	lsl.w	r5, r5, r0
 80090dc:	f04c 5c7f 	orr.w	ip, ip, #1069547520	; 0x3fc00000
 80090e0:	f44c 1340 	orr.w	r3, ip, #3145728	; 0x300000
 80090e4:	bf38      	it	cc
 80090e6:	fa24 f101 	lsrcc.w	r1, r4, r1
 80090ea:	ea41 0205 	orr.w	r2, r1, r5
 80090ee:	4619      	mov	r1, r3
 80090f0:	4610      	mov	r0, r2
 80090f2:	bdf8      	pop	{r3, r4, r5, r6, r7, pc}
 80090f4:	42be      	cmp	r6, r7
 80090f6:	bf36      	itet	cc
 80090f8:	f1a4 0708 	subcc.w	r7, r4, #8
 80090fc:	2100      	movcs	r1, #0
 80090fe:	f854 1c08 	ldrcc.w	r1, [r4, #-8]
 8009102:	f1b0 040b 	subs.w	r4, r0, #11
 8009106:	d019      	beq.n	800913c <__b2d+0x9c>
 8009108:	40a5      	lsls	r5, r4
 800910a:	f1c0 002b 	rsb	r0, r0, #43	; 0x2b
 800910e:	42b7      	cmp	r7, r6
 8009110:	f045 557f 	orr.w	r5, r5, #1069547520	; 0x3fc00000
 8009114:	fa21 fc00 	lsr.w	ip, r1, r0
 8009118:	f445 1540 	orr.w	r5, r5, #3145728	; 0x300000
 800911c:	ea45 030c 	orr.w	r3, r5, ip
 8009120:	bf8c      	ite	hi
 8009122:	f857 5c04 	ldrhi.w	r5, [r7, #-4]
 8009126:	2000      	movls	r0, #0
 8009128:	fa01 f104 	lsl.w	r1, r1, r4
 800912c:	bf88      	it	hi
 800912e:	fa25 f000 	lsrhi.w	r0, r5, r0
 8009132:	ea40 0201 	orr.w	r2, r0, r1
 8009136:	4619      	mov	r1, r3
 8009138:	4610      	mov	r0, r2
 800913a:	bdf8      	pop	{r3, r4, r5, r6, r7, pc}
 800913c:	f045 557f 	orr.w	r5, r5, #1069547520	; 0x3fc00000
 8009140:	460a      	mov	r2, r1
 8009142:	f445 1340 	orr.w	r3, r5, #3145728	; 0x300000
 8009146:	4610      	mov	r0, r2
 8009148:	4619      	mov	r1, r3
 800914a:	bdf8      	pop	{r3, r4, r5, r6, r7, pc}

0800914c <__d2b>:
 800914c:	e92d 41f0 	stmdb	sp!, {r4, r5, r6, r7, r8, lr}
 8009150:	b082      	sub	sp, #8
 8009152:	2101      	movs	r1, #1
 8009154:	461d      	mov	r5, r3
 8009156:	f3c3 560a 	ubfx	r6, r3, #20, #11
 800915a:	4614      	mov	r4, r2
 800915c:	9f08      	ldr	r7, [sp, #32]
 800915e:	f7ff fc55 	bl	8008a0c <_Balloc>
 8009162:	f3c5 0313 	ubfx	r3, r5, #0, #20
 8009166:	4684      	mov	ip, r0
 8009168:	b10e      	cbz	r6, 800916e <__d2b+0x22>
 800916a:	f443 1380 	orr.w	r3, r3, #1048576	; 0x100000
 800916e:	9301      	str	r3, [sp, #4]
 8009170:	b324      	cbz	r4, 80091bc <__d2b+0x70>
 8009172:	a802      	add	r0, sp, #8
 8009174:	f840 4d08 	str.w	r4, [r0, #-8]!
 8009178:	4668      	mov	r0, sp
 800917a:	f7ff fd49 	bl	8008c10 <__lo0bits>
 800917e:	2800      	cmp	r0, #0
 8009180:	d134      	bne.n	80091ec <__d2b+0xa0>
 8009182:	9b00      	ldr	r3, [sp, #0]
 8009184:	9901      	ldr	r1, [sp, #4]
 8009186:	f8cc 3014 	str.w	r3, [ip, #20]
 800918a:	f8cc 1018 	str.w	r1, [ip, #24]
 800918e:	2900      	cmp	r1, #0
 8009190:	bf0c      	ite	eq
 8009192:	2101      	moveq	r1, #1
 8009194:	2102      	movne	r1, #2
 8009196:	f8cc 1010 	str.w	r1, [ip, #16]
 800919a:	b9de      	cbnz	r6, 80091d4 <__d2b+0x88>
 800919c:	eb0c 0381 	add.w	r3, ip, r1, lsl #2
 80091a0:	f2a0 4032 	subw	r0, r0, #1074	; 0x432
 80091a4:	6038      	str	r0, [r7, #0]
 80091a6:	6918      	ldr	r0, [r3, #16]
 80091a8:	f7ff fd14 	bl	8008bd4 <__hi0bits>
 80091ac:	9b09      	ldr	r3, [sp, #36]	; 0x24
 80091ae:	ebc0 1041 	rsb	r0, r0, r1, lsl #5
 80091b2:	6018      	str	r0, [r3, #0]
 80091b4:	4660      	mov	r0, ip
 80091b6:	b002      	add	sp, #8
 80091b8:	e8bd 81f0 	ldmia.w	sp!, {r4, r5, r6, r7, r8, pc}
 80091bc:	a801      	add	r0, sp, #4
 80091be:	f7ff fd27 	bl	8008c10 <__lo0bits>
 80091c2:	9b01      	ldr	r3, [sp, #4]
 80091c4:	2101      	movs	r1, #1
 80091c6:	f8cc 3014 	str.w	r3, [ip, #20]
 80091ca:	3020      	adds	r0, #32
 80091cc:	f8cc 1010 	str.w	r1, [ip, #16]
 80091d0:	2e00      	cmp	r6, #0
 80091d2:	d0e3      	beq.n	800919c <__d2b+0x50>
 80091d4:	9a09      	ldr	r2, [sp, #36]	; 0x24
 80091d6:	f2a6 4833 	subw	r8, r6, #1075	; 0x433
 80091da:	f1c0 0335 	rsb	r3, r0, #53	; 0x35
 80091de:	4440      	add	r0, r8
 80091e0:	6038      	str	r0, [r7, #0]
 80091e2:	4660      	mov	r0, ip
 80091e4:	6013      	str	r3, [r2, #0]
 80091e6:	b002      	add	sp, #8
 80091e8:	e8bd 81f0 	ldmia.w	sp!, {r4, r5, r6, r7, r8, pc}
 80091ec:	9b01      	ldr	r3, [sp, #4]
 80091ee:	f1c0 0420 	rsb	r4, r0, #32
 80091f2:	9a00      	ldr	r2, [sp, #0]
 80091f4:	fa03 f404 	lsl.w	r4, r3, r4
 80091f8:	40c3      	lsrs	r3, r0
 80091fa:	4322      	orrs	r2, r4
 80091fc:	4619      	mov	r1, r3
 80091fe:	9301      	str	r3, [sp, #4]
 8009200:	f8cc 2014 	str.w	r2, [ip, #20]
 8009204:	e7c1      	b.n	800918a <__d2b+0x3e>
 8009206:	bf00      	nop

08009208 <__ratio>:
 8009208:	e92d 43f0 	stmdb	sp!, {r4, r5, r6, r7, r8, r9, lr}
 800920c:	b083      	sub	sp, #12
 800920e:	4688      	mov	r8, r1
 8009210:	4669      	mov	r1, sp
 8009212:	4606      	mov	r6, r0
 8009214:	f7ff ff44 	bl	80090a0 <__b2d>
 8009218:	460d      	mov	r5, r1
 800921a:	4604      	mov	r4, r0
 800921c:	a901      	add	r1, sp, #4
 800921e:	4640      	mov	r0, r8
 8009220:	f7ff ff3e 	bl	80090a0 <__b2d>
 8009224:	f8d8 e010 	ldr.w	lr, [r8, #16]
 8009228:	462f      	mov	r7, r5
 800922a:	4602      	mov	r2, r0
 800922c:	6930      	ldr	r0, [r6, #16]
 800922e:	460b      	mov	r3, r1
 8009230:	4689      	mov	r9, r1
 8009232:	ebce 0e00 	rsb	lr, lr, r0
 8009236:	e89d 0003 	ldmia.w	sp, {r0, r1}
 800923a:	ebc1 0c00 	rsb	ip, r1, r0
 800923e:	eb0c 114e 	add.w	r1, ip, lr, lsl #5
 8009242:	2900      	cmp	r1, #0
 8009244:	bfc9      	itett	gt
 8009246:	eb05 5701 	addgt.w	r7, r5, r1, lsl #20
 800924a:	eba3 5901 	suble.w	r9, r3, r1, lsl #20
 800924e:	4624      	movgt	r4, r4
 8009250:	463d      	movgt	r5, r7
 8009252:	bfdc      	itt	le
 8009254:	4612      	movle	r2, r2
 8009256:	464b      	movle	r3, r9
 8009258:	4620      	mov	r0, r4
 800925a:	4629      	mov	r1, r5
 800925c:	f002 f884 	bl	800b368 <__aeabi_ddiv>
 8009260:	b003      	add	sp, #12
 8009262:	e8bd 83f0 	ldmia.w	sp!, {r4, r5, r6, r7, r8, r9, pc}
 8009266:	bf00      	nop

08009268 <_mprec_log10>:
 8009268:	2817      	cmp	r0, #23
 800926a:	b510      	push	{r4, lr}
 800926c:	4604      	mov	r4, r0
 800926e:	dd0c      	ble.n	800928a <_mprec_log10+0x22>
 8009270:	2100      	movs	r1, #0
 8009272:	2000      	movs	r0, #0
 8009274:	f6c3 71f0 	movt	r1, #16368	; 0x3ff0
 8009278:	2300      	movs	r3, #0
 800927a:	2200      	movs	r2, #0
 800927c:	f2c4 0324 	movt	r3, #16420	; 0x4024
 8009280:	f001 ff48 	bl	800b114 <__aeabi_dmul>
 8009284:	3c01      	subs	r4, #1
 8009286:	d1f7      	bne.n	8009278 <_mprec_log10+0x10>
 8009288:	bd10      	pop	{r4, pc}
 800928a:	f24c 03a8 	movw	r3, #49320	; 0xc0a8
 800928e:	f6c0 0300 	movt	r3, #2048	; 0x800
 8009292:	eb03 03c0 	add.w	r3, r3, r0, lsl #3
 8009296:	e9d3 0104 	ldrd	r0, r1, [r3, #16]
 800929a:	bd10      	pop	{r4, pc}

0800929c <__copybits>:
 800929c:	b470      	push	{r4, r5, r6}
 800929e:	3901      	subs	r1, #1
 80092a0:	6915      	ldr	r5, [r2, #16]
 80092a2:	f102 0314 	add.w	r3, r2, #20
 80092a6:	114e      	asrs	r6, r1, #5
 80092a8:	3601      	adds	r6, #1
 80092aa:	eb03 0585 	add.w	r5, r3, r5, lsl #2
 80092ae:	42ab      	cmp	r3, r5
 80092b0:	eb00 0686 	add.w	r6, r0, r6, lsl #2
 80092b4:	d20c      	bcs.n	80092d0 <__copybits+0x34>
 80092b6:	4601      	mov	r1, r0
 80092b8:	f853 4b04 	ldr.w	r4, [r3], #4
 80092bc:	429d      	cmp	r5, r3
 80092be:	f841 4b04 	str.w	r4, [r1], #4
 80092c2:	d8f9      	bhi.n	80092b8 <__copybits+0x1c>
 80092c4:	1aab      	subs	r3, r5, r2
 80092c6:	3b15      	subs	r3, #21
 80092c8:	f023 0303 	bic.w	r3, r3, #3
 80092cc:	3304      	adds	r3, #4
 80092ce:	4418      	add	r0, r3
 80092d0:	4286      	cmp	r6, r0
 80092d2:	d904      	bls.n	80092de <__copybits+0x42>
 80092d4:	2300      	movs	r3, #0
 80092d6:	f840 3b04 	str.w	r3, [r0], #4
 80092da:	4286      	cmp	r6, r0
 80092dc:	d8fb      	bhi.n	80092d6 <__copybits+0x3a>
 80092de:	bc70      	pop	{r4, r5, r6}
 80092e0:	4770      	bx	lr
 80092e2:	bf00      	nop

080092e4 <__any_on>:
 80092e4:	6903      	ldr	r3, [r0, #16]
 80092e6:	114a      	asrs	r2, r1, #5
 80092e8:	b410      	push	{r4}
 80092ea:	4293      	cmp	r3, r2
 80092ec:	f100 0414 	add.w	r4, r0, #20
 80092f0:	bfb8      	it	lt
 80092f2:	eb04 0383 	addlt.w	r3, r4, r3, lsl #2
 80092f6:	db13      	blt.n	8009320 <__any_on+0x3c>
 80092f8:	dd10      	ble.n	800931c <__any_on+0x38>
 80092fa:	f011 011f 	ands.w	r1, r1, #31
 80092fe:	d00d      	beq.n	800931c <__any_on+0x38>
 8009300:	f854 0022 	ldr.w	r0, [r4, r2, lsl #2]
 8009304:	eb04 0382 	add.w	r3, r4, r2, lsl #2
 8009308:	fa20 f201 	lsr.w	r2, r0, r1
 800930c:	fa02 f101 	lsl.w	r1, r2, r1
 8009310:	4281      	cmp	r1, r0
 8009312:	d005      	beq.n	8009320 <__any_on+0x3c>
 8009314:	2001      	movs	r0, #1
 8009316:	f85d 4b04 	ldr.w	r4, [sp], #4
 800931a:	4770      	bx	lr
 800931c:	eb04 0382 	add.w	r3, r4, r2, lsl #2
 8009320:	429c      	cmp	r4, r3
 8009322:	d20a      	bcs.n	800933a <__any_on+0x56>
 8009324:	f853 2c04 	ldr.w	r2, [r3, #-4]
 8009328:	3b04      	subs	r3, #4
 800932a:	b122      	cbz	r2, 8009336 <__any_on+0x52>
 800932c:	e7f2      	b.n	8009314 <__any_on+0x30>
 800932e:	f853 2d04 	ldr.w	r2, [r3, #-4]!
 8009332:	2a00      	cmp	r2, #0
 8009334:	d1ee      	bne.n	8009314 <__any_on+0x30>
 8009336:	429c      	cmp	r4, r3
 8009338:	d3f9      	bcc.n	800932e <__any_on+0x4a>
 800933a:	2000      	movs	r0, #0
 800933c:	f85d 4b04 	ldr.w	r4, [sp], #4
 8009340:	4770      	bx	lr
 8009342:	bf00      	nop

08009344 <__fpclassifyd>:
 8009344:	ea50 0301 	orrs.w	r3, r0, r1
 8009348:	d101      	bne.n	800934e <__fpclassifyd+0xa>
 800934a:	2002      	movs	r0, #2
 800934c:	4770      	bx	lr
 800934e:	f1d0 0301 	rsbs	r3, r0, #1
 8009352:	bf38      	it	cc
 8009354:	2300      	movcc	r3, #0
 8009356:	f1b1 4f00 	cmp.w	r1, #2147483648	; 0x80000000
 800935a:	bf08      	it	eq
 800935c:	2800      	cmpeq	r0, #0
 800935e:	d0f4      	beq.n	800934a <__fpclassifyd+0x6>
 8009360:	f021 4100 	bic.w	r1, r1, #2147483648	; 0x80000000
 8009364:	f64f 72ff 	movw	r2, #65535	; 0xffff
 8009368:	f5a1 1080 	sub.w	r0, r1, #1048576	; 0x100000
 800936c:	f6c7 72df 	movt	r2, #32735	; 0x7fdf
 8009370:	4290      	cmp	r0, r2
 8009372:	d801      	bhi.n	8009378 <__fpclassifyd+0x34>
 8009374:	2004      	movs	r0, #4
 8009376:	4770      	bx	lr
 8009378:	f5b1 1f80 	cmp.w	r1, #1048576	; 0x100000
 800937c:	d201      	bcs.n	8009382 <__fpclassifyd+0x3e>
 800937e:	2003      	movs	r0, #3
 8009380:	4770      	bx	lr
 8009382:	2000      	movs	r0, #0
 8009384:	f6c7 70f0 	movt	r0, #32752	; 0x7ff0
 8009388:	4281      	cmp	r1, r0
 800938a:	bf14      	ite	ne
 800938c:	2000      	movne	r0, #0
 800938e:	f003 0001 	andeq.w	r0, r3, #1
 8009392:	4770      	bx	lr

08009394 <_sbrk_r>:
 8009394:	b538      	push	{r3, r4, r5, lr}
 8009396:	f642 7490 	movw	r4, #12176	; 0x2f90
 800939a:	f2c2 0400 	movt	r4, #8192	; 0x2000
 800939e:	4605      	mov	r5, r0
 80093a0:	4608      	mov	r0, r1
 80093a2:	2300      	movs	r3, #0
 80093a4:	6023      	str	r3, [r4, #0]
 80093a6:	f7fb fd69 	bl	8004e7c <_sbrk>
 80093aa:	1c43      	adds	r3, r0, #1
 80093ac:	d000      	beq.n	80093b0 <_sbrk_r+0x1c>
 80093ae:	bd38      	pop	{r3, r4, r5, pc}
 80093b0:	6823      	ldr	r3, [r4, #0]
 80093b2:	2b00      	cmp	r3, #0
 80093b4:	d0fb      	beq.n	80093ae <_sbrk_r+0x1a>
 80093b6:	602b      	str	r3, [r5, #0]
 80093b8:	bd38      	pop	{r3, r4, r5, pc}
 80093ba:	bf00      	nop

080093bc <strcmp>:
 80093bc:	ea40 0c01 	orr.w	ip, r0, r1
 80093c0:	f01c 0f07 	tst.w	ip, #7
 80093c4:	d127      	bne.n	8009416 <strcmp+0x5a>
 80093c6:	f1bd 0d10 	subs.w	sp, sp, #16
 80093ca:	e9cd 4502 	strd	r4, r5, [sp, #8]
 80093ce:	e9cd 6700 	strd	r6, r7, [sp]
 80093d2:	f06f 0600 	mvn.w	r6, #0
 80093d6:	f04f 0700 	mov.w	r7, #0
 80093da:	bf00      	nop
 80093dc:	e8f0 2302 	ldrd	r2, r3, [r0], #8
 80093e0:	e8f1 4502 	ldrd	r4, r5, [r1], #8
 80093e4:	42a2      	cmp	r2, r4
 80093e6:	f1a2 3c01 	sub.w	ip, r2, #16843009	; 0x1010101
 80093ea:	ea2c 0c02 	bic.w	ip, ip, r2
 80093ee:	f00c 3c80 	and.w	ip, ip, #2155905152	; 0x80808080
 80093f2:	bf08      	it	eq
 80093f4:	f1bc 0f00 	cmpeq.w	ip, #0
 80093f8:	f040 80e5 	bne.w	80095c6 <strcmp+0x20a>
 80093fc:	42ab      	cmp	r3, r5
 80093fe:	f1a3 3c01 	sub.w	ip, r3, #16843009	; 0x1010101
 8009402:	ea2c 0c03 	bic.w	ip, ip, r3
 8009406:	f00c 3c80 	and.w	ip, ip, #2155905152	; 0x80808080
 800940a:	bf08      	it	eq
 800940c:	f1bc 0f00 	cmpeq.w	ip, #0
 8009410:	f040 80d6 	bne.w	80095c0 <strcmp+0x204>
 8009414:	e7e2      	b.n	80093dc <strcmp+0x20>
 8009416:	f010 0c03 	ands.w	ip, r0, #3
 800941a:	d021      	beq.n	8009460 <strcmp+0xa4>
 800941c:	f020 0003 	bic.w	r0, r0, #3
 8009420:	f850 2b04 	ldr.w	r2, [r0], #4
 8009424:	ea5f 7ccc 	movs.w	ip, ip, lsl #31
 8009428:	d008      	beq.n	800943c <strcmp+0x80>
 800942a:	d20f      	bcs.n	800944c <strcmp+0x90>
 800942c:	f811 cb01 	ldrb.w	ip, [r1], #1
 8009430:	fa5f f392 	uxtb.w	r3, r2, ror #8
 8009434:	ebb3 0c0c 	subs.w	ip, r3, ip
 8009438:	d110      	bne.n	800945c <strcmp+0xa0>
 800943a:	b17b      	cbz	r3, 800945c <strcmp+0xa0>
 800943c:	f811 cb01 	ldrb.w	ip, [r1], #1
 8009440:	fa5f f3a2 	uxtb.w	r3, r2, ror #16
 8009444:	ebb3 0c0c 	subs.w	ip, r3, ip
 8009448:	d108      	bne.n	800945c <strcmp+0xa0>
 800944a:	b13b      	cbz	r3, 800945c <strcmp+0xa0>
 800944c:	f811 cb01 	ldrb.w	ip, [r1], #1
 8009450:	fa5f f3b2 	uxtb.w	r3, r2, ror #24
 8009454:	ebb3 0c0c 	subs.w	ip, r3, ip
 8009458:	d100      	bne.n	800945c <strcmp+0xa0>
 800945a:	b90b      	cbnz	r3, 8009460 <strcmp+0xa4>
 800945c:	4660      	mov	r0, ip
 800945e:	4770      	bx	lr
 8009460:	f1bd 0d10 	subs.w	sp, sp, #16
 8009464:	e9cd 4502 	strd	r4, r5, [sp, #8]
 8009468:	e9cd 6700 	strd	r6, r7, [sp]
 800946c:	f06f 0600 	mvn.w	r6, #0
 8009470:	f04f 0700 	mov.w	r7, #0
 8009474:	f011 0c03 	ands.w	ip, r1, #3
 8009478:	d133      	bne.n	80094e2 <strcmp+0x126>
 800947a:	f010 0f04 	tst.w	r0, #4
 800947e:	d00f      	beq.n	80094a0 <strcmp+0xe4>
 8009480:	f850 2b04 	ldr.w	r2, [r0], #4
 8009484:	f851 4b04 	ldr.w	r4, [r1], #4
 8009488:	42a2      	cmp	r2, r4
 800948a:	f1a2 3c01 	sub.w	ip, r2, #16843009	; 0x1010101
 800948e:	ea2c 0c02 	bic.w	ip, ip, r2
 8009492:	f00c 3c80 	and.w	ip, ip, #2155905152	; 0x80808080
 8009496:	bf08      	it	eq
 8009498:	f1bc 0f00 	cmpeq.w	ip, #0
 800949c:	f040 8093 	bne.w	80095c6 <strcmp+0x20a>
 80094a0:	f011 0f04 	tst.w	r1, #4
 80094a4:	d099      	beq.n	80093da <strcmp+0x1e>
 80094a6:	f851 5b04 	ldr.w	r5, [r1], #4
 80094aa:	bf00      	nop
 80094ac:	e8f0 2302 	ldrd	r2, r3, [r0], #8
 80094b0:	42aa      	cmp	r2, r5
 80094b2:	f1a2 3c01 	sub.w	ip, r2, #16843009	; 0x1010101
 80094b6:	ea2c 0c02 	bic.w	ip, ip, r2
 80094ba:	f00c 3c80 	and.w	ip, ip, #2155905152	; 0x80808080
 80094be:	bf08      	it	eq
 80094c0:	f1bc 0f00 	cmpeq.w	ip, #0
 80094c4:	d179      	bne.n	80095ba <strcmp+0x1fe>
 80094c6:	e8f1 4502 	ldrd	r4, r5, [r1], #8
 80094ca:	42a3      	cmp	r3, r4
 80094cc:	f1a3 3c01 	sub.w	ip, r3, #16843009	; 0x1010101
 80094d0:	ea2c 0c03 	bic.w	ip, ip, r3
 80094d4:	f00c 3c80 	and.w	ip, ip, #2155905152	; 0x80808080
 80094d8:	bf08      	it	eq
 80094da:	f1bc 0f00 	cmpeq.w	ip, #0
 80094de:	d169      	bne.n	80095b4 <strcmp+0x1f8>
 80094e0:	e7e4      	b.n	80094ac <strcmp+0xf0>
 80094e2:	f021 0103 	bic.w	r1, r1, #3
 80094e6:	f1bc 0f02 	cmp.w	ip, #2
 80094ea:	d020      	beq.n	800952e <strcmp+0x172>
 80094ec:	da3f      	bge.n	800956e <strcmp+0x1b2>
 80094ee:	f851 5b04 	ldr.w	r5, [r1], #4
 80094f2:	bf00      	nop
 80094f4:	f850 3b04 	ldr.w	r3, [r0], #4
 80094f8:	ea4f 2515 	mov.w	r5, r5, lsr #8
 80094fc:	f1a3 3c01 	sub.w	ip, r3, #16843009	; 0x1010101
 8009500:	ea2c 0c03 	bic.w	ip, ip, r3
 8009504:	f00c 3c80 	and.w	ip, ip, #2155905152	; 0x80808080
 8009508:	ebb7 2f0c 	cmp.w	r7, ip, lsl #8
 800950c:	ea03 2216 	and.w	r2, r3, r6, lsr #8
 8009510:	bf08      	it	eq
 8009512:	42aa      	cmpeq	r2, r5
 8009514:	d151      	bne.n	80095ba <strcmp+0x1fe>
 8009516:	f851 5b04 	ldr.w	r5, [r1], #4
 800951a:	f1bc 0f00 	cmp.w	ip, #0
 800951e:	ea82 0303 	eor.w	r3, r2, r3
 8009522:	ea4f 6205 	mov.w	r2, r5, lsl #24
 8009526:	bf08      	it	eq
 8009528:	4293      	cmpeq	r3, r2
 800952a:	d140      	bne.n	80095ae <strcmp+0x1f2>
 800952c:	e7e2      	b.n	80094f4 <strcmp+0x138>
 800952e:	f851 5b04 	ldr.w	r5, [r1], #4
 8009532:	bf00      	nop
 8009534:	f850 3b04 	ldr.w	r3, [r0], #4
 8009538:	ea4f 4515 	mov.w	r5, r5, lsr #16
 800953c:	f1a3 3c01 	sub.w	ip, r3, #16843009	; 0x1010101
 8009540:	ea2c 0c03 	bic.w	ip, ip, r3
 8009544:	f00c 3c80 	and.w	ip, ip, #2155905152	; 0x80808080
 8009548:	ebb7 4f0c 	cmp.w	r7, ip, lsl #16
 800954c:	ea03 4216 	and.w	r2, r3, r6, lsr #16
 8009550:	bf08      	it	eq
 8009552:	42aa      	cmpeq	r2, r5
 8009554:	d131      	bne.n	80095ba <strcmp+0x1fe>
 8009556:	f851 5b04 	ldr.w	r5, [r1], #4
 800955a:	f1bc 0f00 	cmp.w	ip, #0
 800955e:	ea82 0303 	eor.w	r3, r2, r3
 8009562:	ea4f 4205 	mov.w	r2, r5, lsl #16
 8009566:	bf08      	it	eq
 8009568:	4293      	cmpeq	r3, r2
 800956a:	d120      	bne.n	80095ae <strcmp+0x1f2>
 800956c:	e7e2      	b.n	8009534 <strcmp+0x178>
 800956e:	f851 5b04 	ldr.w	r5, [r1], #4
 8009572:	bf00      	nop
 8009574:	f850 3b04 	ldr.w	r3, [r0], #4
 8009578:	ea4f 6515 	mov.w	r5, r5, lsr #24
 800957c:	f1a3 3c01 	sub.w	ip, r3, #16843009	; 0x1010101
 8009580:	ea2c 0c03 	bic.w	ip, ip, r3
 8009584:	f00c 3c80 	and.w	ip, ip, #2155905152	; 0x80808080
 8009588:	ebb7 6f0c 	cmp.w	r7, ip, lsl #24
 800958c:	ea03 6216 	and.w	r2, r3, r6, lsr #24
 8009590:	bf08      	it	eq
 8009592:	42aa      	cmpeq	r2, r5
 8009594:	d111      	bne.n	80095ba <strcmp+0x1fe>
 8009596:	f851 5b04 	ldr.w	r5, [r1], #4
 800959a:	f1bc 0f00 	cmp.w	ip, #0
 800959e:	ea82 0303 	eor.w	r3, r2, r3
 80095a2:	ea4f 2205 	mov.w	r2, r5, lsl #8
 80095a6:	bf08      	it	eq
 80095a8:	4293      	cmpeq	r3, r2
 80095aa:	d100      	bne.n	80095ae <strcmp+0x1f2>
 80095ac:	e7e2      	b.n	8009574 <strcmp+0x1b8>
 80095ae:	ba19      	rev	r1, r3
 80095b0:	ba12      	rev	r2, r2
 80095b2:	e00a      	b.n	80095ca <strcmp+0x20e>
 80095b4:	ba19      	rev	r1, r3
 80095b6:	ba22      	rev	r2, r4
 80095b8:	e007      	b.n	80095ca <strcmp+0x20e>
 80095ba:	ba11      	rev	r1, r2
 80095bc:	ba2a      	rev	r2, r5
 80095be:	e004      	b.n	80095ca <strcmp+0x20e>
 80095c0:	ba19      	rev	r1, r3
 80095c2:	ba2a      	rev	r2, r5
 80095c4:	e001      	b.n	80095ca <strcmp+0x20e>
 80095c6:	ba11      	rev	r1, r2
 80095c8:	ba22      	rev	r2, r4
 80095ca:	fa9c f08c 	rev.w	r0, ip
 80095ce:	e9dd 6700 	ldrd	r6, r7, [sp]
 80095d2:	e9dd 4502 	ldrd	r4, r5, [sp, #8]
 80095d6:	f11d 0d10 	adds.w	sp, sp, #16
 80095da:	b138      	cbz	r0, 80095ec <strcmp+0x230>
 80095dc:	fab0 f080 	clz	r0, r0
 80095e0:	f1c0 0018 	rsb	r0, r0, #24
 80095e4:	fa21 f100 	lsr.w	r1, r1, r0
 80095e8:	fa22 f200 	lsr.w	r2, r2, r0
 80095ec:	2001      	movs	r0, #1
 80095ee:	4291      	cmp	r1, r2
 80095f0:	bf98      	it	ls
 80095f2:	4180      	sbcls	r0, r0
 80095f4:	4770      	bx	lr
 80095f6:	bf00      	nop

080095f8 <strlen>:
 80095f8:	f020 0103 	bic.w	r1, r0, #3
 80095fc:	f010 0003 	ands.w	r0, r0, #3
 8009600:	f1c0 0000 	rsb	r0, r0, #0
 8009604:	f851 3b04 	ldr.w	r3, [r1], #4
 8009608:	f100 0c04 	add.w	ip, r0, #4
 800960c:	ea4f 0ccc 	mov.w	ip, ip, lsl #3
 8009610:	f06f 0200 	mvn.w	r2, #0
 8009614:	bf1c      	itt	ne
 8009616:	fa22 f20c 	lsrne.w	r2, r2, ip
 800961a:	4313      	orrne	r3, r2
 800961c:	f04f 0c01 	mov.w	ip, #1
 8009620:	ea4c 2c0c 	orr.w	ip, ip, ip, lsl #8
 8009624:	ea4c 4c0c 	orr.w	ip, ip, ip, lsl #16
 8009628:	eba3 020c 	sub.w	r2, r3, ip
 800962c:	ea22 0203 	bic.w	r2, r2, r3
 8009630:	ea12 12cc 	ands.w	r2, r2, ip, lsl #7
 8009634:	bf04      	itt	eq
 8009636:	f851 3b04 	ldreq.w	r3, [r1], #4
 800963a:	3004      	addeq	r0, #4
 800963c:	d0f4      	beq.n	8009628 <strlen+0x30>
 800963e:	f013 0fff 	tst.w	r3, #255	; 0xff
 8009642:	bf1f      	itttt	ne
 8009644:	3001      	addne	r0, #1
 8009646:	f413 4f7f 	tstne.w	r3, #65280	; 0xff00
 800964a:	3001      	addne	r0, #1
 800964c:	f413 0f7f 	tstne.w	r3, #16711680	; 0xff0000
 8009650:	bf18      	it	ne
 8009652:	3001      	addne	r0, #1
 8009654:	4770      	bx	lr
 8009656:	bf00      	nop

08009658 <__ssprint_r>:
 8009658:	e92d 4ff0 	stmdb	sp!, {r4, r5, r6, r7, r8, r9, sl, fp, lr}
 800965c:	4692      	mov	sl, r2
 800965e:	6894      	ldr	r4, [r2, #8]
 8009660:	b083      	sub	sp, #12
 8009662:	4680      	mov	r8, r0
 8009664:	460d      	mov	r5, r1
 8009666:	6816      	ldr	r6, [r2, #0]
 8009668:	2c00      	cmp	r4, #0
 800966a:	d071      	beq.n	8009750 <__ssprint_r+0xf8>
 800966c:	f04f 0b00 	mov.w	fp, #0
 8009670:	6808      	ldr	r0, [r1, #0]
 8009672:	688b      	ldr	r3, [r1, #8]
 8009674:	465c      	mov	r4, fp
 8009676:	2c00      	cmp	r4, #0
 8009678:	d045      	beq.n	8009706 <__ssprint_r+0xae>
 800967a:	429c      	cmp	r4, r3
 800967c:	461f      	mov	r7, r3
 800967e:	d348      	bcc.n	8009712 <__ssprint_r+0xba>
 8009680:	89ab      	ldrh	r3, [r5, #12]
 8009682:	f413 6f90 	tst.w	r3, #1152	; 0x480
 8009686:	bf08      	it	eq
 8009688:	46b9      	moveq	r9, r7
 800968a:	d02c      	beq.n	80096e6 <__ssprint_r+0x8e>
 800968c:	696f      	ldr	r7, [r5, #20]
 800968e:	1c62      	adds	r2, r4, #1
 8009690:	6929      	ldr	r1, [r5, #16]
 8009692:	eb07 0947 	add.w	r9, r7, r7, lsl #1
 8009696:	1a47      	subs	r7, r0, r1
 8009698:	443a      	add	r2, r7
 800969a:	eb09 79d9 	add.w	r9, r9, r9, lsr #31
 800969e:	ea4f 0969 	mov.w	r9, r9, asr #1
 80096a2:	4591      	cmp	r9, r2
 80096a4:	bf34      	ite	cc
 80096a6:	4691      	movcc	r9, r2
 80096a8:	464a      	movcs	r2, r9
 80096aa:	055b      	lsls	r3, r3, #21
 80096ac:	d534      	bpl.n	8009718 <__ssprint_r+0xc0>
 80096ae:	4611      	mov	r1, r2
 80096b0:	4640      	mov	r0, r8
 80096b2:	f7fe fe53 	bl	800835c <_malloc_r>
 80096b6:	2800      	cmp	r0, #0
 80096b8:	d038      	beq.n	800972c <__ssprint_r+0xd4>
 80096ba:	6929      	ldr	r1, [r5, #16]
 80096bc:	463a      	mov	r2, r7
 80096be:	9001      	str	r0, [sp, #4]
 80096c0:	f7ff f94c 	bl	800895c <memcpy>
 80096c4:	89aa      	ldrh	r2, [r5, #12]
 80096c6:	9b01      	ldr	r3, [sp, #4]
 80096c8:	f422 6290 	bic.w	r2, r2, #1152	; 0x480
 80096cc:	f042 0280 	orr.w	r2, r2, #128	; 0x80
 80096d0:	81aa      	strh	r2, [r5, #12]
 80096d2:	19d8      	adds	r0, r3, r7
 80096d4:	f8c5 9014 	str.w	r9, [r5, #20]
 80096d8:	ebc7 0709 	rsb	r7, r7, r9
 80096dc:	46a1      	mov	r9, r4
 80096de:	60af      	str	r7, [r5, #8]
 80096e0:	4627      	mov	r7, r4
 80096e2:	612b      	str	r3, [r5, #16]
 80096e4:	6028      	str	r0, [r5, #0]
 80096e6:	464a      	mov	r2, r9
 80096e8:	4659      	mov	r1, fp
 80096ea:	f000 fef5 	bl	800a4d8 <memmove>
 80096ee:	f8da 2008 	ldr.w	r2, [sl, #8]
 80096f2:	68ab      	ldr	r3, [r5, #8]
 80096f4:	6828      	ldr	r0, [r5, #0]
 80096f6:	1b14      	subs	r4, r2, r4
 80096f8:	1bdb      	subs	r3, r3, r7
 80096fa:	60ab      	str	r3, [r5, #8]
 80096fc:	4448      	add	r0, r9
 80096fe:	6028      	str	r0, [r5, #0]
 8009700:	f8ca 4008 	str.w	r4, [sl, #8]
 8009704:	b324      	cbz	r4, 8009750 <__ssprint_r+0xf8>
 8009706:	f8d6 b000 	ldr.w	fp, [r6]
 800970a:	3608      	adds	r6, #8
 800970c:	f856 4c04 	ldr.w	r4, [r6, #-4]
 8009710:	e7b1      	b.n	8009676 <__ssprint_r+0x1e>
 8009712:	4627      	mov	r7, r4
 8009714:	46a1      	mov	r9, r4
 8009716:	e7e6      	b.n	80096e6 <__ssprint_r+0x8e>
 8009718:	4640      	mov	r0, r8
 800971a:	f000 ff95 	bl	800a648 <_realloc_r>
 800971e:	4603      	mov	r3, r0
 8009720:	2800      	cmp	r0, #0
 8009722:	d1d6      	bne.n	80096d2 <__ssprint_r+0x7a>
 8009724:	4640      	mov	r0, r8
 8009726:	6929      	ldr	r1, [r5, #16]
 8009728:	f000 fe0a 	bl	800a340 <_free_r>
 800972c:	89aa      	ldrh	r2, [r5, #12]
 800972e:	f04f 34ff 	mov.w	r4, #4294967295
 8009732:	230c      	movs	r3, #12
 8009734:	4620      	mov	r0, r4
 8009736:	f8c8 3000 	str.w	r3, [r8]
 800973a:	f042 0240 	orr.w	r2, r2, #64	; 0x40
 800973e:	2300      	movs	r3, #0
 8009740:	81aa      	strh	r2, [r5, #12]
 8009742:	f8ca 3008 	str.w	r3, [sl, #8]
 8009746:	f8ca 3004 	str.w	r3, [sl, #4]
 800974a:	b003      	add	sp, #12
 800974c:	e8bd 8ff0 	ldmia.w	sp!, {r4, r5, r6, r7, r8, r9, sl, fp, pc}
 8009750:	4620      	mov	r0, r4
 8009752:	f8ca 4004 	str.w	r4, [sl, #4]
 8009756:	b003      	add	sp, #12
 8009758:	e8bd 8ff0 	ldmia.w	sp!, {r4, r5, r6, r7, r8, r9, sl, fp, pc}

0800975c <_svfiprintf_r>:
 800975c:	e92d 4ff0 	stmdb	sp!, {r4, r5, r6, r7, r8, r9, sl, fp, lr}
 8009760:	b0b3      	sub	sp, #204	; 0xcc
 8009762:	4692      	mov	sl, r2
 8009764:	930b      	str	r3, [sp, #44]	; 0x2c
 8009766:	898b      	ldrh	r3, [r1, #12]
 8009768:	9108      	str	r1, [sp, #32]
 800976a:	061a      	lsls	r2, r3, #24
 800976c:	9005      	str	r0, [sp, #20]
 800976e:	d503      	bpl.n	8009778 <_svfiprintf_r+0x1c>
 8009770:	690b      	ldr	r3, [r1, #16]
 8009772:	2b00      	cmp	r3, #0
 8009774:	f000 8522 	beq.w	800a1bc <_svfiprintf_r+0xa60>
 8009778:	f10d 0888 	add.w	r8, sp, #136	; 0x88
 800977c:	f24c 15d0 	movw	r5, #49616	; 0xc1d0
 8009780:	4646      	mov	r6, r8
 8009782:	f6c0 0500 	movt	r5, #2048	; 0x800
 8009786:	f10d 0487 	add.w	r4, sp, #135	; 0x87
 800978a:	2300      	movs	r3, #0
 800978c:	950d      	str	r5, [sp, #52]	; 0x34
 800978e:	f105 0710 	add.w	r7, r5, #16
 8009792:	930e      	str	r3, [sp, #56]	; 0x38
 8009794:	ebc4 0508 	rsb	r5, r4, r8
 8009798:	9401      	str	r4, [sp, #4]
 800979a:	930a      	str	r3, [sp, #40]	; 0x28
 800979c:	9511      	str	r5, [sp, #68]	; 0x44
 800979e:	9317      	str	r3, [sp, #92]	; 0x5c
 80097a0:	9316      	str	r3, [sp, #88]	; 0x58
 80097a2:	f8cd 8054 	str.w	r8, [sp, #84]	; 0x54
 80097a6:	f89a 3000 	ldrb.w	r3, [sl]
 80097aa:	2b00      	cmp	r3, #0
 80097ac:	bf18      	it	ne
 80097ae:	2b25      	cmpne	r3, #37	; 0x25
 80097b0:	f000 83ca 	beq.w	8009f48 <_svfiprintf_r+0x7ec>
 80097b4:	f10a 0201 	add.w	r2, sl, #1
 80097b8:	4614      	mov	r4, r2
 80097ba:	3201      	adds	r2, #1
 80097bc:	7823      	ldrb	r3, [r4, #0]
 80097be:	2b25      	cmp	r3, #37	; 0x25
 80097c0:	bf18      	it	ne
 80097c2:	2b00      	cmpne	r3, #0
 80097c4:	d1f8      	bne.n	80097b8 <_svfiprintf_r+0x5c>
 80097c6:	ebb4 050a 	subs.w	r5, r4, sl
 80097ca:	d010      	beq.n	80097ee <_svfiprintf_r+0x92>
 80097cc:	9b16      	ldr	r3, [sp, #88]	; 0x58
 80097ce:	9a17      	ldr	r2, [sp, #92]	; 0x5c
 80097d0:	3301      	adds	r3, #1
 80097d2:	f8c6 a000 	str.w	sl, [r6]
 80097d6:	2b07      	cmp	r3, #7
 80097d8:	6075      	str	r5, [r6, #4]
 80097da:	442a      	add	r2, r5
 80097dc:	9316      	str	r3, [sp, #88]	; 0x58
 80097de:	9217      	str	r2, [sp, #92]	; 0x5c
 80097e0:	bfd8      	it	le
 80097e2:	3608      	addle	r6, #8
 80097e4:	f300 8436 	bgt.w	800a054 <_svfiprintf_r+0x8f8>
 80097e8:	980a      	ldr	r0, [sp, #40]	; 0x28
 80097ea:	4428      	add	r0, r5
 80097ec:	900a      	str	r0, [sp, #40]	; 0x28
 80097ee:	7823      	ldrb	r3, [r4, #0]
 80097f0:	2b00      	cmp	r3, #0
 80097f2:	f000 83bc 	beq.w	8009f6e <_svfiprintf_r+0x812>
 80097f6:	2300      	movs	r3, #0
 80097f8:	f104 0a01 	add.w	sl, r4, #1
 80097fc:	4619      	mov	r1, r3
 80097fe:	f88d 304f 	strb.w	r3, [sp, #79]	; 0x4f
 8009802:	4608      	mov	r0, r1
 8009804:	9304      	str	r3, [sp, #16]
 8009806:	9302      	str	r3, [sp, #8]
 8009808:	7863      	ldrb	r3, [r4, #1]
 800980a:	f04f 34ff 	mov.w	r4, #4294967295
 800980e:	9403      	str	r4, [sp, #12]
 8009810:	f10a 0a01 	add.w	sl, sl, #1
 8009814:	f1a3 0220 	sub.w	r2, r3, #32
 8009818:	2a58      	cmp	r2, #88	; 0x58
 800981a:	f200 82b5 	bhi.w	8009d88 <_svfiprintf_r+0x62c>
 800981e:	e8df f012 	tbh	[pc, r2, lsl #1]
 8009822:	02b302a3 	adcseq	r0, r3, #805306378	; 0x3000000a
 8009826:	02aa02b3 	adceq	r0, sl, #805306379	; 0x3000000b
 800982a:	02b302b3 	adcseq	r0, r3, #805306379	; 0x3000000b
 800982e:	02b302b3 	adcseq	r0, r3, #805306379	; 0x3000000b
 8009832:	02b302b3 	adcseq	r0, r3, #805306379	; 0x3000000b
 8009836:	02850059 	addeq	r0, r5, #89	; 0x59
 800983a:	006102b3 	strhteq	r0, [r1], #-35	; 0xffffffdd
 800983e:	02b3020c 	adcseq	r0, r3, #12, 4	; 0xc0000000
 8009842:	01f70205 	mvnseq	r0, r5, lsl #4
 8009846:	01f701f7 	ldrsheq	r0, [r7, #23]!
 800984a:	01f701f7 	ldrsheq	r0, [r7, #23]!
 800984e:	01f701f7 	ldrsheq	r0, [r7, #23]!
 8009852:	01f701f7 	ldrsheq	r0, [r7, #23]!
 8009856:	02b302b3 	adcseq	r0, r3, #805306379	; 0x3000000b
 800985a:	02b302b3 	adcseq	r0, r3, #805306379	; 0x3000000b
 800985e:	02b302b3 	adcseq	r0, r3, #805306379	; 0x3000000b
 8009862:	02b302b3 	adcseq	r0, r3, #805306379	; 0x3000000b
 8009866:	02b302b3 	adcseq	r0, r3, #805306379	; 0x3000000b
 800986a:	02b301dc 	adcseq	r0, r3, #220, 2	; 0x37
 800986e:	02b302b3 	adcseq	r0, r3, #805306379	; 0x3000000b
 8009872:	02b302b3 	adcseq	r0, r3, #805306379	; 0x3000000b
 8009876:	02b302b3 	adcseq	r0, r3, #805306379	; 0x3000000b
 800987a:	02b302b3 	adcseq	r0, r3, #805306379	; 0x3000000b
 800987e:	026902b3 	rsbeq	r0, r9, #805306379	; 0x3000000b
 8009882:	02b302b3 	adcseq	r0, r3, #805306379	; 0x3000000b
 8009886:	02b302b3 	adcseq	r0, r3, #805306379	; 0x3000000b
 800988a:	022c02b3 	eoreq	r0, ip, #805306379	; 0x3000000b
 800988e:	02b302b3 	adcseq	r0, r3, #805306379	; 0x3000000b
 8009892:	02b30245 	adcseq	r0, r3, #1342177284	; 0x50000004
 8009896:	02b302b3 	adcseq	r0, r3, #805306379	; 0x3000000b
 800989a:	02b302b3 	adcseq	r0, r3, #805306379	; 0x3000000b
 800989e:	02b302b3 	adcseq	r0, r3, #805306379	; 0x3000000b
 80098a2:	02b302b3 	adcseq	r0, r3, #805306379	; 0x3000000b
 80098a6:	01ca02b3 	strheq	r0, [sl, #35]	; 0x23
 80098aa:	02b301b0 	adcseq	r0, r3, #176, 2	; 0x2c
 80098ae:	02b302b3 	adcseq	r0, r3, #805306379	; 0x3000000b
 80098b2:	01b001a9 	lsrseq	r0, r9, #3
 80098b6:	02b302b3 	adcseq	r0, r3, #805306379	; 0x3000000b
 80098ba:	02b30197 	adcseq	r0, r3, #-1073741787	; 0xc0000025
 80098be:	01310185 	teqeq	r1, r5, lsl #3
 80098c2:	017e0142 	cmneq	lr, r2, asr #2
 80098c6:	015902b3 	ldrheq	r0, [r9, #-35]	; 0xffffffdd
 80098ca:	006802b3 	strhteq	r0, [r8], #-35	; 0xffffffdd
 80098ce:	02b302b3 	adcseq	r0, r3, #805306379	; 0x3000000b
 80098d2:	9c0b0289 	sfmls	f0, 4, [fp], {137}	; 0x89
 80098d6:	1d23      	adds	r3, r4, #4
 80098d8:	6820      	ldr	r0, [r4, #0]
 80098da:	2800      	cmp	r0, #0
 80098dc:	f280 8400 	bge.w	800a0e0 <_svfiprintf_r+0x984>
 80098e0:	4240      	negs	r0, r0
 80098e2:	930b      	str	r3, [sp, #44]	; 0x2c
 80098e4:	9d02      	ldr	r5, [sp, #8]
 80098e6:	f045 0504 	orr.w	r5, r5, #4
 80098ea:	9502      	str	r5, [sp, #8]
 80098ec:	f89a 3000 	ldrb.w	r3, [sl]
 80098f0:	e78e      	b.n	8009810 <_svfiprintf_r+0xb4>
 80098f2:	9d02      	ldr	r5, [sp, #8]
 80098f4:	9004      	str	r0, [sp, #16]
 80098f6:	06aa      	lsls	r2, r5, #26
 80098f8:	f140 81c8 	bpl.w	8009c8c <_svfiprintf_r+0x530>
 80098fc:	9c0b      	ldr	r4, [sp, #44]	; 0x2c
 80098fe:	2301      	movs	r3, #1
 8009900:	1de2      	adds	r2, r4, #7
 8009902:	f022 0207 	bic.w	r2, r2, #7
 8009906:	f102 0508 	add.w	r5, r2, #8
 800990a:	950b      	str	r5, [sp, #44]	; 0x2c
 800990c:	e9d2 4500 	ldrd	r4, r5, [r2]
 8009910:	f04f 0c00 	mov.w	ip, #0
 8009914:	f88d c04f 	strb.w	ip, [sp, #79]	; 0x4f
 8009918:	9a03      	ldr	r2, [sp, #12]
 800991a:	2a00      	cmp	r2, #0
 800991c:	bfa2      	ittt	ge
 800991e:	9802      	ldrge	r0, [sp, #8]
 8009920:	f020 0080 	bicge.w	r0, r0, #128	; 0x80
 8009924:	9002      	strge	r0, [sp, #8]
 8009926:	ea54 0105 	orrs.w	r1, r4, r5
 800992a:	9803      	ldr	r0, [sp, #12]
 800992c:	bf0c      	ite	eq
 800992e:	2200      	moveq	r2, #0
 8009930:	2201      	movne	r2, #1
 8009932:	2800      	cmp	r0, #0
 8009934:	bf18      	it	ne
 8009936:	f042 0201 	orrne.w	r2, r2, #1
 800993a:	2a00      	cmp	r2, #0
 800993c:	f000 8306 	beq.w	8009f4c <_svfiprintf_r+0x7f0>
 8009940:	2b01      	cmp	r3, #1
 8009942:	f000 83ab 	beq.w	800a09c <_svfiprintf_r+0x940>
 8009946:	2b02      	cmp	r3, #2
 8009948:	f10d 0287 	add.w	r2, sp, #135	; 0x87
 800994c:	d179      	bne.n	8009a42 <_svfiprintf_r+0x2e6>
 800994e:	f8dd b038 	ldr.w	fp, [sp, #56]	; 0x38
 8009952:	f004 010f 	and.w	r1, r4, #15
 8009956:	0923      	lsrs	r3, r4, #4
 8009958:	ea43 7305 	orr.w	r3, r3, r5, lsl #28
 800995c:	0928      	lsrs	r0, r5, #4
 800995e:	f81b 1001 	ldrb.w	r1, [fp, r1]
 8009962:	461c      	mov	r4, r3
 8009964:	4605      	mov	r5, r0
 8009966:	4691      	mov	r9, r2
 8009968:	ea54 0005 	orrs.w	r0, r4, r5
 800996c:	f102 32ff 	add.w	r2, r2, #4294967295
 8009970:	f889 1000 	strb.w	r1, [r9]
 8009974:	d1ed      	bne.n	8009952 <_svfiprintf_r+0x1f6>
 8009976:	ebc9 0308 	rsb	r3, r9, r8
 800997a:	9306      	str	r3, [sp, #24]
 800997c:	9c06      	ldr	r4, [sp, #24]
 800997e:	9d03      	ldr	r5, [sp, #12]
 8009980:	42ac      	cmp	r4, r5
 8009982:	bfb8      	it	lt
 8009984:	462c      	movlt	r4, r5
 8009986:	f1bc 0f00 	cmp.w	ip, #0
 800998a:	d000      	beq.n	800998e <_svfiprintf_r+0x232>
 800998c:	3401      	adds	r4, #1
 800998e:	9b02      	ldr	r3, [sp, #8]
 8009990:	9d02      	ldr	r5, [sp, #8]
 8009992:	f013 0302 	ands.w	r3, r3, #2
 8009996:	9309      	str	r3, [sp, #36]	; 0x24
 8009998:	bf18      	it	ne
 800999a:	3402      	addne	r4, #2
 800999c:	f015 0584 	ands.w	r5, r5, #132	; 0x84
 80099a0:	950c      	str	r5, [sp, #48]	; 0x30
 80099a2:	f040 8201 	bne.w	8009da8 <_svfiprintf_r+0x64c>
 80099a6:	9804      	ldr	r0, [sp, #16]
 80099a8:	1b05      	subs	r5, r0, r4
 80099aa:	2d00      	cmp	r5, #0
 80099ac:	f340 81fc 	ble.w	8009da8 <_svfiprintf_r+0x64c>
 80099b0:	2d10      	cmp	r5, #16
 80099b2:	f24c 13d0 	movw	r3, #49616	; 0xc1d0
 80099b6:	9917      	ldr	r1, [sp, #92]	; 0x5c
 80099b8:	f340 840d 	ble.w	800a1d6 <_svfiprintf_r+0xa7a>
 80099bc:	f6c0 0300 	movt	r3, #2048	; 0x800
 80099c0:	f8cd 903c 	str.w	r9, [sp, #60]	; 0x3c
 80099c4:	9410      	str	r4, [sp, #64]	; 0x40
 80099c6:	f04f 0b10 	mov.w	fp, #16
 80099ca:	9a16      	ldr	r2, [sp, #88]	; 0x58
 80099cc:	9307      	str	r3, [sp, #28]
 80099ce:	f8dd 9020 	ldr.w	r9, [sp, #32]
 80099d2:	9c0d      	ldr	r4, [sp, #52]	; 0x34
 80099d4:	e002      	b.n	80099dc <_svfiprintf_r+0x280>
 80099d6:	3d10      	subs	r5, #16
 80099d8:	2d10      	cmp	r5, #16
 80099da:	dd17      	ble.n	8009a0c <_svfiprintf_r+0x2b0>
 80099dc:	3201      	adds	r2, #1
 80099de:	3110      	adds	r1, #16
 80099e0:	2a07      	cmp	r2, #7
 80099e2:	e886 0810 	stmia.w	r6, {r4, fp}
 80099e6:	9216      	str	r2, [sp, #88]	; 0x58
 80099e8:	f106 0608 	add.w	r6, r6, #8
 80099ec:	9117      	str	r1, [sp, #92]	; 0x5c
 80099ee:	ddf2      	ble.n	80099d6 <_svfiprintf_r+0x27a>
 80099f0:	9805      	ldr	r0, [sp, #20]
 80099f2:	4649      	mov	r1, r9
 80099f4:	aa15      	add	r2, sp, #84	; 0x54
 80099f6:	4646      	mov	r6, r8
 80099f8:	f7ff fe2e 	bl	8009658 <__ssprint_r>
 80099fc:	2800      	cmp	r0, #0
 80099fe:	f040 82bd 	bne.w	8009f7c <_svfiprintf_r+0x820>
 8009a02:	3d10      	subs	r5, #16
 8009a04:	9917      	ldr	r1, [sp, #92]	; 0x5c
 8009a06:	2d10      	cmp	r5, #16
 8009a08:	9a16      	ldr	r2, [sp, #88]	; 0x58
 8009a0a:	dce7      	bgt.n	80099dc <_svfiprintf_r+0x280>
 8009a0c:	f8dd 903c 	ldr.w	r9, [sp, #60]	; 0x3c
 8009a10:	9c10      	ldr	r4, [sp, #64]	; 0x40
 8009a12:	3201      	adds	r2, #1
 8009a14:	9b07      	ldr	r3, [sp, #28]
 8009a16:	2a07      	cmp	r2, #7
 8009a18:	4429      	add	r1, r5
 8009a1a:	9216      	str	r2, [sp, #88]	; 0x58
 8009a1c:	e886 0028 	stmia.w	r6, {r3, r5}
 8009a20:	bfd8      	it	le
 8009a22:	3608      	addle	r6, #8
 8009a24:	9117      	str	r1, [sp, #92]	; 0x5c
 8009a26:	f340 81c1 	ble.w	8009dac <_svfiprintf_r+0x650>
 8009a2a:	9805      	ldr	r0, [sp, #20]
 8009a2c:	aa15      	add	r2, sp, #84	; 0x54
 8009a2e:	9908      	ldr	r1, [sp, #32]
 8009a30:	f7ff fe12 	bl	8009658 <__ssprint_r>
 8009a34:	2800      	cmp	r0, #0
 8009a36:	f040 82a1 	bne.w	8009f7c <_svfiprintf_r+0x820>
 8009a3a:	9917      	ldr	r1, [sp, #92]	; 0x5c
 8009a3c:	4646      	mov	r6, r8
 8009a3e:	9a16      	ldr	r2, [sp, #88]	; 0x58
 8009a40:	e1b4      	b.n	8009dac <_svfiprintf_r+0x650>
 8009a42:	08e3      	lsrs	r3, r4, #3
 8009a44:	08e9      	lsrs	r1, r5, #3
 8009a46:	ea43 7345 	orr.w	r3, r3, r5, lsl #29
 8009a4a:	4691      	mov	r9, r2
 8009a4c:	460d      	mov	r5, r1
 8009a4e:	f004 0207 	and.w	r2, r4, #7
 8009a52:	461c      	mov	r4, r3
 8009a54:	f102 0330 	add.w	r3, r2, #48	; 0x30
 8009a58:	ea54 0105 	orrs.w	r1, r4, r5
 8009a5c:	f109 32ff 	add.w	r2, r9, #4294967295
 8009a60:	f889 3000 	strb.w	r3, [r9]
 8009a64:	d1ed      	bne.n	8009a42 <_svfiprintf_r+0x2e6>
 8009a66:	9c02      	ldr	r4, [sp, #8]
 8009a68:	4649      	mov	r1, r9
 8009a6a:	07e0      	lsls	r0, r4, #31
 8009a6c:	f140 8347 	bpl.w	800a0fe <_svfiprintf_r+0x9a2>
 8009a70:	2b30      	cmp	r3, #48	; 0x30
 8009a72:	d080      	beq.n	8009976 <_svfiprintf_r+0x21a>
 8009a74:	2330      	movs	r3, #48	; 0x30
 8009a76:	ebc2 0408 	rsb	r4, r2, r8
 8009a7a:	4691      	mov	r9, r2
 8009a7c:	9406      	str	r4, [sp, #24]
 8009a7e:	f801 3c01 	strb.w	r3, [r1, #-1]
 8009a82:	e77b      	b.n	800997c <_svfiprintf_r+0x220>
 8009a84:	9d02      	ldr	r5, [sp, #8]
 8009a86:	9004      	str	r0, [sp, #16]
 8009a88:	f015 0320 	ands.w	r3, r5, #32
 8009a8c:	f000 813c 	beq.w	8009d08 <_svfiprintf_r+0x5ac>
 8009a90:	9c0b      	ldr	r4, [sp, #44]	; 0x2c
 8009a92:	2300      	movs	r3, #0
 8009a94:	1de2      	adds	r2, r4, #7
 8009a96:	f022 0207 	bic.w	r2, r2, #7
 8009a9a:	f102 0508 	add.w	r5, r2, #8
 8009a9e:	950b      	str	r5, [sp, #44]	; 0x2c
 8009aa0:	e9d2 4500 	ldrd	r4, r5, [r2]
 8009aa4:	e734      	b.n	8009910 <_svfiprintf_r+0x1b4>
 8009aa6:	9b0b      	ldr	r3, [sp, #44]	; 0x2c
 8009aa8:	9d02      	ldr	r5, [sp, #8]
 8009aaa:	9004      	str	r0, [sp, #16]
 8009aac:	f045 0502 	orr.w	r5, r5, #2
 8009ab0:	9502      	str	r5, [sp, #8]
 8009ab2:	1d1d      	adds	r5, r3, #4
 8009ab4:	950b      	str	r5, [sp, #44]	; 0x2c
 8009ab6:	f24c 2518 	movw	r5, #49688	; 0xc218
 8009aba:	681c      	ldr	r4, [r3, #0]
 8009abc:	f6c0 0500 	movt	r5, #2048	; 0x800
 8009ac0:	2330      	movs	r3, #48	; 0x30
 8009ac2:	950e      	str	r5, [sp, #56]	; 0x38
 8009ac4:	2500      	movs	r5, #0
 8009ac6:	f88d 3050 	strb.w	r3, [sp, #80]	; 0x50
 8009aca:	2378      	movs	r3, #120	; 0x78
 8009acc:	f88d 3051 	strb.w	r3, [sp, #81]	; 0x51
 8009ad0:	2302      	movs	r3, #2
 8009ad2:	e71d      	b.n	8009910 <_svfiprintf_r+0x1b4>
 8009ad4:	9c0b      	ldr	r4, [sp, #44]	; 0x2c
 8009ad6:	9004      	str	r0, [sp, #16]
 8009ad8:	980b      	ldr	r0, [sp, #44]	; 0x2c
 8009ada:	f8d4 9000 	ldr.w	r9, [r4]
 8009ade:	2400      	movs	r4, #0
 8009ae0:	1d05      	adds	r5, r0, #4
 8009ae2:	f88d 404f 	strb.w	r4, [sp, #79]	; 0x4f
 8009ae6:	f1b9 0f00 	cmp.w	r9, #0
 8009aea:	f000 8379 	beq.w	800a1e0 <_svfiprintf_r+0xa84>
 8009aee:	9803      	ldr	r0, [sp, #12]
 8009af0:	2800      	cmp	r0, #0
 8009af2:	4648      	mov	r0, r9
 8009af4:	f2c0 834b 	blt.w	800a18e <_svfiprintf_r+0xa32>
 8009af8:	4621      	mov	r1, r4
 8009afa:	9a03      	ldr	r2, [sp, #12]
 8009afc:	f7fe fee6 	bl	80088cc <memchr>
 8009b00:	2800      	cmp	r0, #0
 8009b02:	f000 837a 	beq.w	800a1fa <_svfiprintf_r+0xa9e>
 8009b06:	950b      	str	r5, [sp, #44]	; 0x2c
 8009b08:	ebc9 0000 	rsb	r0, r9, r0
 8009b0c:	9d03      	ldr	r5, [sp, #12]
 8009b0e:	f89d c04f 	ldrb.w	ip, [sp, #79]	; 0x4f
 8009b12:	42a8      	cmp	r0, r5
 8009b14:	bfb8      	it	lt
 8009b16:	4605      	movlt	r5, r0
 8009b18:	9403      	str	r4, [sp, #12]
 8009b1a:	9506      	str	r5, [sp, #24]
 8009b1c:	e72e      	b.n	800997c <_svfiprintf_r+0x220>
 8009b1e:	9c02      	ldr	r4, [sp, #8]
 8009b20:	f044 0420 	orr.w	r4, r4, #32
 8009b24:	9402      	str	r4, [sp, #8]
 8009b26:	f89a 3000 	ldrb.w	r3, [sl]
 8009b2a:	e671      	b.n	8009810 <_svfiprintf_r+0xb4>
 8009b2c:	9c02      	ldr	r4, [sp, #8]
 8009b2e:	f88d 104f 	strb.w	r1, [sp, #79]	; 0x4f
 8009b32:	06a0      	lsls	r0, r4, #26
 8009b34:	f100 831e 	bmi.w	800a174 <_svfiprintf_r+0xa18>
 8009b38:	9c02      	ldr	r4, [sp, #8]
 8009b3a:	06e1      	lsls	r1, r4, #27
 8009b3c:	f140 8330 	bpl.w	800a1a0 <_svfiprintf_r+0xa44>
 8009b40:	9d0b      	ldr	r5, [sp, #44]	; 0x2c
 8009b42:	9c0a      	ldr	r4, [sp, #40]	; 0x28
 8009b44:	3504      	adds	r5, #4
 8009b46:	f855 3c04 	ldr.w	r3, [r5, #-4]
 8009b4a:	950b      	str	r5, [sp, #44]	; 0x2c
 8009b4c:	601c      	str	r4, [r3, #0]
 8009b4e:	e62a      	b.n	80097a6 <_svfiprintf_r+0x4a>
 8009b50:	f89a 3000 	ldrb.w	r3, [sl]
 8009b54:	4652      	mov	r2, sl
 8009b56:	2b6c      	cmp	r3, #108	; 0x6c
 8009b58:	bf05      	ittet	eq
 8009b5a:	f10a 0a01 	addeq.w	sl, sl, #1
 8009b5e:	9c02      	ldreq	r4, [sp, #8]
 8009b60:	9d02      	ldrne	r5, [sp, #8]
 8009b62:	f044 0420 	orreq.w	r4, r4, #32
 8009b66:	bf0b      	itete	eq
 8009b68:	7853      	ldrbeq	r3, [r2, #1]
 8009b6a:	f045 0510 	orrne.w	r5, r5, #16
 8009b6e:	9402      	streq	r4, [sp, #8]
 8009b70:	9502      	strne	r5, [sp, #8]
 8009b72:	e64d      	b.n	8009810 <_svfiprintf_r+0xb4>
 8009b74:	9d02      	ldr	r5, [sp, #8]
 8009b76:	f045 0540 	orr.w	r5, r5, #64	; 0x40
 8009b7a:	9502      	str	r5, [sp, #8]
 8009b7c:	f89a 3000 	ldrb.w	r3, [sl]
 8009b80:	e646      	b.n	8009810 <_svfiprintf_r+0xb4>
 8009b82:	9d02      	ldr	r5, [sp, #8]
 8009b84:	9004      	str	r0, [sp, #16]
 8009b86:	06ab      	lsls	r3, r5, #26
 8009b88:	f88d 104f 	strb.w	r1, [sp, #79]	; 0x4f
 8009b8c:	d52f      	bpl.n	8009bee <_svfiprintf_r+0x492>
 8009b8e:	9c0b      	ldr	r4, [sp, #44]	; 0x2c
 8009b90:	1de3      	adds	r3, r4, #7
 8009b92:	f023 0307 	bic.w	r3, r3, #7
 8009b96:	f103 0508 	add.w	r5, r3, #8
 8009b9a:	950b      	str	r5, [sp, #44]	; 0x2c
 8009b9c:	e9d3 2300 	ldrd	r2, r3, [r3]
 8009ba0:	4614      	mov	r4, r2
 8009ba2:	461d      	mov	r5, r3
 8009ba4:	2a00      	cmp	r2, #0
 8009ba6:	f173 0000 	sbcs.w	r0, r3, #0
 8009baa:	f2c0 82c8 	blt.w	800a13e <_svfiprintf_r+0x9e2>
 8009bae:	f89d c04f 	ldrb.w	ip, [sp, #79]	; 0x4f
 8009bb2:	2301      	movs	r3, #1
 8009bb4:	e6b0      	b.n	8009918 <_svfiprintf_r+0x1bc>
 8009bb6:	9b0b      	ldr	r3, [sp, #44]	; 0x2c
 8009bb8:	f10d 0960 	add.w	r9, sp, #96	; 0x60
 8009bbc:	9d0b      	ldr	r5, [sp, #44]	; 0x2c
 8009bbe:	2401      	movs	r4, #1
 8009bc0:	2200      	movs	r2, #0
 8009bc2:	9004      	str	r0, [sp, #16]
 8009bc4:	681b      	ldr	r3, [r3, #0]
 8009bc6:	3504      	adds	r5, #4
 8009bc8:	9406      	str	r4, [sp, #24]
 8009bca:	950b      	str	r5, [sp, #44]	; 0x2c
 8009bcc:	f88d 204f 	strb.w	r2, [sp, #79]	; 0x4f
 8009bd0:	f88d 3060 	strb.w	r3, [sp, #96]	; 0x60
 8009bd4:	2500      	movs	r5, #0
 8009bd6:	9503      	str	r5, [sp, #12]
 8009bd8:	e6d9      	b.n	800998e <_svfiprintf_r+0x232>
 8009bda:	9c02      	ldr	r4, [sp, #8]
 8009bdc:	9004      	str	r0, [sp, #16]
 8009bde:	f044 0410 	orr.w	r4, r4, #16
 8009be2:	9402      	str	r4, [sp, #8]
 8009be4:	9d02      	ldr	r5, [sp, #8]
 8009be6:	f88d 104f 	strb.w	r1, [sp, #79]	; 0x4f
 8009bea:	06ab      	lsls	r3, r5, #26
 8009bec:	d4cf      	bmi.n	8009b8e <_svfiprintf_r+0x432>
 8009bee:	9c02      	ldr	r4, [sp, #8]
 8009bf0:	06e5      	lsls	r5, r4, #27
 8009bf2:	f100 8297 	bmi.w	800a124 <_svfiprintf_r+0x9c8>
 8009bf6:	9c02      	ldr	r4, [sp, #8]
 8009bf8:	0664      	lsls	r4, r4, #25
 8009bfa:	f140 8293 	bpl.w	800a124 <_svfiprintf_r+0x9c8>
 8009bfe:	980b      	ldr	r0, [sp, #44]	; 0x2c
 8009c00:	3004      	adds	r0, #4
 8009c02:	f930 4c04 	ldrsh.w	r4, [r0, #-4]
 8009c06:	900b      	str	r0, [sp, #44]	; 0x2c
 8009c08:	4622      	mov	r2, r4
 8009c0a:	17e5      	asrs	r5, r4, #31
 8009c0c:	462b      	mov	r3, r5
 8009c0e:	e7c9      	b.n	8009ba4 <_svfiprintf_r+0x448>
 8009c10:	f1a3 0230 	sub.w	r2, r3, #48	; 0x30
 8009c14:	2000      	movs	r0, #0
 8009c16:	eb00 0080 	add.w	r0, r0, r0, lsl #2
 8009c1a:	f81a 3b01 	ldrb.w	r3, [sl], #1
 8009c1e:	eb02 0040 	add.w	r0, r2, r0, lsl #1
 8009c22:	f1a3 0230 	sub.w	r2, r3, #48	; 0x30
 8009c26:	2a09      	cmp	r2, #9
 8009c28:	d9f5      	bls.n	8009c16 <_svfiprintf_r+0x4ba>
 8009c2a:	e5f3      	b.n	8009814 <_svfiprintf_r+0xb8>
 8009c2c:	9c02      	ldr	r4, [sp, #8]
 8009c2e:	f044 0480 	orr.w	r4, r4, #128	; 0x80
 8009c32:	9402      	str	r4, [sp, #8]
 8009c34:	f89a 3000 	ldrb.w	r3, [sl]
 8009c38:	e5ea      	b.n	8009810 <_svfiprintf_r+0xb4>
 8009c3a:	f89a 3000 	ldrb.w	r3, [sl]
 8009c3e:	f10a 0501 	add.w	r5, sl, #1
 8009c42:	2b2a      	cmp	r3, #42	; 0x2a
 8009c44:	f000 82e1 	beq.w	800a20a <_svfiprintf_r+0xaae>
 8009c48:	f1a3 0230 	sub.w	r2, r3, #48	; 0x30
 8009c4c:	2a09      	cmp	r2, #9
 8009c4e:	bf82      	ittt	hi
 8009c50:	2400      	movhi	r4, #0
 8009c52:	46aa      	movhi	sl, r5
 8009c54:	9403      	strhi	r4, [sp, #12]
 8009c56:	f63f addd 	bhi.w	8009814 <_svfiprintf_r+0xb8>
 8009c5a:	2400      	movs	r4, #0
 8009c5c:	eb04 0484 	add.w	r4, r4, r4, lsl #2
 8009c60:	f815 3b01 	ldrb.w	r3, [r5], #1
 8009c64:	eb02 0444 	add.w	r4, r2, r4, lsl #1
 8009c68:	f1a3 0230 	sub.w	r2, r3, #48	; 0x30
 8009c6c:	2a09      	cmp	r2, #9
 8009c6e:	d9f5      	bls.n	8009c5c <_svfiprintf_r+0x500>
 8009c70:	ea44 74e4 	orr.w	r4, r4, r4, asr #31
 8009c74:	46aa      	mov	sl, r5
 8009c76:	9403      	str	r4, [sp, #12]
 8009c78:	e5cc      	b.n	8009814 <_svfiprintf_r+0xb8>
 8009c7a:	9c02      	ldr	r4, [sp, #8]
 8009c7c:	9004      	str	r0, [sp, #16]
 8009c7e:	f044 0410 	orr.w	r4, r4, #16
 8009c82:	9402      	str	r4, [sp, #8]
 8009c84:	9d02      	ldr	r5, [sp, #8]
 8009c86:	06aa      	lsls	r2, r5, #26
 8009c88:	f53f ae38 	bmi.w	80098fc <_svfiprintf_r+0x1a0>
 8009c8c:	9c02      	ldr	r4, [sp, #8]
 8009c8e:	06e3      	lsls	r3, r4, #27
 8009c90:	f100 8267 	bmi.w	800a162 <_svfiprintf_r+0xa06>
 8009c94:	9c02      	ldr	r4, [sp, #8]
 8009c96:	0665      	lsls	r5, r4, #25
 8009c98:	f140 8263 	bpl.w	800a162 <_svfiprintf_r+0xa06>
 8009c9c:	980b      	ldr	r0, [sp, #44]	; 0x2c
 8009c9e:	2500      	movs	r5, #0
 8009ca0:	2301      	movs	r3, #1
 8009ca2:	3004      	adds	r0, #4
 8009ca4:	f830 4c04 	ldrh.w	r4, [r0, #-4]
 8009ca8:	900b      	str	r0, [sp, #44]	; 0x2c
 8009caa:	e631      	b.n	8009910 <_svfiprintf_r+0x1b4>
 8009cac:	9d02      	ldr	r5, [sp, #8]
 8009cae:	f24c 2404 	movw	r4, #49668	; 0xc204
 8009cb2:	f6c0 0400 	movt	r4, #2048	; 0x800
 8009cb6:	940e      	str	r4, [sp, #56]	; 0x38
 8009cb8:	06ac      	lsls	r4, r5, #26
 8009cba:	9004      	str	r0, [sp, #16]
 8009cbc:	f88d 104f 	strb.w	r1, [sp, #79]	; 0x4f
 8009cc0:	d543      	bpl.n	8009d4a <_svfiprintf_r+0x5ee>
 8009cc2:	9c0b      	ldr	r4, [sp, #44]	; 0x2c
 8009cc4:	1de2      	adds	r2, r4, #7
 8009cc6:	f022 0207 	bic.w	r2, r2, #7
 8009cca:	f102 0508 	add.w	r5, r2, #8
 8009cce:	950b      	str	r5, [sp, #44]	; 0x2c
 8009cd0:	e9d2 4500 	ldrd	r4, r5, [r2]
 8009cd4:	9802      	ldr	r0, [sp, #8]
 8009cd6:	07c2      	lsls	r2, r0, #31
 8009cd8:	d554      	bpl.n	8009d84 <_svfiprintf_r+0x628>
 8009cda:	ea54 0105 	orrs.w	r1, r4, r5
 8009cde:	d051      	beq.n	8009d84 <_svfiprintf_r+0x628>
 8009ce0:	f88d 3051 	strb.w	r3, [sp, #81]	; 0x51
 8009ce4:	f040 0002 	orr.w	r0, r0, #2
 8009ce8:	2330      	movs	r3, #48	; 0x30
 8009cea:	9002      	str	r0, [sp, #8]
 8009cec:	f88d 3050 	strb.w	r3, [sp, #80]	; 0x50
 8009cf0:	2302      	movs	r3, #2
 8009cf2:	e60d      	b.n	8009910 <_svfiprintf_r+0x1b4>
 8009cf4:	9c02      	ldr	r4, [sp, #8]
 8009cf6:	9004      	str	r0, [sp, #16]
 8009cf8:	f044 0410 	orr.w	r4, r4, #16
 8009cfc:	9402      	str	r4, [sp, #8]
 8009cfe:	9d02      	ldr	r5, [sp, #8]
 8009d00:	f015 0320 	ands.w	r3, r5, #32
 8009d04:	f47f aec4 	bne.w	8009a90 <_svfiprintf_r+0x334>
 8009d08:	9c02      	ldr	r4, [sp, #8]
 8009d0a:	f014 0210 	ands.w	r2, r4, #16
 8009d0e:	f040 8220 	bne.w	800a152 <_svfiprintf_r+0x9f6>
 8009d12:	9c02      	ldr	r4, [sp, #8]
 8009d14:	f014 0340 	ands.w	r3, r4, #64	; 0x40
 8009d18:	f000 821b 	beq.w	800a152 <_svfiprintf_r+0x9f6>
 8009d1c:	980b      	ldr	r0, [sp, #44]	; 0x2c
 8009d1e:	4613      	mov	r3, r2
 8009d20:	2500      	movs	r5, #0
 8009d22:	3004      	adds	r0, #4
 8009d24:	f830 4c04 	ldrh.w	r4, [r0, #-4]
 8009d28:	900b      	str	r0, [sp, #44]	; 0x2c
 8009d2a:	e5f1      	b.n	8009910 <_svfiprintf_r+0x1b4>
 8009d2c:	f89a 3000 	ldrb.w	r3, [sl]
 8009d30:	212b      	movs	r1, #43	; 0x2b
 8009d32:	e56d      	b.n	8009810 <_svfiprintf_r+0xb4>
 8009d34:	9d02      	ldr	r5, [sp, #8]
 8009d36:	f24c 2418 	movw	r4, #49688	; 0xc218
 8009d3a:	f6c0 0400 	movt	r4, #2048	; 0x800
 8009d3e:	940e      	str	r4, [sp, #56]	; 0x38
 8009d40:	06ac      	lsls	r4, r5, #26
 8009d42:	9004      	str	r0, [sp, #16]
 8009d44:	f88d 104f 	strb.w	r1, [sp, #79]	; 0x4f
 8009d48:	d4bb      	bmi.n	8009cc2 <_svfiprintf_r+0x566>
 8009d4a:	9c02      	ldr	r4, [sp, #8]
 8009d4c:	06e0      	lsls	r0, r4, #27
 8009d4e:	f100 81e2 	bmi.w	800a116 <_svfiprintf_r+0x9ba>
 8009d52:	9c02      	ldr	r4, [sp, #8]
 8009d54:	0661      	lsls	r1, r4, #25
 8009d56:	f140 81de 	bpl.w	800a116 <_svfiprintf_r+0x9ba>
 8009d5a:	980b      	ldr	r0, [sp, #44]	; 0x2c
 8009d5c:	2500      	movs	r5, #0
 8009d5e:	3004      	adds	r0, #4
 8009d60:	f830 4c04 	ldrh.w	r4, [r0, #-4]
 8009d64:	900b      	str	r0, [sp, #44]	; 0x2c
 8009d66:	e7b5      	b.n	8009cd4 <_svfiprintf_r+0x578>
 8009d68:	f89a 3000 	ldrb.w	r3, [sl]
 8009d6c:	2900      	cmp	r1, #0
 8009d6e:	f47f ad4f 	bne.w	8009810 <_svfiprintf_r+0xb4>
 8009d72:	2120      	movs	r1, #32
 8009d74:	e54c      	b.n	8009810 <_svfiprintf_r+0xb4>
 8009d76:	9d02      	ldr	r5, [sp, #8]
 8009d78:	f045 0501 	orr.w	r5, r5, #1
 8009d7c:	9502      	str	r5, [sp, #8]
 8009d7e:	f89a 3000 	ldrb.w	r3, [sl]
 8009d82:	e545      	b.n	8009810 <_svfiprintf_r+0xb4>
 8009d84:	2302      	movs	r3, #2
 8009d86:	e5c3      	b.n	8009910 <_svfiprintf_r+0x1b4>
 8009d88:	9004      	str	r0, [sp, #16]
 8009d8a:	f88d 104f 	strb.w	r1, [sp, #79]	; 0x4f
 8009d8e:	2b00      	cmp	r3, #0
 8009d90:	f000 80ed 	beq.w	8009f6e <_svfiprintf_r+0x812>
 8009d94:	2401      	movs	r4, #1
 8009d96:	f88d 3060 	strb.w	r3, [sp, #96]	; 0x60
 8009d9a:	9406      	str	r4, [sp, #24]
 8009d9c:	2300      	movs	r3, #0
 8009d9e:	f10d 0960 	add.w	r9, sp, #96	; 0x60
 8009da2:	f88d 304f 	strb.w	r3, [sp, #79]	; 0x4f
 8009da6:	e715      	b.n	8009bd4 <_svfiprintf_r+0x478>
 8009da8:	9917      	ldr	r1, [sp, #92]	; 0x5c
 8009daa:	9a16      	ldr	r2, [sp, #88]	; 0x58
 8009dac:	f89d 304f 	ldrb.w	r3, [sp, #79]	; 0x4f
 8009db0:	b173      	cbz	r3, 8009dd0 <_svfiprintf_r+0x674>
 8009db2:	3201      	adds	r2, #1
 8009db4:	3101      	adds	r1, #1
 8009db6:	2a07      	cmp	r2, #7
 8009db8:	f10d 004f 	add.w	r0, sp, #79	; 0x4f
 8009dbc:	f04f 0301 	mov.w	r3, #1
 8009dc0:	9216      	str	r2, [sp, #88]	; 0x58
 8009dc2:	e886 0009 	stmia.w	r6, {r0, r3}
 8009dc6:	bfd8      	it	le
 8009dc8:	3608      	addle	r6, #8
 8009dca:	9117      	str	r1, [sp, #92]	; 0x5c
 8009dcc:	f300 8157 	bgt.w	800a07e <_svfiprintf_r+0x922>
 8009dd0:	9d09      	ldr	r5, [sp, #36]	; 0x24
 8009dd2:	b16d      	cbz	r5, 8009df0 <_svfiprintf_r+0x694>
 8009dd4:	3201      	adds	r2, #1
 8009dd6:	3102      	adds	r1, #2
 8009dd8:	2a07      	cmp	r2, #7
 8009dda:	a814      	add	r0, sp, #80	; 0x50
 8009ddc:	f04f 0302 	mov.w	r3, #2
 8009de0:	9216      	str	r2, [sp, #88]	; 0x58
 8009de2:	e886 0009 	stmia.w	r6, {r0, r3}
 8009de6:	bfd8      	it	le
 8009de8:	3608      	addle	r6, #8
 8009dea:	9117      	str	r1, [sp, #92]	; 0x5c
 8009dec:	f300 813c 	bgt.w	800a068 <_svfiprintf_r+0x90c>
 8009df0:	9b0c      	ldr	r3, [sp, #48]	; 0x30
 8009df2:	2b80      	cmp	r3, #128	; 0x80
 8009df4:	f000 80cd 	beq.w	8009f92 <_svfiprintf_r+0x836>
 8009df8:	9803      	ldr	r0, [sp, #12]
 8009dfa:	9b06      	ldr	r3, [sp, #24]
 8009dfc:	1ac5      	subs	r5, r0, r3
 8009dfe:	2d00      	cmp	r5, #0
 8009e00:	dd44      	ble.n	8009e8c <_svfiprintf_r+0x730>
 8009e02:	4ba5      	ldr	r3, [pc, #660]	; (800a098 <_svfiprintf_r+0x93c>)
 8009e04:	2d10      	cmp	r5, #16
 8009e06:	9307      	str	r3, [sp, #28]
 8009e08:	dd2b      	ble.n	8009e62 <_svfiprintf_r+0x706>
 8009e0a:	f8cd 900c 	str.w	r9, [sp, #12]
 8009e0e:	f04f 0b10 	mov.w	fp, #16
 8009e12:	9409      	str	r4, [sp, #36]	; 0x24
 8009e14:	46a9      	mov	r9, r5
 8009e16:	9c05      	ldr	r4, [sp, #20]
 8009e18:	9d08      	ldr	r5, [sp, #32]
 8009e1a:	e004      	b.n	8009e26 <_svfiprintf_r+0x6ca>
 8009e1c:	f1a9 0910 	sub.w	r9, r9, #16
 8009e20:	f1b9 0f10 	cmp.w	r9, #16
 8009e24:	dd19      	ble.n	8009e5a <_svfiprintf_r+0x6fe>
 8009e26:	3201      	adds	r2, #1
 8009e28:	3110      	adds	r1, #16
 8009e2a:	2a07      	cmp	r2, #7
 8009e2c:	e886 0880 	stmia.w	r6, {r7, fp}
 8009e30:	9216      	str	r2, [sp, #88]	; 0x58
 8009e32:	f106 0608 	add.w	r6, r6, #8
 8009e36:	9117      	str	r1, [sp, #92]	; 0x5c
 8009e38:	ddf0      	ble.n	8009e1c <_svfiprintf_r+0x6c0>
 8009e3a:	4620      	mov	r0, r4
 8009e3c:	4629      	mov	r1, r5
 8009e3e:	aa15      	add	r2, sp, #84	; 0x54
 8009e40:	4646      	mov	r6, r8
 8009e42:	f7ff fc09 	bl	8009658 <__ssprint_r>
 8009e46:	2800      	cmp	r0, #0
 8009e48:	f040 8098 	bne.w	8009f7c <_svfiprintf_r+0x820>
 8009e4c:	f1a9 0910 	sub.w	r9, r9, #16
 8009e50:	9917      	ldr	r1, [sp, #92]	; 0x5c
 8009e52:	f1b9 0f10 	cmp.w	r9, #16
 8009e56:	9a16      	ldr	r2, [sp, #88]	; 0x58
 8009e58:	dce5      	bgt.n	8009e26 <_svfiprintf_r+0x6ca>
 8009e5a:	464d      	mov	r5, r9
 8009e5c:	9c09      	ldr	r4, [sp, #36]	; 0x24
 8009e5e:	f8dd 900c 	ldr.w	r9, [sp, #12]
 8009e62:	3201      	adds	r2, #1
 8009e64:	9b07      	ldr	r3, [sp, #28]
 8009e66:	2a07      	cmp	r2, #7
 8009e68:	4429      	add	r1, r5
 8009e6a:	9216      	str	r2, [sp, #88]	; 0x58
 8009e6c:	e886 0028 	stmia.w	r6, {r3, r5}
 8009e70:	bfd8      	it	le
 8009e72:	3608      	addle	r6, #8
 8009e74:	9117      	str	r1, [sp, #92]	; 0x5c
 8009e76:	dd09      	ble.n	8009e8c <_svfiprintf_r+0x730>
 8009e78:	9805      	ldr	r0, [sp, #20]
 8009e7a:	aa15      	add	r2, sp, #84	; 0x54
 8009e7c:	9908      	ldr	r1, [sp, #32]
 8009e7e:	f7ff fbeb 	bl	8009658 <__ssprint_r>
 8009e82:	2800      	cmp	r0, #0
 8009e84:	d17a      	bne.n	8009f7c <_svfiprintf_r+0x820>
 8009e86:	9917      	ldr	r1, [sp, #92]	; 0x5c
 8009e88:	4646      	mov	r6, r8
 8009e8a:	9a16      	ldr	r2, [sp, #88]	; 0x58
 8009e8c:	3201      	adds	r2, #1
 8009e8e:	9d06      	ldr	r5, [sp, #24]
 8009e90:	2a07      	cmp	r2, #7
 8009e92:	9216      	str	r2, [sp, #88]	; 0x58
 8009e94:	4429      	add	r1, r5
 8009e96:	f8c6 9000 	str.w	r9, [r6]
 8009e9a:	9117      	str	r1, [sp, #92]	; 0x5c
 8009e9c:	bfd8      	it	le
 8009e9e:	f106 0308 	addle.w	r3, r6, #8
 8009ea2:	6075      	str	r5, [r6, #4]
 8009ea4:	f300 80c0 	bgt.w	800a028 <_svfiprintf_r+0x8cc>
 8009ea8:	9d02      	ldr	r5, [sp, #8]
 8009eaa:	076a      	lsls	r2, r5, #29
 8009eac:	d538      	bpl.n	8009f20 <_svfiprintf_r+0x7c4>
 8009eae:	9804      	ldr	r0, [sp, #16]
 8009eb0:	1b05      	subs	r5, r0, r4
 8009eb2:	2d00      	cmp	r5, #0
 8009eb4:	dd34      	ble.n	8009f20 <_svfiprintf_r+0x7c4>
 8009eb6:	2d10      	cmp	r5, #16
 8009eb8:	f24c 10d0 	movw	r0, #49616	; 0xc1d0
 8009ebc:	f6c0 0000 	movt	r0, #2048	; 0x800
 8009ec0:	9a16      	ldr	r2, [sp, #88]	; 0x58
 8009ec2:	9007      	str	r0, [sp, #28]
 8009ec4:	dd22      	ble.n	8009f0c <_svfiprintf_r+0x7b0>
 8009ec6:	9402      	str	r4, [sp, #8]
 8009ec8:	2610      	movs	r6, #16
 8009eca:	f8dd 9014 	ldr.w	r9, [sp, #20]
 8009ece:	f8dd b020 	ldr.w	fp, [sp, #32]
 8009ed2:	9c0d      	ldr	r4, [sp, #52]	; 0x34
 8009ed4:	e002      	b.n	8009edc <_svfiprintf_r+0x780>
 8009ed6:	3d10      	subs	r5, #16
 8009ed8:	2d10      	cmp	r5, #16
 8009eda:	dd16      	ble.n	8009f0a <_svfiprintf_r+0x7ae>
 8009edc:	3201      	adds	r2, #1
 8009ede:	3110      	adds	r1, #16
 8009ee0:	2a07      	cmp	r2, #7
 8009ee2:	e883 0050 	stmia.w	r3, {r4, r6}
 8009ee6:	9216      	str	r2, [sp, #88]	; 0x58
 8009ee8:	f103 0308 	add.w	r3, r3, #8
 8009eec:	9117      	str	r1, [sp, #92]	; 0x5c
 8009eee:	ddf2      	ble.n	8009ed6 <_svfiprintf_r+0x77a>
 8009ef0:	4648      	mov	r0, r9
 8009ef2:	4659      	mov	r1, fp
 8009ef4:	aa15      	add	r2, sp, #84	; 0x54
 8009ef6:	f7ff fbaf 	bl	8009658 <__ssprint_r>
 8009efa:	4643      	mov	r3, r8
 8009efc:	2800      	cmp	r0, #0
 8009efe:	d13d      	bne.n	8009f7c <_svfiprintf_r+0x820>
 8009f00:	3d10      	subs	r5, #16
 8009f02:	9917      	ldr	r1, [sp, #92]	; 0x5c
 8009f04:	2d10      	cmp	r5, #16
 8009f06:	9a16      	ldr	r2, [sp, #88]	; 0x58
 8009f08:	dce8      	bgt.n	8009edc <_svfiprintf_r+0x780>
 8009f0a:	9c02      	ldr	r4, [sp, #8]
 8009f0c:	3201      	adds	r2, #1
 8009f0e:	9807      	ldr	r0, [sp, #28]
 8009f10:	2a07      	cmp	r2, #7
 8009f12:	4429      	add	r1, r5
 8009f14:	9216      	str	r2, [sp, #88]	; 0x58
 8009f16:	9117      	str	r1, [sp, #92]	; 0x5c
 8009f18:	e883 0021 	stmia.w	r3, {r0, r5}
 8009f1c:	f300 80e5 	bgt.w	800a0ea <_svfiprintf_r+0x98e>
 8009f20:	9d0a      	ldr	r5, [sp, #40]	; 0x28
 8009f22:	9804      	ldr	r0, [sp, #16]
 8009f24:	4284      	cmp	r4, r0
 8009f26:	bfac      	ite	ge
 8009f28:	192d      	addge	r5, r5, r4
 8009f2a:	182d      	addlt	r5, r5, r0
 8009f2c:	950a      	str	r5, [sp, #40]	; 0x28
 8009f2e:	2900      	cmp	r1, #0
 8009f30:	f040 8084 	bne.w	800a03c <_svfiprintf_r+0x8e0>
 8009f34:	2300      	movs	r3, #0
 8009f36:	9316      	str	r3, [sp, #88]	; 0x58
 8009f38:	f89a 3000 	ldrb.w	r3, [sl]
 8009f3c:	4646      	mov	r6, r8
 8009f3e:	2b00      	cmp	r3, #0
 8009f40:	bf18      	it	ne
 8009f42:	2b25      	cmpne	r3, #37	; 0x25
 8009f44:	f47f ac36 	bne.w	80097b4 <_svfiprintf_r+0x58>
 8009f48:	4654      	mov	r4, sl
 8009f4a:	e450      	b.n	80097ee <_svfiprintf_r+0x92>
 8009f4c:	2b00      	cmp	r3, #0
 8009f4e:	d17e      	bne.n	800a04e <_svfiprintf_r+0x8f2>
 8009f50:	9c02      	ldr	r4, [sp, #8]
 8009f52:	07e1      	lsls	r1, r4, #31
 8009f54:	bf5c      	itt	pl
 8009f56:	9306      	strpl	r3, [sp, #24]
 8009f58:	46c1      	movpl	r9, r8
 8009f5a:	f57f ad0f 	bpl.w	800997c <_svfiprintf_r+0x220>
 8009f5e:	9d11      	ldr	r5, [sp, #68]	; 0x44
 8009f60:	2330      	movs	r3, #48	; 0x30
 8009f62:	f10d 0987 	add.w	r9, sp, #135	; 0x87
 8009f66:	f88d 3087 	strb.w	r3, [sp, #135]	; 0x87
 8009f6a:	9506      	str	r5, [sp, #24]
 8009f6c:	e506      	b.n	800997c <_svfiprintf_r+0x220>
 8009f6e:	9b17      	ldr	r3, [sp, #92]	; 0x5c
 8009f70:	b123      	cbz	r3, 8009f7c <_svfiprintf_r+0x820>
 8009f72:	9805      	ldr	r0, [sp, #20]
 8009f74:	aa15      	add	r2, sp, #84	; 0x54
 8009f76:	9908      	ldr	r1, [sp, #32]
 8009f78:	f7ff fb6e 	bl	8009658 <__ssprint_r>
 8009f7c:	9c08      	ldr	r4, [sp, #32]
 8009f7e:	980a      	ldr	r0, [sp, #40]	; 0x28
 8009f80:	89a3      	ldrh	r3, [r4, #12]
 8009f82:	f013 0f40 	tst.w	r3, #64	; 0x40
 8009f86:	bf18      	it	ne
 8009f88:	f04f 30ff 	movne.w	r0, #4294967295
 8009f8c:	b033      	add	sp, #204	; 0xcc
 8009f8e:	e8bd 8ff0 	ldmia.w	sp!, {r4, r5, r6, r7, r8, r9, sl, fp, pc}
 8009f92:	9804      	ldr	r0, [sp, #16]
 8009f94:	1b05      	subs	r5, r0, r4
 8009f96:	2d00      	cmp	r5, #0
 8009f98:	f77f af2e 	ble.w	8009df8 <_svfiprintf_r+0x69c>
 8009f9c:	4b3e      	ldr	r3, [pc, #248]	; (800a098 <_svfiprintf_r+0x93c>)
 8009f9e:	2d10      	cmp	r5, #16
 8009fa0:	9307      	str	r3, [sp, #28]
 8009fa2:	dd2a      	ble.n	8009ffa <_svfiprintf_r+0x89e>
 8009fa4:	f8cd 9024 	str.w	r9, [sp, #36]	; 0x24
 8009fa8:	f04f 0b10 	mov.w	fp, #16
 8009fac:	940c      	str	r4, [sp, #48]	; 0x30
 8009fae:	46a9      	mov	r9, r5
 8009fb0:	9c05      	ldr	r4, [sp, #20]
 8009fb2:	9d08      	ldr	r5, [sp, #32]
 8009fb4:	e004      	b.n	8009fc0 <_svfiprintf_r+0x864>
 8009fb6:	f1a9 0910 	sub.w	r9, r9, #16
 8009fba:	f1b9 0f10 	cmp.w	r9, #16
 8009fbe:	dd18      	ble.n	8009ff2 <_svfiprintf_r+0x896>
 8009fc0:	3201      	adds	r2, #1
 8009fc2:	3110      	adds	r1, #16
 8009fc4:	2a07      	cmp	r2, #7
 8009fc6:	e886 0880 	stmia.w	r6, {r7, fp}
 8009fca:	9216      	str	r2, [sp, #88]	; 0x58
 8009fcc:	f106 0608 	add.w	r6, r6, #8
 8009fd0:	9117      	str	r1, [sp, #92]	; 0x5c
 8009fd2:	ddf0      	ble.n	8009fb6 <_svfiprintf_r+0x85a>
 8009fd4:	4620      	mov	r0, r4
 8009fd6:	4629      	mov	r1, r5
 8009fd8:	aa15      	add	r2, sp, #84	; 0x54
 8009fda:	4646      	mov	r6, r8
 8009fdc:	f7ff fb3c 	bl	8009658 <__ssprint_r>
 8009fe0:	2800      	cmp	r0, #0
 8009fe2:	d1cb      	bne.n	8009f7c <_svfiprintf_r+0x820>
 8009fe4:	f1a9 0910 	sub.w	r9, r9, #16
 8009fe8:	9917      	ldr	r1, [sp, #92]	; 0x5c
 8009fea:	f1b9 0f10 	cmp.w	r9, #16
 8009fee:	9a16      	ldr	r2, [sp, #88]	; 0x58
 8009ff0:	dce6      	bgt.n	8009fc0 <_svfiprintf_r+0x864>
 8009ff2:	464d      	mov	r5, r9
 8009ff4:	9c0c      	ldr	r4, [sp, #48]	; 0x30
 8009ff6:	f8dd 9024 	ldr.w	r9, [sp, #36]	; 0x24
 8009ffa:	3201      	adds	r2, #1
 8009ffc:	9b07      	ldr	r3, [sp, #28]
 8009ffe:	2a07      	cmp	r2, #7
 800a000:	4429      	add	r1, r5
 800a002:	9216      	str	r2, [sp, #88]	; 0x58
 800a004:	e886 0028 	stmia.w	r6, {r3, r5}
 800a008:	bfd8      	it	le
 800a00a:	3608      	addle	r6, #8
 800a00c:	9117      	str	r1, [sp, #92]	; 0x5c
 800a00e:	f77f aef3 	ble.w	8009df8 <_svfiprintf_r+0x69c>
 800a012:	9805      	ldr	r0, [sp, #20]
 800a014:	aa15      	add	r2, sp, #84	; 0x54
 800a016:	9908      	ldr	r1, [sp, #32]
 800a018:	f7ff fb1e 	bl	8009658 <__ssprint_r>
 800a01c:	2800      	cmp	r0, #0
 800a01e:	d1ad      	bne.n	8009f7c <_svfiprintf_r+0x820>
 800a020:	9917      	ldr	r1, [sp, #92]	; 0x5c
 800a022:	4646      	mov	r6, r8
 800a024:	9a16      	ldr	r2, [sp, #88]	; 0x58
 800a026:	e6e7      	b.n	8009df8 <_svfiprintf_r+0x69c>
 800a028:	9805      	ldr	r0, [sp, #20]
 800a02a:	aa15      	add	r2, sp, #84	; 0x54
 800a02c:	9908      	ldr	r1, [sp, #32]
 800a02e:	f7ff fb13 	bl	8009658 <__ssprint_r>
 800a032:	2800      	cmp	r0, #0
 800a034:	d1a2      	bne.n	8009f7c <_svfiprintf_r+0x820>
 800a036:	9917      	ldr	r1, [sp, #92]	; 0x5c
 800a038:	4643      	mov	r3, r8
 800a03a:	e735      	b.n	8009ea8 <_svfiprintf_r+0x74c>
 800a03c:	9805      	ldr	r0, [sp, #20]
 800a03e:	aa15      	add	r2, sp, #84	; 0x54
 800a040:	9908      	ldr	r1, [sp, #32]
 800a042:	f7ff fb09 	bl	8009658 <__ssprint_r>
 800a046:	2800      	cmp	r0, #0
 800a048:	f43f af74 	beq.w	8009f34 <_svfiprintf_r+0x7d8>
 800a04c:	e796      	b.n	8009f7c <_svfiprintf_r+0x820>
 800a04e:	9206      	str	r2, [sp, #24]
 800a050:	46c1      	mov	r9, r8
 800a052:	e493      	b.n	800997c <_svfiprintf_r+0x220>
 800a054:	9805      	ldr	r0, [sp, #20]
 800a056:	aa15      	add	r2, sp, #84	; 0x54
 800a058:	9908      	ldr	r1, [sp, #32]
 800a05a:	f7ff fafd 	bl	8009658 <__ssprint_r>
 800a05e:	2800      	cmp	r0, #0
 800a060:	d18c      	bne.n	8009f7c <_svfiprintf_r+0x820>
 800a062:	4646      	mov	r6, r8
 800a064:	f7ff bbc0 	b.w	80097e8 <_svfiprintf_r+0x8c>
 800a068:	9805      	ldr	r0, [sp, #20]
 800a06a:	aa15      	add	r2, sp, #84	; 0x54
 800a06c:	9908      	ldr	r1, [sp, #32]
 800a06e:	f7ff faf3 	bl	8009658 <__ssprint_r>
 800a072:	2800      	cmp	r0, #0
 800a074:	d182      	bne.n	8009f7c <_svfiprintf_r+0x820>
 800a076:	9917      	ldr	r1, [sp, #92]	; 0x5c
 800a078:	4646      	mov	r6, r8
 800a07a:	9a16      	ldr	r2, [sp, #88]	; 0x58
 800a07c:	e6b8      	b.n	8009df0 <_svfiprintf_r+0x694>
 800a07e:	9805      	ldr	r0, [sp, #20]
 800a080:	aa15      	add	r2, sp, #84	; 0x54
 800a082:	9908      	ldr	r1, [sp, #32]
 800a084:	f7ff fae8 	bl	8009658 <__ssprint_r>
 800a088:	2800      	cmp	r0, #0
 800a08a:	f47f af77 	bne.w	8009f7c <_svfiprintf_r+0x820>
 800a08e:	9917      	ldr	r1, [sp, #92]	; 0x5c
 800a090:	4646      	mov	r6, r8
 800a092:	9a16      	ldr	r2, [sp, #88]	; 0x58
 800a094:	e69c      	b.n	8009dd0 <_svfiprintf_r+0x674>
 800a096:	bf00      	nop
 800a098:	0800c1e0 	stmdaeq	r0, {r5, r6, r7, r8, lr, pc}
 800a09c:	2d00      	cmp	r5, #0
 800a09e:	bf08      	it	eq
 800a0a0:	2c0a      	cmpeq	r4, #10
 800a0a2:	d330      	bcc.n	800a106 <_svfiprintf_r+0x9aa>
 800a0a4:	f10d 0b87 	add.w	fp, sp, #135	; 0x87
 800a0a8:	46e1      	mov	r9, ip
 800a0aa:	9606      	str	r6, [sp, #24]
 800a0ac:	4620      	mov	r0, r4
 800a0ae:	4629      	mov	r1, r5
 800a0b0:	220a      	movs	r2, #10
 800a0b2:	2300      	movs	r3, #0
 800a0b4:	f001 fb10 	bl	800b6d8 <__aeabi_uldivmod>
 800a0b8:	465e      	mov	r6, fp
 800a0ba:	4620      	mov	r0, r4
 800a0bc:	4629      	mov	r1, r5
 800a0be:	2300      	movs	r3, #0
 800a0c0:	f10b 3bff 	add.w	fp, fp, #4294967295
 800a0c4:	3230      	adds	r2, #48	; 0x30
 800a0c6:	7032      	strb	r2, [r6, #0]
 800a0c8:	220a      	movs	r2, #10
 800a0ca:	f001 fb05 	bl	800b6d8 <__aeabi_uldivmod>
 800a0ce:	4604      	mov	r4, r0
 800a0d0:	460d      	mov	r5, r1
 800a0d2:	ea54 0005 	orrs.w	r0, r4, r5
 800a0d6:	d1e9      	bne.n	800a0ac <_svfiprintf_r+0x950>
 800a0d8:	46cc      	mov	ip, r9
 800a0da:	46b1      	mov	r9, r6
 800a0dc:	9e06      	ldr	r6, [sp, #24]
 800a0de:	e44a      	b.n	8009976 <_svfiprintf_r+0x21a>
 800a0e0:	930b      	str	r3, [sp, #44]	; 0x2c
 800a0e2:	f89a 3000 	ldrb.w	r3, [sl]
 800a0e6:	f7ff bb93 	b.w	8009810 <_svfiprintf_r+0xb4>
 800a0ea:	9805      	ldr	r0, [sp, #20]
 800a0ec:	aa15      	add	r2, sp, #84	; 0x54
 800a0ee:	9908      	ldr	r1, [sp, #32]
 800a0f0:	f7ff fab2 	bl	8009658 <__ssprint_r>
 800a0f4:	2800      	cmp	r0, #0
 800a0f6:	f47f af41 	bne.w	8009f7c <_svfiprintf_r+0x820>
 800a0fa:	9917      	ldr	r1, [sp, #92]	; 0x5c
 800a0fc:	e710      	b.n	8009f20 <_svfiprintf_r+0x7c4>
 800a0fe:	ebc9 0508 	rsb	r5, r9, r8
 800a102:	9506      	str	r5, [sp, #24]
 800a104:	e43a      	b.n	800997c <_svfiprintf_r+0x220>
 800a106:	9d11      	ldr	r5, [sp, #68]	; 0x44
 800a108:	3430      	adds	r4, #48	; 0x30
 800a10a:	f10d 0987 	add.w	r9, sp, #135	; 0x87
 800a10e:	f88d 4087 	strb.w	r4, [sp, #135]	; 0x87
 800a112:	9506      	str	r5, [sp, #24]
 800a114:	e432      	b.n	800997c <_svfiprintf_r+0x220>
 800a116:	9d0b      	ldr	r5, [sp, #44]	; 0x2c
 800a118:	3504      	adds	r5, #4
 800a11a:	f855 4c04 	ldr.w	r4, [r5, #-4]
 800a11e:	950b      	str	r5, [sp, #44]	; 0x2c
 800a120:	2500      	movs	r5, #0
 800a122:	e5d7      	b.n	8009cd4 <_svfiprintf_r+0x578>
 800a124:	9d0b      	ldr	r5, [sp, #44]	; 0x2c
 800a126:	3504      	adds	r5, #4
 800a128:	f855 4c04 	ldr.w	r4, [r5, #-4]
 800a12c:	950b      	str	r5, [sp, #44]	; 0x2c
 800a12e:	4622      	mov	r2, r4
 800a130:	17e5      	asrs	r5, r4, #31
 800a132:	462b      	mov	r3, r5
 800a134:	2a00      	cmp	r2, #0
 800a136:	f173 0000 	sbcs.w	r0, r3, #0
 800a13a:	f6bf ad38 	bge.w	8009bae <_svfiprintf_r+0x452>
 800a13e:	f04f 0c2d 	mov.w	ip, #45	; 0x2d
 800a142:	4264      	negs	r4, r4
 800a144:	eb65 0545 	sbc.w	r5, r5, r5, lsl #1
 800a148:	f88d c04f 	strb.w	ip, [sp, #79]	; 0x4f
 800a14c:	2301      	movs	r3, #1
 800a14e:	f7ff bbe3 	b.w	8009918 <_svfiprintf_r+0x1bc>
 800a152:	9d0b      	ldr	r5, [sp, #44]	; 0x2c
 800a154:	3504      	adds	r5, #4
 800a156:	f855 4c04 	ldr.w	r4, [r5, #-4]
 800a15a:	950b      	str	r5, [sp, #44]	; 0x2c
 800a15c:	2500      	movs	r5, #0
 800a15e:	f7ff bbd7 	b.w	8009910 <_svfiprintf_r+0x1b4>
 800a162:	9d0b      	ldr	r5, [sp, #44]	; 0x2c
 800a164:	2301      	movs	r3, #1
 800a166:	3504      	adds	r5, #4
 800a168:	f855 4c04 	ldr.w	r4, [r5, #-4]
 800a16c:	950b      	str	r5, [sp, #44]	; 0x2c
 800a16e:	2500      	movs	r5, #0
 800a170:	f7ff bbce 	b.w	8009910 <_svfiprintf_r+0x1b4>
 800a174:	9d0b      	ldr	r5, [sp, #44]	; 0x2c
 800a176:	9c0a      	ldr	r4, [sp, #40]	; 0x28
 800a178:	6829      	ldr	r1, [r5, #0]
 800a17a:	4622      	mov	r2, r4
 800a17c:	17e5      	asrs	r5, r4, #31
 800a17e:	462b      	mov	r3, r5
 800a180:	9d0b      	ldr	r5, [sp, #44]	; 0x2c
 800a182:	e9c1 2300 	strd	r2, r3, [r1]
 800a186:	3504      	adds	r5, #4
 800a188:	950b      	str	r5, [sp, #44]	; 0x2c
 800a18a:	f7ff bb0c 	b.w	80097a6 <_svfiprintf_r+0x4a>
 800a18e:	950b      	str	r5, [sp, #44]	; 0x2c
 800a190:	9403      	str	r4, [sp, #12]
 800a192:	f7ff fa31 	bl	80095f8 <strlen>
 800a196:	f89d c04f 	ldrb.w	ip, [sp, #79]	; 0x4f
 800a19a:	9006      	str	r0, [sp, #24]
 800a19c:	f7ff bbee 	b.w	800997c <_svfiprintf_r+0x220>
 800a1a0:	9c0b      	ldr	r4, [sp, #44]	; 0x2c
 800a1a2:	9d02      	ldr	r5, [sp, #8]
 800a1a4:	3404      	adds	r4, #4
 800a1a6:	f854 3c04 	ldr.w	r3, [r4, #-4]
 800a1aa:	f015 0f40 	tst.w	r5, #64	; 0x40
 800a1ae:	9d0a      	ldr	r5, [sp, #40]	; 0x28
 800a1b0:	940b      	str	r4, [sp, #44]	; 0x2c
 800a1b2:	bf14      	ite	ne
 800a1b4:	801d      	strhne	r5, [r3, #0]
 800a1b6:	601d      	streq	r5, [r3, #0]
 800a1b8:	f7ff baf5 	b.w	80097a6 <_svfiprintf_r+0x4a>
 800a1bc:	2140      	movs	r1, #64	; 0x40
 800a1be:	f7fe f8cd 	bl	800835c <_malloc_r>
 800a1c2:	9c08      	ldr	r4, [sp, #32]
 800a1c4:	6020      	str	r0, [r4, #0]
 800a1c6:	6120      	str	r0, [r4, #16]
 800a1c8:	2800      	cmp	r0, #0
 800a1ca:	d02f      	beq.n	800a22c <_svfiprintf_r+0xad0>
 800a1cc:	9c08      	ldr	r4, [sp, #32]
 800a1ce:	2340      	movs	r3, #64	; 0x40
 800a1d0:	6163      	str	r3, [r4, #20]
 800a1d2:	f7ff bad1 	b.w	8009778 <_svfiprintf_r+0x1c>
 800a1d6:	f6c0 0300 	movt	r3, #2048	; 0x800
 800a1da:	9a16      	ldr	r2, [sp, #88]	; 0x58
 800a1dc:	9307      	str	r3, [sp, #28]
 800a1de:	e418      	b.n	8009a12 <_svfiprintf_r+0x2b6>
 800a1e0:	9c03      	ldr	r4, [sp, #12]
 800a1e2:	f24c 292c 	movw	r9, #49708	; 0xc22c
 800a1e6:	950b      	str	r5, [sp, #44]	; 0x2c
 800a1e8:	f6c0 0900 	movt	r9, #2048	; 0x800
 800a1ec:	2c06      	cmp	r4, #6
 800a1ee:	bf28      	it	cs
 800a1f0:	2406      	movcs	r4, #6
 800a1f2:	9406      	str	r4, [sp, #24]
 800a1f4:	ea24 74e4 	bic.w	r4, r4, r4, asr #31
 800a1f8:	e4ec      	b.n	8009bd4 <_svfiprintf_r+0x478>
 800a1fa:	9c03      	ldr	r4, [sp, #12]
 800a1fc:	f89d c04f 	ldrb.w	ip, [sp, #79]	; 0x4f
 800a200:	950b      	str	r5, [sp, #44]	; 0x2c
 800a202:	9406      	str	r4, [sp, #24]
 800a204:	9003      	str	r0, [sp, #12]
 800a206:	f7ff bbb9 	b.w	800997c <_svfiprintf_r+0x220>
 800a20a:	9c0b      	ldr	r4, [sp, #44]	; 0x2c
 800a20c:	f89a 3001 	ldrb.w	r3, [sl, #1]
 800a210:	46aa      	mov	sl, r5
 800a212:	6824      	ldr	r4, [r4, #0]
 800a214:	9403      	str	r4, [sp, #12]
 800a216:	9c0b      	ldr	r4, [sp, #44]	; 0x2c
 800a218:	1d22      	adds	r2, r4, #4
 800a21a:	9c03      	ldr	r4, [sp, #12]
 800a21c:	920b      	str	r2, [sp, #44]	; 0x2c
 800a21e:	2c00      	cmp	r4, #0
 800a220:	bfbc      	itt	lt
 800a222:	f04f 35ff 	movlt.w	r5, #4294967295
 800a226:	9503      	strlt	r5, [sp, #12]
 800a228:	f7ff baf2 	b.w	8009810 <_svfiprintf_r+0xb4>
 800a22c:	9d05      	ldr	r5, [sp, #20]
 800a22e:	230c      	movs	r3, #12
 800a230:	f04f 30ff 	mov.w	r0, #4294967295
 800a234:	602b      	str	r3, [r5, #0]
 800a236:	e6a9      	b.n	8009f8c <_svfiprintf_r+0x830>

0800a238 <_calloc_r>:
 800a238:	b510      	push	{r4, lr}
 800a23a:	fb02 f101 	mul.w	r1, r2, r1
 800a23e:	f7fe f88d 	bl	800835c <_malloc_r>
 800a242:	4604      	mov	r4, r0
 800a244:	b170      	cbz	r0, 800a264 <_calloc_r+0x2c>
 800a246:	f850 2c04 	ldr.w	r2, [r0, #-4]
 800a24a:	f022 0203 	bic.w	r2, r2, #3
 800a24e:	3a04      	subs	r2, #4
 800a250:	2a24      	cmp	r2, #36	; 0x24
 800a252:	d81d      	bhi.n	800a290 <_calloc_r+0x58>
 800a254:	2a13      	cmp	r2, #19
 800a256:	bf98      	it	ls
 800a258:	4603      	movls	r3, r0
 800a25a:	d805      	bhi.n	800a268 <_calloc_r+0x30>
 800a25c:	2200      	movs	r2, #0
 800a25e:	601a      	str	r2, [r3, #0]
 800a260:	605a      	str	r2, [r3, #4]
 800a262:	609a      	str	r2, [r3, #8]
 800a264:	4620      	mov	r0, r4
 800a266:	bd10      	pop	{r4, pc}
 800a268:	2a1b      	cmp	r2, #27
 800a26a:	f04f 0100 	mov.w	r1, #0
 800a26e:	bf98      	it	ls
 800a270:	f100 0308 	addls.w	r3, r0, #8
 800a274:	6001      	str	r1, [r0, #0]
 800a276:	6041      	str	r1, [r0, #4]
 800a278:	d9f0      	bls.n	800a25c <_calloc_r+0x24>
 800a27a:	2a24      	cmp	r2, #36	; 0x24
 800a27c:	6081      	str	r1, [r0, #8]
 800a27e:	60c1      	str	r1, [r0, #12]
 800a280:	bf11      	iteee	ne
 800a282:	f100 0310 	addne.w	r3, r0, #16
 800a286:	6101      	streq	r1, [r0, #16]
 800a288:	f100 0318 	addeq.w	r3, r0, #24
 800a28c:	6141      	streq	r1, [r0, #20]
 800a28e:	e7e5      	b.n	800a25c <_calloc_r+0x24>
 800a290:	2100      	movs	r1, #0
 800a292:	f000 f989 	bl	800a5a8 <memset>
 800a296:	4620      	mov	r0, r4
 800a298:	bd10      	pop	{r4, pc}
 800a29a:	bf00      	nop

0800a29c <_malloc_trim_r>:
 800a29c:	b5f8      	push	{r3, r4, r5, r6, r7, lr}
 800a29e:	f240 14b0 	movw	r4, #432	; 0x1b0
 800a2a2:	f2c2 0400 	movt	r4, #8192	; 0x2000
 800a2a6:	460f      	mov	r7, r1
 800a2a8:	4605      	mov	r5, r0
 800a2aa:	f7fe fbab 	bl	8008a04 <__malloc_lock>
 800a2ae:	68a3      	ldr	r3, [r4, #8]
 800a2b0:	685e      	ldr	r6, [r3, #4]
 800a2b2:	f026 0603 	bic.w	r6, r6, #3
 800a2b6:	1bf7      	subs	r7, r6, r7
 800a2b8:	f607 77ef 	addw	r7, r7, #4079	; 0xfef
 800a2bc:	0b3f      	lsrs	r7, r7, #12
 800a2be:	3f01      	subs	r7, #1
 800a2c0:	033f      	lsls	r7, r7, #12
 800a2c2:	f5b7 5f80 	cmp.w	r7, #4096	; 0x1000
 800a2c6:	db07      	blt.n	800a2d8 <_malloc_trim_r+0x3c>
 800a2c8:	4628      	mov	r0, r5
 800a2ca:	2100      	movs	r1, #0
 800a2cc:	f7ff f862 	bl	8009394 <_sbrk_r>
 800a2d0:	68a3      	ldr	r3, [r4, #8]
 800a2d2:	4433      	add	r3, r6
 800a2d4:	4298      	cmp	r0, r3
 800a2d6:	d004      	beq.n	800a2e2 <_malloc_trim_r+0x46>
 800a2d8:	4628      	mov	r0, r5
 800a2da:	f7fe fb95 	bl	8008a08 <__malloc_unlock>
 800a2de:	2000      	movs	r0, #0
 800a2e0:	bdf8      	pop	{r3, r4, r5, r6, r7, pc}
 800a2e2:	4628      	mov	r0, r5
 800a2e4:	4279      	negs	r1, r7
 800a2e6:	f7ff f855 	bl	8009394 <_sbrk_r>
 800a2ea:	3001      	adds	r0, #1
 800a2ec:	d010      	beq.n	800a310 <_malloc_trim_r+0x74>
 800a2ee:	f642 7360 	movw	r3, #12128	; 0x2f60
 800a2f2:	68a1      	ldr	r1, [r4, #8]
 800a2f4:	f2c2 0300 	movt	r3, #8192	; 0x2000
 800a2f8:	1bf6      	subs	r6, r6, r7
 800a2fa:	4628      	mov	r0, r5
 800a2fc:	f046 0601 	orr.w	r6, r6, #1
 800a300:	681a      	ldr	r2, [r3, #0]
 800a302:	604e      	str	r6, [r1, #4]
 800a304:	1bd7      	subs	r7, r2, r7
 800a306:	601f      	str	r7, [r3, #0]
 800a308:	f7fe fb7e 	bl	8008a08 <__malloc_unlock>
 800a30c:	2001      	movs	r0, #1
 800a30e:	bdf8      	pop	{r3, r4, r5, r6, r7, pc}
 800a310:	4628      	mov	r0, r5
 800a312:	2100      	movs	r1, #0
 800a314:	f7ff f83e 	bl	8009394 <_sbrk_r>
 800a318:	68a3      	ldr	r3, [r4, #8]
 800a31a:	1ac2      	subs	r2, r0, r3
 800a31c:	2a0f      	cmp	r2, #15
 800a31e:	dddb      	ble.n	800a2d8 <_malloc_trim_r+0x3c>
 800a320:	f240 54b8 	movw	r4, #1464	; 0x5b8
 800a324:	f642 7160 	movw	r1, #12128	; 0x2f60
 800a328:	f2c2 0400 	movt	r4, #8192	; 0x2000
 800a32c:	f2c2 0100 	movt	r1, #8192	; 0x2000
 800a330:	f042 0201 	orr.w	r2, r2, #1
 800a334:	605a      	str	r2, [r3, #4]
 800a336:	6823      	ldr	r3, [r4, #0]
 800a338:	1ac0      	subs	r0, r0, r3
 800a33a:	6008      	str	r0, [r1, #0]
 800a33c:	e7cc      	b.n	800a2d8 <_malloc_trim_r+0x3c>
 800a33e:	bf00      	nop

0800a340 <_free_r>:
 800a340:	e92d 41f0 	stmdb	sp!, {r4, r5, r6, r7, r8, lr}
 800a344:	460e      	mov	r6, r1
 800a346:	4680      	mov	r8, r0
 800a348:	2900      	cmp	r1, #0
 800a34a:	d05e      	beq.n	800a40a <_free_r+0xca>
 800a34c:	f7fe fb5a 	bl	8008a04 <__malloc_lock>
 800a350:	f240 15b0 	movw	r5, #432	; 0x1b0
 800a354:	f856 1c04 	ldr.w	r1, [r6, #-4]
 800a358:	f2c2 0500 	movt	r5, #8192	; 0x2000
 800a35c:	f1a6 0408 	sub.w	r4, r6, #8
 800a360:	f021 0301 	bic.w	r3, r1, #1
 800a364:	68af      	ldr	r7, [r5, #8]
 800a366:	18e2      	adds	r2, r4, r3
 800a368:	4297      	cmp	r7, r2
 800a36a:	6850      	ldr	r0, [r2, #4]
 800a36c:	f020 0003 	bic.w	r0, r0, #3
 800a370:	d061      	beq.n	800a436 <_free_r+0xf6>
 800a372:	f011 0101 	ands.w	r1, r1, #1
 800a376:	6050      	str	r0, [r2, #4]
 800a378:	bf18      	it	ne
 800a37a:	2100      	movne	r1, #0
 800a37c:	d10f      	bne.n	800a39e <_free_r+0x5e>
 800a37e:	f856 6c08 	ldr.w	r6, [r6, #-8]
 800a382:	f105 0c08 	add.w	ip, r5, #8
 800a386:	1ba4      	subs	r4, r4, r6
 800a388:	4433      	add	r3, r6
 800a38a:	68a6      	ldr	r6, [r4, #8]
 800a38c:	4566      	cmp	r6, ip
 800a38e:	bf0f      	iteee	eq
 800a390:	2101      	moveq	r1, #1
 800a392:	f8d4 c00c 	ldrne.w	ip, [r4, #12]
 800a396:	f8c6 c00c 	strne.w	ip, [r6, #12]
 800a39a:	f8cc 6008 	strne.w	r6, [ip, #8]
 800a39e:	1816      	adds	r6, r2, r0
 800a3a0:	6876      	ldr	r6, [r6, #4]
 800a3a2:	07f6      	lsls	r6, r6, #31
 800a3a4:	d408      	bmi.n	800a3b8 <_free_r+0x78>
 800a3a6:	4403      	add	r3, r0
 800a3a8:	6890      	ldr	r0, [r2, #8]
 800a3aa:	b911      	cbnz	r1, 800a3b2 <_free_r+0x72>
 800a3ac:	4e49      	ldr	r6, [pc, #292]	; (800a4d4 <_free_r+0x194>)
 800a3ae:	42b0      	cmp	r0, r6
 800a3b0:	d060      	beq.n	800a474 <_free_r+0x134>
 800a3b2:	68d2      	ldr	r2, [r2, #12]
 800a3b4:	60c2      	str	r2, [r0, #12]
 800a3b6:	6090      	str	r0, [r2, #8]
 800a3b8:	f043 0201 	orr.w	r2, r3, #1
 800a3bc:	6062      	str	r2, [r4, #4]
 800a3be:	50e3      	str	r3, [r4, r3]
 800a3c0:	b9f1      	cbnz	r1, 800a400 <_free_r+0xc0>
 800a3c2:	f5b3 7f00 	cmp.w	r3, #512	; 0x200
 800a3c6:	d322      	bcc.n	800a40e <_free_r+0xce>
 800a3c8:	0a5a      	lsrs	r2, r3, #9
 800a3ca:	2a04      	cmp	r2, #4
 800a3cc:	d85b      	bhi.n	800a486 <_free_r+0x146>
 800a3ce:	0998      	lsrs	r0, r3, #6
 800a3d0:	3038      	adds	r0, #56	; 0x38
 800a3d2:	0041      	lsls	r1, r0, #1
 800a3d4:	eb05 0581 	add.w	r5, r5, r1, lsl #2
 800a3d8:	f240 11b0 	movw	r1, #432	; 0x1b0
 800a3dc:	f2c2 0100 	movt	r1, #8192	; 0x2000
 800a3e0:	68aa      	ldr	r2, [r5, #8]
 800a3e2:	42aa      	cmp	r2, r5
 800a3e4:	d05b      	beq.n	800a49e <_free_r+0x15e>
 800a3e6:	6851      	ldr	r1, [r2, #4]
 800a3e8:	f021 0103 	bic.w	r1, r1, #3
 800a3ec:	428b      	cmp	r3, r1
 800a3ee:	d202      	bcs.n	800a3f6 <_free_r+0xb6>
 800a3f0:	6892      	ldr	r2, [r2, #8]
 800a3f2:	4295      	cmp	r5, r2
 800a3f4:	d1f7      	bne.n	800a3e6 <_free_r+0xa6>
 800a3f6:	68d3      	ldr	r3, [r2, #12]
 800a3f8:	60e3      	str	r3, [r4, #12]
 800a3fa:	60a2      	str	r2, [r4, #8]
 800a3fc:	609c      	str	r4, [r3, #8]
 800a3fe:	60d4      	str	r4, [r2, #12]
 800a400:	4640      	mov	r0, r8
 800a402:	e8bd 41f0 	ldmia.w	sp!, {r4, r5, r6, r7, r8, lr}
 800a406:	f7fe baff 	b.w	8008a08 <__malloc_unlock>
 800a40a:	e8bd 81f0 	ldmia.w	sp!, {r4, r5, r6, r7, r8, pc}
 800a40e:	08db      	lsrs	r3, r3, #3
 800a410:	2101      	movs	r1, #1
 800a412:	6868      	ldr	r0, [r5, #4]
 800a414:	eb05 02c3 	add.w	r2, r5, r3, lsl #3
 800a418:	109b      	asrs	r3, r3, #2
 800a41a:	fa01 f303 	lsl.w	r3, r1, r3
 800a41e:	6891      	ldr	r1, [r2, #8]
 800a420:	4318      	orrs	r0, r3
 800a422:	60e2      	str	r2, [r4, #12]
 800a424:	6068      	str	r0, [r5, #4]
 800a426:	4640      	mov	r0, r8
 800a428:	60a1      	str	r1, [r4, #8]
 800a42a:	6094      	str	r4, [r2, #8]
 800a42c:	60cc      	str	r4, [r1, #12]
 800a42e:	e8bd 41f0 	ldmia.w	sp!, {r4, r5, r6, r7, r8, lr}
 800a432:	f7fe bae9 	b.w	8008a08 <__malloc_unlock>
 800a436:	07cf      	lsls	r7, r1, #31
 800a438:	4418      	add	r0, r3
 800a43a:	d407      	bmi.n	800a44c <_free_r+0x10c>
 800a43c:	f856 3c08 	ldr.w	r3, [r6, #-8]
 800a440:	1ae4      	subs	r4, r4, r3
 800a442:	4418      	add	r0, r3
 800a444:	68a2      	ldr	r2, [r4, #8]
 800a446:	68e3      	ldr	r3, [r4, #12]
 800a448:	60d3      	str	r3, [r2, #12]
 800a44a:	609a      	str	r2, [r3, #8]
 800a44c:	f240 52bc 	movw	r2, #1468	; 0x5bc
 800a450:	f040 0301 	orr.w	r3, r0, #1
 800a454:	f2c2 0200 	movt	r2, #8192	; 0x2000
 800a458:	6063      	str	r3, [r4, #4]
 800a45a:	60ac      	str	r4, [r5, #8]
 800a45c:	6813      	ldr	r3, [r2, #0]
 800a45e:	4298      	cmp	r0, r3
 800a460:	d3ce      	bcc.n	800a400 <_free_r+0xc0>
 800a462:	f642 735c 	movw	r3, #12124	; 0x2f5c
 800a466:	4640      	mov	r0, r8
 800a468:	f2c2 0300 	movt	r3, #8192	; 0x2000
 800a46c:	6819      	ldr	r1, [r3, #0]
 800a46e:	f7ff ff15 	bl	800a29c <_malloc_trim_r>
 800a472:	e7c5      	b.n	800a400 <_free_r+0xc0>
 800a474:	616c      	str	r4, [r5, #20]
 800a476:	f043 0201 	orr.w	r2, r3, #1
 800a47a:	612c      	str	r4, [r5, #16]
 800a47c:	60e0      	str	r0, [r4, #12]
 800a47e:	60a0      	str	r0, [r4, #8]
 800a480:	6062      	str	r2, [r4, #4]
 800a482:	50e3      	str	r3, [r4, r3]
 800a484:	e7bc      	b.n	800a400 <_free_r+0xc0>
 800a486:	2a14      	cmp	r2, #20
 800a488:	bf9c      	itt	ls
 800a48a:	f102 005b 	addls.w	r0, r2, #91	; 0x5b
 800a48e:	0041      	lslls	r1, r0, #1
 800a490:	d9a0      	bls.n	800a3d4 <_free_r+0x94>
 800a492:	2a54      	cmp	r2, #84	; 0x54
 800a494:	d80c      	bhi.n	800a4b0 <_free_r+0x170>
 800a496:	0b18      	lsrs	r0, r3, #12
 800a498:	306e      	adds	r0, #110	; 0x6e
 800a49a:	0041      	lsls	r1, r0, #1
 800a49c:	e79a      	b.n	800a3d4 <_free_r+0x94>
 800a49e:	2601      	movs	r6, #1
 800a4a0:	684d      	ldr	r5, [r1, #4]
 800a4a2:	1080      	asrs	r0, r0, #2
 800a4a4:	4613      	mov	r3, r2
 800a4a6:	fa06 f000 	lsl.w	r0, r6, r0
 800a4aa:	4305      	orrs	r5, r0
 800a4ac:	604d      	str	r5, [r1, #4]
 800a4ae:	e7a3      	b.n	800a3f8 <_free_r+0xb8>
 800a4b0:	f5b2 7faa 	cmp.w	r2, #340	; 0x154
 800a4b4:	d803      	bhi.n	800a4be <_free_r+0x17e>
 800a4b6:	0bd8      	lsrs	r0, r3, #15
 800a4b8:	3077      	adds	r0, #119	; 0x77
 800a4ba:	0041      	lsls	r1, r0, #1
 800a4bc:	e78a      	b.n	800a3d4 <_free_r+0x94>
 800a4be:	f240 5154 	movw	r1, #1364	; 0x554
 800a4c2:	428a      	cmp	r2, r1
 800a4c4:	bf95      	itete	ls
 800a4c6:	0c98      	lsrls	r0, r3, #18
 800a4c8:	21fc      	movhi	r1, #252	; 0xfc
 800a4ca:	307c      	addls	r0, #124	; 0x7c
 800a4cc:	207e      	movhi	r0, #126	; 0x7e
 800a4ce:	bf98      	it	ls
 800a4d0:	0041      	lslls	r1, r0, #1
 800a4d2:	e77f      	b.n	800a3d4 <_free_r+0x94>
 800a4d4:	200001b8 			; <UNDEFINED> instruction: 0x200001b8

0800a4d8 <memmove>:
 800a4d8:	4288      	cmp	r0, r1
 800a4da:	b4f0      	push	{r4, r5, r6, r7}
 800a4dc:	d910      	bls.n	800a500 <memmove+0x28>
 800a4de:	188c      	adds	r4, r1, r2
 800a4e0:	42a0      	cmp	r0, r4
 800a4e2:	d20d      	bcs.n	800a500 <memmove+0x28>
 800a4e4:	1885      	adds	r5, r0, r2
 800a4e6:	1e53      	subs	r3, r2, #1
 800a4e8:	b142      	cbz	r2, 800a4fc <memmove+0x24>
 800a4ea:	4621      	mov	r1, r4
 800a4ec:	462a      	mov	r2, r5
 800a4ee:	f811 4d01 	ldrb.w	r4, [r1, #-1]!
 800a4f2:	3b01      	subs	r3, #1
 800a4f4:	f802 4d01 	strb.w	r4, [r2, #-1]!
 800a4f8:	1c5c      	adds	r4, r3, #1
 800a4fa:	d1f8      	bne.n	800a4ee <memmove+0x16>
 800a4fc:	bcf0      	pop	{r4, r5, r6, r7}
 800a4fe:	4770      	bx	lr
 800a500:	2a0f      	cmp	r2, #15
 800a502:	d946      	bls.n	800a592 <memmove+0xba>
 800a504:	ea40 0301 	orr.w	r3, r0, r1
 800a508:	079b      	lsls	r3, r3, #30
 800a50a:	d146      	bne.n	800a59a <memmove+0xc2>
 800a50c:	f1a2 0710 	sub.w	r7, r2, #16
 800a510:	460c      	mov	r4, r1
 800a512:	4603      	mov	r3, r0
 800a514:	093f      	lsrs	r7, r7, #4
 800a516:	eb00 1607 	add.w	r6, r0, r7, lsl #4
 800a51a:	3610      	adds	r6, #16
 800a51c:	6825      	ldr	r5, [r4, #0]
 800a51e:	3310      	adds	r3, #16
 800a520:	3410      	adds	r4, #16
 800a522:	f843 5c10 	str.w	r5, [r3, #-16]
 800a526:	f854 5c0c 	ldr.w	r5, [r4, #-12]
 800a52a:	f843 5c0c 	str.w	r5, [r3, #-12]
 800a52e:	f854 5c08 	ldr.w	r5, [r4, #-8]
 800a532:	f843 5c08 	str.w	r5, [r3, #-8]
 800a536:	f854 5c04 	ldr.w	r5, [r4, #-4]
 800a53a:	f843 5c04 	str.w	r5, [r3, #-4]
 800a53e:	42b3      	cmp	r3, r6
 800a540:	d1ec      	bne.n	800a51c <memmove+0x44>
 800a542:	1c7b      	adds	r3, r7, #1
 800a544:	f002 0c0f 	and.w	ip, r2, #15
 800a548:	f1bc 0f03 	cmp.w	ip, #3
 800a54c:	ea4f 1303 	mov.w	r3, r3, lsl #4
 800a550:	4419      	add	r1, r3
 800a552:	4403      	add	r3, r0
 800a554:	d923      	bls.n	800a59e <memmove+0xc6>
 800a556:	460e      	mov	r6, r1
 800a558:	461d      	mov	r5, r3
 800a55a:	4664      	mov	r4, ip
 800a55c:	f856 7b04 	ldr.w	r7, [r6], #4
 800a560:	3c04      	subs	r4, #4
 800a562:	2c03      	cmp	r4, #3
 800a564:	f845 7b04 	str.w	r7, [r5], #4
 800a568:	d8f8      	bhi.n	800a55c <memmove+0x84>
 800a56a:	f1ac 0404 	sub.w	r4, ip, #4
 800a56e:	f002 0203 	and.w	r2, r2, #3
 800a572:	f024 0403 	bic.w	r4, r4, #3
 800a576:	3404      	adds	r4, #4
 800a578:	4423      	add	r3, r4
 800a57a:	4421      	add	r1, r4
 800a57c:	2a00      	cmp	r2, #0
 800a57e:	d0bd      	beq.n	800a4fc <memmove+0x24>
 800a580:	441a      	add	r2, r3
 800a582:	f811 4b01 	ldrb.w	r4, [r1], #1
 800a586:	f803 4b01 	strb.w	r4, [r3], #1
 800a58a:	4293      	cmp	r3, r2
 800a58c:	d1f9      	bne.n	800a582 <memmove+0xaa>
 800a58e:	bcf0      	pop	{r4, r5, r6, r7}
 800a590:	4770      	bx	lr
 800a592:	4603      	mov	r3, r0
 800a594:	2a00      	cmp	r2, #0
 800a596:	d1f3      	bne.n	800a580 <memmove+0xa8>
 800a598:	e7b0      	b.n	800a4fc <memmove+0x24>
 800a59a:	4603      	mov	r3, r0
 800a59c:	e7f0      	b.n	800a580 <memmove+0xa8>
 800a59e:	4662      	mov	r2, ip
 800a5a0:	2a00      	cmp	r2, #0
 800a5a2:	d1ed      	bne.n	800a580 <memmove+0xa8>
 800a5a4:	e7aa      	b.n	800a4fc <memmove+0x24>
 800a5a6:	bf00      	nop

0800a5a8 <memset>:
 800a5a8:	0783      	lsls	r3, r0, #30
 800a5aa:	b4f0      	push	{r4, r5, r6, r7}
 800a5ac:	d048      	beq.n	800a640 <memset+0x98>
 800a5ae:	1e54      	subs	r4, r2, #1
 800a5b0:	2a00      	cmp	r2, #0
 800a5b2:	d043      	beq.n	800a63c <memset+0x94>
 800a5b4:	b2cd      	uxtb	r5, r1
 800a5b6:	4603      	mov	r3, r0
 800a5b8:	e002      	b.n	800a5c0 <memset+0x18>
 800a5ba:	2c00      	cmp	r4, #0
 800a5bc:	d03e      	beq.n	800a63c <memset+0x94>
 800a5be:	4614      	mov	r4, r2
 800a5c0:	f803 5b01 	strb.w	r5, [r3], #1
 800a5c4:	f013 0f03 	tst.w	r3, #3
 800a5c8:	f104 32ff 	add.w	r2, r4, #4294967295
 800a5cc:	d1f5      	bne.n	800a5ba <memset+0x12>
 800a5ce:	2c03      	cmp	r4, #3
 800a5d0:	d92d      	bls.n	800a62e <memset+0x86>
 800a5d2:	b2cd      	uxtb	r5, r1
 800a5d4:	2c0f      	cmp	r4, #15
 800a5d6:	ea45 2505 	orr.w	r5, r5, r5, lsl #8
 800a5da:	ea45 4505 	orr.w	r5, r5, r5, lsl #16
 800a5de:	d918      	bls.n	800a612 <memset+0x6a>
 800a5e0:	f1a4 0710 	sub.w	r7, r4, #16
 800a5e4:	f103 0610 	add.w	r6, r3, #16
 800a5e8:	461a      	mov	r2, r3
 800a5ea:	093f      	lsrs	r7, r7, #4
 800a5ec:	eb06 1607 	add.w	r6, r6, r7, lsl #4
 800a5f0:	6015      	str	r5, [r2, #0]
 800a5f2:	3210      	adds	r2, #16
 800a5f4:	f842 5c0c 	str.w	r5, [r2, #-12]
 800a5f8:	f842 5c08 	str.w	r5, [r2, #-8]
 800a5fc:	f842 5c04 	str.w	r5, [r2, #-4]
 800a600:	42b2      	cmp	r2, r6
 800a602:	d1f5      	bne.n	800a5f0 <memset+0x48>
 800a604:	f004 040f 	and.w	r4, r4, #15
 800a608:	3701      	adds	r7, #1
 800a60a:	2c03      	cmp	r4, #3
 800a60c:	eb03 1307 	add.w	r3, r3, r7, lsl #4
 800a610:	d90d      	bls.n	800a62e <memset+0x86>
 800a612:	461e      	mov	r6, r3
 800a614:	4622      	mov	r2, r4
 800a616:	3a04      	subs	r2, #4
 800a618:	f846 5b04 	str.w	r5, [r6], #4
 800a61c:	2a03      	cmp	r2, #3
 800a61e:	d8fa      	bhi.n	800a616 <memset+0x6e>
 800a620:	1f22      	subs	r2, r4, #4
 800a622:	f004 0403 	and.w	r4, r4, #3
 800a626:	f022 0203 	bic.w	r2, r2, #3
 800a62a:	3204      	adds	r2, #4
 800a62c:	4413      	add	r3, r2
 800a62e:	b12c      	cbz	r4, 800a63c <memset+0x94>
 800a630:	b2c9      	uxtb	r1, r1
 800a632:	441c      	add	r4, r3
 800a634:	f803 1b01 	strb.w	r1, [r3], #1
 800a638:	42a3      	cmp	r3, r4
 800a63a:	d1fb      	bne.n	800a634 <memset+0x8c>
 800a63c:	bcf0      	pop	{r4, r5, r6, r7}
 800a63e:	4770      	bx	lr
 800a640:	4614      	mov	r4, r2
 800a642:	4603      	mov	r3, r0
 800a644:	e7c3      	b.n	800a5ce <memset+0x26>
 800a646:	bf00      	nop

0800a648 <_realloc_r>:
 800a648:	e92d 4ff0 	stmdb	sp!, {r4, r5, r6, r7, r8, r9, sl, fp, lr}
 800a64c:	460c      	mov	r4, r1
 800a64e:	b083      	sub	sp, #12
 800a650:	4690      	mov	r8, r2
 800a652:	4681      	mov	r9, r0
 800a654:	2900      	cmp	r1, #0
 800a656:	f000 8148 	beq.w	800a8ea <_realloc_r+0x2a2>
 800a65a:	f7fe f9d3 	bl	8008a04 <__malloc_lock>
 800a65e:	f108 060b 	add.w	r6, r8, #11
 800a662:	2e16      	cmp	r6, #22
 800a664:	f854 cc04 	ldr.w	ip, [r4, #-4]
 800a668:	bf8d      	iteet	hi
 800a66a:	f026 0607 	bichi.w	r6, r6, #7
 800a66e:	2210      	movls	r2, #16
 800a670:	2300      	movls	r3, #0
 800a672:	4632      	movhi	r2, r6
 800a674:	bf88      	it	hi
 800a676:	0ff3      	lsrhi	r3, r6, #31
 800a678:	f1a4 0708 	sub.w	r7, r4, #8
 800a67c:	f02c 0503 	bic.w	r5, ip, #3
 800a680:	bf98      	it	ls
 800a682:	4616      	movls	r6, r2
 800a684:	4546      	cmp	r6, r8
 800a686:	bf38      	it	cc
 800a688:	f043 0301 	orrcc.w	r3, r3, #1
 800a68c:	2b00      	cmp	r3, #0
 800a68e:	f040 8132 	bne.w	800a8f6 <_realloc_r+0x2ae>
 800a692:	4295      	cmp	r5, r2
 800a694:	db16      	blt.n	800a6c4 <_realloc_r+0x7c>
 800a696:	46a0      	mov	r8, r4
 800a698:	4660      	mov	r0, ip
 800a69a:	1bab      	subs	r3, r5, r6
 800a69c:	2b0f      	cmp	r3, #15
 800a69e:	f200 80cc 	bhi.w	800a83a <_realloc_r+0x1f2>
 800a6a2:	197b      	adds	r3, r7, r5
 800a6a4:	f000 0c01 	and.w	ip, r0, #1
 800a6a8:	ea4c 0505 	orr.w	r5, ip, r5
 800a6ac:	607d      	str	r5, [r7, #4]
 800a6ae:	685a      	ldr	r2, [r3, #4]
 800a6b0:	f042 0201 	orr.w	r2, r2, #1
 800a6b4:	605a      	str	r2, [r3, #4]
 800a6b6:	4648      	mov	r0, r9
 800a6b8:	f7fe f9a6 	bl	8008a08 <__malloc_unlock>
 800a6bc:	4640      	mov	r0, r8
 800a6be:	b003      	add	sp, #12
 800a6c0:	e8bd 8ff0 	ldmia.w	sp!, {r4, r5, r6, r7, r8, r9, sl, fp, pc}
 800a6c4:	f240 1ab0 	movw	sl, #432	; 0x1b0
 800a6c8:	1979      	adds	r1, r7, r5
 800a6ca:	f2c2 0a00 	movt	sl, #8192	; 0x2000
 800a6ce:	f8da 0008 	ldr.w	r0, [sl, #8]
 800a6d2:	4288      	cmp	r0, r1
 800a6d4:	f000 8114 	beq.w	800a900 <_realloc_r+0x2b8>
 800a6d8:	f8d1 e004 	ldr.w	lr, [r1, #4]
 800a6dc:	f02e 0b01 	bic.w	fp, lr, #1
 800a6e0:	448b      	add	fp, r1
 800a6e2:	f8db b004 	ldr.w	fp, [fp, #4]
 800a6e6:	f01b 0f01 	tst.w	fp, #1
 800a6ea:	bf1c      	itt	ne
 800a6ec:	469e      	movne	lr, r3
 800a6ee:	4671      	movne	r1, lr
 800a6f0:	d056      	beq.n	800a7a0 <_realloc_r+0x158>
 800a6f2:	f01c 0f01 	tst.w	ip, #1
 800a6f6:	f040 80b3 	bne.w	800a860 <_realloc_r+0x218>
 800a6fa:	f854 3c08 	ldr.w	r3, [r4, #-8]
 800a6fe:	ebc3 0b07 	rsb	fp, r3, r7
 800a702:	f8db 3004 	ldr.w	r3, [fp, #4]
 800a706:	f023 0303 	bic.w	r3, r3, #3
 800a70a:	442b      	add	r3, r5
 800a70c:	2900      	cmp	r1, #0
 800a70e:	d055      	beq.n	800a7bc <_realloc_r+0x174>
 800a710:	4281      	cmp	r1, r0
 800a712:	f000 8121 	beq.w	800a958 <_realloc_r+0x310>
 800a716:	449e      	add	lr, r3
 800a718:	4596      	cmp	lr, r2
 800a71a:	db4f      	blt.n	800a7bc <_realloc_r+0x174>
 800a71c:	68cb      	ldr	r3, [r1, #12]
 800a71e:	46d8      	mov	r8, fp
 800a720:	6889      	ldr	r1, [r1, #8]
 800a722:	1f2a      	subs	r2, r5, #4
 800a724:	2a24      	cmp	r2, #36	; 0x24
 800a726:	60cb      	str	r3, [r1, #12]
 800a728:	6099      	str	r1, [r3, #8]
 800a72a:	f8db 300c 	ldr.w	r3, [fp, #12]
 800a72e:	f858 1f08 	ldr.w	r1, [r8, #8]!
 800a732:	60cb      	str	r3, [r1, #12]
 800a734:	6099      	str	r1, [r3, #8]
 800a736:	f200 816a 	bhi.w	800aa0e <_realloc_r+0x3c6>
 800a73a:	2a13      	cmp	r2, #19
 800a73c:	bf98      	it	ls
 800a73e:	4642      	movls	r2, r8
 800a740:	d923      	bls.n	800a78a <_realloc_r+0x142>
 800a742:	6823      	ldr	r3, [r4, #0]
 800a744:	2a1b      	cmp	r2, #27
 800a746:	bf98      	it	ls
 800a748:	f10b 0210 	addls.w	r2, fp, #16
 800a74c:	f8cb 3008 	str.w	r3, [fp, #8]
 800a750:	6863      	ldr	r3, [r4, #4]
 800a752:	bf98      	it	ls
 800a754:	3408      	addls	r4, #8
 800a756:	f8cb 300c 	str.w	r3, [fp, #12]
 800a75a:	d916      	bls.n	800a78a <_realloc_r+0x142>
 800a75c:	68a3      	ldr	r3, [r4, #8]
 800a75e:	2a24      	cmp	r2, #36	; 0x24
 800a760:	bf14      	ite	ne
 800a762:	f10b 0218 	addne.w	r2, fp, #24
 800a766:	f10b 0220 	addeq.w	r2, fp, #32
 800a76a:	f8cb 3010 	str.w	r3, [fp, #16]
 800a76e:	68e3      	ldr	r3, [r4, #12]
 800a770:	bf18      	it	ne
 800a772:	3410      	addne	r4, #16
 800a774:	f8cb 3014 	str.w	r3, [fp, #20]
 800a778:	bf01      	itttt	eq
 800a77a:	6923      	ldreq	r3, [r4, #16]
 800a77c:	f8cb 3018 	streq.w	r3, [fp, #24]
 800a780:	6963      	ldreq	r3, [r4, #20]
 800a782:	3418      	addeq	r4, #24
 800a784:	bf08      	it	eq
 800a786:	f8cb 301c 	streq.w	r3, [fp, #28]
 800a78a:	6823      	ldr	r3, [r4, #0]
 800a78c:	4675      	mov	r5, lr
 800a78e:	465f      	mov	r7, fp
 800a790:	6013      	str	r3, [r2, #0]
 800a792:	6863      	ldr	r3, [r4, #4]
 800a794:	6053      	str	r3, [r2, #4]
 800a796:	68a3      	ldr	r3, [r4, #8]
 800a798:	6093      	str	r3, [r2, #8]
 800a79a:	f8db 0004 	ldr.w	r0, [fp, #4]
 800a79e:	e77c      	b.n	800a69a <_realloc_r+0x52>
 800a7a0:	f02e 0e03 	bic.w	lr, lr, #3
 800a7a4:	eb0e 0305 	add.w	r3, lr, r5
 800a7a8:	4293      	cmp	r3, r2
 800a7aa:	dba2      	blt.n	800a6f2 <_realloc_r+0xaa>
 800a7ac:	68ca      	ldr	r2, [r1, #12]
 800a7ae:	46a0      	mov	r8, r4
 800a7b0:	6889      	ldr	r1, [r1, #8]
 800a7b2:	4660      	mov	r0, ip
 800a7b4:	461d      	mov	r5, r3
 800a7b6:	60ca      	str	r2, [r1, #12]
 800a7b8:	6091      	str	r1, [r2, #8]
 800a7ba:	e76e      	b.n	800a69a <_realloc_r+0x52>
 800a7bc:	4293      	cmp	r3, r2
 800a7be:	db4f      	blt.n	800a860 <_realloc_r+0x218>
 800a7c0:	46d8      	mov	r8, fp
 800a7c2:	f8db 100c 	ldr.w	r1, [fp, #12]
 800a7c6:	1f2a      	subs	r2, r5, #4
 800a7c8:	f858 0f08 	ldr.w	r0, [r8, #8]!
 800a7cc:	2a24      	cmp	r2, #36	; 0x24
 800a7ce:	60c1      	str	r1, [r0, #12]
 800a7d0:	6088      	str	r0, [r1, #8]
 800a7d2:	f200 80b4 	bhi.w	800a93e <_realloc_r+0x2f6>
 800a7d6:	2a13      	cmp	r2, #19
 800a7d8:	bf98      	it	ls
 800a7da:	4641      	movls	r1, r8
 800a7dc:	d922      	bls.n	800a824 <_realloc_r+0x1dc>
 800a7de:	6821      	ldr	r1, [r4, #0]
 800a7e0:	2a1b      	cmp	r2, #27
 800a7e2:	f8cb 1008 	str.w	r1, [fp, #8]
 800a7e6:	6861      	ldr	r1, [r4, #4]
 800a7e8:	bf98      	it	ls
 800a7ea:	3408      	addls	r4, #8
 800a7ec:	f8cb 100c 	str.w	r1, [fp, #12]
 800a7f0:	bf98      	it	ls
 800a7f2:	f10b 0110 	addls.w	r1, fp, #16
 800a7f6:	d915      	bls.n	800a824 <_realloc_r+0x1dc>
 800a7f8:	68a1      	ldr	r1, [r4, #8]
 800a7fa:	2a24      	cmp	r2, #36	; 0x24
 800a7fc:	f8cb 1010 	str.w	r1, [fp, #16]
 800a800:	68e1      	ldr	r1, [r4, #12]
 800a802:	bf18      	it	ne
 800a804:	3410      	addne	r4, #16
 800a806:	f8cb 1014 	str.w	r1, [fp, #20]
 800a80a:	bf11      	iteee	ne
 800a80c:	f10b 0118 	addne.w	r1, fp, #24
 800a810:	6922      	ldreq	r2, [r4, #16]
 800a812:	f10b 0120 	addeq.w	r1, fp, #32
 800a816:	f8cb 2018 	streq.w	r2, [fp, #24]
 800a81a:	bf02      	ittt	eq
 800a81c:	6962      	ldreq	r2, [r4, #20]
 800a81e:	3418      	addeq	r4, #24
 800a820:	f8cb 201c 	streq.w	r2, [fp, #28]
 800a824:	6822      	ldr	r2, [r4, #0]
 800a826:	461d      	mov	r5, r3
 800a828:	465f      	mov	r7, fp
 800a82a:	600a      	str	r2, [r1, #0]
 800a82c:	6863      	ldr	r3, [r4, #4]
 800a82e:	604b      	str	r3, [r1, #4]
 800a830:	68a3      	ldr	r3, [r4, #8]
 800a832:	608b      	str	r3, [r1, #8]
 800a834:	f8db 0004 	ldr.w	r0, [fp, #4]
 800a838:	e72f      	b.n	800a69a <_realloc_r+0x52>
 800a83a:	19b9      	adds	r1, r7, r6
 800a83c:	f000 0c01 	and.w	ip, r0, #1
 800a840:	18ca      	adds	r2, r1, r3
 800a842:	ea4c 0606 	orr.w	r6, ip, r6
 800a846:	f043 0301 	orr.w	r3, r3, #1
 800a84a:	607e      	str	r6, [r7, #4]
 800a84c:	604b      	str	r3, [r1, #4]
 800a84e:	4648      	mov	r0, r9
 800a850:	6853      	ldr	r3, [r2, #4]
 800a852:	3108      	adds	r1, #8
 800a854:	f043 0301 	orr.w	r3, r3, #1
 800a858:	6053      	str	r3, [r2, #4]
 800a85a:	f7ff fd71 	bl	800a340 <_free_r>
 800a85e:	e72a      	b.n	800a6b6 <_realloc_r+0x6e>
 800a860:	4641      	mov	r1, r8
 800a862:	4648      	mov	r0, r9
 800a864:	f7fd fd7a 	bl	800835c <_malloc_r>
 800a868:	4680      	mov	r8, r0
 800a86a:	2800      	cmp	r0, #0
 800a86c:	f43f af23 	beq.w	800a6b6 <_realloc_r+0x6e>
 800a870:	f854 3c04 	ldr.w	r3, [r4, #-4]
 800a874:	f1a0 0108 	sub.w	r1, r0, #8
 800a878:	f023 0201 	bic.w	r2, r3, #1
 800a87c:	443a      	add	r2, r7
 800a87e:	4291      	cmp	r1, r2
 800a880:	f000 80bd 	beq.w	800a9fe <_realloc_r+0x3b6>
 800a884:	1f2a      	subs	r2, r5, #4
 800a886:	2a24      	cmp	r2, #36	; 0x24
 800a888:	d862      	bhi.n	800a950 <_realloc_r+0x308>
 800a88a:	2a13      	cmp	r2, #19
 800a88c:	bf9c      	itt	ls
 800a88e:	4603      	movls	r3, r0
 800a890:	4622      	movls	r2, r4
 800a892:	d91f      	bls.n	800a8d4 <_realloc_r+0x28c>
 800a894:	6823      	ldr	r3, [r4, #0]
 800a896:	2a1b      	cmp	r2, #27
 800a898:	bf98      	it	ls
 800a89a:	f104 0208 	addls.w	r2, r4, #8
 800a89e:	6003      	str	r3, [r0, #0]
 800a8a0:	6863      	ldr	r3, [r4, #4]
 800a8a2:	6043      	str	r3, [r0, #4]
 800a8a4:	bf98      	it	ls
 800a8a6:	f100 0308 	addls.w	r3, r0, #8
 800a8aa:	d913      	bls.n	800a8d4 <_realloc_r+0x28c>
 800a8ac:	68a3      	ldr	r3, [r4, #8]
 800a8ae:	2a24      	cmp	r2, #36	; 0x24
 800a8b0:	bf14      	ite	ne
 800a8b2:	f104 0210 	addne.w	r2, r4, #16
 800a8b6:	f104 0218 	addeq.w	r2, r4, #24
 800a8ba:	6083      	str	r3, [r0, #8]
 800a8bc:	68e3      	ldr	r3, [r4, #12]
 800a8be:	60c3      	str	r3, [r0, #12]
 800a8c0:	bf11      	iteee	ne
 800a8c2:	f100 0310 	addne.w	r3, r0, #16
 800a8c6:	6921      	ldreq	r1, [r4, #16]
 800a8c8:	f100 0318 	addeq.w	r3, r0, #24
 800a8cc:	6101      	streq	r1, [r0, #16]
 800a8ce:	bf04      	itt	eq
 800a8d0:	6961      	ldreq	r1, [r4, #20]
 800a8d2:	6141      	streq	r1, [r0, #20]
 800a8d4:	6811      	ldr	r1, [r2, #0]
 800a8d6:	6019      	str	r1, [r3, #0]
 800a8d8:	6851      	ldr	r1, [r2, #4]
 800a8da:	6059      	str	r1, [r3, #4]
 800a8dc:	6892      	ldr	r2, [r2, #8]
 800a8de:	609a      	str	r2, [r3, #8]
 800a8e0:	4621      	mov	r1, r4
 800a8e2:	4648      	mov	r0, r9
 800a8e4:	f7ff fd2c 	bl	800a340 <_free_r>
 800a8e8:	e6e5      	b.n	800a6b6 <_realloc_r+0x6e>
 800a8ea:	4611      	mov	r1, r2
 800a8ec:	b003      	add	sp, #12
 800a8ee:	e8bd 4ff0 	ldmia.w	sp!, {r4, r5, r6, r7, r8, r9, sl, fp, lr}
 800a8f2:	f7fd bd33 	b.w	800835c <_malloc_r>
 800a8f6:	230c      	movs	r3, #12
 800a8f8:	2000      	movs	r0, #0
 800a8fa:	f8c9 3000 	str.w	r3, [r9]
 800a8fe:	e6de      	b.n	800a6be <_realloc_r+0x76>
 800a900:	6843      	ldr	r3, [r0, #4]
 800a902:	f106 0110 	add.w	r1, r6, #16
 800a906:	f023 0e03 	bic.w	lr, r3, #3
 800a90a:	eb0e 0305 	add.w	r3, lr, r5
 800a90e:	428b      	cmp	r3, r1
 800a910:	bfb8      	it	lt
 800a912:	4601      	movlt	r1, r0
 800a914:	f6ff aeed 	blt.w	800a6f2 <_realloc_r+0xaa>
 800a918:	4437      	add	r7, r6
 800a91a:	1b9b      	subs	r3, r3, r6
 800a91c:	f8ca 7008 	str.w	r7, [sl, #8]
 800a920:	f043 0301 	orr.w	r3, r3, #1
 800a924:	607b      	str	r3, [r7, #4]
 800a926:	4648      	mov	r0, r9
 800a928:	f854 3c04 	ldr.w	r3, [r4, #-4]
 800a92c:	f003 0301 	and.w	r3, r3, #1
 800a930:	431e      	orrs	r6, r3
 800a932:	f844 6c04 	str.w	r6, [r4, #-4]
 800a936:	f7fe f867 	bl	8008a08 <__malloc_unlock>
 800a93a:	4620      	mov	r0, r4
 800a93c:	e6bf      	b.n	800a6be <_realloc_r+0x76>
 800a93e:	4621      	mov	r1, r4
 800a940:	4640      	mov	r0, r8
 800a942:	461d      	mov	r5, r3
 800a944:	465f      	mov	r7, fp
 800a946:	f7ff fdc7 	bl	800a4d8 <memmove>
 800a94a:	f8db 0004 	ldr.w	r0, [fp, #4]
 800a94e:	e6a4      	b.n	800a69a <_realloc_r+0x52>
 800a950:	4621      	mov	r1, r4
 800a952:	f7ff fdc1 	bl	800a4d8 <memmove>
 800a956:	e7c3      	b.n	800a8e0 <_realloc_r+0x298>
 800a958:	f106 0110 	add.w	r1, r6, #16
 800a95c:	eb0e 0c03 	add.w	ip, lr, r3
 800a960:	458c      	cmp	ip, r1
 800a962:	f6ff af2b 	blt.w	800a7bc <_realloc_r+0x174>
 800a966:	46d8      	mov	r8, fp
 800a968:	f8db 300c 	ldr.w	r3, [fp, #12]
 800a96c:	1f2a      	subs	r2, r5, #4
 800a96e:	f858 1f08 	ldr.w	r1, [r8, #8]!
 800a972:	2a24      	cmp	r2, #36	; 0x24
 800a974:	60cb      	str	r3, [r1, #12]
 800a976:	6099      	str	r1, [r3, #8]
 800a978:	d852      	bhi.n	800aa20 <_realloc_r+0x3d8>
 800a97a:	2a13      	cmp	r2, #19
 800a97c:	bf98      	it	ls
 800a97e:	4643      	movls	r3, r8
 800a980:	d922      	bls.n	800a9c8 <_realloc_r+0x380>
 800a982:	6823      	ldr	r3, [r4, #0]
 800a984:	2a1b      	cmp	r2, #27
 800a986:	f8cb 3008 	str.w	r3, [fp, #8]
 800a98a:	6863      	ldr	r3, [r4, #4]
 800a98c:	bf98      	it	ls
 800a98e:	3408      	addls	r4, #8
 800a990:	f8cb 300c 	str.w	r3, [fp, #12]
 800a994:	bf98      	it	ls
 800a996:	f10b 0310 	addls.w	r3, fp, #16
 800a99a:	d915      	bls.n	800a9c8 <_realloc_r+0x380>
 800a99c:	68a3      	ldr	r3, [r4, #8]
 800a99e:	2a24      	cmp	r2, #36	; 0x24
 800a9a0:	f8cb 3010 	str.w	r3, [fp, #16]
 800a9a4:	68e3      	ldr	r3, [r4, #12]
 800a9a6:	bf18      	it	ne
 800a9a8:	3410      	addne	r4, #16
 800a9aa:	f8cb 3014 	str.w	r3, [fp, #20]
 800a9ae:	bf11      	iteee	ne
 800a9b0:	f10b 0318 	addne.w	r3, fp, #24
 800a9b4:	6922      	ldreq	r2, [r4, #16]
 800a9b6:	f10b 0320 	addeq.w	r3, fp, #32
 800a9ba:	f8cb 2018 	streq.w	r2, [fp, #24]
 800a9be:	bf02      	ittt	eq
 800a9c0:	6962      	ldreq	r2, [r4, #20]
 800a9c2:	3418      	addeq	r4, #24
 800a9c4:	f8cb 201c 	streq.w	r2, [fp, #28]
 800a9c8:	6822      	ldr	r2, [r4, #0]
 800a9ca:	601a      	str	r2, [r3, #0]
 800a9cc:	6862      	ldr	r2, [r4, #4]
 800a9ce:	605a      	str	r2, [r3, #4]
 800a9d0:	68a2      	ldr	r2, [r4, #8]
 800a9d2:	609a      	str	r2, [r3, #8]
 800a9d4:	eb0b 0306 	add.w	r3, fp, r6
 800a9d8:	ebc6 020c 	rsb	r2, r6, ip
 800a9dc:	f8ca 3008 	str.w	r3, [sl, #8]
 800a9e0:	f042 0201 	orr.w	r2, r2, #1
 800a9e4:	605a      	str	r2, [r3, #4]
 800a9e6:	4648      	mov	r0, r9
 800a9e8:	f8db 3004 	ldr.w	r3, [fp, #4]
 800a9ec:	f003 0301 	and.w	r3, r3, #1
 800a9f0:	431e      	orrs	r6, r3
 800a9f2:	f8cb 6004 	str.w	r6, [fp, #4]
 800a9f6:	f7fe f807 	bl	8008a08 <__malloc_unlock>
 800a9fa:	4640      	mov	r0, r8
 800a9fc:	e65f      	b.n	800a6be <_realloc_r+0x76>
 800a9fe:	f850 2c04 	ldr.w	r2, [r0, #-4]
 800aa02:	4618      	mov	r0, r3
 800aa04:	46a0      	mov	r8, r4
 800aa06:	f022 0303 	bic.w	r3, r2, #3
 800aa0a:	441d      	add	r5, r3
 800aa0c:	e645      	b.n	800a69a <_realloc_r+0x52>
 800aa0e:	4621      	mov	r1, r4
 800aa10:	4640      	mov	r0, r8
 800aa12:	4675      	mov	r5, lr
 800aa14:	465f      	mov	r7, fp
 800aa16:	f7ff fd5f 	bl	800a4d8 <memmove>
 800aa1a:	f8db 0004 	ldr.w	r0, [fp, #4]
 800aa1e:	e63c      	b.n	800a69a <_realloc_r+0x52>
 800aa20:	4621      	mov	r1, r4
 800aa22:	4640      	mov	r0, r8
 800aa24:	f8cd c004 	str.w	ip, [sp, #4]
 800aa28:	f7ff fd56 	bl	800a4d8 <memmove>
 800aa2c:	f8dd c004 	ldr.w	ip, [sp, #4]
 800aa30:	e7d0      	b.n	800a9d4 <_realloc_r+0x38c>
 800aa32:	bf00      	nop

0800aa34 <cleanup_glue>:
 800aa34:	b538      	push	{r3, r4, r5, lr}
 800aa36:	460c      	mov	r4, r1
 800aa38:	6809      	ldr	r1, [r1, #0]
 800aa3a:	4605      	mov	r5, r0
 800aa3c:	b109      	cbz	r1, 800aa42 <cleanup_glue+0xe>
 800aa3e:	f7ff fff9 	bl	800aa34 <cleanup_glue>
 800aa42:	4628      	mov	r0, r5
 800aa44:	4621      	mov	r1, r4
 800aa46:	e8bd 4038 	ldmia.w	sp!, {r3, r4, r5, lr}
 800aa4a:	f7ff bc79 	b.w	800a340 <_free_r>
 800aa4e:	bf00      	nop

0800aa50 <_reclaim_reent>:
 800aa50:	f240 0340 	movw	r3, #64	; 0x40
 800aa54:	f2c2 0300 	movt	r3, #8192	; 0x2000
 800aa58:	b570      	push	{r4, r5, r6, lr}
 800aa5a:	4605      	mov	r5, r0
 800aa5c:	681b      	ldr	r3, [r3, #0]
 800aa5e:	4298      	cmp	r0, r3
 800aa60:	d054      	beq.n	800ab0c <_reclaim_reent+0xbc>
 800aa62:	6a43      	ldr	r3, [r0, #36]	; 0x24
 800aa64:	b1f3      	cbz	r3, 800aaa4 <_reclaim_reent+0x54>
 800aa66:	68da      	ldr	r2, [r3, #12]
 800aa68:	b1ba      	cbz	r2, 800aa9a <_reclaim_reent+0x4a>
 800aa6a:	2300      	movs	r3, #0
 800aa6c:	461e      	mov	r6, r3
 800aa6e:	f852 1023 	ldr.w	r1, [r2, r3, lsl #2]
 800aa72:	b909      	cbnz	r1, 800aa78 <_reclaim_reent+0x28>
 800aa74:	e008      	b.n	800aa88 <_reclaim_reent+0x38>
 800aa76:	4621      	mov	r1, r4
 800aa78:	680c      	ldr	r4, [r1, #0]
 800aa7a:	4628      	mov	r0, r5
 800aa7c:	f7ff fc60 	bl	800a340 <_free_r>
 800aa80:	2c00      	cmp	r4, #0
 800aa82:	d1f8      	bne.n	800aa76 <_reclaim_reent+0x26>
 800aa84:	6a6b      	ldr	r3, [r5, #36]	; 0x24
 800aa86:	68da      	ldr	r2, [r3, #12]
 800aa88:	3601      	adds	r6, #1
 800aa8a:	2e20      	cmp	r6, #32
 800aa8c:	4633      	mov	r3, r6
 800aa8e:	d1ee      	bne.n	800aa6e <_reclaim_reent+0x1e>
 800aa90:	4611      	mov	r1, r2
 800aa92:	4628      	mov	r0, r5
 800aa94:	f7ff fc54 	bl	800a340 <_free_r>
 800aa98:	6a6b      	ldr	r3, [r5, #36]	; 0x24
 800aa9a:	6819      	ldr	r1, [r3, #0]
 800aa9c:	b111      	cbz	r1, 800aaa4 <_reclaim_reent+0x54>
 800aa9e:	4628      	mov	r0, r5
 800aaa0:	f7ff fc4e 	bl	800a340 <_free_r>
 800aaa4:	6969      	ldr	r1, [r5, #20]
 800aaa6:	b111      	cbz	r1, 800aaae <_reclaim_reent+0x5e>
 800aaa8:	4628      	mov	r0, r5
 800aaaa:	f7ff fc49 	bl	800a340 <_free_r>
 800aaae:	6a69      	ldr	r1, [r5, #36]	; 0x24
 800aab0:	b111      	cbz	r1, 800aab8 <_reclaim_reent+0x68>
 800aab2:	4628      	mov	r0, r5
 800aab4:	f7ff fc44 	bl	800a340 <_free_r>
 800aab8:	6ba9      	ldr	r1, [r5, #56]	; 0x38
 800aaba:	b111      	cbz	r1, 800aac2 <_reclaim_reent+0x72>
 800aabc:	4628      	mov	r0, r5
 800aabe:	f7ff fc3f 	bl	800a340 <_free_r>
 800aac2:	6be9      	ldr	r1, [r5, #60]	; 0x3c
 800aac4:	b111      	cbz	r1, 800aacc <_reclaim_reent+0x7c>
 800aac6:	4628      	mov	r0, r5
 800aac8:	f7ff fc3a 	bl	800a340 <_free_r>
 800aacc:	6c29      	ldr	r1, [r5, #64]	; 0x40
 800aace:	b111      	cbz	r1, 800aad6 <_reclaim_reent+0x86>
 800aad0:	4628      	mov	r0, r5
 800aad2:	f7ff fc35 	bl	800a340 <_free_r>
 800aad6:	f8d5 10ec 	ldr.w	r1, [r5, #236]	; 0xec
 800aada:	b111      	cbz	r1, 800aae2 <_reclaim_reent+0x92>
 800aadc:	4628      	mov	r0, r5
 800aade:	f7ff fc2f 	bl	800a340 <_free_r>
 800aae2:	f8d5 10e8 	ldr.w	r1, [r5, #232]	; 0xe8
 800aae6:	b111      	cbz	r1, 800aaee <_reclaim_reent+0x9e>
 800aae8:	4628      	mov	r0, r5
 800aaea:	f7ff fc29 	bl	800a340 <_free_r>
 800aaee:	6cab      	ldr	r3, [r5, #72]	; 0x48
 800aaf0:	b12b      	cbz	r3, 800aafe <_reclaim_reent+0xae>
 800aaf2:	f8d3 1088 	ldr.w	r1, [r3, #136]	; 0x88
 800aaf6:	b111      	cbz	r1, 800aafe <_reclaim_reent+0xae>
 800aaf8:	4628      	mov	r0, r5
 800aafa:	f7ff fc21 	bl	800a340 <_free_r>
 800aafe:	6b69      	ldr	r1, [r5, #52]	; 0x34
 800ab00:	b111      	cbz	r1, 800ab08 <_reclaim_reent+0xb8>
 800ab02:	4628      	mov	r0, r5
 800ab04:	f7ff fc1c 	bl	800a340 <_free_r>
 800ab08:	69ab      	ldr	r3, [r5, #24]
 800ab0a:	b903      	cbnz	r3, 800ab0e <_reclaim_reent+0xbe>
 800ab0c:	bd70      	pop	{r4, r5, r6, pc}
 800ab0e:	6aab      	ldr	r3, [r5, #40]	; 0x28
 800ab10:	4628      	mov	r0, r5
 800ab12:	4798      	blx	r3
 800ab14:	f8d5 10d8 	ldr.w	r1, [r5, #216]	; 0xd8
 800ab18:	2900      	cmp	r1, #0
 800ab1a:	d0f7      	beq.n	800ab0c <_reclaim_reent+0xbc>
 800ab1c:	4628      	mov	r0, r5
 800ab1e:	e8bd 4070 	ldmia.w	sp!, {r4, r5, r6, lr}
 800ab22:	f7ff bf87 	b.w	800aa34 <cleanup_glue>
 800ab26:	bf00      	nop

0800ab28 <__aeabi_uidiv>:
 800ab28:	1e4a      	subs	r2, r1, #1
 800ab2a:	bf08      	it	eq
 800ab2c:	4770      	bxeq	lr
 800ab2e:	f0c0 8124 	bcc.w	800ad7a <__aeabi_uidiv+0x252>
 800ab32:	4288      	cmp	r0, r1
 800ab34:	f240 8116 	bls.w	800ad64 <__aeabi_uidiv+0x23c>
 800ab38:	4211      	tst	r1, r2
 800ab3a:	f000 8117 	beq.w	800ad6c <__aeabi_uidiv+0x244>
 800ab3e:	fab0 f380 	clz	r3, r0
 800ab42:	fab1 f281 	clz	r2, r1
 800ab46:	eba2 0303 	sub.w	r3, r2, r3
 800ab4a:	f1c3 031f 	rsb	r3, r3, #31
 800ab4e:	a204      	add	r2, pc, #16	; (adr r2, 800ab60 <__aeabi_uidiv+0x38>)
 800ab50:	eb02 1303 	add.w	r3, r2, r3, lsl #4
 800ab54:	f04f 0200 	mov.w	r2, #0
 800ab58:	469f      	mov	pc, r3
 800ab5a:	bf00      	nop
 800ab5c:	f3af 8000 	nop.w
 800ab60:	ebb0 7fc1 	cmp.w	r0, r1, lsl #31
 800ab64:	bf00      	nop
 800ab66:	eb42 0202 	adc.w	r2, r2, r2
 800ab6a:	bf28      	it	cs
 800ab6c:	eba0 70c1 	subcs.w	r0, r0, r1, lsl #31
 800ab70:	ebb0 7f81 	cmp.w	r0, r1, lsl #30
 800ab74:	bf00      	nop
 800ab76:	eb42 0202 	adc.w	r2, r2, r2
 800ab7a:	bf28      	it	cs
 800ab7c:	eba0 7081 	subcs.w	r0, r0, r1, lsl #30
 800ab80:	ebb0 7f41 	cmp.w	r0, r1, lsl #29
 800ab84:	bf00      	nop
 800ab86:	eb42 0202 	adc.w	r2, r2, r2
 800ab8a:	bf28      	it	cs
 800ab8c:	eba0 7041 	subcs.w	r0, r0, r1, lsl #29
 800ab90:	ebb0 7f01 	cmp.w	r0, r1, lsl #28
 800ab94:	bf00      	nop
 800ab96:	eb42 0202 	adc.w	r2, r2, r2
 800ab9a:	bf28      	it	cs
 800ab9c:	eba0 7001 	subcs.w	r0, r0, r1, lsl #28
 800aba0:	ebb0 6fc1 	cmp.w	r0, r1, lsl #27
 800aba4:	bf00      	nop
 800aba6:	eb42 0202 	adc.w	r2, r2, r2
 800abaa:	bf28      	it	cs
 800abac:	eba0 60c1 	subcs.w	r0, r0, r1, lsl #27
 800abb0:	ebb0 6f81 	cmp.w	r0, r1, lsl #26
 800abb4:	bf00      	nop
 800abb6:	eb42 0202 	adc.w	r2, r2, r2
 800abba:	bf28      	it	cs
 800abbc:	eba0 6081 	subcs.w	r0, r0, r1, lsl #26
 800abc0:	ebb0 6f41 	cmp.w	r0, r1, lsl #25
 800abc4:	bf00      	nop
 800abc6:	eb42 0202 	adc.w	r2, r2, r2
 800abca:	bf28      	it	cs
 800abcc:	eba0 6041 	subcs.w	r0, r0, r1, lsl #25
 800abd0:	ebb0 6f01 	cmp.w	r0, r1, lsl #24
 800abd4:	bf00      	nop
 800abd6:	eb42 0202 	adc.w	r2, r2, r2
 800abda:	bf28      	it	cs
 800abdc:	eba0 6001 	subcs.w	r0, r0, r1, lsl #24
 800abe0:	ebb0 5fc1 	cmp.w	r0, r1, lsl #23
 800abe4:	bf00      	nop
 800abe6:	eb42 0202 	adc.w	r2, r2, r2
 800abea:	bf28      	it	cs
 800abec:	eba0 50c1 	subcs.w	r0, r0, r1, lsl #23
 800abf0:	ebb0 5f81 	cmp.w	r0, r1, lsl #22
 800abf4:	bf00      	nop
 800abf6:	eb42 0202 	adc.w	r2, r2, r2
 800abfa:	bf28      	it	cs
 800abfc:	eba0 5081 	subcs.w	r0, r0, r1, lsl #22
 800ac00:	ebb0 5f41 	cmp.w	r0, r1, lsl #21
 800ac04:	bf00      	nop
 800ac06:	eb42 0202 	adc.w	r2, r2, r2
 800ac0a:	bf28      	it	cs
 800ac0c:	eba0 5041 	subcs.w	r0, r0, r1, lsl #21
 800ac10:	ebb0 5f01 	cmp.w	r0, r1, lsl #20
 800ac14:	bf00      	nop
 800ac16:	eb42 0202 	adc.w	r2, r2, r2
 800ac1a:	bf28      	it	cs
 800ac1c:	eba0 5001 	subcs.w	r0, r0, r1, lsl #20
 800ac20:	ebb0 4fc1 	cmp.w	r0, r1, lsl #19
 800ac24:	bf00      	nop
 800ac26:	eb42 0202 	adc.w	r2, r2, r2
 800ac2a:	bf28      	it	cs
 800ac2c:	eba0 40c1 	subcs.w	r0, r0, r1, lsl #19
 800ac30:	ebb0 4f81 	cmp.w	r0, r1, lsl #18
 800ac34:	bf00      	nop
 800ac36:	eb42 0202 	adc.w	r2, r2, r2
 800ac3a:	bf28      	it	cs
 800ac3c:	eba0 4081 	subcs.w	r0, r0, r1, lsl #18
 800ac40:	ebb0 4f41 	cmp.w	r0, r1, lsl #17
 800ac44:	bf00      	nop
 800ac46:	eb42 0202 	adc.w	r2, r2, r2
 800ac4a:	bf28      	it	cs
 800ac4c:	eba0 4041 	subcs.w	r0, r0, r1, lsl #17
 800ac50:	ebb0 4f01 	cmp.w	r0, r1, lsl #16
 800ac54:	bf00      	nop
 800ac56:	eb42 0202 	adc.w	r2, r2, r2
 800ac5a:	bf28      	it	cs
 800ac5c:	eba0 4001 	subcs.w	r0, r0, r1, lsl #16
 800ac60:	ebb0 3fc1 	cmp.w	r0, r1, lsl #15
 800ac64:	bf00      	nop
 800ac66:	eb42 0202 	adc.w	r2, r2, r2
 800ac6a:	bf28      	it	cs
 800ac6c:	eba0 30c1 	subcs.w	r0, r0, r1, lsl #15
 800ac70:	ebb0 3f81 	cmp.w	r0, r1, lsl #14
 800ac74:	bf00      	nop
 800ac76:	eb42 0202 	adc.w	r2, r2, r2
 800ac7a:	bf28      	it	cs
 800ac7c:	eba0 3081 	subcs.w	r0, r0, r1, lsl #14
 800ac80:	ebb0 3f41 	cmp.w	r0, r1, lsl #13
 800ac84:	bf00      	nop
 800ac86:	eb42 0202 	adc.w	r2, r2, r2
 800ac8a:	bf28      	it	cs
 800ac8c:	eba0 3041 	subcs.w	r0, r0, r1, lsl #13
 800ac90:	ebb0 3f01 	cmp.w	r0, r1, lsl #12
 800ac94:	bf00      	nop
 800ac96:	eb42 0202 	adc.w	r2, r2, r2
 800ac9a:	bf28      	it	cs
 800ac9c:	eba0 3001 	subcs.w	r0, r0, r1, lsl #12
 800aca0:	ebb0 2fc1 	cmp.w	r0, r1, lsl #11
 800aca4:	bf00      	nop
 800aca6:	eb42 0202 	adc.w	r2, r2, r2
 800acaa:	bf28      	it	cs
 800acac:	eba0 20c1 	subcs.w	r0, r0, r1, lsl #11
 800acb0:	ebb0 2f81 	cmp.w	r0, r1, lsl #10
 800acb4:	bf00      	nop
 800acb6:	eb42 0202 	adc.w	r2, r2, r2
 800acba:	bf28      	it	cs
 800acbc:	eba0 2081 	subcs.w	r0, r0, r1, lsl #10
 800acc0:	ebb0 2f41 	cmp.w	r0, r1, lsl #9
 800acc4:	bf00      	nop
 800acc6:	eb42 0202 	adc.w	r2, r2, r2
 800acca:	bf28      	it	cs
 800accc:	eba0 2041 	subcs.w	r0, r0, r1, lsl #9
 800acd0:	ebb0 2f01 	cmp.w	r0, r1, lsl #8
 800acd4:	bf00      	nop
 800acd6:	eb42 0202 	adc.w	r2, r2, r2
 800acda:	bf28      	it	cs
 800acdc:	eba0 2001 	subcs.w	r0, r0, r1, lsl #8
 800ace0:	ebb0 1fc1 	cmp.w	r0, r1, lsl #7
 800ace4:	bf00      	nop
 800ace6:	eb42 0202 	adc.w	r2, r2, r2
 800acea:	bf28      	it	cs
 800acec:	eba0 10c1 	subcs.w	r0, r0, r1, lsl #7
 800acf0:	ebb0 1f81 	cmp.w	r0, r1, lsl #6
 800acf4:	bf00      	nop
 800acf6:	eb42 0202 	adc.w	r2, r2, r2
 800acfa:	bf28      	it	cs
 800acfc:	eba0 1081 	subcs.w	r0, r0, r1, lsl #6
 800ad00:	ebb0 1f41 	cmp.w	r0, r1, lsl #5
 800ad04:	bf00      	nop
 800ad06:	eb42 0202 	adc.w	r2, r2, r2
 800ad0a:	bf28      	it	cs
 800ad0c:	eba0 1041 	subcs.w	r0, r0, r1, lsl #5
 800ad10:	ebb0 1f01 	cmp.w	r0, r1, lsl #4
 800ad14:	bf00      	nop
 800ad16:	eb42 0202 	adc.w	r2, r2, r2
 800ad1a:	bf28      	it	cs
 800ad1c:	eba0 1001 	subcs.w	r0, r0, r1, lsl #4
 800ad20:	ebb0 0fc1 	cmp.w	r0, r1, lsl #3
 800ad24:	bf00      	nop
 800ad26:	eb42 0202 	adc.w	r2, r2, r2
 800ad2a:	bf28      	it	cs
 800ad2c:	eba0 00c1 	subcs.w	r0, r0, r1, lsl #3
 800ad30:	ebb0 0f81 	cmp.w	r0, r1, lsl #2
 800ad34:	bf00      	nop
 800ad36:	eb42 0202 	adc.w	r2, r2, r2
 800ad3a:	bf28      	it	cs
 800ad3c:	eba0 0081 	subcs.w	r0, r0, r1, lsl #2
 800ad40:	ebb0 0f41 	cmp.w	r0, r1, lsl #1
 800ad44:	bf00      	nop
 800ad46:	eb42 0202 	adc.w	r2, r2, r2
 800ad4a:	bf28      	it	cs
 800ad4c:	eba0 0041 	subcs.w	r0, r0, r1, lsl #1
 800ad50:	ebb0 0f01 	cmp.w	r0, r1
 800ad54:	bf00      	nop
 800ad56:	eb42 0202 	adc.w	r2, r2, r2
 800ad5a:	bf28      	it	cs
 800ad5c:	eba0 0001 	subcs.w	r0, r0, r1
 800ad60:	4610      	mov	r0, r2
 800ad62:	4770      	bx	lr
 800ad64:	bf0c      	ite	eq
 800ad66:	2001      	moveq	r0, #1
 800ad68:	2000      	movne	r0, #0
 800ad6a:	4770      	bx	lr
 800ad6c:	fab1 f281 	clz	r2, r1
 800ad70:	f1c2 021f 	rsb	r2, r2, #31
 800ad74:	fa20 f002 	lsr.w	r0, r0, r2
 800ad78:	4770      	bx	lr
 800ad7a:	b108      	cbz	r0, 800ad80 <__aeabi_uidiv+0x258>
 800ad7c:	f04f 30ff 	mov.w	r0, #4294967295
 800ad80:	f000 b80e 	b.w	800ada0 <__aeabi_idiv0>

0800ad84 <__aeabi_uidivmod>:
 800ad84:	2900      	cmp	r1, #0
 800ad86:	d0f8      	beq.n	800ad7a <__aeabi_uidiv+0x252>
 800ad88:	e92d 4003 	stmdb	sp!, {r0, r1, lr}
 800ad8c:	f7ff fecc 	bl	800ab28 <__aeabi_uidiv>
 800ad90:	e8bd 4006 	ldmia.w	sp!, {r1, r2, lr}
 800ad94:	fb02 f300 	mul.w	r3, r2, r0
 800ad98:	eba1 0103 	sub.w	r1, r1, r3
 800ad9c:	4770      	bx	lr
 800ad9e:	bf00      	nop

0800ada0 <__aeabi_idiv0>:
 800ada0:	4770      	bx	lr
 800ada2:	bf00      	nop

0800ada4 <__aeabi_drsub>:
 800ada4:	f081 4100 	eor.w	r1, r1, #2147483648	; 0x80000000
 800ada8:	e002      	b.n	800adb0 <__adddf3>
 800adaa:	bf00      	nop

0800adac <__aeabi_dsub>:
 800adac:	f083 4300 	eor.w	r3, r3, #2147483648	; 0x80000000

0800adb0 <__adddf3>:
 800adb0:	b530      	push	{r4, r5, lr}
 800adb2:	ea4f 0441 	mov.w	r4, r1, lsl #1
 800adb6:	ea4f 0543 	mov.w	r5, r3, lsl #1
 800adba:	ea94 0f05 	teq	r4, r5
 800adbe:	bf08      	it	eq
 800adc0:	ea90 0f02 	teqeq	r0, r2
 800adc4:	bf1f      	itttt	ne
 800adc6:	ea54 0c00 	orrsne.w	ip, r4, r0
 800adca:	ea55 0c02 	orrsne.w	ip, r5, r2
 800adce:	ea7f 5c64 	mvnsne.w	ip, r4, asr #21
 800add2:	ea7f 5c65 	mvnsne.w	ip, r5, asr #21
 800add6:	f000 80e2 	beq.w	800af9e <__adddf3+0x1ee>
 800adda:	ea4f 5454 	mov.w	r4, r4, lsr #21
 800adde:	ebd4 5555 	rsbs	r5, r4, r5, lsr #21
 800ade2:	bfb8      	it	lt
 800ade4:	426d      	neglt	r5, r5
 800ade6:	dd0c      	ble.n	800ae02 <__adddf3+0x52>
 800ade8:	442c      	add	r4, r5
 800adea:	ea80 0202 	eor.w	r2, r0, r2
 800adee:	ea81 0303 	eor.w	r3, r1, r3
 800adf2:	ea82 0000 	eor.w	r0, r2, r0
 800adf6:	ea83 0101 	eor.w	r1, r3, r1
 800adfa:	ea80 0202 	eor.w	r2, r0, r2
 800adfe:	ea81 0303 	eor.w	r3, r1, r3
 800ae02:	2d36      	cmp	r5, #54	; 0x36
 800ae04:	bf88      	it	hi
 800ae06:	bd30      	pophi	{r4, r5, pc}
 800ae08:	f011 4f00 	tst.w	r1, #2147483648	; 0x80000000
 800ae0c:	ea4f 3101 	mov.w	r1, r1, lsl #12
 800ae10:	f44f 1c80 	mov.w	ip, #1048576	; 0x100000
 800ae14:	ea4c 3111 	orr.w	r1, ip, r1, lsr #12
 800ae18:	d002      	beq.n	800ae20 <__adddf3+0x70>
 800ae1a:	4240      	negs	r0, r0
 800ae1c:	eb61 0141 	sbc.w	r1, r1, r1, lsl #1
 800ae20:	f013 4f00 	tst.w	r3, #2147483648	; 0x80000000
 800ae24:	ea4f 3303 	mov.w	r3, r3, lsl #12
 800ae28:	ea4c 3313 	orr.w	r3, ip, r3, lsr #12
 800ae2c:	d002      	beq.n	800ae34 <__adddf3+0x84>
 800ae2e:	4252      	negs	r2, r2
 800ae30:	eb63 0343 	sbc.w	r3, r3, r3, lsl #1
 800ae34:	ea94 0f05 	teq	r4, r5
 800ae38:	f000 80a7 	beq.w	800af8a <__adddf3+0x1da>
 800ae3c:	f1a4 0401 	sub.w	r4, r4, #1
 800ae40:	f1d5 0e20 	rsbs	lr, r5, #32
 800ae44:	db0d      	blt.n	800ae62 <__adddf3+0xb2>
 800ae46:	fa02 fc0e 	lsl.w	ip, r2, lr
 800ae4a:	fa22 f205 	lsr.w	r2, r2, r5
 800ae4e:	1880      	adds	r0, r0, r2
 800ae50:	f141 0100 	adc.w	r1, r1, #0
 800ae54:	fa03 f20e 	lsl.w	r2, r3, lr
 800ae58:	1880      	adds	r0, r0, r2
 800ae5a:	fa43 f305 	asr.w	r3, r3, r5
 800ae5e:	4159      	adcs	r1, r3
 800ae60:	e00e      	b.n	800ae80 <__adddf3+0xd0>
 800ae62:	f1a5 0520 	sub.w	r5, r5, #32
 800ae66:	f10e 0e20 	add.w	lr, lr, #32
 800ae6a:	2a01      	cmp	r2, #1
 800ae6c:	fa03 fc0e 	lsl.w	ip, r3, lr
 800ae70:	bf28      	it	cs
 800ae72:	f04c 0c02 	orrcs.w	ip, ip, #2
 800ae76:	fa43 f305 	asr.w	r3, r3, r5
 800ae7a:	18c0      	adds	r0, r0, r3
 800ae7c:	eb51 71e3 	adcs.w	r1, r1, r3, asr #31
 800ae80:	f001 4500 	and.w	r5, r1, #2147483648	; 0x80000000
 800ae84:	d507      	bpl.n	800ae96 <__adddf3+0xe6>
 800ae86:	f04f 0e00 	mov.w	lr, #0
 800ae8a:	f1dc 0c00 	rsbs	ip, ip, #0
 800ae8e:	eb7e 0000 	sbcs.w	r0, lr, r0
 800ae92:	eb6e 0101 	sbc.w	r1, lr, r1
 800ae96:	f5b1 1f80 	cmp.w	r1, #1048576	; 0x100000
 800ae9a:	d31b      	bcc.n	800aed4 <__adddf3+0x124>
 800ae9c:	f5b1 1f00 	cmp.w	r1, #2097152	; 0x200000
 800aea0:	d30c      	bcc.n	800aebc <__adddf3+0x10c>
 800aea2:	0849      	lsrs	r1, r1, #1
 800aea4:	ea5f 0030 	movs.w	r0, r0, rrx
 800aea8:	ea4f 0c3c 	mov.w	ip, ip, rrx
 800aeac:	f104 0401 	add.w	r4, r4, #1
 800aeb0:	ea4f 5244 	mov.w	r2, r4, lsl #21
 800aeb4:	f512 0f80 	cmn.w	r2, #4194304	; 0x400000
 800aeb8:	f080 809a 	bcs.w	800aff0 <__adddf3+0x240>
 800aebc:	f1bc 4f00 	cmp.w	ip, #2147483648	; 0x80000000
 800aec0:	bf08      	it	eq
 800aec2:	ea5f 0c50 	movseq.w	ip, r0, lsr #1
 800aec6:	f150 0000 	adcs.w	r0, r0, #0
 800aeca:	eb41 5104 	adc.w	r1, r1, r4, lsl #20
 800aece:	ea41 0105 	orr.w	r1, r1, r5
 800aed2:	bd30      	pop	{r4, r5, pc}
 800aed4:	ea5f 0c4c 	movs.w	ip, ip, lsl #1
 800aed8:	4140      	adcs	r0, r0
 800aeda:	eb41 0101 	adc.w	r1, r1, r1
 800aede:	f411 1f80 	tst.w	r1, #1048576	; 0x100000
 800aee2:	f1a4 0401 	sub.w	r4, r4, #1
 800aee6:	d1e9      	bne.n	800aebc <__adddf3+0x10c>
 800aee8:	f091 0f00 	teq	r1, #0
 800aeec:	bf04      	itt	eq
 800aeee:	4601      	moveq	r1, r0
 800aef0:	2000      	moveq	r0, #0
 800aef2:	fab1 f381 	clz	r3, r1
 800aef6:	bf08      	it	eq
 800aef8:	3320      	addeq	r3, #32
 800aefa:	f1a3 030b 	sub.w	r3, r3, #11
 800aefe:	f1b3 0220 	subs.w	r2, r3, #32
 800af02:	da0c      	bge.n	800af1e <__adddf3+0x16e>
 800af04:	320c      	adds	r2, #12
 800af06:	dd08      	ble.n	800af1a <__adddf3+0x16a>
 800af08:	f102 0c14 	add.w	ip, r2, #20
 800af0c:	f1c2 020c 	rsb	r2, r2, #12
 800af10:	fa01 f00c 	lsl.w	r0, r1, ip
 800af14:	fa21 f102 	lsr.w	r1, r1, r2
 800af18:	e00c      	b.n	800af34 <__adddf3+0x184>
 800af1a:	f102 0214 	add.w	r2, r2, #20
 800af1e:	bfd8      	it	le
 800af20:	f1c2 0c20 	rsble	ip, r2, #32
 800af24:	fa01 f102 	lsl.w	r1, r1, r2
 800af28:	fa20 fc0c 	lsr.w	ip, r0, ip
 800af2c:	bfdc      	itt	le
 800af2e:	ea41 010c 	orrle.w	r1, r1, ip
 800af32:	4090      	lslle	r0, r2
 800af34:	1ae4      	subs	r4, r4, r3
 800af36:	bfa2      	ittt	ge
 800af38:	eb01 5104 	addge.w	r1, r1, r4, lsl #20
 800af3c:	4329      	orrge	r1, r5
 800af3e:	bd30      	popge	{r4, r5, pc}
 800af40:	ea6f 0404 	mvn.w	r4, r4
 800af44:	3c1f      	subs	r4, #31
 800af46:	da1c      	bge.n	800af82 <__adddf3+0x1d2>
 800af48:	340c      	adds	r4, #12
 800af4a:	dc0e      	bgt.n	800af6a <__adddf3+0x1ba>
 800af4c:	f104 0414 	add.w	r4, r4, #20
 800af50:	f1c4 0220 	rsb	r2, r4, #32
 800af54:	fa20 f004 	lsr.w	r0, r0, r4
 800af58:	fa01 f302 	lsl.w	r3, r1, r2
 800af5c:	ea40 0003 	orr.w	r0, r0, r3
 800af60:	fa21 f304 	lsr.w	r3, r1, r4
 800af64:	ea45 0103 	orr.w	r1, r5, r3
 800af68:	bd30      	pop	{r4, r5, pc}
 800af6a:	f1c4 040c 	rsb	r4, r4, #12
 800af6e:	f1c4 0220 	rsb	r2, r4, #32
 800af72:	fa20 f002 	lsr.w	r0, r0, r2
 800af76:	fa01 f304 	lsl.w	r3, r1, r4
 800af7a:	ea40 0003 	orr.w	r0, r0, r3
 800af7e:	4629      	mov	r1, r5
 800af80:	bd30      	pop	{r4, r5, pc}
 800af82:	fa21 f004 	lsr.w	r0, r1, r4
 800af86:	4629      	mov	r1, r5
 800af88:	bd30      	pop	{r4, r5, pc}
 800af8a:	f094 0f00 	teq	r4, #0
 800af8e:	f483 1380 	eor.w	r3, r3, #1048576	; 0x100000
 800af92:	bf06      	itte	eq
 800af94:	f481 1180 	eoreq.w	r1, r1, #1048576	; 0x100000
 800af98:	3401      	addeq	r4, #1
 800af9a:	3d01      	subne	r5, #1
 800af9c:	e74e      	b.n	800ae3c <__adddf3+0x8c>
 800af9e:	ea7f 5c64 	mvns.w	ip, r4, asr #21
 800afa2:	bf18      	it	ne
 800afa4:	ea7f 5c65 	mvnsne.w	ip, r5, asr #21
 800afa8:	d029      	beq.n	800affe <__adddf3+0x24e>
 800afaa:	ea94 0f05 	teq	r4, r5
 800afae:	bf08      	it	eq
 800afb0:	ea90 0f02 	teqeq	r0, r2
 800afb4:	d005      	beq.n	800afc2 <__adddf3+0x212>
 800afb6:	ea54 0c00 	orrs.w	ip, r4, r0
 800afba:	bf04      	itt	eq
 800afbc:	4619      	moveq	r1, r3
 800afbe:	4610      	moveq	r0, r2
 800afc0:	bd30      	pop	{r4, r5, pc}
 800afc2:	ea91 0f03 	teq	r1, r3
 800afc6:	bf1e      	ittt	ne
 800afc8:	2100      	movne	r1, #0
 800afca:	2000      	movne	r0, #0
 800afcc:	bd30      	popne	{r4, r5, pc}
 800afce:	ea5f 5c54 	movs.w	ip, r4, lsr #21
 800afd2:	d105      	bne.n	800afe0 <__adddf3+0x230>
 800afd4:	0040      	lsls	r0, r0, #1
 800afd6:	4149      	adcs	r1, r1
 800afd8:	bf28      	it	cs
 800afda:	f041 4100 	orrcs.w	r1, r1, #2147483648	; 0x80000000
 800afde:	bd30      	pop	{r4, r5, pc}
 800afe0:	f514 0480 	adds.w	r4, r4, #4194304	; 0x400000
 800afe4:	bf3c      	itt	cc
 800afe6:	f501 1180 	addcc.w	r1, r1, #1048576	; 0x100000
 800afea:	bd30      	popcc	{r4, r5, pc}
 800afec:	f001 4500 	and.w	r5, r1, #2147483648	; 0x80000000
 800aff0:	f045 41fe 	orr.w	r1, r5, #2130706432	; 0x7f000000
 800aff4:	f441 0170 	orr.w	r1, r1, #15728640	; 0xf00000
 800aff8:	f04f 0000 	mov.w	r0, #0
 800affc:	bd30      	pop	{r4, r5, pc}
 800affe:	ea7f 5c64 	mvns.w	ip, r4, asr #21
 800b002:	bf1a      	itte	ne
 800b004:	4619      	movne	r1, r3
 800b006:	4610      	movne	r0, r2
 800b008:	ea7f 5c65 	mvnseq.w	ip, r5, asr #21
 800b00c:	bf1c      	itt	ne
 800b00e:	460b      	movne	r3, r1
 800b010:	4602      	movne	r2, r0
 800b012:	ea50 3401 	orrs.w	r4, r0, r1, lsl #12
 800b016:	bf06      	itte	eq
 800b018:	ea52 3503 	orrseq.w	r5, r2, r3, lsl #12
 800b01c:	ea91 0f03 	teqeq	r1, r3
 800b020:	f441 2100 	orrne.w	r1, r1, #524288	; 0x80000
 800b024:	bd30      	pop	{r4, r5, pc}
 800b026:	bf00      	nop

0800b028 <__aeabi_ui2d>:
 800b028:	f090 0f00 	teq	r0, #0
 800b02c:	bf04      	itt	eq
 800b02e:	2100      	moveq	r1, #0
 800b030:	4770      	bxeq	lr
 800b032:	b530      	push	{r4, r5, lr}
 800b034:	f44f 6480 	mov.w	r4, #1024	; 0x400
 800b038:	f104 0432 	add.w	r4, r4, #50	; 0x32
 800b03c:	f04f 0500 	mov.w	r5, #0
 800b040:	f04f 0100 	mov.w	r1, #0
 800b044:	e750      	b.n	800aee8 <__adddf3+0x138>
 800b046:	bf00      	nop

0800b048 <__aeabi_i2d>:
 800b048:	f090 0f00 	teq	r0, #0
 800b04c:	bf04      	itt	eq
 800b04e:	2100      	moveq	r1, #0
 800b050:	4770      	bxeq	lr
 800b052:	b530      	push	{r4, r5, lr}
 800b054:	f44f 6480 	mov.w	r4, #1024	; 0x400
 800b058:	f104 0432 	add.w	r4, r4, #50	; 0x32
 800b05c:	f010 4500 	ands.w	r5, r0, #2147483648	; 0x80000000
 800b060:	bf48      	it	mi
 800b062:	4240      	negmi	r0, r0
 800b064:	f04f 0100 	mov.w	r1, #0
 800b068:	e73e      	b.n	800aee8 <__adddf3+0x138>
 800b06a:	bf00      	nop

0800b06c <__aeabi_f2d>:
 800b06c:	0042      	lsls	r2, r0, #1
 800b06e:	ea4f 01e2 	mov.w	r1, r2, asr #3
 800b072:	ea4f 0131 	mov.w	r1, r1, rrx
 800b076:	ea4f 7002 	mov.w	r0, r2, lsl #28
 800b07a:	bf1f      	itttt	ne
 800b07c:	f012 437f 	andsne.w	r3, r2, #4278190080	; 0xff000000
 800b080:	f093 4f7f 	teqne	r3, #4278190080	; 0xff000000
 800b084:	f081 5160 	eorne.w	r1, r1, #939524096	; 0x38000000
 800b088:	4770      	bxne	lr
 800b08a:	f092 0f00 	teq	r2, #0
 800b08e:	bf14      	ite	ne
 800b090:	f093 4f7f 	teqne	r3, #4278190080	; 0xff000000
 800b094:	4770      	bxeq	lr
 800b096:	b530      	push	{r4, r5, lr}
 800b098:	f44f 7460 	mov.w	r4, #896	; 0x380
 800b09c:	f001 4500 	and.w	r5, r1, #2147483648	; 0x80000000
 800b0a0:	f021 4100 	bic.w	r1, r1, #2147483648	; 0x80000000
 800b0a4:	e720      	b.n	800aee8 <__adddf3+0x138>
 800b0a6:	bf00      	nop

0800b0a8 <__aeabi_ul2d>:
 800b0a8:	ea50 0201 	orrs.w	r2, r0, r1
 800b0ac:	bf08      	it	eq
 800b0ae:	4770      	bxeq	lr
 800b0b0:	b530      	push	{r4, r5, lr}
 800b0b2:	f04f 0500 	mov.w	r5, #0
 800b0b6:	e00a      	b.n	800b0ce <__aeabi_l2d+0x16>

0800b0b8 <__aeabi_l2d>:
 800b0b8:	ea50 0201 	orrs.w	r2, r0, r1
 800b0bc:	bf08      	it	eq
 800b0be:	4770      	bxeq	lr
 800b0c0:	b530      	push	{r4, r5, lr}
 800b0c2:	f011 4500 	ands.w	r5, r1, #2147483648	; 0x80000000
 800b0c6:	d502      	bpl.n	800b0ce <__aeabi_l2d+0x16>
 800b0c8:	4240      	negs	r0, r0
 800b0ca:	eb61 0141 	sbc.w	r1, r1, r1, lsl #1
 800b0ce:	f44f 6480 	mov.w	r4, #1024	; 0x400
 800b0d2:	f104 0432 	add.w	r4, r4, #50	; 0x32
 800b0d6:	ea5f 5c91 	movs.w	ip, r1, lsr #22
 800b0da:	f43f aedc 	beq.w	800ae96 <__adddf3+0xe6>
 800b0de:	f04f 0203 	mov.w	r2, #3
 800b0e2:	ea5f 0cdc 	movs.w	ip, ip, lsr #3
 800b0e6:	bf18      	it	ne
 800b0e8:	3203      	addne	r2, #3
 800b0ea:	ea5f 0cdc 	movs.w	ip, ip, lsr #3
 800b0ee:	bf18      	it	ne
 800b0f0:	3203      	addne	r2, #3
 800b0f2:	eb02 02dc 	add.w	r2, r2, ip, lsr #3
 800b0f6:	f1c2 0320 	rsb	r3, r2, #32
 800b0fa:	fa00 fc03 	lsl.w	ip, r0, r3
 800b0fe:	fa20 f002 	lsr.w	r0, r0, r2
 800b102:	fa01 fe03 	lsl.w	lr, r1, r3
 800b106:	ea40 000e 	orr.w	r0, r0, lr
 800b10a:	fa21 f102 	lsr.w	r1, r1, r2
 800b10e:	4414      	add	r4, r2
 800b110:	e6c1      	b.n	800ae96 <__adddf3+0xe6>
 800b112:	bf00      	nop

0800b114 <__aeabi_dmul>:
 800b114:	b570      	push	{r4, r5, r6, lr}
 800b116:	f04f 0cff 	mov.w	ip, #255	; 0xff
 800b11a:	f44c 6ce0 	orr.w	ip, ip, #1792	; 0x700
 800b11e:	ea1c 5411 	ands.w	r4, ip, r1, lsr #20
 800b122:	bf1d      	ittte	ne
 800b124:	ea1c 5513 	andsne.w	r5, ip, r3, lsr #20
 800b128:	ea94 0f0c 	teqne	r4, ip
 800b12c:	ea95 0f0c 	teqne	r5, ip
 800b130:	f000 f8de 	bleq	800b2f0 <__aeabi_dmul+0x1dc>
 800b134:	442c      	add	r4, r5
 800b136:	ea81 0603 	eor.w	r6, r1, r3
 800b13a:	ea21 514c 	bic.w	r1, r1, ip, lsl #21
 800b13e:	ea23 534c 	bic.w	r3, r3, ip, lsl #21
 800b142:	ea50 3501 	orrs.w	r5, r0, r1, lsl #12
 800b146:	bf18      	it	ne
 800b148:	ea52 3503 	orrsne.w	r5, r2, r3, lsl #12
 800b14c:	f441 1180 	orr.w	r1, r1, #1048576	; 0x100000
 800b150:	f443 1380 	orr.w	r3, r3, #1048576	; 0x100000
 800b154:	d038      	beq.n	800b1c8 <__aeabi_dmul+0xb4>
 800b156:	fba0 ce02 	umull	ip, lr, r0, r2
 800b15a:	f04f 0500 	mov.w	r5, #0
 800b15e:	fbe1 e502 	umlal	lr, r5, r1, r2
 800b162:	f006 4200 	and.w	r2, r6, #2147483648	; 0x80000000
 800b166:	fbe0 e503 	umlal	lr, r5, r0, r3
 800b16a:	f04f 0600 	mov.w	r6, #0
 800b16e:	fbe1 5603 	umlal	r5, r6, r1, r3
 800b172:	f09c 0f00 	teq	ip, #0
 800b176:	bf18      	it	ne
 800b178:	f04e 0e01 	orrne.w	lr, lr, #1
 800b17c:	f1a4 04ff 	sub.w	r4, r4, #255	; 0xff
 800b180:	f5b6 7f00 	cmp.w	r6, #512	; 0x200
 800b184:	f564 7440 	sbc.w	r4, r4, #768	; 0x300
 800b188:	d204      	bcs.n	800b194 <__aeabi_dmul+0x80>
 800b18a:	ea5f 0e4e 	movs.w	lr, lr, lsl #1
 800b18e:	416d      	adcs	r5, r5
 800b190:	eb46 0606 	adc.w	r6, r6, r6
 800b194:	ea42 21c6 	orr.w	r1, r2, r6, lsl #11
 800b198:	ea41 5155 	orr.w	r1, r1, r5, lsr #21
 800b19c:	ea4f 20c5 	mov.w	r0, r5, lsl #11
 800b1a0:	ea40 505e 	orr.w	r0, r0, lr, lsr #21
 800b1a4:	ea4f 2ece 	mov.w	lr, lr, lsl #11
 800b1a8:	f1b4 0cfd 	subs.w	ip, r4, #253	; 0xfd
 800b1ac:	bf88      	it	hi
 800b1ae:	f5bc 6fe0 	cmphi.w	ip, #1792	; 0x700
 800b1b2:	d81e      	bhi.n	800b1f2 <__aeabi_dmul+0xde>
 800b1b4:	f1be 4f00 	cmp.w	lr, #2147483648	; 0x80000000
 800b1b8:	bf08      	it	eq
 800b1ba:	ea5f 0e50 	movseq.w	lr, r0, lsr #1
 800b1be:	f150 0000 	adcs.w	r0, r0, #0
 800b1c2:	eb41 5104 	adc.w	r1, r1, r4, lsl #20
 800b1c6:	bd70      	pop	{r4, r5, r6, pc}
 800b1c8:	f006 4600 	and.w	r6, r6, #2147483648	; 0x80000000
 800b1cc:	ea46 0101 	orr.w	r1, r6, r1
 800b1d0:	ea40 0002 	orr.w	r0, r0, r2
 800b1d4:	ea81 0103 	eor.w	r1, r1, r3
 800b1d8:	ebb4 045c 	subs.w	r4, r4, ip, lsr #1
 800b1dc:	bfc2      	ittt	gt
 800b1de:	ebd4 050c 	rsbsgt	r5, r4, ip
 800b1e2:	ea41 5104 	orrgt.w	r1, r1, r4, lsl #20
 800b1e6:	bd70      	popgt	{r4, r5, r6, pc}
 800b1e8:	f441 1180 	orr.w	r1, r1, #1048576	; 0x100000
 800b1ec:	f04f 0e00 	mov.w	lr, #0
 800b1f0:	3c01      	subs	r4, #1
 800b1f2:	f300 80ab 	bgt.w	800b34c <__aeabi_dmul+0x238>
 800b1f6:	f114 0f36 	cmn.w	r4, #54	; 0x36
 800b1fa:	bfde      	ittt	le
 800b1fc:	2000      	movle	r0, #0
 800b1fe:	f001 4100 	andle.w	r1, r1, #2147483648	; 0x80000000
 800b202:	bd70      	pople	{r4, r5, r6, pc}
 800b204:	f1c4 0400 	rsb	r4, r4, #0
 800b208:	3c20      	subs	r4, #32
 800b20a:	da35      	bge.n	800b278 <__aeabi_dmul+0x164>
 800b20c:	340c      	adds	r4, #12
 800b20e:	dc1b      	bgt.n	800b248 <__aeabi_dmul+0x134>
 800b210:	f104 0414 	add.w	r4, r4, #20
 800b214:	f1c4 0520 	rsb	r5, r4, #32
 800b218:	fa00 f305 	lsl.w	r3, r0, r5
 800b21c:	fa20 f004 	lsr.w	r0, r0, r4
 800b220:	fa01 f205 	lsl.w	r2, r1, r5
 800b224:	ea40 0002 	orr.w	r0, r0, r2
 800b228:	f001 4200 	and.w	r2, r1, #2147483648	; 0x80000000
 800b22c:	f021 4100 	bic.w	r1, r1, #2147483648	; 0x80000000
 800b230:	eb10 70d3 	adds.w	r0, r0, r3, lsr #31
 800b234:	fa21 f604 	lsr.w	r6, r1, r4
 800b238:	eb42 0106 	adc.w	r1, r2, r6
 800b23c:	ea5e 0e43 	orrs.w	lr, lr, r3, lsl #1
 800b240:	bf08      	it	eq
 800b242:	ea20 70d3 	biceq.w	r0, r0, r3, lsr #31
 800b246:	bd70      	pop	{r4, r5, r6, pc}
 800b248:	f1c4 040c 	rsb	r4, r4, #12
 800b24c:	f1c4 0520 	rsb	r5, r4, #32
 800b250:	fa00 f304 	lsl.w	r3, r0, r4
 800b254:	fa20 f005 	lsr.w	r0, r0, r5
 800b258:	fa01 f204 	lsl.w	r2, r1, r4
 800b25c:	ea40 0002 	orr.w	r0, r0, r2
 800b260:	f001 4100 	and.w	r1, r1, #2147483648	; 0x80000000
 800b264:	eb10 70d3 	adds.w	r0, r0, r3, lsr #31
 800b268:	f141 0100 	adc.w	r1, r1, #0
 800b26c:	ea5e 0e43 	orrs.w	lr, lr, r3, lsl #1
 800b270:	bf08      	it	eq
 800b272:	ea20 70d3 	biceq.w	r0, r0, r3, lsr #31
 800b276:	bd70      	pop	{r4, r5, r6, pc}
 800b278:	f1c4 0520 	rsb	r5, r4, #32
 800b27c:	fa00 f205 	lsl.w	r2, r0, r5
 800b280:	ea4e 0e02 	orr.w	lr, lr, r2
 800b284:	fa20 f304 	lsr.w	r3, r0, r4
 800b288:	fa01 f205 	lsl.w	r2, r1, r5
 800b28c:	ea43 0302 	orr.w	r3, r3, r2
 800b290:	fa21 f004 	lsr.w	r0, r1, r4
 800b294:	f001 4100 	and.w	r1, r1, #2147483648	; 0x80000000
 800b298:	fa21 f204 	lsr.w	r2, r1, r4
 800b29c:	ea20 0002 	bic.w	r0, r0, r2
 800b2a0:	eb00 70d3 	add.w	r0, r0, r3, lsr #31
 800b2a4:	ea5e 0e43 	orrs.w	lr, lr, r3, lsl #1
 800b2a8:	bf08      	it	eq
 800b2aa:	ea20 70d3 	biceq.w	r0, r0, r3, lsr #31
 800b2ae:	bd70      	pop	{r4, r5, r6, pc}
 800b2b0:	f094 0f00 	teq	r4, #0
 800b2b4:	d10f      	bne.n	800b2d6 <__aeabi_dmul+0x1c2>
 800b2b6:	f001 4600 	and.w	r6, r1, #2147483648	; 0x80000000
 800b2ba:	0040      	lsls	r0, r0, #1
 800b2bc:	eb41 0101 	adc.w	r1, r1, r1
 800b2c0:	f411 1f80 	tst.w	r1, #1048576	; 0x100000
 800b2c4:	bf08      	it	eq
 800b2c6:	3c01      	subeq	r4, #1
 800b2c8:	d0f7      	beq.n	800b2ba <__aeabi_dmul+0x1a6>
 800b2ca:	ea41 0106 	orr.w	r1, r1, r6
 800b2ce:	f095 0f00 	teq	r5, #0
 800b2d2:	bf18      	it	ne
 800b2d4:	4770      	bxne	lr
 800b2d6:	f003 4600 	and.w	r6, r3, #2147483648	; 0x80000000
 800b2da:	0052      	lsls	r2, r2, #1
 800b2dc:	eb43 0303 	adc.w	r3, r3, r3
 800b2e0:	f413 1f80 	tst.w	r3, #1048576	; 0x100000
 800b2e4:	bf08      	it	eq
 800b2e6:	3d01      	subeq	r5, #1
 800b2e8:	d0f7      	beq.n	800b2da <__aeabi_dmul+0x1c6>
 800b2ea:	ea43 0306 	orr.w	r3, r3, r6
 800b2ee:	4770      	bx	lr
 800b2f0:	ea94 0f0c 	teq	r4, ip
 800b2f4:	ea0c 5513 	and.w	r5, ip, r3, lsr #20
 800b2f8:	bf18      	it	ne
 800b2fa:	ea95 0f0c 	teqne	r5, ip
 800b2fe:	d00c      	beq.n	800b31a <__aeabi_dmul+0x206>
 800b300:	ea50 0641 	orrs.w	r6, r0, r1, lsl #1
 800b304:	bf18      	it	ne
 800b306:	ea52 0643 	orrsne.w	r6, r2, r3, lsl #1
 800b30a:	d1d1      	bne.n	800b2b0 <__aeabi_dmul+0x19c>
 800b30c:	ea81 0103 	eor.w	r1, r1, r3
 800b310:	f001 4100 	and.w	r1, r1, #2147483648	; 0x80000000
 800b314:	f04f 0000 	mov.w	r0, #0
 800b318:	bd70      	pop	{r4, r5, r6, pc}
 800b31a:	ea50 0641 	orrs.w	r6, r0, r1, lsl #1
 800b31e:	bf06      	itte	eq
 800b320:	4610      	moveq	r0, r2
 800b322:	4619      	moveq	r1, r3
 800b324:	ea52 0643 	orrsne.w	r6, r2, r3, lsl #1
 800b328:	d019      	beq.n	800b35e <__aeabi_dmul+0x24a>
 800b32a:	ea94 0f0c 	teq	r4, ip
 800b32e:	d102      	bne.n	800b336 <__aeabi_dmul+0x222>
 800b330:	ea50 3601 	orrs.w	r6, r0, r1, lsl #12
 800b334:	d113      	bne.n	800b35e <__aeabi_dmul+0x24a>
 800b336:	ea95 0f0c 	teq	r5, ip
 800b33a:	d105      	bne.n	800b348 <__aeabi_dmul+0x234>
 800b33c:	ea52 3603 	orrs.w	r6, r2, r3, lsl #12
 800b340:	bf1c      	itt	ne
 800b342:	4610      	movne	r0, r2
 800b344:	4619      	movne	r1, r3
 800b346:	d10a      	bne.n	800b35e <__aeabi_dmul+0x24a>
 800b348:	ea81 0103 	eor.w	r1, r1, r3
 800b34c:	f001 4100 	and.w	r1, r1, #2147483648	; 0x80000000
 800b350:	f041 41fe 	orr.w	r1, r1, #2130706432	; 0x7f000000
 800b354:	f441 0170 	orr.w	r1, r1, #15728640	; 0xf00000
 800b358:	f04f 0000 	mov.w	r0, #0
 800b35c:	bd70      	pop	{r4, r5, r6, pc}
 800b35e:	f041 41fe 	orr.w	r1, r1, #2130706432	; 0x7f000000
 800b362:	f441 0178 	orr.w	r1, r1, #16252928	; 0xf80000
 800b366:	bd70      	pop	{r4, r5, r6, pc}

0800b368 <__aeabi_ddiv>:
 800b368:	b570      	push	{r4, r5, r6, lr}
 800b36a:	f04f 0cff 	mov.w	ip, #255	; 0xff
 800b36e:	f44c 6ce0 	orr.w	ip, ip, #1792	; 0x700
 800b372:	ea1c 5411 	ands.w	r4, ip, r1, lsr #20
 800b376:	bf1d      	ittte	ne
 800b378:	ea1c 5513 	andsne.w	r5, ip, r3, lsr #20
 800b37c:	ea94 0f0c 	teqne	r4, ip
 800b380:	ea95 0f0c 	teqne	r5, ip
 800b384:	f000 f8a7 	bleq	800b4d6 <__aeabi_ddiv+0x16e>
 800b388:	eba4 0405 	sub.w	r4, r4, r5
 800b38c:	ea81 0e03 	eor.w	lr, r1, r3
 800b390:	ea52 3503 	orrs.w	r5, r2, r3, lsl #12
 800b394:	ea4f 3101 	mov.w	r1, r1, lsl #12
 800b398:	f000 8088 	beq.w	800b4ac <__aeabi_ddiv+0x144>
 800b39c:	ea4f 3303 	mov.w	r3, r3, lsl #12
 800b3a0:	f04f 5580 	mov.w	r5, #268435456	; 0x10000000
 800b3a4:	ea45 1313 	orr.w	r3, r5, r3, lsr #4
 800b3a8:	ea43 6312 	orr.w	r3, r3, r2, lsr #24
 800b3ac:	ea4f 2202 	mov.w	r2, r2, lsl #8
 800b3b0:	ea45 1511 	orr.w	r5, r5, r1, lsr #4
 800b3b4:	ea45 6510 	orr.w	r5, r5, r0, lsr #24
 800b3b8:	ea4f 2600 	mov.w	r6, r0, lsl #8
 800b3bc:	f00e 4100 	and.w	r1, lr, #2147483648	; 0x80000000
 800b3c0:	429d      	cmp	r5, r3
 800b3c2:	bf08      	it	eq
 800b3c4:	4296      	cmpeq	r6, r2
 800b3c6:	f144 04fd 	adc.w	r4, r4, #253	; 0xfd
 800b3ca:	f504 7440 	add.w	r4, r4, #768	; 0x300
 800b3ce:	d202      	bcs.n	800b3d6 <__aeabi_ddiv+0x6e>
 800b3d0:	085b      	lsrs	r3, r3, #1
 800b3d2:	ea4f 0232 	mov.w	r2, r2, rrx
 800b3d6:	1ab6      	subs	r6, r6, r2
 800b3d8:	eb65 0503 	sbc.w	r5, r5, r3
 800b3dc:	085b      	lsrs	r3, r3, #1
 800b3de:	ea4f 0232 	mov.w	r2, r2, rrx
 800b3e2:	f44f 1080 	mov.w	r0, #1048576	; 0x100000
 800b3e6:	f44f 2c00 	mov.w	ip, #524288	; 0x80000
 800b3ea:	ebb6 0e02 	subs.w	lr, r6, r2
 800b3ee:	eb75 0e03 	sbcs.w	lr, r5, r3
 800b3f2:	bf22      	ittt	cs
 800b3f4:	1ab6      	subcs	r6, r6, r2
 800b3f6:	4675      	movcs	r5, lr
 800b3f8:	ea40 000c 	orrcs.w	r0, r0, ip
 800b3fc:	085b      	lsrs	r3, r3, #1
 800b3fe:	ea4f 0232 	mov.w	r2, r2, rrx
 800b402:	ebb6 0e02 	subs.w	lr, r6, r2
 800b406:	eb75 0e03 	sbcs.w	lr, r5, r3
 800b40a:	bf22      	ittt	cs
 800b40c:	1ab6      	subcs	r6, r6, r2
 800b40e:	4675      	movcs	r5, lr
 800b410:	ea40 005c 	orrcs.w	r0, r0, ip, lsr #1
 800b414:	085b      	lsrs	r3, r3, #1
 800b416:	ea4f 0232 	mov.w	r2, r2, rrx
 800b41a:	ebb6 0e02 	subs.w	lr, r6, r2
 800b41e:	eb75 0e03 	sbcs.w	lr, r5, r3
 800b422:	bf22      	ittt	cs
 800b424:	1ab6      	subcs	r6, r6, r2
 800b426:	4675      	movcs	r5, lr
 800b428:	ea40 009c 	orrcs.w	r0, r0, ip, lsr #2
 800b42c:	085b      	lsrs	r3, r3, #1
 800b42e:	ea4f 0232 	mov.w	r2, r2, rrx
 800b432:	ebb6 0e02 	subs.w	lr, r6, r2
 800b436:	eb75 0e03 	sbcs.w	lr, r5, r3
 800b43a:	bf22      	ittt	cs
 800b43c:	1ab6      	subcs	r6, r6, r2
 800b43e:	4675      	movcs	r5, lr
 800b440:	ea40 00dc 	orrcs.w	r0, r0, ip, lsr #3
 800b444:	ea55 0e06 	orrs.w	lr, r5, r6
 800b448:	d018      	beq.n	800b47c <__aeabi_ddiv+0x114>
 800b44a:	ea4f 1505 	mov.w	r5, r5, lsl #4
 800b44e:	ea45 7516 	orr.w	r5, r5, r6, lsr #28
 800b452:	ea4f 1606 	mov.w	r6, r6, lsl #4
 800b456:	ea4f 03c3 	mov.w	r3, r3, lsl #3
 800b45a:	ea43 7352 	orr.w	r3, r3, r2, lsr #29
 800b45e:	ea4f 02c2 	mov.w	r2, r2, lsl #3
 800b462:	ea5f 1c1c 	movs.w	ip, ip, lsr #4
 800b466:	d1c0      	bne.n	800b3ea <__aeabi_ddiv+0x82>
 800b468:	f411 1f80 	tst.w	r1, #1048576	; 0x100000
 800b46c:	d10b      	bne.n	800b486 <__aeabi_ddiv+0x11e>
 800b46e:	ea41 0100 	orr.w	r1, r1, r0
 800b472:	f04f 0000 	mov.w	r0, #0
 800b476:	f04f 4c00 	mov.w	ip, #2147483648	; 0x80000000
 800b47a:	e7b6      	b.n	800b3ea <__aeabi_ddiv+0x82>
 800b47c:	f411 1f80 	tst.w	r1, #1048576	; 0x100000
 800b480:	bf04      	itt	eq
 800b482:	4301      	orreq	r1, r0
 800b484:	2000      	moveq	r0, #0
 800b486:	f1b4 0cfd 	subs.w	ip, r4, #253	; 0xfd
 800b48a:	bf88      	it	hi
 800b48c:	f5bc 6fe0 	cmphi.w	ip, #1792	; 0x700
 800b490:	f63f aeaf 	bhi.w	800b1f2 <__aeabi_dmul+0xde>
 800b494:	ebb5 0c03 	subs.w	ip, r5, r3
 800b498:	bf04      	itt	eq
 800b49a:	ebb6 0c02 	subseq.w	ip, r6, r2
 800b49e:	ea5f 0c50 	movseq.w	ip, r0, lsr #1
 800b4a2:	f150 0000 	adcs.w	r0, r0, #0
 800b4a6:	eb41 5104 	adc.w	r1, r1, r4, lsl #20
 800b4aa:	bd70      	pop	{r4, r5, r6, pc}
 800b4ac:	f00e 4e00 	and.w	lr, lr, #2147483648	; 0x80000000
 800b4b0:	ea4e 3111 	orr.w	r1, lr, r1, lsr #12
 800b4b4:	eb14 045c 	adds.w	r4, r4, ip, lsr #1
 800b4b8:	bfc2      	ittt	gt
 800b4ba:	ebd4 050c 	rsbsgt	r5, r4, ip
 800b4be:	ea41 5104 	orrgt.w	r1, r1, r4, lsl #20
 800b4c2:	bd70      	popgt	{r4, r5, r6, pc}
 800b4c4:	f441 1180 	orr.w	r1, r1, #1048576	; 0x100000
 800b4c8:	f04f 0e00 	mov.w	lr, #0
 800b4cc:	3c01      	subs	r4, #1
 800b4ce:	e690      	b.n	800b1f2 <__aeabi_dmul+0xde>
 800b4d0:	ea45 0e06 	orr.w	lr, r5, r6
 800b4d4:	e68d      	b.n	800b1f2 <__aeabi_dmul+0xde>
 800b4d6:	ea0c 5513 	and.w	r5, ip, r3, lsr #20
 800b4da:	ea94 0f0c 	teq	r4, ip
 800b4de:	bf08      	it	eq
 800b4e0:	ea95 0f0c 	teqeq	r5, ip
 800b4e4:	f43f af3b 	beq.w	800b35e <__aeabi_dmul+0x24a>
 800b4e8:	ea94 0f0c 	teq	r4, ip
 800b4ec:	d10a      	bne.n	800b504 <__aeabi_ddiv+0x19c>
 800b4ee:	ea50 3401 	orrs.w	r4, r0, r1, lsl #12
 800b4f2:	f47f af34 	bne.w	800b35e <__aeabi_dmul+0x24a>
 800b4f6:	ea95 0f0c 	teq	r5, ip
 800b4fa:	f47f af25 	bne.w	800b348 <__aeabi_dmul+0x234>
 800b4fe:	4610      	mov	r0, r2
 800b500:	4619      	mov	r1, r3
 800b502:	e72c      	b.n	800b35e <__aeabi_dmul+0x24a>
 800b504:	ea95 0f0c 	teq	r5, ip
 800b508:	d106      	bne.n	800b518 <__aeabi_ddiv+0x1b0>
 800b50a:	ea52 3503 	orrs.w	r5, r2, r3, lsl #12
 800b50e:	f43f aefd 	beq.w	800b30c <__aeabi_dmul+0x1f8>
 800b512:	4610      	mov	r0, r2
 800b514:	4619      	mov	r1, r3
 800b516:	e722      	b.n	800b35e <__aeabi_dmul+0x24a>
 800b518:	ea50 0641 	orrs.w	r6, r0, r1, lsl #1
 800b51c:	bf18      	it	ne
 800b51e:	ea52 0643 	orrsne.w	r6, r2, r3, lsl #1
 800b522:	f47f aec5 	bne.w	800b2b0 <__aeabi_dmul+0x19c>
 800b526:	ea50 0441 	orrs.w	r4, r0, r1, lsl #1
 800b52a:	f47f af0d 	bne.w	800b348 <__aeabi_dmul+0x234>
 800b52e:	ea52 0543 	orrs.w	r5, r2, r3, lsl #1
 800b532:	f47f aeeb 	bne.w	800b30c <__aeabi_dmul+0x1f8>
 800b536:	e712      	b.n	800b35e <__aeabi_dmul+0x24a>

0800b538 <__gedf2>:
 800b538:	f04f 3cff 	mov.w	ip, #4294967295
 800b53c:	e006      	b.n	800b54c <__cmpdf2+0x4>
 800b53e:	bf00      	nop

0800b540 <__ledf2>:
 800b540:	f04f 0c01 	mov.w	ip, #1
 800b544:	e002      	b.n	800b54c <__cmpdf2+0x4>
 800b546:	bf00      	nop

0800b548 <__cmpdf2>:
 800b548:	f04f 0c01 	mov.w	ip, #1
 800b54c:	f84d cd04 	str.w	ip, [sp, #-4]!
 800b550:	ea4f 0c41 	mov.w	ip, r1, lsl #1
 800b554:	ea7f 5c6c 	mvns.w	ip, ip, asr #21
 800b558:	ea4f 0c43 	mov.w	ip, r3, lsl #1
 800b55c:	bf18      	it	ne
 800b55e:	ea7f 5c6c 	mvnsne.w	ip, ip, asr #21
 800b562:	d01b      	beq.n	800b59c <__cmpdf2+0x54>
 800b564:	b001      	add	sp, #4
 800b566:	ea50 0c41 	orrs.w	ip, r0, r1, lsl #1
 800b56a:	bf0c      	ite	eq
 800b56c:	ea52 0c43 	orrseq.w	ip, r2, r3, lsl #1
 800b570:	ea91 0f03 	teqne	r1, r3
 800b574:	bf02      	ittt	eq
 800b576:	ea90 0f02 	teqeq	r0, r2
 800b57a:	2000      	moveq	r0, #0
 800b57c:	4770      	bxeq	lr
 800b57e:	f110 0f00 	cmn.w	r0, #0
 800b582:	ea91 0f03 	teq	r1, r3
 800b586:	bf58      	it	pl
 800b588:	4299      	cmppl	r1, r3
 800b58a:	bf08      	it	eq
 800b58c:	4290      	cmpeq	r0, r2
 800b58e:	bf2c      	ite	cs
 800b590:	17d8      	asrcs	r0, r3, #31
 800b592:	ea6f 70e3 	mvncc.w	r0, r3, asr #31
 800b596:	f040 0001 	orr.w	r0, r0, #1
 800b59a:	4770      	bx	lr
 800b59c:	ea4f 0c41 	mov.w	ip, r1, lsl #1
 800b5a0:	ea7f 5c6c 	mvns.w	ip, ip, asr #21
 800b5a4:	d102      	bne.n	800b5ac <__cmpdf2+0x64>
 800b5a6:	ea50 3c01 	orrs.w	ip, r0, r1, lsl #12
 800b5aa:	d107      	bne.n	800b5bc <__cmpdf2+0x74>
 800b5ac:	ea4f 0c43 	mov.w	ip, r3, lsl #1
 800b5b0:	ea7f 5c6c 	mvns.w	ip, ip, asr #21
 800b5b4:	d1d6      	bne.n	800b564 <__cmpdf2+0x1c>
 800b5b6:	ea52 3c03 	orrs.w	ip, r2, r3, lsl #12
 800b5ba:	d0d3      	beq.n	800b564 <__cmpdf2+0x1c>
 800b5bc:	f85d 0b04 	ldr.w	r0, [sp], #4
 800b5c0:	4770      	bx	lr
 800b5c2:	bf00      	nop

0800b5c4 <__aeabi_cdrcmple>:
 800b5c4:	4684      	mov	ip, r0
 800b5c6:	4610      	mov	r0, r2
 800b5c8:	4662      	mov	r2, ip
 800b5ca:	468c      	mov	ip, r1
 800b5cc:	4619      	mov	r1, r3
 800b5ce:	4663      	mov	r3, ip
 800b5d0:	e000      	b.n	800b5d4 <__aeabi_cdcmpeq>
 800b5d2:	bf00      	nop

0800b5d4 <__aeabi_cdcmpeq>:
 800b5d4:	b501      	push	{r0, lr}
 800b5d6:	f7ff ffb7 	bl	800b548 <__cmpdf2>
 800b5da:	2800      	cmp	r0, #0
 800b5dc:	bf48      	it	mi
 800b5de:	f110 0f00 	cmnmi.w	r0, #0
 800b5e2:	bd01      	pop	{r0, pc}

0800b5e4 <__aeabi_dcmpeq>:
 800b5e4:	f84d ed08 	str.w	lr, [sp, #-8]!
 800b5e8:	f7ff fff4 	bl	800b5d4 <__aeabi_cdcmpeq>
 800b5ec:	bf0c      	ite	eq
 800b5ee:	2001      	moveq	r0, #1
 800b5f0:	2000      	movne	r0, #0
 800b5f2:	f85d fb08 	ldr.w	pc, [sp], #8
 800b5f6:	bf00      	nop

0800b5f8 <__aeabi_dcmplt>:
 800b5f8:	f84d ed08 	str.w	lr, [sp, #-8]!
 800b5fc:	f7ff ffea 	bl	800b5d4 <__aeabi_cdcmpeq>
 800b600:	bf34      	ite	cc
 800b602:	2001      	movcc	r0, #1
 800b604:	2000      	movcs	r0, #0
 800b606:	f85d fb08 	ldr.w	pc, [sp], #8
 800b60a:	bf00      	nop

0800b60c <__aeabi_dcmple>:
 800b60c:	f84d ed08 	str.w	lr, [sp, #-8]!
 800b610:	f7ff ffe0 	bl	800b5d4 <__aeabi_cdcmpeq>
 800b614:	bf94      	ite	ls
 800b616:	2001      	movls	r0, #1
 800b618:	2000      	movhi	r0, #0
 800b61a:	f85d fb08 	ldr.w	pc, [sp], #8
 800b61e:	bf00      	nop

0800b620 <__aeabi_dcmpge>:
 800b620:	f84d ed08 	str.w	lr, [sp, #-8]!
 800b624:	f7ff ffce 	bl	800b5c4 <__aeabi_cdrcmple>
 800b628:	bf94      	ite	ls
 800b62a:	2001      	movls	r0, #1
 800b62c:	2000      	movhi	r0, #0
 800b62e:	f85d fb08 	ldr.w	pc, [sp], #8
 800b632:	bf00      	nop

0800b634 <__aeabi_dcmpgt>:
 800b634:	f84d ed08 	str.w	lr, [sp, #-8]!
 800b638:	f7ff ffc4 	bl	800b5c4 <__aeabi_cdrcmple>
 800b63c:	bf34      	ite	cc
 800b63e:	2001      	movcc	r0, #1
 800b640:	2000      	movcs	r0, #0
 800b642:	f85d fb08 	ldr.w	pc, [sp], #8
 800b646:	bf00      	nop

0800b648 <__aeabi_d2iz>:
 800b648:	ea4f 0241 	mov.w	r2, r1, lsl #1
 800b64c:	f512 1200 	adds.w	r2, r2, #2097152	; 0x200000
 800b650:	d215      	bcs.n	800b67e <__aeabi_d2iz+0x36>
 800b652:	d511      	bpl.n	800b678 <__aeabi_d2iz+0x30>
 800b654:	f46f 7378 	mvn.w	r3, #992	; 0x3e0
 800b658:	ebb3 5262 	subs.w	r2, r3, r2, asr #21
 800b65c:	d912      	bls.n	800b684 <__aeabi_d2iz+0x3c>
 800b65e:	ea4f 23c1 	mov.w	r3, r1, lsl #11
 800b662:	f043 4300 	orr.w	r3, r3, #2147483648	; 0x80000000
 800b666:	ea43 5350 	orr.w	r3, r3, r0, lsr #21
 800b66a:	f011 4f00 	tst.w	r1, #2147483648	; 0x80000000
 800b66e:	fa23 f002 	lsr.w	r0, r3, r2
 800b672:	bf18      	it	ne
 800b674:	4240      	negne	r0, r0
 800b676:	4770      	bx	lr
 800b678:	f04f 0000 	mov.w	r0, #0
 800b67c:	4770      	bx	lr
 800b67e:	ea50 3001 	orrs.w	r0, r0, r1, lsl #12
 800b682:	d105      	bne.n	800b690 <__aeabi_d2iz+0x48>
 800b684:	f011 4000 	ands.w	r0, r1, #2147483648	; 0x80000000
 800b688:	bf08      	it	eq
 800b68a:	f06f 4000 	mvneq.w	r0, #2147483648	; 0x80000000
 800b68e:	4770      	bx	lr
 800b690:	f04f 0000 	mov.w	r0, #0
 800b694:	4770      	bx	lr
 800b696:	bf00      	nop

0800b698 <__aeabi_d2uiz>:
 800b698:	004a      	lsls	r2, r1, #1
 800b69a:	d211      	bcs.n	800b6c0 <__aeabi_d2uiz+0x28>
 800b69c:	f512 1200 	adds.w	r2, r2, #2097152	; 0x200000
 800b6a0:	d211      	bcs.n	800b6c6 <__aeabi_d2uiz+0x2e>
 800b6a2:	d50d      	bpl.n	800b6c0 <__aeabi_d2uiz+0x28>
 800b6a4:	f46f 7378 	mvn.w	r3, #992	; 0x3e0
 800b6a8:	ebb3 5262 	subs.w	r2, r3, r2, asr #21
 800b6ac:	d40e      	bmi.n	800b6cc <__aeabi_d2uiz+0x34>
 800b6ae:	ea4f 23c1 	mov.w	r3, r1, lsl #11
 800b6b2:	f043 4300 	orr.w	r3, r3, #2147483648	; 0x80000000
 800b6b6:	ea43 5350 	orr.w	r3, r3, r0, lsr #21
 800b6ba:	fa23 f002 	lsr.w	r0, r3, r2
 800b6be:	4770      	bx	lr
 800b6c0:	f04f 0000 	mov.w	r0, #0
 800b6c4:	4770      	bx	lr
 800b6c6:	ea50 3001 	orrs.w	r0, r0, r1, lsl #12
 800b6ca:	d102      	bne.n	800b6d2 <__aeabi_d2uiz+0x3a>
 800b6cc:	f04f 30ff 	mov.w	r0, #4294967295
 800b6d0:	4770      	bx	lr
 800b6d2:	f04f 0000 	mov.w	r0, #0
 800b6d6:	4770      	bx	lr

0800b6d8 <__aeabi_uldivmod>:
 800b6d8:	b94b      	cbnz	r3, 800b6ee <__aeabi_uldivmod+0x16>
 800b6da:	b942      	cbnz	r2, 800b6ee <__aeabi_uldivmod+0x16>
 800b6dc:	2900      	cmp	r1, #0
 800b6de:	bf08      	it	eq
 800b6e0:	2800      	cmpeq	r0, #0
 800b6e2:	d002      	beq.n	800b6ea <__aeabi_uldivmod+0x12>
 800b6e4:	f04f 31ff 	mov.w	r1, #4294967295
 800b6e8:	4608      	mov	r0, r1
 800b6ea:	f7ff bb59 	b.w	800ada0 <__aeabi_idiv0>
 800b6ee:	b082      	sub	sp, #8
 800b6f0:	46ec      	mov	ip, sp
 800b6f2:	e92d 5000 	stmdb	sp!, {ip, lr}
 800b6f6:	f000 f81d 	bl	800b734 <__gnu_uldivmod_helper>
 800b6fa:	f8dd e004 	ldr.w	lr, [sp, #4]
 800b6fe:	b002      	add	sp, #8
 800b700:	bc0c      	pop	{r2, r3}
 800b702:	4770      	bx	lr

0800b704 <__gnu_ldivmod_helper>:
 800b704:	e92d 47f0 	stmdb	sp!, {r4, r5, r6, r7, r8, r9, sl, lr}
 800b708:	4617      	mov	r7, r2
 800b70a:	4680      	mov	r8, r0
 800b70c:	4689      	mov	r9, r1
 800b70e:	469a      	mov	sl, r3
 800b710:	9e08      	ldr	r6, [sp, #32]
 800b712:	f000 f827 	bl	800b764 <__divdi3>
 800b716:	fba7 4500 	umull	r4, r5, r7, r0
 800b71a:	fb07 f701 	mul.w	r7, r7, r1
 800b71e:	fb00 720a 	mla	r2, r0, sl, r7
 800b722:	4415      	add	r5, r2
 800b724:	ebb8 0404 	subs.w	r4, r8, r4
 800b728:	eb69 0505 	sbc.w	r5, r9, r5
 800b72c:	e9c6 4500 	strd	r4, r5, [r6]
 800b730:	e8bd 87f0 	ldmia.w	sp!, {r4, r5, r6, r7, r8, r9, sl, pc}

0800b734 <__gnu_uldivmod_helper>:
 800b734:	e92d 43f8 	stmdb	sp!, {r3, r4, r5, r6, r7, r8, r9, lr}
 800b738:	4617      	mov	r7, r2
 800b73a:	4680      	mov	r8, r0
 800b73c:	4689      	mov	r9, r1
 800b73e:	461d      	mov	r5, r3
 800b740:	9e08      	ldr	r6, [sp, #32]
 800b742:	f000 f9b9 	bl	800bab8 <__udivdi3>
 800b746:	fb00 f305 	mul.w	r3, r0, r5
 800b74a:	fba0 4507 	umull	r4, r5, r0, r7
 800b74e:	fb07 3701 	mla	r7, r7, r1, r3
 800b752:	443d      	add	r5, r7
 800b754:	ebb8 0404 	subs.w	r4, r8, r4
 800b758:	eb69 0505 	sbc.w	r5, r9, r5
 800b75c:	e9c6 4500 	strd	r4, r5, [r6]
 800b760:	e8bd 83f8 	ldmia.w	sp!, {r3, r4, r5, r6, r7, r8, r9, pc}

0800b764 <__divdi3>:
 800b764:	e92d 4ff0 	stmdb	sp!, {r4, r5, r6, r7, r8, r9, sl, fp, lr}
 800b768:	4244      	negs	r4, r0
 800b76a:	eb61 0541 	sbc.w	r5, r1, r1, lsl #1
 800b76e:	2900      	cmp	r1, #0
 800b770:	f04f 36ff 	mov.w	r6, #4294967295
 800b774:	bfa2      	ittt	ge
 800b776:	4604      	movge	r4, r0
 800b778:	460d      	movge	r5, r1
 800b77a:	2600      	movge	r6, #0
 800b77c:	2b00      	cmp	r3, #0
 800b77e:	b085      	sub	sp, #20
 800b780:	f2c0 80c7 	blt.w	800b912 <__divdi3+0x1ae>
 800b784:	4620      	mov	r0, r4
 800b786:	46aa      	mov	sl, r5
 800b788:	4694      	mov	ip, r2
 800b78a:	4619      	mov	r1, r3
 800b78c:	4690      	mov	r8, r2
 800b78e:	4627      	mov	r7, r4
 800b790:	46a9      	mov	r9, r5
 800b792:	2b00      	cmp	r3, #0
 800b794:	d158      	bne.n	800b848 <__divdi3+0xe4>
 800b796:	42aa      	cmp	r2, r5
 800b798:	d96c      	bls.n	800b874 <__divdi3+0x110>
 800b79a:	fab2 f382 	clz	r3, r2
 800b79e:	b15b      	cbz	r3, 800b7b8 <__divdi3+0x54>
 800b7a0:	f1c3 0220 	rsb	r2, r3, #32
 800b7a4:	fa05 f903 	lsl.w	r9, r5, r3
 800b7a8:	fa24 f202 	lsr.w	r2, r4, r2
 800b7ac:	fa0c f803 	lsl.w	r8, ip, r3
 800b7b0:	ea42 0909 	orr.w	r9, r2, r9
 800b7b4:	fa04 f703 	lsl.w	r7, r4, r3
 800b7b8:	ea4f 4418 	mov.w	r4, r8, lsr #16
 800b7bc:	4648      	mov	r0, r9
 800b7be:	4621      	mov	r1, r4
 800b7c0:	fa1f fa88 	uxth.w	sl, r8
 800b7c4:	f7ff f9b0 	bl	800ab28 <__aeabi_uidiv>
 800b7c8:	4621      	mov	r1, r4
 800b7ca:	4683      	mov	fp, r0
 800b7cc:	4648      	mov	r0, r9
 800b7ce:	f7ff fad9 	bl	800ad84 <__aeabi_uidivmod>
 800b7d2:	0c3a      	lsrs	r2, r7, #16
 800b7d4:	fb0a f00b 	mul.w	r0, sl, fp
 800b7d8:	ea42 4101 	orr.w	r1, r2, r1, lsl #16
 800b7dc:	4288      	cmp	r0, r1
 800b7de:	d90b      	bls.n	800b7f8 <__divdi3+0x94>
 800b7e0:	eb11 0108 	adds.w	r1, r1, r8
 800b7e4:	f10b 33ff 	add.w	r3, fp, #4294967295
 800b7e8:	d205      	bcs.n	800b7f6 <__divdi3+0x92>
 800b7ea:	4288      	cmp	r0, r1
 800b7ec:	bf84      	itt	hi
 800b7ee:	f1ab 0b02 	subhi.w	fp, fp, #2
 800b7f2:	4441      	addhi	r1, r8
 800b7f4:	d800      	bhi.n	800b7f8 <__divdi3+0x94>
 800b7f6:	469b      	mov	fp, r3
 800b7f8:	ebc0 0901 	rsb	r9, r0, r1
 800b7fc:	4621      	mov	r1, r4
 800b7fe:	4648      	mov	r0, r9
 800b800:	b2bf      	uxth	r7, r7
 800b802:	f7ff f991 	bl	800ab28 <__aeabi_uidiv>
 800b806:	4621      	mov	r1, r4
 800b808:	4605      	mov	r5, r0
 800b80a:	4648      	mov	r0, r9
 800b80c:	f7ff faba 	bl	800ad84 <__aeabi_uidivmod>
 800b810:	fb0a fa05 	mul.w	sl, sl, r5
 800b814:	ea47 4101 	orr.w	r1, r7, r1, lsl #16
 800b818:	458a      	cmp	sl, r1
 800b81a:	d909      	bls.n	800b830 <__divdi3+0xcc>
 800b81c:	eb11 0808 	adds.w	r8, r1, r8
 800b820:	f105 33ff 	add.w	r3, r5, #4294967295
 800b824:	d203      	bcs.n	800b82e <__divdi3+0xca>
 800b826:	45c2      	cmp	sl, r8
 800b828:	bf88      	it	hi
 800b82a:	3d02      	subhi	r5, #2
 800b82c:	d800      	bhi.n	800b830 <__divdi3+0xcc>
 800b82e:	461d      	mov	r5, r3
 800b830:	ea45 430b 	orr.w	r3, r5, fp, lsl #16
 800b834:	2400      	movs	r4, #0
 800b836:	4618      	mov	r0, r3
 800b838:	4621      	mov	r1, r4
 800b83a:	b116      	cbz	r6, 800b842 <__divdi3+0xde>
 800b83c:	4240      	negs	r0, r0
 800b83e:	eb61 0141 	sbc.w	r1, r1, r1, lsl #1
 800b842:	b005      	add	sp, #20
 800b844:	e8bd 8ff0 	ldmia.w	sp!, {r4, r5, r6, r7, r8, r9, sl, fp, pc}
 800b848:	42ab      	cmp	r3, r5
 800b84a:	bf84      	itt	hi
 800b84c:	2400      	movhi	r4, #0
 800b84e:	4623      	movhi	r3, r4
 800b850:	d8f1      	bhi.n	800b836 <__divdi3+0xd2>
 800b852:	fab1 f581 	clz	r5, r1
 800b856:	2d00      	cmp	r5, #0
 800b858:	f040 80b5 	bne.w	800b9c6 <__divdi3+0x262>
 800b85c:	4551      	cmp	r1, sl
 800b85e:	bf28      	it	cs
 800b860:	4282      	cmpcs	r2, r0
 800b862:	bf8c      	ite	hi
 800b864:	2400      	movhi	r4, #0
 800b866:	2401      	movls	r4, #1
 800b868:	bf9c      	itt	ls
 800b86a:	2301      	movls	r3, #1
 800b86c:	462c      	movls	r4, r5
 800b86e:	d9e2      	bls.n	800b836 <__divdi3+0xd2>
 800b870:	4623      	mov	r3, r4
 800b872:	e7e0      	b.n	800b836 <__divdi3+0xd2>
 800b874:	b922      	cbnz	r2, 800b880 <__divdi3+0x11c>
 800b876:	4611      	mov	r1, r2
 800b878:	2001      	movs	r0, #1
 800b87a:	f7ff f955 	bl	800ab28 <__aeabi_uidiv>
 800b87e:	4680      	mov	r8, r0
 800b880:	fab8 f388 	clz	r3, r8
 800b884:	2b00      	cmp	r3, #0
 800b886:	d149      	bne.n	800b91c <__divdi3+0x1b8>
 800b888:	ebc8 0909 	rsb	r9, r8, r9
 800b88c:	ea4f 4518 	mov.w	r5, r8, lsr #16
 800b890:	fa1f fa88 	uxth.w	sl, r8
 800b894:	2401      	movs	r4, #1
 800b896:	4629      	mov	r1, r5
 800b898:	4648      	mov	r0, r9
 800b89a:	f7ff f945 	bl	800ab28 <__aeabi_uidiv>
 800b89e:	4629      	mov	r1, r5
 800b8a0:	4683      	mov	fp, r0
 800b8a2:	4648      	mov	r0, r9
 800b8a4:	f7ff fa6e 	bl	800ad84 <__aeabi_uidivmod>
 800b8a8:	0c3a      	lsrs	r2, r7, #16
 800b8aa:	fb0a f00b 	mul.w	r0, sl, fp
 800b8ae:	ea42 4101 	orr.w	r1, r2, r1, lsl #16
 800b8b2:	4288      	cmp	r0, r1
 800b8b4:	d90c      	bls.n	800b8d0 <__divdi3+0x16c>
 800b8b6:	eb11 0108 	adds.w	r1, r1, r8
 800b8ba:	f10b 33ff 	add.w	r3, fp, #4294967295
 800b8be:	f080 80f2 	bcs.w	800baa6 <__divdi3+0x342>
 800b8c2:	4288      	cmp	r0, r1
 800b8c4:	bf84      	itt	hi
 800b8c6:	f1ab 0b02 	subhi.w	fp, fp, #2
 800b8ca:	4441      	addhi	r1, r8
 800b8cc:	f240 80eb 	bls.w	800baa6 <__divdi3+0x342>
 800b8d0:	1a0a      	subs	r2, r1, r0
 800b8d2:	4629      	mov	r1, r5
 800b8d4:	4610      	mov	r0, r2
 800b8d6:	9201      	str	r2, [sp, #4]
 800b8d8:	f7ff f926 	bl	800ab28 <__aeabi_uidiv>
 800b8dc:	9a01      	ldr	r2, [sp, #4]
 800b8de:	4629      	mov	r1, r5
 800b8e0:	b2bf      	uxth	r7, r7
 800b8e2:	4681      	mov	r9, r0
 800b8e4:	4610      	mov	r0, r2
 800b8e6:	f7ff fa4d 	bl	800ad84 <__aeabi_uidivmod>
 800b8ea:	fb0a fa09 	mul.w	sl, sl, r9
 800b8ee:	ea47 4101 	orr.w	r1, r7, r1, lsl #16
 800b8f2:	458a      	cmp	sl, r1
 800b8f4:	d90a      	bls.n	800b90c <__divdi3+0x1a8>
 800b8f6:	eb11 0808 	adds.w	r8, r1, r8
 800b8fa:	f109 33ff 	add.w	r3, r9, #4294967295
 800b8fe:	d204      	bcs.n	800b90a <__divdi3+0x1a6>
 800b900:	45c2      	cmp	sl, r8
 800b902:	bf88      	it	hi
 800b904:	f1a9 0902 	subhi.w	r9, r9, #2
 800b908:	d800      	bhi.n	800b90c <__divdi3+0x1a8>
 800b90a:	4699      	mov	r9, r3
 800b90c:	ea49 430b 	orr.w	r3, r9, fp, lsl #16
 800b910:	e791      	b.n	800b836 <__divdi3+0xd2>
 800b912:	43f6      	mvns	r6, r6
 800b914:	4252      	negs	r2, r2
 800b916:	eb63 0343 	sbc.w	r3, r3, r3, lsl #1
 800b91a:	e733      	b.n	800b784 <__divdi3+0x20>
 800b91c:	fa08 f803 	lsl.w	r8, r8, r3
 800b920:	f1c3 0b20 	rsb	fp, r3, #32
 800b924:	fa29 f40b 	lsr.w	r4, r9, fp
 800b928:	fa09 f903 	lsl.w	r9, r9, r3
 800b92c:	ea4f 4518 	mov.w	r5, r8, lsr #16
 800b930:	4620      	mov	r0, r4
 800b932:	4629      	mov	r1, r5
 800b934:	fa27 fb0b 	lsr.w	fp, r7, fp
 800b938:	409f      	lsls	r7, r3
 800b93a:	f7ff f8f5 	bl	800ab28 <__aeabi_uidiv>
 800b93e:	4629      	mov	r1, r5
 800b940:	fa1f fa88 	uxth.w	sl, r8
 800b944:	ea4b 0b09 	orr.w	fp, fp, r9
 800b948:	4602      	mov	r2, r0
 800b94a:	4620      	mov	r0, r4
 800b94c:	9201      	str	r2, [sp, #4]
 800b94e:	f7ff fa19 	bl	800ad84 <__aeabi_uidivmod>
 800b952:	9a01      	ldr	r2, [sp, #4]
 800b954:	ea4f 431b 	mov.w	r3, fp, lsr #16
 800b958:	fb0a f002 	mul.w	r0, sl, r2
 800b95c:	ea43 4101 	orr.w	r1, r3, r1, lsl #16
 800b960:	4288      	cmp	r0, r1
 800b962:	d90b      	bls.n	800b97c <__divdi3+0x218>
 800b964:	eb11 0108 	adds.w	r1, r1, r8
 800b968:	f102 33ff 	add.w	r3, r2, #4294967295
 800b96c:	f080 80a1 	bcs.w	800bab2 <__divdi3+0x34e>
 800b970:	4288      	cmp	r0, r1
 800b972:	bf84      	itt	hi
 800b974:	3a02      	subhi	r2, #2
 800b976:	4441      	addhi	r1, r8
 800b978:	f240 809b 	bls.w	800bab2 <__divdi3+0x34e>
 800b97c:	ebc0 0901 	rsb	r9, r0, r1
 800b980:	4629      	mov	r1, r5
 800b982:	4648      	mov	r0, r9
 800b984:	9201      	str	r2, [sp, #4]
 800b986:	f7ff f8cf 	bl	800ab28 <__aeabi_uidiv>
 800b98a:	4629      	mov	r1, r5
 800b98c:	fa1f fb8b 	uxth.w	fp, fp
 800b990:	4604      	mov	r4, r0
 800b992:	4648      	mov	r0, r9
 800b994:	f7ff f9f6 	bl	800ad84 <__aeabi_uidivmod>
 800b998:	9a01      	ldr	r2, [sp, #4]
 800b99a:	fb0a f904 	mul.w	r9, sl, r4
 800b99e:	ea4b 4101 	orr.w	r1, fp, r1, lsl #16
 800b9a2:	4589      	cmp	r9, r1
 800b9a4:	d90a      	bls.n	800b9bc <__divdi3+0x258>
 800b9a6:	eb11 0108 	adds.w	r1, r1, r8
 800b9aa:	f104 33ff 	add.w	r3, r4, #4294967295
 800b9ae:	d204      	bcs.n	800b9ba <__divdi3+0x256>
 800b9b0:	4589      	cmp	r9, r1
 800b9b2:	bf84      	itt	hi
 800b9b4:	3c02      	subhi	r4, #2
 800b9b6:	4441      	addhi	r1, r8
 800b9b8:	d800      	bhi.n	800b9bc <__divdi3+0x258>
 800b9ba:	461c      	mov	r4, r3
 800b9bc:	ebc9 0901 	rsb	r9, r9, r1
 800b9c0:	ea44 4402 	orr.w	r4, r4, r2, lsl #16
 800b9c4:	e767      	b.n	800b896 <__divdi3+0x132>
 800b9c6:	f1c5 0320 	rsb	r3, r5, #32
 800b9ca:	40a9      	lsls	r1, r5
 800b9cc:	fa22 f803 	lsr.w	r8, r2, r3
 800b9d0:	fa2a fb03 	lsr.w	fp, sl, r3
 800b9d4:	ea48 0801 	orr.w	r8, r8, r1
 800b9d8:	fa20 f303 	lsr.w	r3, r0, r3
 800b9dc:	fa0a fa05 	lsl.w	sl, sl, r5
 800b9e0:	4658      	mov	r0, fp
 800b9e2:	ea4f 4918 	mov.w	r9, r8, lsr #16
 800b9e6:	fa02 fc05 	lsl.w	ip, r2, r5
 800b9ea:	4649      	mov	r1, r9
 800b9ec:	ea43 0a0a 	orr.w	sl, r3, sl
 800b9f0:	f8cd c00c 	str.w	ip, [sp, #12]
 800b9f4:	f7ff f898 	bl	800ab28 <__aeabi_uidiv>
 800b9f8:	4649      	mov	r1, r9
 800b9fa:	4604      	mov	r4, r0
 800b9fc:	4658      	mov	r0, fp
 800b9fe:	f7ff f9c1 	bl	800ad84 <__aeabi_uidivmod>
 800ba02:	fa1f f288 	uxth.w	r2, r8
 800ba06:	ea4f 4e1a 	mov.w	lr, sl, lsr #16
 800ba0a:	fb02 f004 	mul.w	r0, r2, r4
 800ba0e:	ea4e 4e01 	orr.w	lr, lr, r1, lsl #16
 800ba12:	4570      	cmp	r0, lr
 800ba14:	d909      	bls.n	800ba2a <__divdi3+0x2c6>
 800ba16:	eb1e 0e08 	adds.w	lr, lr, r8
 800ba1a:	f104 31ff 	add.w	r1, r4, #4294967295
 800ba1e:	d246      	bcs.n	800baae <__divdi3+0x34a>
 800ba20:	4570      	cmp	r0, lr
 800ba22:	bf84      	itt	hi
 800ba24:	3c02      	subhi	r4, #2
 800ba26:	44c6      	addhi	lr, r8
 800ba28:	d941      	bls.n	800baae <__divdi3+0x34a>
 800ba2a:	ebc0 0c0e 	rsb	ip, r0, lr
 800ba2e:	4649      	mov	r1, r9
 800ba30:	4660      	mov	r0, ip
 800ba32:	9201      	str	r2, [sp, #4]
 800ba34:	f8cd c008 	str.w	ip, [sp, #8]
 800ba38:	f7ff f876 	bl	800ab28 <__aeabi_uidiv>
 800ba3c:	f8dd c008 	ldr.w	ip, [sp, #8]
 800ba40:	4649      	mov	r1, r9
 800ba42:	fa1f fa8a 	uxth.w	sl, sl
 800ba46:	4683      	mov	fp, r0
 800ba48:	4660      	mov	r0, ip
 800ba4a:	f7ff f99b 	bl	800ad84 <__aeabi_uidivmod>
 800ba4e:	9a01      	ldr	r2, [sp, #4]
 800ba50:	fb02 f20b 	mul.w	r2, r2, fp
 800ba54:	ea4a 4101 	orr.w	r1, sl, r1, lsl #16
 800ba58:	428a      	cmp	r2, r1
 800ba5a:	d90a      	bls.n	800ba72 <__divdi3+0x30e>
 800ba5c:	eb11 0108 	adds.w	r1, r1, r8
 800ba60:	f10b 30ff 	add.w	r0, fp, #4294967295
 800ba64:	d221      	bcs.n	800baaa <__divdi3+0x346>
 800ba66:	428a      	cmp	r2, r1
 800ba68:	bf84      	itt	hi
 800ba6a:	f1ab 0b02 	subhi.w	fp, fp, #2
 800ba6e:	4441      	addhi	r1, r8
 800ba70:	d91b      	bls.n	800baaa <__divdi3+0x346>
 800ba72:	9803      	ldr	r0, [sp, #12]
 800ba74:	ea4b 4b04 	orr.w	fp, fp, r4, lsl #16
 800ba78:	1a89      	subs	r1, r1, r2
 800ba7a:	fbab 2300 	umull	r2, r3, fp, r0
 800ba7e:	4299      	cmp	r1, r3
 800ba80:	d30d      	bcc.n	800ba9e <__divdi3+0x33a>
 800ba82:	bf14      	ite	ne
 800ba84:	2300      	movne	r3, #0
 800ba86:	2301      	moveq	r3, #1
 800ba88:	fa07 f405 	lsl.w	r4, r7, r5
 800ba8c:	4294      	cmp	r4, r2
 800ba8e:	bf2c      	ite	cs
 800ba90:	2400      	movcs	r4, #0
 800ba92:	f003 0401 	andcc.w	r4, r3, #1
 800ba96:	465b      	mov	r3, fp
 800ba98:	2c00      	cmp	r4, #0
 800ba9a:	f43f aecc 	beq.w	800b836 <__divdi3+0xd2>
 800ba9e:	f10b 33ff 	add.w	r3, fp, #4294967295
 800baa2:	2400      	movs	r4, #0
 800baa4:	e6c7      	b.n	800b836 <__divdi3+0xd2>
 800baa6:	469b      	mov	fp, r3
 800baa8:	e712      	b.n	800b8d0 <__divdi3+0x16c>
 800baaa:	4683      	mov	fp, r0
 800baac:	e7e1      	b.n	800ba72 <__divdi3+0x30e>
 800baae:	460c      	mov	r4, r1
 800bab0:	e7bb      	b.n	800ba2a <__divdi3+0x2c6>
 800bab2:	461a      	mov	r2, r3
 800bab4:	e762      	b.n	800b97c <__divdi3+0x218>
 800bab6:	bf00      	nop

0800bab8 <__udivdi3>:
 800bab8:	e92d 4ff0 	stmdb	sp!, {r4, r5, r6, r7, r8, r9, sl, fp, lr}
 800babc:	4606      	mov	r6, r0
 800babe:	b083      	sub	sp, #12
 800bac0:	460d      	mov	r5, r1
 800bac2:	4614      	mov	r4, r2
 800bac4:	4607      	mov	r7, r0
 800bac6:	4688      	mov	r8, r1
 800bac8:	2b00      	cmp	r3, #0
 800baca:	d151      	bne.n	800bb70 <__udivdi3+0xb8>
 800bacc:	428a      	cmp	r2, r1
 800bace:	d964      	bls.n	800bb9a <__udivdi3+0xe2>
 800bad0:	fab2 f382 	clz	r3, r2
 800bad4:	b15b      	cbz	r3, 800baee <__udivdi3+0x36>
 800bad6:	f1c3 0820 	rsb	r8, r3, #32
 800bada:	fa01 f503 	lsl.w	r5, r1, r3
 800bade:	fa20 f808 	lsr.w	r8, r0, r8
 800bae2:	fa02 f403 	lsl.w	r4, r2, r3
 800bae6:	ea48 0805 	orr.w	r8, r8, r5
 800baea:	fa00 f703 	lsl.w	r7, r0, r3
 800baee:	0c25      	lsrs	r5, r4, #16
 800baf0:	4640      	mov	r0, r8
 800baf2:	4629      	mov	r1, r5
 800baf4:	fa1f fa84 	uxth.w	sl, r4
 800baf8:	f7ff f816 	bl	800ab28 <__aeabi_uidiv>
 800bafc:	4629      	mov	r1, r5
 800bafe:	4681      	mov	r9, r0
 800bb00:	4640      	mov	r0, r8
 800bb02:	f7ff f93f 	bl	800ad84 <__aeabi_uidivmod>
 800bb06:	0c3b      	lsrs	r3, r7, #16
 800bb08:	fb0a f009 	mul.w	r0, sl, r9
 800bb0c:	ea43 4101 	orr.w	r1, r3, r1, lsl #16
 800bb10:	4288      	cmp	r0, r1
 800bb12:	d90a      	bls.n	800bb2a <__udivdi3+0x72>
 800bb14:	1909      	adds	r1, r1, r4
 800bb16:	f109 32ff 	add.w	r2, r9, #4294967295
 800bb1a:	d205      	bcs.n	800bb28 <__udivdi3+0x70>
 800bb1c:	4288      	cmp	r0, r1
 800bb1e:	bf84      	itt	hi
 800bb20:	f1a9 0902 	subhi.w	r9, r9, #2
 800bb24:	1909      	addhi	r1, r1, r4
 800bb26:	d800      	bhi.n	800bb2a <__udivdi3+0x72>
 800bb28:	4691      	mov	r9, r2
 800bb2a:	ebc0 0801 	rsb	r8, r0, r1
 800bb2e:	4629      	mov	r1, r5
 800bb30:	4640      	mov	r0, r8
 800bb32:	b2bf      	uxth	r7, r7
 800bb34:	f7fe fff8 	bl	800ab28 <__aeabi_uidiv>
 800bb38:	4629      	mov	r1, r5
 800bb3a:	4606      	mov	r6, r0
 800bb3c:	4640      	mov	r0, r8
 800bb3e:	f7ff f921 	bl	800ad84 <__aeabi_uidivmod>
 800bb42:	fb0a fa06 	mul.w	sl, sl, r6
 800bb46:	ea47 4101 	orr.w	r1, r7, r1, lsl #16
 800bb4a:	458a      	cmp	sl, r1
 800bb4c:	d909      	bls.n	800bb62 <__udivdi3+0xaa>
 800bb4e:	190c      	adds	r4, r1, r4
 800bb50:	f106 33ff 	add.w	r3, r6, #4294967295
 800bb54:	f080 8119 	bcs.w	800bd8a <__udivdi3+0x2d2>
 800bb58:	45a2      	cmp	sl, r4
 800bb5a:	bf88      	it	hi
 800bb5c:	3e02      	subhi	r6, #2
 800bb5e:	f240 8114 	bls.w	800bd8a <__udivdi3+0x2d2>
 800bb62:	ea46 4009 	orr.w	r0, r6, r9, lsl #16
 800bb66:	2600      	movs	r6, #0
 800bb68:	4631      	mov	r1, r6
 800bb6a:	b003      	add	sp, #12
 800bb6c:	e8bd 8ff0 	ldmia.w	sp!, {r4, r5, r6, r7, r8, r9, sl, fp, pc}
 800bb70:	428b      	cmp	r3, r1
 800bb72:	bf84      	itt	hi
 800bb74:	2600      	movhi	r6, #0
 800bb76:	4630      	movhi	r0, r6
 800bb78:	d8f6      	bhi.n	800bb68 <__udivdi3+0xb0>
 800bb7a:	fab3 f483 	clz	r4, r3
 800bb7e:	2c00      	cmp	r4, #0
 800bb80:	d15a      	bne.n	800bc38 <__udivdi3+0x180>
 800bb82:	428b      	cmp	r3, r1
 800bb84:	bf28      	it	cs
 800bb86:	42b2      	cmpcs	r2, r6
 800bb88:	bf8c      	ite	hi
 800bb8a:	2600      	movhi	r6, #0
 800bb8c:	2601      	movls	r6, #1
 800bb8e:	bf9c      	itt	ls
 800bb90:	2001      	movls	r0, #1
 800bb92:	4626      	movls	r6, r4
 800bb94:	d9e8      	bls.n	800bb68 <__udivdi3+0xb0>
 800bb96:	4630      	mov	r0, r6
 800bb98:	e7e6      	b.n	800bb68 <__udivdi3+0xb0>
 800bb9a:	b922      	cbnz	r2, 800bba6 <__udivdi3+0xee>
 800bb9c:	4611      	mov	r1, r2
 800bb9e:	2001      	movs	r0, #1
 800bba0:	f7fe ffc2 	bl	800ab28 <__aeabi_uidiv>
 800bba4:	4604      	mov	r4, r0
 800bba6:	fab4 f384 	clz	r3, r4
 800bbaa:	2b00      	cmp	r3, #0
 800bbac:	f040 80a2 	bne.w	800bcf4 <__udivdi3+0x23c>
 800bbb0:	1b2d      	subs	r5, r5, r4
 800bbb2:	ea4f 4814 	mov.w	r8, r4, lsr #16
 800bbb6:	fa1f fa84 	uxth.w	sl, r4
 800bbba:	2601      	movs	r6, #1
 800bbbc:	4641      	mov	r1, r8
 800bbbe:	4628      	mov	r0, r5
 800bbc0:	f7fe ffb2 	bl	800ab28 <__aeabi_uidiv>
 800bbc4:	4641      	mov	r1, r8
 800bbc6:	4681      	mov	r9, r0
 800bbc8:	4628      	mov	r0, r5
 800bbca:	f7ff f8db 	bl	800ad84 <__aeabi_uidivmod>
 800bbce:	0c3b      	lsrs	r3, r7, #16
 800bbd0:	fb0a f009 	mul.w	r0, sl, r9
 800bbd4:	ea43 4101 	orr.w	r1, r3, r1, lsl #16
 800bbd8:	4288      	cmp	r0, r1
 800bbda:	d90b      	bls.n	800bbf4 <__udivdi3+0x13c>
 800bbdc:	1909      	adds	r1, r1, r4
 800bbde:	f109 32ff 	add.w	r2, r9, #4294967295
 800bbe2:	f080 80d4 	bcs.w	800bd8e <__udivdi3+0x2d6>
 800bbe6:	4288      	cmp	r0, r1
 800bbe8:	bf84      	itt	hi
 800bbea:	f1a9 0902 	subhi.w	r9, r9, #2
 800bbee:	1909      	addhi	r1, r1, r4
 800bbf0:	f240 80cd 	bls.w	800bd8e <__udivdi3+0x2d6>
 800bbf4:	ebc0 0b01 	rsb	fp, r0, r1
 800bbf8:	4641      	mov	r1, r8
 800bbfa:	4658      	mov	r0, fp
 800bbfc:	b2bf      	uxth	r7, r7
 800bbfe:	f7fe ff93 	bl	800ab28 <__aeabi_uidiv>
 800bc02:	4641      	mov	r1, r8
 800bc04:	4605      	mov	r5, r0
 800bc06:	4658      	mov	r0, fp
 800bc08:	f7ff f8bc 	bl	800ad84 <__aeabi_uidivmod>
 800bc0c:	fb0a fa05 	mul.w	sl, sl, r5
 800bc10:	ea47 4101 	orr.w	r1, r7, r1, lsl #16
 800bc14:	458a      	cmp	sl, r1
 800bc16:	d909      	bls.n	800bc2c <__udivdi3+0x174>
 800bc18:	190c      	adds	r4, r1, r4
 800bc1a:	f105 33ff 	add.w	r3, r5, #4294967295
 800bc1e:	f080 80b8 	bcs.w	800bd92 <__udivdi3+0x2da>
 800bc22:	45a2      	cmp	sl, r4
 800bc24:	bf88      	it	hi
 800bc26:	3d02      	subhi	r5, #2
 800bc28:	f240 80b3 	bls.w	800bd92 <__udivdi3+0x2da>
 800bc2c:	ea45 4009 	orr.w	r0, r5, r9, lsl #16
 800bc30:	4631      	mov	r1, r6
 800bc32:	b003      	add	sp, #12
 800bc34:	e8bd 8ff0 	ldmia.w	sp!, {r4, r5, r6, r7, r8, r9, sl, fp, pc}
 800bc38:	f1c4 0120 	rsb	r1, r4, #32
 800bc3c:	40a3      	lsls	r3, r4
 800bc3e:	fa22 f801 	lsr.w	r8, r2, r1
 800bc42:	fa25 f701 	lsr.w	r7, r5, r1
 800bc46:	ea48 0803 	orr.w	r8, r8, r3
 800bc4a:	4638      	mov	r0, r7
 800bc4c:	fa26 f301 	lsr.w	r3, r6, r1
 800bc50:	40a5      	lsls	r5, r4
 800bc52:	ea4f 4918 	mov.w	r9, r8, lsr #16
 800bc56:	40a2      	lsls	r2, r4
 800bc58:	4649      	mov	r1, r9
 800bc5a:	9201      	str	r2, [sp, #4]
 800bc5c:	431d      	orrs	r5, r3
 800bc5e:	f7fe ff63 	bl	800ab28 <__aeabi_uidiv>
 800bc62:	4649      	mov	r1, r9
 800bc64:	4683      	mov	fp, r0
 800bc66:	4638      	mov	r0, r7
 800bc68:	f7ff f88c 	bl	800ad84 <__aeabi_uidivmod>
 800bc6c:	fa1f f288 	uxth.w	r2, r8
 800bc70:	0c2f      	lsrs	r7, r5, #16
 800bc72:	fb02 f00b 	mul.w	r0, r2, fp
 800bc76:	ea47 4701 	orr.w	r7, r7, r1, lsl #16
 800bc7a:	42b8      	cmp	r0, r7
 800bc7c:	d906      	bls.n	800bc8c <__udivdi3+0x1d4>
 800bc7e:	eb17 0708 	adds.w	r7, r7, r8
 800bc82:	f10b 31ff 	add.w	r1, fp, #4294967295
 800bc86:	f0c0 808d 	bcc.w	800bda4 <__udivdi3+0x2ec>
 800bc8a:	468b      	mov	fp, r1
 800bc8c:	1a3f      	subs	r7, r7, r0
 800bc8e:	4649      	mov	r1, r9
 800bc90:	4638      	mov	r0, r7
 800bc92:	9200      	str	r2, [sp, #0]
 800bc94:	f7fe ff48 	bl	800ab28 <__aeabi_uidiv>
 800bc98:	4649      	mov	r1, r9
 800bc9a:	b2ad      	uxth	r5, r5
 800bc9c:	4682      	mov	sl, r0
 800bc9e:	4638      	mov	r0, r7
 800bca0:	f7ff f870 	bl	800ad84 <__aeabi_uidivmod>
 800bca4:	9a00      	ldr	r2, [sp, #0]
 800bca6:	fb02 f20a 	mul.w	r2, r2, sl
 800bcaa:	ea45 4101 	orr.w	r1, r5, r1, lsl #16
 800bcae:	428a      	cmp	r2, r1
 800bcb0:	d905      	bls.n	800bcbe <__udivdi3+0x206>
 800bcb2:	eb11 0108 	adds.w	r1, r1, r8
 800bcb6:	f10a 30ff 	add.w	r0, sl, #4294967295
 800bcba:	d36c      	bcc.n	800bd96 <__udivdi3+0x2de>
 800bcbc:	4682      	mov	sl, r0
 800bcbe:	9d01      	ldr	r5, [sp, #4]
 800bcc0:	ea4a 400b 	orr.w	r0, sl, fp, lsl #16
 800bcc4:	1a89      	subs	r1, r1, r2
 800bcc6:	fba0 2305 	umull	r2, r3, r0, r5
 800bcca:	4299      	cmp	r1, r3
 800bccc:	d30c      	bcc.n	800bce8 <__udivdi3+0x230>
 800bcce:	fa06 f604 	lsl.w	r6, r6, r4
 800bcd2:	bf14      	ite	ne
 800bcd4:	2100      	movne	r1, #0
 800bcd6:	2101      	moveq	r1, #1
 800bcd8:	4296      	cmp	r6, r2
 800bcda:	bf2c      	ite	cs
 800bcdc:	2600      	movcs	r6, #0
 800bcde:	f001 0601 	andcc.w	r6, r1, #1
 800bce2:	2e00      	cmp	r6, #0
 800bce4:	f43f af40 	beq.w	800bb68 <__udivdi3+0xb0>
 800bce8:	2600      	movs	r6, #0
 800bcea:	3801      	subs	r0, #1
 800bcec:	4631      	mov	r1, r6
 800bcee:	b003      	add	sp, #12
 800bcf0:	e8bd 8ff0 	ldmia.w	sp!, {r4, r5, r6, r7, r8, r9, sl, fp, pc}
 800bcf4:	409c      	lsls	r4, r3
 800bcf6:	f1c3 0920 	rsb	r9, r3, #32
 800bcfa:	fa25 fa09 	lsr.w	sl, r5, r9
 800bcfe:	fa06 f703 	lsl.w	r7, r6, r3
 800bd02:	ea4f 4814 	mov.w	r8, r4, lsr #16
 800bd06:	4650      	mov	r0, sl
 800bd08:	4641      	mov	r1, r8
 800bd0a:	409d      	lsls	r5, r3
 800bd0c:	f7fe ff0c 	bl	800ab28 <__aeabi_uidiv>
 800bd10:	4641      	mov	r1, r8
 800bd12:	fa26 f909 	lsr.w	r9, r6, r9
 800bd16:	ea49 0905 	orr.w	r9, r9, r5
 800bd1a:	4683      	mov	fp, r0
 800bd1c:	4650      	mov	r0, sl
 800bd1e:	f7ff f831 	bl	800ad84 <__aeabi_uidivmod>
 800bd22:	fa1f fa84 	uxth.w	sl, r4
 800bd26:	ea4f 4319 	mov.w	r3, r9, lsr #16
 800bd2a:	fb0a f00b 	mul.w	r0, sl, fp
 800bd2e:	ea43 4101 	orr.w	r1, r3, r1, lsl #16
 800bd32:	4288      	cmp	r0, r1
 800bd34:	d909      	bls.n	800bd4a <__udivdi3+0x292>
 800bd36:	1909      	adds	r1, r1, r4
 800bd38:	f10b 33ff 	add.w	r3, fp, #4294967295
 800bd3c:	d23a      	bcs.n	800bdb4 <__udivdi3+0x2fc>
 800bd3e:	4288      	cmp	r0, r1
 800bd40:	bf84      	itt	hi
 800bd42:	f1ab 0b02 	subhi.w	fp, fp, #2
 800bd46:	1909      	addhi	r1, r1, r4
 800bd48:	d934      	bls.n	800bdb4 <__udivdi3+0x2fc>
 800bd4a:	1a0d      	subs	r5, r1, r0
 800bd4c:	4641      	mov	r1, r8
 800bd4e:	4628      	mov	r0, r5
 800bd50:	fa1f f989 	uxth.w	r9, r9
 800bd54:	f7fe fee8 	bl	800ab28 <__aeabi_uidiv>
 800bd58:	4641      	mov	r1, r8
 800bd5a:	4606      	mov	r6, r0
 800bd5c:	4628      	mov	r0, r5
 800bd5e:	f7ff f811 	bl	800ad84 <__aeabi_uidivmod>
 800bd62:	fb0a f506 	mul.w	r5, sl, r6
 800bd66:	ea49 4101 	orr.w	r1, r9, r1, lsl #16
 800bd6a:	428d      	cmp	r5, r1
 800bd6c:	d909      	bls.n	800bd82 <__udivdi3+0x2ca>
 800bd6e:	1909      	adds	r1, r1, r4
 800bd70:	f106 33ff 	add.w	r3, r6, #4294967295
 800bd74:	d204      	bcs.n	800bd80 <__udivdi3+0x2c8>
 800bd76:	428d      	cmp	r5, r1
 800bd78:	bf84      	itt	hi
 800bd7a:	3e02      	subhi	r6, #2
 800bd7c:	1909      	addhi	r1, r1, r4
 800bd7e:	d800      	bhi.n	800bd82 <__udivdi3+0x2ca>
 800bd80:	461e      	mov	r6, r3
 800bd82:	1b4d      	subs	r5, r1, r5
 800bd84:	ea46 460b 	orr.w	r6, r6, fp, lsl #16
 800bd88:	e718      	b.n	800bbbc <__udivdi3+0x104>
 800bd8a:	461e      	mov	r6, r3
 800bd8c:	e6e9      	b.n	800bb62 <__udivdi3+0xaa>
 800bd8e:	4691      	mov	r9, r2
 800bd90:	e730      	b.n	800bbf4 <__udivdi3+0x13c>
 800bd92:	461d      	mov	r5, r3
 800bd94:	e74a      	b.n	800bc2c <__udivdi3+0x174>
 800bd96:	428a      	cmp	r2, r1
 800bd98:	bf84      	itt	hi
 800bd9a:	f1aa 0a02 	subhi.w	sl, sl, #2
 800bd9e:	4441      	addhi	r1, r8
 800bda0:	d88d      	bhi.n	800bcbe <__udivdi3+0x206>
 800bda2:	e78b      	b.n	800bcbc <__udivdi3+0x204>
 800bda4:	42b8      	cmp	r0, r7
 800bda6:	bf84      	itt	hi
 800bda8:	f1ab 0b02 	subhi.w	fp, fp, #2
 800bdac:	4447      	addhi	r7, r8
 800bdae:	f63f af6d 	bhi.w	800bc8c <__udivdi3+0x1d4>
 800bdb2:	e76a      	b.n	800bc8a <__udivdi3+0x1d2>
 800bdb4:	469b      	mov	fp, r3
 800bdb6:	e7c8      	b.n	800bd4a <__udivdi3+0x292>

Disassembly of section .ARM.exidx:

0800bdb8 <.ARM.exidx>:
 800bdb8:	7ffff9ac 	svcvc	0x00fff9ac
 800bdbc:	00000001 	andeq	r0, r0, r1

Disassembly of section .rodata:

0800bdc0 <__RO_BASE__>:
 800bdc0:	5b424354 	blpl	909cb18 <__RO_LIMIT__+0x10908c0>
 800bdc4:	205d6425 	subscs	r6, sp, r5, lsr #8
 800bdc8:	6c6c6977 	stclvs	9, cr6, [ip], #-476	; 0xfffffe24
 800bdcc:	20656220 	rsbcs	r6, r5, r0, lsr #4
 800bdd0:	61657263 	cmnvs	r5, r3, ror #4
 800bdd4:	0a646574 	beq	99253ac <__RO_LIMIT__+0x1919154>
 800bdd8:	00000000 	andeq	r0, r0, r0

0800bddc <.LC1>:
 800bddc:	5b424354 	blpl	909cb34 <__RO_LIMIT__+0x10908dc>
 800bde0:	205d6425 	subscs	r6, sp, r5, lsr #8
 800bde4:	61657263 	cmnvs	r5, r3, ror #4
 800bde8:	20646574 	rsbcs	r6, r4, r4, ror r5
 800bdec:	68746977 	ldmdavs	r4!, {r0, r1, r2, r4, r5, r6, r8, fp, sp, lr}^
 800bdf0:	61747320 	cmnvs	r4, r0, lsr #6
 800bdf4:	74206b63 	strtvc	r6, [r0], #-2915	; 0xfffff49d
 800bdf8:	6120706f 	teqvs	r0, pc, rrx
 800bdfc:	70252074 	eorvc	r2, r5, r4, ror r0
 800be00:	0000000a 	andeq	r0, r0, sl

0800be04 <.LC2>:
 800be04:	50206f4e 	eorpl	r6, r0, lr, asr #30
 800be08:	6c626f72 	stclvs	15, cr6, [r2], #-456	; 0xfffffe38
 800be0c:	000a6d65 	andeq	r6, sl, r5, ror #26

0800be10 <.LC0>:
 800be10:	4d2d334d 	stcmi	3, cr3, [sp, #-308]!	; 0xfffffecc
 800be14:	20696e69 	rsbcs	r6, r9, r9, ror #28
 800be18:	534f5452 	movtpl	r5, #62546	; 0xf452
 800be1c:	0000000a 	andeq	r0, r0, sl

0800be20 <.LC0>:
 800be20:	61766e49 	cmnvs	r6, r9, asr #28
 800be24:	5f64696c 	svcpl	0x0064696c
 800be28:	65637845 	strbvs	r7, [r3, #-2117]!	; 0xfffff7bb
 800be2c:	6f697470 	svcvs	0x00697470
 800be30:	25203a6e 	strcs	r3, [r0, #-2670]!	; 0xfffff592
 800be34:	000a2164 	andeq	r2, sl, r4, ror #2

0800be38 <.LC1>:
 800be38:	61766e49 	cmnvs	r6, r9, asr #28
 800be3c:	5f64696c 	svcpl	0x0064696c
 800be40:	3a525349 	bcc	94a0b6c <__RO_LIMIT__+0x1494914>
 800be44:	21642520 	cmncs	r4, r0, lsr #10
 800be48:	0000000a 	andeq	r0, r0, sl
 800be4c:	00003052 	andeq	r3, r0, r2, asr r0
 800be50:	00003152 	andeq	r3, r0, r2, asr r1
 800be54:	00003252 	andeq	r3, r0, r2, asr r2
 800be58:	00003352 	andeq	r3, r0, r2, asr r3
 800be5c:	00323152 	eorseq	r3, r2, r2, asr r1
 800be60:	0000524c 	andeq	r5, r0, ip, asr #4
 800be64:	00004152 	andeq	r4, r0, r2, asr r1
 800be68:	52535078 	subspl	r5, r3, #120	; 0x78
 800be6c:	00000000 	andeq	r0, r0, r0

0800be70 <Stack_reg>:
 800be70:	0800be4c 	stmdaeq	r0, {r2, r3, r6, r9, sl, fp, ip, sp, pc}
 800be74:	0800be50 	stmdaeq	r0, {r4, r6, r9, sl, fp, ip, sp, pc}
 800be78:	0800be54 	stmdaeq	r0, {r2, r4, r6, r9, sl, fp, ip, sp, pc}
 800be7c:	0800be58 	stmdaeq	r0, {r3, r4, r6, r9, sl, fp, ip, sp, pc}
 800be80:	0800be5c 	stmdaeq	r0, {r2, r3, r4, r6, r9, sl, fp, ip, sp, pc}
 800be84:	0800be60 	stmdaeq	r0, {r5, r6, r9, sl, fp, ip, sp, pc}
 800be88:	0800be64 	stmdaeq	r0, {r2, r5, r6, r9, sl, fp, ip, sp, pc}
 800be8c:	0800be68 	stmdaeq	r0, {r3, r5, r6, r9, sl, fp, ip, sp, pc}

0800be90 <.LC10>:
 800be90:	255b7325 	ldrbcs	r7, [fp, #-805]	; 0xfffffcdb
 800be94:	252c5d64 	strcs	r5, [ip, #-3428]!	; 0xfffff29c
 800be98:	78303d73 	ldmdavc	r0!, {r0, r1, r4, r5, r6, r8, sl, fp, ip, sp}
 800be9c:	58382e25 	ldmdapl	r8!, {r0, r2, r5, r9, sl, fp, sp}
 800bea0:	0000000a 	andeq	r0, r0, sl

0800bea4 <.LC11>:
 800bea4:	4528524c 	strmi	r5, [r8, #-588]!	; 0xfffffdb4
 800bea8:	525f4358 	subspl	r4, pc, #88, 6	; 0x60000001
 800beac:	52555445 	subspl	r5, r5, #1157627904	; 0x45000000
 800beb0:	303d294e 	eorscc	r2, sp, lr, asr #18
 800beb4:	382e2578 	stmdacc	lr!, {r3, r4, r5, r6, r8, sl, sp}
 800beb8:	00000a58 	andeq	r0, r0, r8, asr sl

0800bebc <.LC12>:
 800bebc:	3d50534d 	ldclcc	3, cr5, [r0, #-308]	; 0xfffffecc
 800bec0:	2e257830 	mcrcs	8, 1, r7, cr5, cr0, {1}
 800bec4:	000a5838 	andeq	r5, sl, r8, lsr r8

0800bec8 <.LC13>:
 800bec8:	3d505350 	ldclcc	3, cr5, [r0, #-320]	; 0xfffffec0
 800becc:	2e257830 	mcrcs	8, 1, r7, cr5, cr0, {1}
 800bed0:	000a5838 	andeq	r5, sl, r8, lsr r8

0800bed4 <.LC14>:
 800bed4:	65637845 	strbvs	r7, [r3, #-2117]!	; 0xfffff7bb
 800bed8:	6f697470 	svcvs	0x00697470
 800bedc:	636f206e 	cmnvs	pc, #110	; 0x6e
 800bee0:	73727563 	cmnvc	r2, #415236096	; 0x18c00000
 800bee4:	6f726620 	svcvs	0x00726620
 800bee8:	6168206d 	cmnvs	r8, sp, rrx
 800beec:	656c646e 	strbvs	r6, [ip, #-1134]!	; 0xfffffb92
 800bef0:	6f6d2072 	svcvs	0x006d2072
 800bef4:	000a6564 	andeq	r6, sl, r4, ror #10

0800bef8 <.LC15>:
 800bef8:	0050534d 	subseq	r5, r0, sp, asr #6

0800befc <.LC16>:
 800befc:	65637845 	strbvs	r7, [r3, #-2117]!	; 0xfffff7bb
 800bf00:	6f697470 	svcvs	0x00697470
 800bf04:	636f206e 	cmnvs	pc, #110	; 0x6e
 800bf08:	73727563 	cmnvc	r2, #415236096	; 0x18c00000
 800bf0c:	6f726620 	svcvs	0x00726620
 800bf10:	6874206d 	ldmdavs	r4!, {r0, r2, r3, r5, r6, sp}^
 800bf14:	64616572 	strbtvs	r6, [r1], #-1394	; 0xfffffa8e
 800bf18:	646f6d20 	strbtvs	r6, [pc], #-3360	; 800bf20 <.LC16+0x24>
 800bf1c:	69772065 	ldmdbvs	r7!, {r0, r2, r5, r6, sp}^
 800bf20:	4d206874 	stcmi	8, cr6, [r0, #-464]!	; 0xfffffe30
 800bf24:	000a5053 	andeq	r5, sl, r3, asr r0

0800bf28 <.LC17>:
 800bf28:	65637845 	strbvs	r7, [r3, #-2117]!	; 0xfffff7bb
 800bf2c:	6f697470 	svcvs	0x00697470
 800bf30:	636f206e 	cmnvs	pc, #110	; 0x6e
 800bf34:	73727563 	cmnvc	r2, #415236096	; 0x18c00000
 800bf38:	6f726620 	svcvs	0x00726620
 800bf3c:	6874206d 	ldmdavs	r4!, {r0, r2, r3, r5, r6, sp}^
 800bf40:	64616572 	strbtvs	r6, [r1], #-1394	; 0xfffffa8e
 800bf44:	646f6d20 	strbtvs	r6, [pc], #-3360	; 800bf4c <.LC17+0x24>
 800bf48:	69772065 	ldmdbvs	r7!, {r0, r2, r5, r6, sp}^
 800bf4c:	50206874 	eorpl	r6, r0, r4, ror r8
 800bf50:	000a5053 	andeq	r5, sl, r3, asr r0

0800bf54 <.LC18>:
 800bf54:	00505350 	subseq	r5, r0, r0, asr r3

0800bf58 <.LC19>:
 800bf58:	61766e49 	cmnvs	r6, r9, asr #28
 800bf5c:	2064696c 	rsbcs	r6, r4, ip, ror #18
 800bf60:	65637865 	strbvs	r7, [r3, #-2149]!	; 0xfffff79b
 800bf64:	6f697470 	svcvs	0x00697470
 800bf68:	6572206e 	ldrbvs	r2, [r2, #-110]!	; 0xffffff92
 800bf6c:	6e727574 	mrcvs	5, 3, r7, cr2, cr4, {3}
 800bf70:	6c617620 	stclvs	6, cr7, [r1], #-128	; 0xffffff80
 800bf74:	3d206575 	cfstr32cc	mvfx6, [r0, #-468]!	; 0xfffffe2c
 800bf78:	2325203e 	teqcs	r5, #62	; 0x3e
 800bf7c:	0a58382e 	beq	961a03c <__RO_LIMIT__+0x160dde4>
 800bf80:	00000000 	andeq	r0, r0, r0

0800bf84 <.LC20>:
 800bf84:	53434853 	movtpl	r4, #14419	; 0x3853
 800bf88:	3e3d2052 	mrccc	0, 1, r2, cr13, cr2, {2}
 800bf8c:	2e232520 	cfsh64cs	mvdx2, mvdx3, #16
 800bf90:	000a5838 	andeq	r5, sl, r8, lsr r8

0800bf94 <.LC21>:
 800bf94:	52534643 	subspl	r4, r3, #70254592	; 0x4300000
 800bf98:	75614628 	strbvc	r4, [r1, #-1576]!	; 0xfffff9d8
 800bf9c:	5220746c 	eorpl	r7, r0, #108, 8	; 0x6c000000
 800bfa0:	6f736165 	svcvs	0x00736165
 800bfa4:	3d20296e 	stccc	9, cr2, [r0, #-440]!	; 0xfffffe48
 800bfa8:	2325203e 	teqcs	r5, #62	; 0x3e
 800bfac:	0a58382e 	beq	961a06c <__RO_LIMIT__+0x160de14>
 800bfb0:	00000000 	andeq	r0, r0, r0

0800bfb4 <.LC22>:
 800bfb4:	20455348 	subcs	r5, r5, r8, asr #6
 800bfb8:	6c696166 	stfvse	f6, [r9], #-408	; 0xfffffe68
 800bfbc:	00000a21 	andeq	r0, r0, r1, lsr #20

0800bfc0 <.LC23>:
 800bfc0:	64726148 	ldrbtvs	r6, [r2], #-328	; 0xfffffeb8
 800bfc4:	75614620 	strbvc	r4, [r1, #-1568]!	; 0xfffff9e0
 800bfc8:	0a21746c 	beq	8869180 <__RO_LIMIT__+0x85cf28>
 800bfcc:	00000000 	andeq	r0, r0, r0

0800bfd0 <.LC24>:
 800bfd0:	41464d4d 	cmpmi	r6, sp, asr #26
 800bfd4:	61562052 	cmpvs	r6, r2, asr r0
 800bfd8:	2064696c 	rsbcs	r6, r4, ip, ror #18
 800bfdc:	25203e3d 	strcs	r3, [r0, #-3645]!	; 0xfffff1c3
 800bfe0:	00000a64 	andeq	r0, r0, r4, ror #20

0800bfe4 <.LC25>:
 800bfe4:	41464d4d 	cmpmi	r6, sp, asr #26
 800bfe8:	3e3d2052 	mrccc	0, 1, r2, cr13, cr2, {2}
 800bfec:	2e232520 	cfsh64cs	mvdx2, mvdx3, #16
 800bff0:	000a5838 	andeq	r5, sl, r8, lsr r8

0800bff4 <.LC26>:
 800bff4:	52414642 	subpl	r4, r1, #69206016	; 0x4200000
 800bff8:	6c615620 	stclvs	6, cr5, [r1], #-128	; 0xffffff80
 800bffc:	3d206469 	cfstrscc	mvf6, [r0, #-420]!	; 0xfffffe5c
 800c000:	6425203e 	strtvs	r2, [r5], #-62	; 0xffffffc2
 800c004:	0000000a 	andeq	r0, r0, sl

0800c008 <.LC27>:
 800c008:	52414642 	subpl	r4, r1, #69206016	; 0x4200000
 800c00c:	203e3d20 	eorscs	r3, lr, r0, lsr #26
 800c010:	382e2325 	stmdacc	lr!, {r0, r2, r5, r8, r9, sp}
 800c014:	00000a58 	andeq	r0, r0, r8, asr sl

0800c018 <.LC28>:
 800c018:	52534648 	subspl	r4, r3, #72, 12	; 0x4800000
 800c01c:	72614828 	rsbvc	r4, r1, #40, 16	; 0x280000
 800c020:	61462064 	cmpvs	r6, r4, rrx
 800c024:	20746c75 	rsbscs	r6, r4, r5, ror ip
 800c028:	73616552 	cmnvc	r1, #343932928	; 0x14800000
 800c02c:	20296e6f 	eorcs	r6, r9, pc, ror #28
 800c030:	25203e3d 	strcs	r3, [r0, #-3645]!	; 0xfffff1c3
 800c034:	58382e23 	ldmdapl	r8!, {r0, r1, r5, r9, sl, fp, sp}
 800c038:	0000000a 	andeq	r0, r0, sl

0800c03c <.LC29>:
 800c03c:	6f6d654d 	svcvs	0x006d654d
 800c040:	4d207972 	stcmi	9, cr7, [r0, #-456]!	; 0xfffffe38
 800c044:	67616e61 	strbvs	r6, [r1, -r1, ror #28]!
 800c048:	6e656d65 	cdpvs	13, 6, cr6, cr5, cr5, {3}
 800c04c:	61462074 	hvcvs	25092	; 0x6204
 800c050:	21746c75 	cmncs	r4, r5, ror ip
 800c054:	0000000a 	andeq	r0, r0, sl

0800c058 <.LC30>:
 800c058:	20737542 	rsbscs	r7, r3, r2, asr #10
 800c05c:	6c756146 	ldfvse	f6, [r5], #-280	; 0xfffffee8
 800c060:	000a2174 	andeq	r2, sl, r4, ror r1

0800c064 <.LC31>:
 800c064:	67617355 			; <UNDEFINED> instruction: 0x67617355
 800c068:	61462065 	cmpvs	r6, r5, rrx
 800c06c:	21746c75 	cmncs	r4, r5, ror ip
 800c070:	0000000a 	andeq	r0, r0, sl

0800c074 <.LC32>:
 800c074:	75626544 	strbvc	r6, [r2, #-1348]!	; 0xfffffabc
 800c078:	6e6f4d67 	cdpvs	13, 6, cr4, cr15, cr7, {3}
 800c07c:	6c614320 	stclvs	3, cr4, [r1], #-128	; 0xffffff80
 800c080:	00000a6c 	andeq	r0, r0, ip, ror #20

0800c084 <_global_impure_ptr>:
 800c084:	20000044 	andcs	r0, r0, r4, asr #32

0800c088 <blanks.6752>:
 800c088:	20202020 	eorcs	r2, r0, r0, lsr #32
 800c08c:	20202020 	eorcs	r2, r0, r0, lsr #32
 800c090:	20202020 	eorcs	r2, r0, r0, lsr #32
 800c094:	20202020 	eorcs	r2, r0, r0, lsr #32

0800c098 <zeroes.6753>:
 800c098:	30303030 	eorscc	r3, r0, r0, lsr r0
 800c09c:	30303030 	eorscc	r3, r0, r0, lsr r0
 800c0a0:	30303030 	eorscc	r3, r0, r0, lsr r0
 800c0a4:	30303030 	eorscc	r3, r0, r0, lsr r0

0800c0a8 <p05.5301>:
 800c0a8:	00000005 	andeq	r0, r0, r5
 800c0ac:	00000019 	andeq	r0, r0, r9, lsl r0
 800c0b0:	0000007d 	andeq	r0, r0, sp, ror r0
 800c0b4:	00000000 	andeq	r0, r0, r0

0800c0b8 <__mprec_tens>:
 800c0b8:	00000000 	andeq	r0, r0, r0
 800c0bc:	3ff00000 	svccc	0x00f00000	; IMB
 800c0c0:	00000000 	andeq	r0, r0, r0
 800c0c4:	40240000 	eormi	r0, r4, r0
 800c0c8:	00000000 	andeq	r0, r0, r0
 800c0cc:	40590000 	subsmi	r0, r9, r0
 800c0d0:	00000000 	andeq	r0, r0, r0
 800c0d4:	408f4000 	addmi	r4, pc, r0
 800c0d8:	00000000 	andeq	r0, r0, r0
 800c0dc:	40c38800 	sbcmi	r8, r3, r0, lsl #16
 800c0e0:	00000000 	andeq	r0, r0, r0
 800c0e4:	40f86a00 	rscsmi	r6, r8, r0, lsl #20
 800c0e8:	00000000 	andeq	r0, r0, r0
 800c0ec:	412e8480 	smlawbmi	lr, r0, r4, r8
 800c0f0:	00000000 	andeq	r0, r0, r0
 800c0f4:	416312d0 	ldrdmi	r1, [r3, #-32]!	; 0xffffffe0
 800c0f8:	00000000 	andeq	r0, r0, r0
 800c0fc:	4197d784 	orrsmi	sp, r7, r4, lsl #15
 800c100:	00000000 	andeq	r0, r0, r0
 800c104:	41cdcd65 	bicmi	ip, sp, r5, ror #26
 800c108:	20000000 	andcs	r0, r0, r0
 800c10c:	4202a05f 	andmi	sl, r2, #95	; 0x5f
 800c110:	e8000000 	stmda	r0, {}	; <UNPREDICTABLE>
 800c114:	42374876 	eorsmi	r4, r7, #7733248	; 0x760000
 800c118:	a2000000 	andge	r0, r0, #0
 800c11c:	426d1a94 	rsbmi	r1, sp, #148, 20	; 0x94000
 800c120:	e5400000 	strb	r0, [r0, #-0]
 800c124:	42a2309c 	adcmi	r3, r2, #156	; 0x9c
 800c128:	1e900000 	cdpne	0, 9, cr0, cr0, cr0, {0}
 800c12c:	42d6bcc4 	sbcsmi	fp, r6, #196, 24	; 0xc400
 800c130:	26340000 	ldrtcs	r0, [r4], -r0
 800c134:	430c6bf5 	movwmi	r6, #52213	; 0xcbf5
 800c138:	37e08000 	strbcc	r8, [r0, r0]!
 800c13c:	4341c379 	movtmi	ip, #4985	; 0x1379
 800c140:	85d8a000 	ldrbhi	sl, [r8]
 800c144:	43763457 	cmnmi	r6, #1459617792	; 0x57000000
 800c148:	674ec800 	strbvs	ip, [lr, -r0, lsl #16]
 800c14c:	43abc16d 			; <UNDEFINED> instruction: 0x43abc16d
 800c150:	60913d00 	addsvs	r3, r1, r0, lsl #26
 800c154:	43e158e4 	mvnmi	r5, #228, 16	; 0xe40000
 800c158:	78b58c40 	ldmvc	r5!, {r6, sl, fp, pc}
 800c15c:	4415af1d 	ldrmi	sl, [r5], #-3869	; 0xfffff0e3
 800c160:	d6e2ef50 	usatle	lr, #2, r0, asr #30
 800c164:	444b1ae4 	strbmi	r1, [fp], #-2788	; 0xfffff51c
 800c168:	064dd592 			; <UNDEFINED> instruction: 0x064dd592
 800c16c:	4480f0cf 	strmi	pc, [r0], #207	; 0xcf
 800c170:	c7e14af6 			; <UNDEFINED> instruction: 0xc7e14af6
 800c174:	44b52d02 	ldrtmi	r2, [r5], #3330	; 0xd02
 800c178:	79d99db4 	ldmibvc	r9, {r2, r4, r5, r7, r8, sl, fp, ip, pc}^
 800c17c:	44ea7843 	strbtmi	r7, [sl], #2115	; 0x843

0800c180 <__mprec_tinytens>:
 800c180:	97d889bc 			; <UNDEFINED> instruction: 0x97d889bc
 800c184:	3c9cd2b2 	lfmcc	f5, 1, [ip], {178}	; 0xb2
 800c188:	d5a8a733 	strle	sl, [r8, #1843]!	; 0x733
 800c18c:	3949f623 	stmdbcc	r9, {r0, r1, r5, r9, sl, ip, sp, lr, pc}^
 800c190:	44f4a73d 	ldrbtmi	sl, [r4], #1853	; 0x73d
 800c194:	32a50ffd 	adccc	r0, r5, #1012	; 0x3f4
 800c198:	cf8c979d 	svcgt	0x008c979d
 800c19c:	255bba08 	ldrbcs	fp, [fp, #-2568]	; 0xfffff5f8
 800c1a0:	64ac6f43 	strtvs	r6, [ip], #3907	; 0xf43
 800c1a4:	0ac80628 	beq	720da4c <__ZI_SIZE__+0x720b078>

0800c1a8 <__mprec_bigtens>:
 800c1a8:	37e08000 	strbcc	r8, [r0, r0]!
 800c1ac:	4341c379 	movtmi	ip, #4985	; 0x1379
 800c1b0:	b5056e17 	strlt	r6, [r5, #-3607]	; 0xfffff1e9
 800c1b4:	4693b8b5 			; <UNDEFINED> instruction: 0x4693b8b5
 800c1b8:	e93ff9f5 	ldmdb	pc!, {r0, r2, r4, r5, r6, r7, r8, fp, ip, sp, lr, pc}	; <UNPREDICTABLE>
 800c1bc:	4d384f03 	ldcmi	15, cr4, [r8, #-12]!
 800c1c0:	f9301d32 			; <UNDEFINED> instruction: 0xf9301d32
 800c1c4:	5a827748 	bpl	60a9eec <__ZI_SIZE__+0x60a7518>
 800c1c8:	7f73bf3c 	svcvc	0x0073bf3c
 800c1cc:	75154fdd 	ldrvc	r4, [r5, #-4061]	; 0xfffff023

0800c1d0 <blanks.6696>:
 800c1d0:	20202020 	eorcs	r2, r0, r0, lsr #32
 800c1d4:	20202020 	eorcs	r2, r0, r0, lsr #32
 800c1d8:	20202020 	eorcs	r2, r0, r0, lsr #32
 800c1dc:	20202020 	eorcs	r2, r0, r0, lsr #32

0800c1e0 <zeroes.6697>:
 800c1e0:	30303030 	eorscc	r3, r0, r0, lsr r0
 800c1e4:	30303030 	eorscc	r3, r0, r0, lsr r0
 800c1e8:	30303030 	eorscc	r3, r0, r0, lsr r0
 800c1ec:	30303030 	eorscc	r3, r0, r0, lsr r0
 800c1f0:	00000043 	andeq	r0, r0, r3, asr #32
 800c1f4:	00464e49 	subeq	r4, r6, r9, asr #28
 800c1f8:	00666e69 	rsbeq	r6, r6, r9, ror #28
 800c1fc:	004e414e 	subeq	r4, lr, lr, asr #2
 800c200:	006e616e 	rsbeq	r6, lr, lr, ror #2
 800c204:	33323130 	teqcc	r2, #48, 2
 800c208:	37363534 			; <UNDEFINED> instruction: 0x37363534
 800c20c:	42413938 	submi	r3, r1, #56, 18	; 0xe0000
 800c210:	46454443 	strbmi	r4, [r5], -r3, asr #8
 800c214:	00000000 	andeq	r0, r0, r0
 800c218:	33323130 	teqcc	r2, #48, 2
 800c21c:	37363534 			; <UNDEFINED> instruction: 0x37363534
 800c220:	62613938 	rsbvs	r3, r1, #56, 18	; 0xe0000
 800c224:	66656463 	strbtvs	r6, [r5], -r3, ror #8
 800c228:	00000000 	andeq	r0, r0, r0
 800c22c:	6c756e28 	ldclvs	14, cr6, [r5], #-160	; 0xffffff60
 800c230:	0000296c 	andeq	r2, r0, ip, ror #18
 800c234:	00000030 	andeq	r0, r0, r0, lsr r0
 800c238:	69666e49 	stmdbvs	r6!, {r0, r3, r6, r9, sl, fp, sp, lr}^
 800c23c:	7974696e 	ldmdbvc	r4!, {r1, r2, r3, r5, r6, r8, fp, sp, lr}^
 800c240:	00000000 	andeq	r0, r0, r0
 800c244:	004e614e 	subeq	r6, lr, lr, asr #2
 800c248:	49534f50 	ldmdbmi	r3, {r4, r6, r8, r9, sl, fp, lr}^
 800c24c:	00000058 	andeq	r0, r0, r8, asr r0
 800c250:	0000002e 	andeq	r0, r0, lr, lsr #32
 800c254:	00000000 	andeq	r0, r0, r0

Disassembly of section .data:

20000000 <__RW_BASE__>:
20000000:	20002ce0 	andcs	r2, r0, r0, ror #25

20000004 <stack_limit.5298>:
20000004:	20000ce0 	andcs	r0, r0, r0, ror #25

20000008 <test_delay_cnt.5322>:
20000008:	000007d0 	ldrdeq	r0, [r0], -r0	; <UNPREDICTABLE>

2000000c <BACK_COLOR>:
2000000c:	0000ffff 	strdeq	pc, [r0], -pc	; <UNPREDICTABLE>

20000010 <EXTI9_5_LUT>:
20000010:	00000000 	andeq	r0, r0, r0
20000014:	00000002 	andeq	r0, r0, r2
20000018:	00000003 	andeq	r0, r0, r3
2000001c:	00000000 	andeq	r0, r0, r0
20000020:	00000004 	andeq	r0, r0, r4
	...

20000030 <EXTI15_10_LUT>:
20000030:	00000000 	andeq	r0, r0, r0
20000034:	00000005 	andeq	r0, r0, r5
20000038:	00000006 	andeq	r0, r0, r6
2000003c:	00000000 	andeq	r0, r0, r0

20000040 <_impure_ptr>:
20000040:	20000044 	andcs	r0, r0, r4, asr #32

20000044 <impure_data>:
	...
20000064:	0800c1f0 	stmdaeq	r0, {r4, r5, r6, r7, r8, lr, pc}
	...

20000134 <lc_ctype_charset>:
20000134:	49435341 	stmdbmi	r3, {r0, r6, r8, r9, ip, lr}^
20000138:	00000049 	andeq	r0, r0, r9, asr #32
	...

20000154 <__mb_cur_max>:
20000154:	00000001 	andeq	r0, r0, r1

20000158 <lc_message_charset>:
20000158:	49435341 	stmdbmi	r3, {r0, r6, r8, r9, ip, lr}^
2000015c:	00000049 	andeq	r0, r0, r9, asr #32
	...

20000178 <lconv>:
20000178:	0800c250 	stmdaeq	r0, {r4, r6, r9, lr, pc}
2000017c:	0800c214 	stmdaeq	r0, {r2, r4, r9, lr, pc}
20000180:	0800c214 	stmdaeq	r0, {r2, r4, r9, lr, pc}
20000184:	0800c214 	stmdaeq	r0, {r2, r4, r9, lr, pc}
20000188:	0800c214 	stmdaeq	r0, {r2, r4, r9, lr, pc}
2000018c:	0800c214 	stmdaeq	r0, {r2, r4, r9, lr, pc}
20000190:	0800c214 	stmdaeq	r0, {r2, r4, r9, lr, pc}
20000194:	0800c214 	stmdaeq	r0, {r2, r4, r9, lr, pc}
20000198:	0800c214 	stmdaeq	r0, {r2, r4, r9, lr, pc}
2000019c:	0800c214 	stmdaeq	r0, {r2, r4, r9, lr, pc}
200001a0:	ffffffff 			; <UNDEFINED> instruction: 0xffffffff
200001a4:	ffffffff 			; <UNDEFINED> instruction: 0xffffffff
200001a8:	ffffffff 			; <UNDEFINED> instruction: 0xffffffff
200001ac:	0000ffff 	strdeq	pc, [r0], -pc	; <UNPREDICTABLE>

200001b0 <__malloc_av_>:
	...
200001b8:	200001b0 			; <UNDEFINED> instruction: 0x200001b0
200001bc:	200001b0 			; <UNDEFINED> instruction: 0x200001b0
200001c0:	200001b8 			; <UNDEFINED> instruction: 0x200001b8
200001c4:	200001b8 			; <UNDEFINED> instruction: 0x200001b8
200001c8:	200001c0 	andcs	r0, r0, r0, asr #3
200001cc:	200001c0 	andcs	r0, r0, r0, asr #3
200001d0:	200001c8 	andcs	r0, r0, r8, asr #3
200001d4:	200001c8 	andcs	r0, r0, r8, asr #3
200001d8:	200001d0 	ldrdcs	r0, [r0], -r0	; <UNPREDICTABLE>
200001dc:	200001d0 	ldrdcs	r0, [r0], -r0	; <UNPREDICTABLE>
200001e0:	200001d8 	ldrdcs	r0, [r0], -r8
200001e4:	200001d8 	ldrdcs	r0, [r0], -r8
200001e8:	200001e0 	andcs	r0, r0, r0, ror #3
200001ec:	200001e0 	andcs	r0, r0, r0, ror #3
200001f0:	200001e8 	andcs	r0, r0, r8, ror #3
200001f4:	200001e8 	andcs	r0, r0, r8, ror #3
200001f8:	200001f0 	strdcs	r0, [r0], -r0	; <UNPREDICTABLE>
200001fc:	200001f0 	strdcs	r0, [r0], -r0	; <UNPREDICTABLE>
20000200:	200001f8 	strdcs	r0, [r0], -r8
20000204:	200001f8 	strdcs	r0, [r0], -r8
20000208:	20000200 	andcs	r0, r0, r0, lsl #4
2000020c:	20000200 	andcs	r0, r0, r0, lsl #4
20000210:	20000208 	andcs	r0, r0, r8, lsl #4
20000214:	20000208 	andcs	r0, r0, r8, lsl #4
20000218:	20000210 	andcs	r0, r0, r0, lsl r2
2000021c:	20000210 	andcs	r0, r0, r0, lsl r2
20000220:	20000218 	andcs	r0, r0, r8, lsl r2
20000224:	20000218 	andcs	r0, r0, r8, lsl r2
20000228:	20000220 	andcs	r0, r0, r0, lsr #4
2000022c:	20000220 	andcs	r0, r0, r0, lsr #4
20000230:	20000228 	andcs	r0, r0, r8, lsr #4
20000234:	20000228 	andcs	r0, r0, r8, lsr #4
20000238:	20000230 	andcs	r0, r0, r0, lsr r2
2000023c:	20000230 	andcs	r0, r0, r0, lsr r2
20000240:	20000238 	andcs	r0, r0, r8, lsr r2
20000244:	20000238 	andcs	r0, r0, r8, lsr r2
20000248:	20000240 	andcs	r0, r0, r0, asr #4
2000024c:	20000240 	andcs	r0, r0, r0, asr #4
20000250:	20000248 	andcs	r0, r0, r8, asr #4
20000254:	20000248 	andcs	r0, r0, r8, asr #4
20000258:	20000250 	andcs	r0, r0, r0, asr r2
2000025c:	20000250 	andcs	r0, r0, r0, asr r2
20000260:	20000258 	andcs	r0, r0, r8, asr r2
20000264:	20000258 	andcs	r0, r0, r8, asr r2
20000268:	20000260 	andcs	r0, r0, r0, ror #4
2000026c:	20000260 	andcs	r0, r0, r0, ror #4
20000270:	20000268 	andcs	r0, r0, r8, ror #4
20000274:	20000268 	andcs	r0, r0, r8, ror #4
20000278:	20000270 	andcs	r0, r0, r0, ror r2
2000027c:	20000270 	andcs	r0, r0, r0, ror r2
20000280:	20000278 	andcs	r0, r0, r8, ror r2
20000284:	20000278 	andcs	r0, r0, r8, ror r2
20000288:	20000280 	andcs	r0, r0, r0, lsl #5
2000028c:	20000280 	andcs	r0, r0, r0, lsl #5
20000290:	20000288 	andcs	r0, r0, r8, lsl #5
20000294:	20000288 	andcs	r0, r0, r8, lsl #5
20000298:	20000290 	mulcs	r0, r0, r2
2000029c:	20000290 	mulcs	r0, r0, r2
200002a0:	20000298 	mulcs	r0, r8, r2
200002a4:	20000298 	mulcs	r0, r8, r2
200002a8:	200002a0 	andcs	r0, r0, r0, lsr #5
200002ac:	200002a0 	andcs	r0, r0, r0, lsr #5
200002b0:	200002a8 	andcs	r0, r0, r8, lsr #5
200002b4:	200002a8 	andcs	r0, r0, r8, lsr #5
200002b8:	200002b0 			; <UNDEFINED> instruction: 0x200002b0
200002bc:	200002b0 			; <UNDEFINED> instruction: 0x200002b0
200002c0:	200002b8 			; <UNDEFINED> instruction: 0x200002b8
200002c4:	200002b8 			; <UNDEFINED> instruction: 0x200002b8
200002c8:	200002c0 	andcs	r0, r0, r0, asr #5
200002cc:	200002c0 	andcs	r0, r0, r0, asr #5
200002d0:	200002c8 	andcs	r0, r0, r8, asr #5
200002d4:	200002c8 	andcs	r0, r0, r8, asr #5
200002d8:	200002d0 	ldrdcs	r0, [r0], -r0	; <UNPREDICTABLE>
200002dc:	200002d0 	ldrdcs	r0, [r0], -r0	; <UNPREDICTABLE>
200002e0:	200002d8 	ldrdcs	r0, [r0], -r8
200002e4:	200002d8 	ldrdcs	r0, [r0], -r8
200002e8:	200002e0 	andcs	r0, r0, r0, ror #5
200002ec:	200002e0 	andcs	r0, r0, r0, ror #5
200002f0:	200002e8 	andcs	r0, r0, r8, ror #5
200002f4:	200002e8 	andcs	r0, r0, r8, ror #5
200002f8:	200002f0 	strdcs	r0, [r0], -r0	; <UNPREDICTABLE>
200002fc:	200002f0 	strdcs	r0, [r0], -r0	; <UNPREDICTABLE>
20000300:	200002f8 	strdcs	r0, [r0], -r8
20000304:	200002f8 	strdcs	r0, [r0], -r8
20000308:	20000300 	andcs	r0, r0, r0, lsl #6
2000030c:	20000300 	andcs	r0, r0, r0, lsl #6
20000310:	20000308 	andcs	r0, r0, r8, lsl #6
20000314:	20000308 	andcs	r0, r0, r8, lsl #6
20000318:	20000310 	andcs	r0, r0, r0, lsl r3
2000031c:	20000310 	andcs	r0, r0, r0, lsl r3
20000320:	20000318 	andcs	r0, r0, r8, lsl r3
20000324:	20000318 	andcs	r0, r0, r8, lsl r3
20000328:	20000320 	andcs	r0, r0, r0, lsr #6
2000032c:	20000320 	andcs	r0, r0, r0, lsr #6
20000330:	20000328 	andcs	r0, r0, r8, lsr #6
20000334:	20000328 	andcs	r0, r0, r8, lsr #6
20000338:	20000330 	andcs	r0, r0, r0, lsr r3
2000033c:	20000330 	andcs	r0, r0, r0, lsr r3
20000340:	20000338 	andcs	r0, r0, r8, lsr r3
20000344:	20000338 	andcs	r0, r0, r8, lsr r3
20000348:	20000340 	andcs	r0, r0, r0, asr #6
2000034c:	20000340 	andcs	r0, r0, r0, asr #6
20000350:	20000348 	andcs	r0, r0, r8, asr #6
20000354:	20000348 	andcs	r0, r0, r8, asr #6
20000358:	20000350 	andcs	r0, r0, r0, asr r3
2000035c:	20000350 	andcs	r0, r0, r0, asr r3
20000360:	20000358 	andcs	r0, r0, r8, asr r3
20000364:	20000358 	andcs	r0, r0, r8, asr r3
20000368:	20000360 	andcs	r0, r0, r0, ror #6
2000036c:	20000360 	andcs	r0, r0, r0, ror #6
20000370:	20000368 	andcs	r0, r0, r8, ror #6
20000374:	20000368 	andcs	r0, r0, r8, ror #6
20000378:	20000370 	andcs	r0, r0, r0, ror r3
2000037c:	20000370 	andcs	r0, r0, r0, ror r3
20000380:	20000378 	andcs	r0, r0, r8, ror r3
20000384:	20000378 	andcs	r0, r0, r8, ror r3
20000388:	20000380 	andcs	r0, r0, r0, lsl #7
2000038c:	20000380 	andcs	r0, r0, r0, lsl #7
20000390:	20000388 	andcs	r0, r0, r8, lsl #7
20000394:	20000388 	andcs	r0, r0, r8, lsl #7
20000398:	20000390 	mulcs	r0, r0, r3
2000039c:	20000390 	mulcs	r0, r0, r3
200003a0:	20000398 	mulcs	r0, r8, r3
200003a4:	20000398 	mulcs	r0, r8, r3
200003a8:	200003a0 	andcs	r0, r0, r0, lsr #7
200003ac:	200003a0 	andcs	r0, r0, r0, lsr #7
200003b0:	200003a8 	andcs	r0, r0, r8, lsr #7
200003b4:	200003a8 	andcs	r0, r0, r8, lsr #7
200003b8:	200003b0 			; <UNDEFINED> instruction: 0x200003b0
200003bc:	200003b0 			; <UNDEFINED> instruction: 0x200003b0
200003c0:	200003b8 			; <UNDEFINED> instruction: 0x200003b8
200003c4:	200003b8 			; <UNDEFINED> instruction: 0x200003b8
200003c8:	200003c0 	andcs	r0, r0, r0, asr #7
200003cc:	200003c0 	andcs	r0, r0, r0, asr #7
200003d0:	200003c8 	andcs	r0, r0, r8, asr #7
200003d4:	200003c8 	andcs	r0, r0, r8, asr #7
200003d8:	200003d0 	ldrdcs	r0, [r0], -r0	; <UNPREDICTABLE>
200003dc:	200003d0 	ldrdcs	r0, [r0], -r0	; <UNPREDICTABLE>
200003e0:	200003d8 	ldrdcs	r0, [r0], -r8
200003e4:	200003d8 	ldrdcs	r0, [r0], -r8
200003e8:	200003e0 	andcs	r0, r0, r0, ror #7
200003ec:	200003e0 	andcs	r0, r0, r0, ror #7
200003f0:	200003e8 	andcs	r0, r0, r8, ror #7
200003f4:	200003e8 	andcs	r0, r0, r8, ror #7
200003f8:	200003f0 	strdcs	r0, [r0], -r0	; <UNPREDICTABLE>
200003fc:	200003f0 	strdcs	r0, [r0], -r0	; <UNPREDICTABLE>
20000400:	200003f8 	strdcs	r0, [r0], -r8
20000404:	200003f8 	strdcs	r0, [r0], -r8
20000408:	20000400 	andcs	r0, r0, r0, lsl #8
2000040c:	20000400 	andcs	r0, r0, r0, lsl #8
20000410:	20000408 	andcs	r0, r0, r8, lsl #8
20000414:	20000408 	andcs	r0, r0, r8, lsl #8
20000418:	20000410 	andcs	r0, r0, r0, lsl r4
2000041c:	20000410 	andcs	r0, r0, r0, lsl r4
20000420:	20000418 	andcs	r0, r0, r8, lsl r4
20000424:	20000418 	andcs	r0, r0, r8, lsl r4
20000428:	20000420 	andcs	r0, r0, r0, lsr #8
2000042c:	20000420 	andcs	r0, r0, r0, lsr #8
20000430:	20000428 	andcs	r0, r0, r8, lsr #8
20000434:	20000428 	andcs	r0, r0, r8, lsr #8
20000438:	20000430 	andcs	r0, r0, r0, lsr r4
2000043c:	20000430 	andcs	r0, r0, r0, lsr r4
20000440:	20000438 	andcs	r0, r0, r8, lsr r4
20000444:	20000438 	andcs	r0, r0, r8, lsr r4
20000448:	20000440 	andcs	r0, r0, r0, asr #8
2000044c:	20000440 	andcs	r0, r0, r0, asr #8
20000450:	20000448 	andcs	r0, r0, r8, asr #8
20000454:	20000448 	andcs	r0, r0, r8, asr #8
20000458:	20000450 	andcs	r0, r0, r0, asr r4
2000045c:	20000450 	andcs	r0, r0, r0, asr r4
20000460:	20000458 	andcs	r0, r0, r8, asr r4
20000464:	20000458 	andcs	r0, r0, r8, asr r4
20000468:	20000460 	andcs	r0, r0, r0, ror #8
2000046c:	20000460 	andcs	r0, r0, r0, ror #8
20000470:	20000468 	andcs	r0, r0, r8, ror #8
20000474:	20000468 	andcs	r0, r0, r8, ror #8
20000478:	20000470 	andcs	r0, r0, r0, ror r4
2000047c:	20000470 	andcs	r0, r0, r0, ror r4
20000480:	20000478 	andcs	r0, r0, r8, ror r4
20000484:	20000478 	andcs	r0, r0, r8, ror r4
20000488:	20000480 	andcs	r0, r0, r0, lsl #9
2000048c:	20000480 	andcs	r0, r0, r0, lsl #9
20000490:	20000488 	andcs	r0, r0, r8, lsl #9
20000494:	20000488 	andcs	r0, r0, r8, lsl #9
20000498:	20000490 	mulcs	r0, r0, r4
2000049c:	20000490 	mulcs	r0, r0, r4
200004a0:	20000498 	mulcs	r0, r8, r4
200004a4:	20000498 	mulcs	r0, r8, r4
200004a8:	200004a0 	andcs	r0, r0, r0, lsr #9
200004ac:	200004a0 	andcs	r0, r0, r0, lsr #9
200004b0:	200004a8 	andcs	r0, r0, r8, lsr #9
200004b4:	200004a8 	andcs	r0, r0, r8, lsr #9
200004b8:	200004b0 			; <UNDEFINED> instruction: 0x200004b0
200004bc:	200004b0 			; <UNDEFINED> instruction: 0x200004b0
200004c0:	200004b8 			; <UNDEFINED> instruction: 0x200004b8
200004c4:	200004b8 			; <UNDEFINED> instruction: 0x200004b8
200004c8:	200004c0 	andcs	r0, r0, r0, asr #9
200004cc:	200004c0 	andcs	r0, r0, r0, asr #9
200004d0:	200004c8 	andcs	r0, r0, r8, asr #9
200004d4:	200004c8 	andcs	r0, r0, r8, asr #9
200004d8:	200004d0 	ldrdcs	r0, [r0], -r0	; <UNPREDICTABLE>
200004dc:	200004d0 	ldrdcs	r0, [r0], -r0	; <UNPREDICTABLE>
200004e0:	200004d8 	ldrdcs	r0, [r0], -r8
200004e4:	200004d8 	ldrdcs	r0, [r0], -r8
200004e8:	200004e0 	andcs	r0, r0, r0, ror #9
200004ec:	200004e0 	andcs	r0, r0, r0, ror #9
200004f0:	200004e8 	andcs	r0, r0, r8, ror #9
200004f4:	200004e8 	andcs	r0, r0, r8, ror #9
200004f8:	200004f0 	strdcs	r0, [r0], -r0	; <UNPREDICTABLE>
200004fc:	200004f0 	strdcs	r0, [r0], -r0	; <UNPREDICTABLE>
20000500:	200004f8 	strdcs	r0, [r0], -r8
20000504:	200004f8 	strdcs	r0, [r0], -r8
20000508:	20000500 	andcs	r0, r0, r0, lsl #10
2000050c:	20000500 	andcs	r0, r0, r0, lsl #10
20000510:	20000508 	andcs	r0, r0, r8, lsl #10
20000514:	20000508 	andcs	r0, r0, r8, lsl #10
20000518:	20000510 	andcs	r0, r0, r0, lsl r5
2000051c:	20000510 	andcs	r0, r0, r0, lsl r5
20000520:	20000518 	andcs	r0, r0, r8, lsl r5
20000524:	20000518 	andcs	r0, r0, r8, lsl r5
20000528:	20000520 	andcs	r0, r0, r0, lsr #10
2000052c:	20000520 	andcs	r0, r0, r0, lsr #10
20000530:	20000528 	andcs	r0, r0, r8, lsr #10
20000534:	20000528 	andcs	r0, r0, r8, lsr #10
20000538:	20000530 	andcs	r0, r0, r0, lsr r5
2000053c:	20000530 	andcs	r0, r0, r0, lsr r5
20000540:	20000538 	andcs	r0, r0, r8, lsr r5
20000544:	20000538 	andcs	r0, r0, r8, lsr r5
20000548:	20000540 	andcs	r0, r0, r0, asr #10
2000054c:	20000540 	andcs	r0, r0, r0, asr #10
20000550:	20000548 	andcs	r0, r0, r8, asr #10
20000554:	20000548 	andcs	r0, r0, r8, asr #10
20000558:	20000550 	andcs	r0, r0, r0, asr r5
2000055c:	20000550 	andcs	r0, r0, r0, asr r5
20000560:	20000558 	andcs	r0, r0, r8, asr r5
20000564:	20000558 	andcs	r0, r0, r8, asr r5
20000568:	20000560 	andcs	r0, r0, r0, ror #10
2000056c:	20000560 	andcs	r0, r0, r0, ror #10
20000570:	20000568 	andcs	r0, r0, r8, ror #10
20000574:	20000568 	andcs	r0, r0, r8, ror #10
20000578:	20000570 	andcs	r0, r0, r0, ror r5
2000057c:	20000570 	andcs	r0, r0, r0, ror r5
20000580:	20000578 	andcs	r0, r0, r8, ror r5
20000584:	20000578 	andcs	r0, r0, r8, ror r5
20000588:	20000580 	andcs	r0, r0, r0, lsl #11
2000058c:	20000580 	andcs	r0, r0, r0, lsl #11
20000590:	20000588 	andcs	r0, r0, r8, lsl #11
20000594:	20000588 	andcs	r0, r0, r8, lsl #11
20000598:	20000590 	mulcs	r0, r0, r5
2000059c:	20000590 	mulcs	r0, r0, r5
200005a0:	20000598 	mulcs	r0, r8, r5
200005a4:	20000598 	mulcs	r0, r8, r5
200005a8:	200005a0 	andcs	r0, r0, r0, lsr #11
200005ac:	200005a0 	andcs	r0, r0, r0, lsr #11
200005b0:	200005a8 	andcs	r0, r0, r8, lsr #11
200005b4:	200005a8 	andcs	r0, r0, r8, lsr #11

200005b8 <__malloc_sbrk_base>:
200005b8:	ffffffff 			; <UNDEFINED> instruction: 0xffffffff

200005bc <__malloc_trim_threshold>:
200005bc:	00020000 	andeq	r0, r2, r0

Disassembly of section .bss:

200005c0 <__ZI_BASE__>:
	...

20000ce0 <stack>:
	...

20002ce0 <current_tcb>:
20002ce0:	00000000 	andeq	r0, r0, r0

20002ce4 <next_tcb>:
20002ce4:	00000000 	andeq	r0, r0, r0

20002ce8 <ready_queue>:
	...

20002df0 <blocked_queue>:
	...

20002ef8 <system_tick>:
20002ef8:	00000000 	andeq	r0, r0, r0

20002efc <idx_tcb.5308>:
20002efc:	00000000 	andeq	r0, r0, r0

20002f00 <lcddev>:
	...

20002f0c <POINT_COLOR>:
20002f0c:	00000000 	andeq	r0, r0, r0

20002f10 <dummyParams>:
	...

20002f38 <heap.4796>:
20002f38:	00000000 	andeq	r0, r0, r0

20002f3c <systick_flag>:
20002f3c:	00000000 	andeq	r0, r0, r0

20002f40 <key_value>:
20002f40:	00000000 	andeq	r0, r0, r0

20002f44 <tim4_timeout>:
20002f44:	00000000 	andeq	r0, r0, r0

20002f48 <uart_rx_in>:
20002f48:	00000000 	andeq	r0, r0, r0

20002f4c <uart_rx_data>:
20002f4c:	00000000 	andeq	r0, r0, r0

20002f50 <_PathLocale>:
20002f50:	00000000 	andeq	r0, r0, r0

20002f54 <__mlocale_changed>:
20002f54:	00000000 	andeq	r0, r0, r0

20002f58 <__nlocale_changed>:
20002f58:	00000000 	andeq	r0, r0, r0

20002f5c <__malloc_top_pad>:
20002f5c:	00000000 	andeq	r0, r0, r0

20002f60 <__malloc_current_mallinfo>:
	...

20002f88 <__malloc_max_sbrked_mem>:
20002f88:	00000000 	andeq	r0, r0, r0

20002f8c <__malloc_max_total_mem>:
20002f8c:	00000000 	andeq	r0, r0, r0

20002f90 <__ZI_LIMIT__>:
20002f90:	00000000 	andeq	r0, r0, r0

Disassembly of section .comment:

00000000 <.comment>:
   0:	3a434347 	bcc	10d0d24 <__ZI_SIZE__+0x10ce350>
   4:	6f532820 	svcvs	0x00532820
   8:	65637275 	strbvs	r7, [r3, #-629]!	; 0xfffffd8b
   c:	43207972 	teqmi	r0, #1867776	; 0x1c8000
  10:	4265646f 	rsbmi	r6, r5, #1862270976	; 0x6f000000
  14:	68636e65 	stmdavs	r3!, {r0, r2, r5, r6, r9, sl, fp, sp, lr}^
  18:	74694c20 	strbtvc	r4, [r9], #-3104	; 0xfffff3e0
  1c:	30322065 	eorscc	r2, r2, r5, rrx
  20:	312e3331 	teqcc	lr, r1, lsr r3
  24:	34322d31 	ldrtcc	r2, [r2], #-3377	; 0xfffff2cf
  28:	2e342029 	cdpcs	0, 3, cr2, cr4, cr9, {1}
  2c:	00312e38 	eorseq	r2, r1, r8, lsr lr

Disassembly of section .ARM.attributes:

00000000 <.ARM.attributes>:
   0:	00003041 	andeq	r3, r0, r1, asr #32
   4:	61656100 	cmnvs	r5, r0, lsl #2
   8:	01006962 	tsteq	r0, r2, ror #18
   c:	00000026 	andeq	r0, r0, r6, lsr #32
  10:	726f4305 	rsbvc	r4, pc, #335544320	; 0x14000000
  14:	2d786574 	cfldr64cs	mvdx6, [r8, #-464]!	; 0xfffffe30
  18:	0600334d 	streq	r3, [r0], -sp, asr #6
  1c:	094d070a 	stmdbeq	sp, {r1, r3, r8, r9, sl}^
  20:	14041202 	strne	r1, [r4], #-514	; 0xfffffdfe
  24:	17011501 	strne	r1, [r1, -r1, lsl #10]
  28:	1a011803 	bne	4603c <__ZI_SIZE__+0x43668>
  2c:	22061e01 	andcs	r1, r6, #1, 28
  30:	Address 0x00000030 is out of bounds.


Disassembly of section .debug_frame:

00000000 <.debug_frame>:
   0:	0000000c 	andeq	r0, r0, ip
   4:	ffffffff 			; <UNDEFINED> instruction: 0xffffffff
   8:	7c020001 	stcvc	0, cr0, [r2], {1}
   c:	000d0c0e 	andeq	r0, sp, lr, lsl #24
  10:	00000018 	andeq	r0, r0, r8, lsl r0
  14:	00000000 	andeq	r0, r0, r0
  18:	08005cc0 	stmdaeq	r0, {r6, r7, sl, fp, ip, lr}
  1c:	00000032 	andeq	r0, r0, r2, lsr r0
  20:	840c0e41 	strhi	r0, [ip], #-3649	; 0xfffff1bf
  24:	8e028503 	cfsh32hi	mvfx8, mvfx2, #3
  28:	780e4101 	stmdavc	lr, {r0, r8, lr}
  2c:	00000014 	andeq	r0, r0, r4, lsl r0
  30:	00000000 	andeq	r0, r0, r0
  34:	08005cf4 	stmdaeq	r0, {r2, r4, r5, r6, r7, sl, fp, ip, lr}
  38:	0000001a 	andeq	r0, r0, sl, lsl r0
  3c:	84080e41 	strhi	r0, [r8], #-3649	; 0xfffff1bf
  40:	00018502 	andeq	r8, r1, r2, lsl #10
  44:	0000000c 	andeq	r0, r0, ip
  48:	ffffffff 			; <UNDEFINED> instruction: 0xffffffff
  4c:	7c020001 	stcvc	0, cr0, [r2], {1}
  50:	000d0c0e 	andeq	r0, sp, lr, lsl #24
  54:	00000028 	andeq	r0, r0, r8, lsr #32
  58:	00000044 	andeq	r0, r0, r4, asr #32
  5c:	08005d10 	stmdaeq	r0, {r4, r8, sl, fp, ip, lr}
  60:	000014b4 			; <UNDEFINED> instruction: 0x000014b4
  64:	84240e42 	strthi	r0, [r4], #-3650	; 0xfffff1be
  68:	86088509 	strhi	r8, [r8], -r9, lsl #10
  6c:	88068707 	stmdahi	r6, {r0, r1, r2, r8, r9, sl, pc}
  70:	8a048905 	bhi	12248c <__ZI_SIZE__+0x11fab8>
  74:	8e028b03 	vmlahi.f64	d8, d2, d3
  78:	c80e4101 	stmdagt	lr, {r0, r8, lr}
  7c:	00000002 	andeq	r0, r0, r2
  80:	0000000c 	andeq	r0, r0, ip
  84:	ffffffff 			; <UNDEFINED> instruction: 0xffffffff
  88:	7c020001 	stcvc	0, cr0, [r2], {1}
  8c:	000d0c0e 	andeq	r0, sp, lr, lsl #24
  90:	00000024 	andeq	r0, r0, r4, lsr #32
  94:	00000080 	andeq	r0, r0, r0, lsl #1
  98:	080071c8 	stmdaeq	r0, {r3, r6, r7, r8, ip, sp, lr}
  9c:	0000014a 	andeq	r0, r0, sl, asr #2
  a0:	84240e42 	strthi	r0, [r4], #-3650	; 0xfffff1be
  a4:	86088509 	strhi	r8, [r8], -r9, lsl #10
  a8:	88068707 	stmdahi	r6, {r0, r1, r2, r8, r9, sl, pc}
  ac:	8a048905 	bhi	1224c8 <__ZI_SIZE__+0x11faf4>
  b0:	8e028b03 	vmlahi.f64	d8, d2, d3
  b4:	380e4501 	stmdacc	lr, {r0, r8, sl, lr}
  b8:	00000028 	andeq	r0, r0, r8, lsr #32
  bc:	00000080 	andeq	r0, r0, r0, lsl #1
  c0:	08007314 	stmdaeq	r0, {r2, r4, r8, r9, ip, sp, lr}
  c4:	00000f8a 	andeq	r0, r0, sl, lsl #31
  c8:	84240e42 	strthi	r0, [r4], #-3650	; 0xfffff1be
  cc:	86088509 	strhi	r8, [r8], -r9, lsl #10
  d0:	88068707 	stmdahi	r6, {r0, r1, r2, r8, r9, sl, pc}
  d4:	8a048905 	bhi	1224f0 <__ZI_SIZE__+0x11fb1c>
  d8:	8e028b03 	vmlahi.f64	d8, d2, d3
  dc:	900e4101 	andls	r4, lr, r1, lsl #2
  e0:	00000001 	andeq	r0, r0, r1
  e4:	0000000c 	andeq	r0, r0, ip
  e8:	ffffffff 			; <UNDEFINED> instruction: 0xffffffff
  ec:	7c020001 	stcvc	0, cr0, [r2], {1}
  f0:	000d0c0e 	andeq	r0, sp, lr, lsl #24
  f4:	00000014 	andeq	r0, r0, r4, lsl r0
  f8:	000000e4 	andeq	r0, r0, r4, ror #1
  fc:	080082a0 	stmdaeq	r0, {r5, r7, r9, pc}
 100:	00000052 	andeq	r0, r0, r2, asr r0
 104:	84080e41 	strhi	r0, [r8], #-3649	; 0xfffff1bf
 108:	00018e02 	andeq	r8, r1, r2, lsl #28
 10c:	0000000c 	andeq	r0, r0, ip
 110:	000000e4 	andeq	r0, r0, r4, ror #1
 114:	080082f4 	stmdaeq	r0, {r2, r4, r5, r6, r7, r9, pc}
 118:	0000000a 	andeq	r0, r0, sl
 11c:	0000000c 	andeq	r0, r0, ip
 120:	000000e4 	andeq	r0, r0, r4, ror #1
 124:	08008300 	stmdaeq	r0, {r8, r9, pc}
 128:	0000000c 	andeq	r0, r0, ip
 12c:	0000000c 	andeq	r0, r0, ip
 130:	000000e4 	andeq	r0, r0, r4, ror #1
 134:	0800830c 	stmdaeq	r0, {r2, r3, r8, r9, pc}
 138:	00000008 	andeq	r0, r0, r8
 13c:	0000000c 	andeq	r0, r0, ip
 140:	000000e4 	andeq	r0, r0, r4, ror #1
 144:	08008314 	stmdaeq	r0, {r2, r4, r8, r9, pc}
 148:	00000004 	andeq	r0, r0, r4
 14c:	0000000c 	andeq	r0, r0, ip
 150:	000000e4 	andeq	r0, r0, r4, ror #1
 154:	08008318 	stmdaeq	r0, {r3, r4, r8, r9, pc}
 158:	00000008 	andeq	r0, r0, r8
 15c:	0000000c 	andeq	r0, r0, ip
 160:	000000e4 	andeq	r0, r0, r4, ror #1
 164:	08008320 	stmdaeq	r0, {r5, r8, r9, pc}
 168:	00000012 	andeq	r0, r0, r2, lsl r0
 16c:	0000000c 	andeq	r0, r0, ip
 170:	000000e4 	andeq	r0, r0, r4, ror #1
 174:	08008334 	stmdaeq	r0, {r2, r4, r5, r8, r9, pc}
 178:	00000008 	andeq	r0, r0, r8
 17c:	0000000c 	andeq	r0, r0, ip
 180:	ffffffff 			; <UNDEFINED> instruction: 0xffffffff
 184:	7c020001 	stcvc	0, cr0, [r2], {1}
 188:	000d0c0e 	andeq	r0, sp, lr, lsl #24
 18c:	0000000c 	andeq	r0, r0, ip
 190:	0000017c 	andeq	r0, r0, ip, ror r1
 194:	0800833c 	stmdaeq	r0, {r2, r3, r4, r5, r8, r9, pc}
 198:	00000010 	andeq	r0, r0, r0, lsl r0
 19c:	0000000c 	andeq	r0, r0, ip
 1a0:	0000017c 	andeq	r0, r0, ip, ror r1
 1a4:	0800834c 	stmdaeq	r0, {r2, r3, r6, r8, r9, pc}
 1a8:	00000010 	andeq	r0, r0, r0, lsl r0
 1ac:	0000000c 	andeq	r0, r0, ip
 1b0:	ffffffff 			; <UNDEFINED> instruction: 0xffffffff
 1b4:	7c020001 	stcvc	0, cr0, [r2], {1}
 1b8:	000d0c0e 	andeq	r0, sp, lr, lsl #24
 1bc:	00000024 	andeq	r0, r0, r4, lsr #32
 1c0:	000001ac 	andeq	r0, r0, ip, lsr #3
 1c4:	0800835c 	stmdaeq	r0, {r2, r3, r4, r6, r8, r9, pc}
 1c8:	0000056e 	andeq	r0, r0, lr, ror #10
 1cc:	84240e42 	strthi	r0, [r4], #-3650	; 0xfffff1be
 1d0:	86088509 	strhi	r8, [r8], -r9, lsl #10
 1d4:	88068707 	stmdahi	r6, {r0, r1, r2, r8, r9, sl, pc}
 1d8:	8a048905 	bhi	1225f4 <__ZI_SIZE__+0x11fc20>
 1dc:	8e028b03 	vmlahi.f64	d8, d2, d3
 1e0:	300e4401 	andcc	r4, lr, r1, lsl #8
 1e4:	0000000c 	andeq	r0, r0, ip
 1e8:	ffffffff 			; <UNDEFINED> instruction: 0xffffffff
 1ec:	7c020001 	stcvc	0, cr0, [r2], {1}
 1f0:	000d0c0e 	andeq	r0, sp, lr, lsl #24
 1f4:	00000018 	andeq	r0, r0, r8, lsl r0
 1f8:	000001e4 	andeq	r0, r0, r4, ror #3
 1fc:	080088cc 	stmdaeq	r0, {r2, r3, r6, r7, fp, pc}
 200:	00000090 	muleq	r0, r0, r0
 204:	840c0e43 	strhi	r0, [ip], #-3651	; 0xfffff1bd
 208:	86028503 	strhi	r8, [r2], -r3, lsl #10
 20c:	00000001 	andeq	r0, r0, r1
 210:	0000000c 	andeq	r0, r0, ip
 214:	ffffffff 			; <UNDEFINED> instruction: 0xffffffff
 218:	7c020001 	stcvc	0, cr0, [r2], {1}
 21c:	000d0c0e 	andeq	r0, sp, lr, lsl #24
 220:	00000018 	andeq	r0, r0, r8, lsl r0
 224:	00000210 	andeq	r0, r0, r0, lsl r2
 228:	0800895c 	stmdaeq	r0, {r2, r3, r4, r6, r8, fp, pc}
 22c:	000000a6 	andeq	r0, r0, r6, lsr #1
 230:	84100e42 	ldrhi	r0, [r0], #-3650	; 0xfffff1be
 234:	86038504 	strhi	r8, [r3], -r4, lsl #10
 238:	00018702 	andeq	r8, r1, r2, lsl #14
 23c:	0000000c 	andeq	r0, r0, ip
 240:	ffffffff 			; <UNDEFINED> instruction: 0xffffffff
 244:	7c020001 	stcvc	0, cr0, [r2], {1}
 248:	000d0c0e 	andeq	r0, sp, lr, lsl #24
 24c:	0000000c 	andeq	r0, r0, ip
 250:	0000023c 	andeq	r0, r0, ip, lsr r2
 254:	08008a04 	stmdaeq	r0, {r2, r9, fp, pc}
 258:	00000002 	andeq	r0, r0, r2
 25c:	0000000c 	andeq	r0, r0, ip
 260:	0000023c 	andeq	r0, r0, ip, lsr r2
 264:	08008a08 	stmdaeq	r0, {r3, r9, fp, pc}
 268:	00000002 	andeq	r0, r0, r2
 26c:	0000000c 	andeq	r0, r0, ip
 270:	ffffffff 			; <UNDEFINED> instruction: 0xffffffff
 274:	7c020001 	stcvc	0, cr0, [r2], {1}
 278:	000d0c0e 	andeq	r0, sp, lr, lsl #24
 27c:	00000018 	andeq	r0, r0, r8, lsl r0
 280:	0000026c 	andeq	r0, r0, ip, ror #4
 284:	08008a0c 	stmdaeq	r0, {r2, r3, r9, fp, pc}
 288:	0000006c 	andeq	r0, r0, ip, rrx
 28c:	84100e41 	ldrhi	r0, [r0], #-3649	; 0xfffff1bf
 290:	86038504 	strhi	r8, [r3], -r4, lsl #10
 294:	00018e02 	andeq	r8, r1, r2, lsl #28
 298:	00000018 	andeq	r0, r0, r8, lsl r0
 29c:	0000026c 	andeq	r0, r0, ip, ror #4
 2a0:	08008a78 	stmdaeq	r0, {r3, r4, r5, r6, r9, fp, pc}
 2a4:	00000036 	andeq	r0, r0, r6, lsr r0
 2a8:	840c0e41 	strhi	r0, [ip], #-3649	; 0xfffff1bf
 2ac:	8e028503 	cfsh32hi	mvfx8, mvfx2, #3
 2b0:	180e4301 	stmdane	lr, {r0, r8, r9, lr}
 2b4:	00000024 	andeq	r0, r0, r4, lsr #32
 2b8:	0000026c 	andeq	r0, r0, ip, ror #4
 2bc:	08008ab0 	stmdaeq	r0, {r4, r5, r7, r9, fp, pc}
 2c0:	0000008c 	andeq	r0, r0, ip, lsl #1
 2c4:	84200e42 	strthi	r0, [r0], #-3650	; 0xfffff1be
 2c8:	86078508 	strhi	r8, [r7], -r8, lsl #10
 2cc:	88058706 	stmdahi	r5, {r1, r2, r8, r9, sl, pc}
 2d0:	8a038904 	bhi	e26e8 <__ZI_SIZE__+0xdfd14>
 2d4:	44018e02 	strmi	r8, [r1], #-3586	; 0xfffff1fe
 2d8:	0000280e 	andeq	r2, r0, lr, lsl #16
 2dc:	00000020 	andeq	r0, r0, r0, lsr #32
 2e0:	0000026c 	andeq	r0, r0, ip, ror #4
 2e4:	08008b3c 	stmdaeq	r0, {r2, r3, r4, r5, r8, r9, fp, pc}
 2e8:	00000098 	muleq	r0, r8, r0
 2ec:	83200e42 	teqhi	r0, #1056	; 0x420
 2f0:	85078408 	strhi	r8, [r7, #-1032]	; 0xfffffbf8
 2f4:	87058606 	strhi	r8, [r5, -r6, lsl #12]
 2f8:	89038804 	stmdbhi	r3, {r2, fp, pc}
 2fc:	00018e02 	andeq	r8, r1, r2, lsl #28
 300:	0000000c 	andeq	r0, r0, ip
 304:	0000026c 	andeq	r0, r0, ip, ror #4
 308:	08008bd4 	stmdaeq	r0, {r2, r4, r6, r7, r8, r9, fp, pc}
 30c:	0000003c 	andeq	r0, r0, ip, lsr r0
 310:	0000000c 	andeq	r0, r0, ip
 314:	0000026c 	andeq	r0, r0, ip, ror #4
 318:	08008c10 	stmdaeq	r0, {r4, sl, fp, pc}
 31c:	00000056 	andeq	r0, r0, r6, asr r0
 320:	00000014 	andeq	r0, r0, r4, lsl r0
 324:	0000026c 	andeq	r0, r0, ip, ror #4
 328:	08008c68 	stmdaeq	r0, {r3, r5, r6, sl, fp, pc}
 32c:	00000012 	andeq	r0, r0, r2, lsl r0
 330:	84080e41 	strhi	r0, [r8], #-3649	; 0xfffff1bf
 334:	00018e02 	andeq	r8, r1, r2, lsl #28
 338:	00000024 	andeq	r0, r0, r4, lsr #32
 33c:	0000026c 	andeq	r0, r0, ip, ror #4
 340:	08008c7c 	stmdaeq	r0, {r2, r3, r4, r5, r6, sl, fp, pc}
 344:	00000140 	andeq	r0, r0, r0, asr #2
 348:	84240e42 	strthi	r0, [r4], #-3650	; 0xfffff1be
 34c:	86088509 	strhi	r8, [r8], -r9, lsl #10
 350:	88068707 	stmdahi	r6, {r0, r1, r2, r8, r9, sl, pc}
 354:	8a048905 	bhi	122770 <__ZI_SIZE__+0x11fd9c>
 358:	8e028b03 	vmlahi.f64	d8, d2, d3
 35c:	380e4301 	stmdacc	lr, {r0, r8, r9, lr}
 360:	00000020 	andeq	r0, r0, r0, lsr #32
 364:	0000026c 	andeq	r0, r0, ip, ror #4
 368:	08008dbc 	stmdaeq	r0, {r2, r3, r4, r5, r7, r8, sl, fp, pc}
 36c:	000000b8 	strheq	r0, [r0], -r8
 370:	841c0e44 	ldrhi	r0, [ip], #-3652	; 0xfffff1bc
 374:	86068507 	strhi	r8, [r6], -r7, lsl #10
 378:	88048705 	stmdahi	r4, {r0, r2, r8, r9, sl, pc}
 37c:	8e028903 	cdphi	9, 0, cr8, cr2, cr3, {0}
 380:	280e4201 	stmdacs	lr, {r0, r9, lr}
 384:	00000024 	andeq	r0, r0, r4, lsr #32
 388:	0000026c 	andeq	r0, r0, ip, ror #4
 38c:	08008e74 	stmdaeq	r0, {r2, r4, r5, r6, r9, sl, fp, pc}
 390:	000000b6 	strheq	r0, [r0], -r6
 394:	83280e42 	teqhi	r8, #1056	; 0x420
 398:	8509840a 	strhi	r8, [r9, #-1034]	; 0xfffffbf6
 39c:	87078608 	strhi	r8, [r7, -r8, lsl #12]
 3a0:	89058806 	stmdbhi	r5, {r1, r2, fp, pc}
 3a4:	8b038a04 	blhi	e2bbc <__ZI_SIZE__+0xe01e8>
 3a8:	00018e02 	andeq	r8, r1, r2, lsl #28
 3ac:	00000014 	andeq	r0, r0, r4, lsl r0
 3b0:	0000026c 	andeq	r0, r0, ip, ror #4
 3b4:	08008f2c 	stmdaeq	r0, {r2, r3, r5, r8, r9, sl, fp, pc}
 3b8:	00000042 	andeq	r0, r0, r2, asr #32
 3bc:	84040e43 	strhi	r0, [r4], #-3651	; 0xfffff1bd
 3c0:	00000001 	andeq	r0, r0, r1
 3c4:	00000024 	andeq	r0, r0, r4, lsr #32
 3c8:	0000026c 	andeq	r0, r0, ip, ror #4
 3cc:	08008f70 	stmdaeq	r0, {r4, r5, r6, r8, r9, sl, fp, pc}
 3d0:	000000ea 	andeq	r0, r0, sl, ror #1
 3d4:	83280e42 	teqhi	r8, #1056	; 0x420
 3d8:	8509840a 	strhi	r8, [r9, #-1034]	; 0xfffffbf6
 3dc:	87078608 	strhi	r8, [r7, -r8, lsl #12]
 3e0:	89058806 	stmdbhi	r5, {r1, r2, fp, pc}
 3e4:	8b038a04 	blhi	e2bfc <__ZI_SIZE__+0xe0228>
 3e8:	00018e02 	andeq	r8, r1, r2, lsl #28
 3ec:	0000000c 	andeq	r0, r0, ip
 3f0:	0000026c 	andeq	r0, r0, ip, ror #4
 3f4:	0800905c 	stmdaeq	r0, {r2, r3, r4, r6, ip, pc}
 3f8:	00000042 	andeq	r0, r0, r2, asr #32
 3fc:	0000001c 	andeq	r0, r0, ip, lsl r0
 400:	0000026c 	andeq	r0, r0, ip, ror #4
 404:	080090a0 	stmdaeq	r0, {r5, r7, ip, pc}
 408:	000000ac 	andeq	r0, r0, ip, lsr #1
 40c:	83180e41 	tsthi	r8, #1040	; 0x410
 410:	85058406 	strhi	r8, [r5, #-1030]	; 0xfffffbfa
 414:	87038604 	strhi	r8, [r3, -r4, lsl #12]
 418:	00018e02 	andeq	r8, r1, r2, lsl #28
 41c:	00000020 	andeq	r0, r0, r0, lsr #32
 420:	0000026c 	andeq	r0, r0, ip, ror #4
 424:	0800914c 	stmdaeq	r0, {r2, r3, r6, r8, ip, pc}
 428:	000000ba 	strheq	r0, [r0], -sl
 42c:	84180e42 	ldrhi	r0, [r8], #-3650	; 0xfffff1be
 430:	86058506 	strhi	r8, [r5], -r6, lsl #10
 434:	88038704 	stmdahi	r3, {r2, r8, r9, sl, pc}
 438:	41018e02 	tstmi	r1, r2, lsl #28
 43c:	0000200e 	andeq	r2, r0, lr
 440:	00000020 	andeq	r0, r0, r0, lsr #32
 444:	0000026c 	andeq	r0, r0, ip, ror #4
 448:	08009208 	stmdaeq	r0, {r3, r9, ip, pc}
 44c:	0000005e 	andeq	r0, r0, lr, asr r0
 450:	841c0e42 	ldrhi	r0, [ip], #-3650	; 0xfffff1be
 454:	86068507 	strhi	r8, [r6], -r7, lsl #10
 458:	88048705 	stmdahi	r4, {r0, r2, r8, r9, sl, pc}
 45c:	8e028903 	cdphi	9, 0, cr8, cr2, cr3, {0}
 460:	280e4101 	stmdacs	lr, {r0, r8, lr}
 464:	00000014 	andeq	r0, r0, r4, lsl r0
 468:	0000026c 	andeq	r0, r0, ip, ror #4
 46c:	08009268 	stmdaeq	r0, {r3, r5, r6, r9, ip, pc}
 470:	00000034 	andeq	r0, r0, r4, lsr r0
 474:	84080e42 	strhi	r0, [r8], #-3650	; 0xfffff1be
 478:	00018e02 	andeq	r8, r1, r2, lsl #28
 47c:	00000018 	andeq	r0, r0, r8, lsl r0
 480:	0000026c 	andeq	r0, r0, ip, ror #4
 484:	0800929c 	stmdaeq	r0, {r2, r3, r4, r7, r9, ip, pc}
 488:	00000046 	andeq	r0, r0, r6, asr #32
 48c:	840c0e41 	strhi	r0, [ip], #-3649	; 0xfffff1bf
 490:	86028503 	strhi	r8, [r2], -r3, lsl #10
 494:	00000001 	andeq	r0, r0, r1
 498:	00000014 	andeq	r0, r0, r4, lsl r0
 49c:	0000026c 	andeq	r0, r0, ip, ror #4
 4a0:	080092e4 	stmdaeq	r0, {r2, r5, r6, r7, r9, ip, pc}
 4a4:	0000005e 	andeq	r0, r0, lr, asr r0
 4a8:	84040e43 	strhi	r0, [r4], #-3651	; 0xfffff1bd
 4ac:	00000001 	andeq	r0, r0, r1
 4b0:	0000000c 	andeq	r0, r0, ip
 4b4:	ffffffff 			; <UNDEFINED> instruction: 0xffffffff
 4b8:	7c020001 	stcvc	0, cr0, [r2], {1}
 4bc:	000d0c0e 	andeq	r0, sp, lr, lsl #24
 4c0:	0000000c 	andeq	r0, r0, ip
 4c4:	000004b0 			; <UNDEFINED> instruction: 0x000004b0
 4c8:	08009344 	stmdaeq	r0, {r2, r6, r8, r9, ip, pc}
 4cc:	00000050 	andeq	r0, r0, r0, asr r0
 4d0:	0000000c 	andeq	r0, r0, ip
 4d4:	ffffffff 			; <UNDEFINED> instruction: 0xffffffff
 4d8:	7c020001 	stcvc	0, cr0, [r2], {1}
 4dc:	000d0c0e 	andeq	r0, sp, lr, lsl #24
 4e0:	00000018 	andeq	r0, r0, r8, lsl r0
 4e4:	000004d0 	ldrdeq	r0, [r0], -r0	; <UNPREDICTABLE>
 4e8:	08009394 	stmdaeq	r0, {r2, r4, r7, r8, r9, ip, pc}
 4ec:	00000026 	andeq	r0, r0, r6, lsr #32
 4f0:	83100e41 	tsthi	r0, #1040	; 0x410
 4f4:	85038404 	strhi	r8, [r3, #-1028]	; 0xfffffbfc
 4f8:	00018e02 	andeq	r8, r1, r2, lsl #28
 4fc:	0000000c 	andeq	r0, r0, ip
 500:	ffffffff 			; <UNDEFINED> instruction: 0xffffffff
 504:	7c020001 	stcvc	0, cr0, [r2], {1}
 508:	000d0c0e 	andeq	r0, sp, lr, lsl #24
 50c:	0000000c 	andeq	r0, r0, ip
 510:	000004fc 	strdeq	r0, [r0], -ip
 514:	080095f8 	stmdaeq	r0, {r3, r4, r5, r6, r7, r8, sl, ip, pc}
 518:	0000005e 	andeq	r0, r0, lr, asr r0
 51c:	0000000c 	andeq	r0, r0, ip
 520:	ffffffff 			; <UNDEFINED> instruction: 0xffffffff
 524:	7c020001 	stcvc	0, cr0, [r2], {1}
 528:	000d0c0e 	andeq	r0, sp, lr, lsl #24
 52c:	00000024 	andeq	r0, r0, r4, lsr #32
 530:	0000051c 	andeq	r0, r0, ip, lsl r5
 534:	08009658 	stmdaeq	r0, {r3, r4, r6, r9, sl, ip, pc}
 538:	00000104 	andeq	r0, r0, r4, lsl #2
 53c:	84240e42 	strthi	r0, [r4], #-3650	; 0xfffff1be
 540:	86088509 	strhi	r8, [r8], -r9, lsl #10
 544:	88068707 	stmdahi	r6, {r0, r1, r2, r8, r9, sl, pc}
 548:	8a048905 	bhi	122964 <__ZI_SIZE__+0x11ff90>
 54c:	8e028b03 	vmlahi.f64	d8, d2, d3
 550:	300e4301 	andcc	r4, lr, r1, lsl #6
 554:	00000028 	andeq	r0, r0, r8, lsr #32
 558:	0000051c 	andeq	r0, r0, ip, lsl r5
 55c:	0800975c 	stmdaeq	r0, {r2, r3, r4, r6, r8, r9, sl, ip, pc}
 560:	00000adc 	ldrdeq	r0, [r0], -ip
 564:	84240e42 	strthi	r0, [r4], #-3650	; 0xfffff1be
 568:	86088509 	strhi	r8, [r8], -r9, lsl #10
 56c:	88068707 	stmdahi	r6, {r0, r1, r2, r8, r9, sl, pc}
 570:	8a048905 	bhi	12298c <__ZI_SIZE__+0x11ffb8>
 574:	8e028b03 	vmlahi.f64	d8, d2, d3
 578:	f00e4101 			; <UNDEFINED> instruction: 0xf00e4101
 57c:	00000001 	andeq	r0, r0, r1
 580:	0000000c 	andeq	r0, r0, ip
 584:	ffffffff 			; <UNDEFINED> instruction: 0xffffffff
 588:	7c020001 	stcvc	0, cr0, [r2], {1}
 58c:	000d0c0e 	andeq	r0, sp, lr, lsl #24
 590:	00000014 	andeq	r0, r0, r4, lsl r0
 594:	00000580 	andeq	r0, r0, r0, lsl #11
 598:	0800a238 	stmdaeq	r0, {r3, r4, r5, r9, sp, pc}
 59c:	00000062 	andeq	r0, r0, r2, rrx
 5a0:	84080e41 	strhi	r0, [r8], #-3649	; 0xfffff1bf
 5a4:	00018e02 	andeq	r8, r1, r2, lsl #28
 5a8:	0000000c 	andeq	r0, r0, ip
 5ac:	ffffffff 			; <UNDEFINED> instruction: 0xffffffff
 5b0:	7c020001 	stcvc	0, cr0, [r2], {1}
 5b4:	000d0c0e 	andeq	r0, sp, lr, lsl #24
 5b8:	0000001c 	andeq	r0, r0, ip, lsl r0
 5bc:	000005a8 	andeq	r0, r0, r8, lsr #11
 5c0:	0800a29c 	stmdaeq	r0, {r2, r3, r4, r7, r9, sp, pc}
 5c4:	000000a2 	andeq	r0, r0, r2, lsr #1
 5c8:	83180e41 	tsthi	r8, #1040	; 0x410
 5cc:	85058406 	strhi	r8, [r5, #-1030]	; 0xfffffbfa
 5d0:	87038604 	strhi	r8, [r3, -r4, lsl #12]
 5d4:	00018e02 	andeq	r8, r1, r2, lsl #28
 5d8:	0000001c 	andeq	r0, r0, ip, lsl r0
 5dc:	000005a8 	andeq	r0, r0, r8, lsr #11
 5e0:	0800a340 	stmdaeq	r0, {r6, r8, r9, sp, pc}
 5e4:	00000198 	muleq	r0, r8, r1
 5e8:	84180e42 	ldrhi	r0, [r8], #-3650	; 0xfffff1be
 5ec:	86058506 	strhi	r8, [r5], -r6, lsl #10
 5f0:	88038704 	stmdahi	r3, {r2, r8, r9, sl, pc}
 5f4:	00018e02 	andeq	r8, r1, r2, lsl #28
 5f8:	0000000c 	andeq	r0, r0, ip
 5fc:	ffffffff 			; <UNDEFINED> instruction: 0xffffffff
 600:	7c020001 	stcvc	0, cr0, [r2], {1}
 604:	000d0c0e 	andeq	r0, sp, lr, lsl #24
 608:	00000018 	andeq	r0, r0, r8, lsl r0
 60c:	000005f8 	strdeq	r0, [r0], -r8
 610:	0800a4d8 	stmdaeq	r0, {r3, r4, r6, r7, sl, sp, pc}
 614:	000000ce 	andeq	r0, r0, lr, asr #1
 618:	84100e42 	ldrhi	r0, [r0], #-3650	; 0xfffff1be
 61c:	86038504 	strhi	r8, [r3], -r4, lsl #10
 620:	00018702 	andeq	r8, r1, r2, lsl #14
 624:	0000000c 	andeq	r0, r0, ip
 628:	ffffffff 			; <UNDEFINED> instruction: 0xffffffff
 62c:	7c020001 	stcvc	0, cr0, [r2], {1}
 630:	000d0c0e 	andeq	r0, sp, lr, lsl #24
 634:	00000018 	andeq	r0, r0, r8, lsl r0
 638:	00000624 	andeq	r0, r0, r4, lsr #12
 63c:	0800a5a8 	stmdaeq	r0, {r3, r5, r7, r8, sl, sp, pc}
 640:	0000009e 	muleq	r0, lr, r0
 644:	84100e42 	ldrhi	r0, [r0], #-3650	; 0xfffff1be
 648:	86038504 	strhi	r8, [r3], -r4, lsl #10
 64c:	00018702 	andeq	r8, r1, r2, lsl #14
 650:	0000000c 	andeq	r0, r0, ip
 654:	ffffffff 			; <UNDEFINED> instruction: 0xffffffff
 658:	7c020001 	stcvc	0, cr0, [r2], {1}
 65c:	000d0c0e 	andeq	r0, sp, lr, lsl #24
 660:	00000024 	andeq	r0, r0, r4, lsr #32
 664:	00000650 	andeq	r0, r0, r0, asr r6
 668:	0800a648 	stmdaeq	r0, {r3, r6, r9, sl, sp, pc}
 66c:	000003ea 	andeq	r0, r0, sl, ror #7
 670:	84240e42 	strthi	r0, [r4], #-3650	; 0xfffff1be
 674:	86088509 	strhi	r8, [r8], -r9, lsl #10
 678:	88068707 	stmdahi	r6, {r0, r1, r2, r8, r9, sl, pc}
 67c:	8a048905 	bhi	122a98 <__ZI_SIZE__+0x1200c4>
 680:	8e028b03 	vmlahi.f64	d8, d2, d3
 684:	300e4201 	andcc	r4, lr, r1, lsl #4
 688:	0000000c 	andeq	r0, r0, ip
 68c:	ffffffff 			; <UNDEFINED> instruction: 0xffffffff
 690:	7c020001 	stcvc	0, cr0, [r2], {1}
 694:	000d0c0e 	andeq	r0, sp, lr, lsl #24
 698:	00000018 	andeq	r0, r0, r8, lsl r0
 69c:	00000688 	andeq	r0, r0, r8, lsl #13
 6a0:	0800aa34 	stmdaeq	r0, {r2, r4, r5, r9, fp, sp, pc}
 6a4:	0000001a 	andeq	r0, r0, sl, lsl r0
 6a8:	83100e41 	tsthi	r0, #1040	; 0x410
 6ac:	85038404 	strhi	r8, [r3, #-1028]	; 0xfffffbfc
 6b0:	00018e02 	andeq	r8, r1, r2, lsl #28
 6b4:	00000018 	andeq	r0, r0, r8, lsl r0
 6b8:	00000688 	andeq	r0, r0, r8, lsl #13
 6bc:	0800aa50 	stmdaeq	r0, {r4, r6, r9, fp, sp, pc}
 6c0:	000000d6 	ldrdeq	r0, [r0], -r6
 6c4:	84100e45 	ldrhi	r0, [r0], #-3653	; 0xfffff1bb
 6c8:	86038504 	strhi	r8, [r3], -r4, lsl #10
 6cc:	00018e02 	andeq	r8, r1, r2, lsl #28
 6d0:	0000000c 	andeq	r0, r0, ip
 6d4:	ffffffff 			; <UNDEFINED> instruction: 0xffffffff
 6d8:	7c010001 	stcvc	0, cr0, [r1], {1}
 6dc:	000d0c0e 	andeq	r0, sp, lr, lsl #24
 6e0:	0000000c 	andeq	r0, r0, ip
 6e4:	000006d0 	ldrdeq	r0, [r0], -r0	; <UNPREDICTABLE>
 6e8:	0800ab29 	stmdaeq	r0, {r0, r3, r5, r8, r9, fp, sp, pc}
 6ec:	0000025c 	andeq	r0, r0, ip, asr r2
 6f0:	0000000c 	andeq	r0, r0, ip
 6f4:	ffffffff 			; <UNDEFINED> instruction: 0xffffffff
 6f8:	7c010001 	stcvc	0, cr0, [r1], {1}
 6fc:	000d0c0e 	andeq	r0, sp, lr, lsl #24
 700:	00000014 	andeq	r0, r0, r4, lsl r0
 704:	000006f0 	strdeq	r0, [r0], -r0	; <UNPREDICTABLE>
 708:	0800b6d9 	stmdaeq	r0, {r0, r3, r4, r6, r7, r9, sl, ip, sp, pc}
 70c:	0000002c 	andeq	r0, r0, ip, lsr #32
 710:	0e038e5e 	mcreq	14, 0, r8, cr3, cr14, {2}
 714:	00000010 	andeq	r0, r0, r0, lsl r0
 718:	0000000c 	andeq	r0, r0, ip
 71c:	ffffffff 			; <UNDEFINED> instruction: 0xffffffff
 720:	7c020001 	stcvc	0, cr0, [r2], {1}
 724:	000d0c0e 	andeq	r0, sp, lr, lsl #24
 728:	00000020 	andeq	r0, r0, r0, lsr #32
 72c:	00000718 	andeq	r0, r0, r8, lsl r7
 730:	0800b704 	stmdaeq	r0, {r2, r8, r9, sl, ip, sp, pc}
 734:	00000030 	andeq	r0, r0, r0, lsr r0
 738:	84200e42 	strthi	r0, [r0], #-3650	; 0xfffff1be
 73c:	86078508 	strhi	r8, [r7], -r8, lsl #10
 740:	88058706 	stmdahi	r5, {r1, r2, r8, r9, sl, pc}
 744:	8a038904 	bhi	e2b5c <__ZI_SIZE__+0xe0188>
 748:	00018e02 	andeq	r8, r1, r2, lsl #28
 74c:	00000020 	andeq	r0, r0, r0, lsr #32
 750:	00000718 	andeq	r0, r0, r8, lsl r7
 754:	0800b734 	stmdaeq	r0, {r2, r4, r5, r8, r9, sl, ip, sp, pc}
 758:	00000030 	andeq	r0, r0, r0, lsr r0
 75c:	83200e42 	teqhi	r0, #1056	; 0x420
 760:	85078408 	strhi	r8, [r7, #-1032]	; 0xfffffbf8
 764:	87058606 	strhi	r8, [r5, -r6, lsl #12]
 768:	89038804 	stmdbhi	r3, {r2, fp, pc}
 76c:	00018e02 	andeq	r8, r1, r2, lsl #28
 770:	0000000c 	andeq	r0, r0, ip
 774:	ffffffff 			; <UNDEFINED> instruction: 0xffffffff
 778:	7c020001 	stcvc	0, cr0, [r2], {1}
 77c:	000d0c0e 	andeq	r0, sp, lr, lsl #24
 780:	00000024 	andeq	r0, r0, r4, lsr #32
 784:	00000770 	andeq	r0, r0, r0, ror r7
 788:	0800b764 	stmdaeq	r0, {r2, r5, r6, r8, r9, sl, ip, sp, pc}
 78c:	00000352 	andeq	r0, r0, r2, asr r3
 790:	84240e42 	strthi	r0, [r4], #-3650	; 0xfffff1be
 794:	86088509 	strhi	r8, [r8], -r9, lsl #10
 798:	88068707 	stmdahi	r6, {r0, r1, r2, r8, r9, sl, pc}
 79c:	8a048905 	bhi	122bb8 <__ZI_SIZE__+0x1201e4>
 7a0:	8e028b03 	vmlahi.f64	d8, d2, d3
 7a4:	380e4c01 	stmdacc	lr, {r0, sl, fp, lr}
 7a8:	0000000c 	andeq	r0, r0, ip
 7ac:	ffffffff 			; <UNDEFINED> instruction: 0xffffffff
 7b0:	7c020001 	stcvc	0, cr0, [r2], {1}
 7b4:	000d0c0e 	andeq	r0, sp, lr, lsl #24
 7b8:	00000024 	andeq	r0, r0, r4, lsr #32
 7bc:	000007a8 	andeq	r0, r0, r8, lsr #15
 7c0:	0800bab8 	stmdaeq	r0, {r3, r4, r5, r7, r9, fp, ip, sp, pc}
 7c4:	00000300 	andeq	r0, r0, r0, lsl #6
 7c8:	84240e42 	strthi	r0, [r4], #-3650	; 0xfffff1be
 7cc:	86088509 	strhi	r8, [r8], -r9, lsl #10
 7d0:	88068707 	stmdahi	r6, {r0, r1, r2, r8, r9, sl, pc}
 7d4:	8a048905 	bhi	122bf0 <__ZI_SIZE__+0x12021c>
 7d8:	8e028b03 	vmlahi.f64	d8, d2, d3
 7dc:	300e4201 	andcc	r4, lr, r1, lsl #4
