
.\rom_0x08003000.elf:     file format elf32-littlearm
.\rom_0x08003000.elf
architecture: arm, flags 0x00000112:
EXEC_P, HAS_SYMS, D_PAGED
start address 0x08003000

Program Header:
0x70000001 off    0x0000c568 vaddr 0x0800c568 paddr 0x0800c568 align 2**2
         filesz 0x00000008 memsz 0x00000008 flags r--
    LOAD off    0x00000000 vaddr 0x08000000 paddr 0x08000000 align 2**15
         filesz 0x0000cb08 memsz 0x0000cb08 flags r-x
    LOAD off    0x00010000 vaddr 0x20000000 paddr 0x0800cb08 align 2**15
         filesz 0x000005c8 memsz 0x00003cd8 flags rw-
private flags = 5000202: [Version5 EABI] [soft-float ABI] [has entry point]

Sections:
Idx Name          Size      VMA       LMA       File off  Algn
  0 .text         00009568  08003000  08003000  00003000  2**4
                  CONTENTS, ALLOC, LOAD, READONLY, CODE
  1 .ARM.exidx    00000008  0800c568  0800c568  0000c568  2**2
                  CONTENTS, ALLOC, LOAD, READONLY, DATA
  2 .rodata       00000598  0800c570  0800c570  0000c570  2**3
                  CONTENTS, ALLOC, LOAD, READONLY, DATA
  3 .data         000005c8  20000000  0800cb08  00010000  2**2
                  CONTENTS, ALLOC, LOAD, DATA
  4 .bss          00003710  200005c8  0800d0d0  000105c8  2**3
                  ALLOC
  5 .comment      00000030  00000000  00000000  000105c8  2**0
                  CONTENTS, READONLY
  6 .ARM.attributes 00000031  00000000  00000000  000105f8  2**0
                  CONTENTS, READONLY
  7 .debug_frame  000007e0  00000000  00000000  0001062c  2**2
                  CONTENTS, READONLY, DEBUGGING
SYMBOL TABLE:
08003000 l    d  .text	00000000 .text
0800c568 l    d  .ARM.exidx	00000000 .ARM.exidx
0800c570 l    d  .rodata	00000000 .rodata
20000000 l    d  .data	00000000 .data
200005c8 l    d  .bss	00000000 .bss
00000000 l    d  .comment	00000000 .comment
00000000 l    d  .ARM.attributes	00000000 .ARM.attributes
00000000 l    d  .debug_frame	00000000 .debug_frame
00000000 l    df *ABS*	00000000 crt0.o
20004fff l       *ABS*	00000000 RAM_END
20004c00 l       *ABS*	00000000 PSP_BASE
20004c00 l       *ABS*	00000000 MSP_LIMIT
20005000 l       *ABS*	00000000 MSP_BASE
00000400 l       *ABS*	00000000 MSP_SIZE
00000000 l    df *ABS*	00000000 OS.c
0800313c l     F .text	00000056 NVIC_SetPriority
20000004 l     O .data	00000004 pstack.5355
20000008 l     O .data	00000004 stack_limit.5354
0800c574 l       .rodata	00000000 .LC0
0800c590 l       .rodata	00000000 .LC1
20003428 l       .bss	00000000 idx_tcb.5364
0800c5b8 l       .rodata	00000000 .LC2
0800c5d0 l       .rodata	00000000 .LC3
0800c5f0 l       .rodata	00000000 .LC4
0800c5fc l       .rodata	00000000 .LC5
00000000 l    df *ABS*	00000000 clock.c
00000000 l    df *ABS*	00000000 core_cm3.c
00000000 l    df *ABS*	00000000 joy_key.c
08003e28 l     F .text	00000032 NVIC_EnableIRQ
08003e5c l     F .text	00000034 NVIC_ClearPendingIRQ
00000000 l    df *ABS*	00000000 lcd.c
080041e8 l     F .text	0000009c _SPI1_Init
08004284 l     F .text	00000056 _SPI1_Write_Byte
080042dc l     F .text	00000028 _Delay
00000000 l    df *ABS*	00000000 led.c
00000000 l    df *ABS*	00000000 main.c
0800c608 l       .rodata	00000000 .LC0
0800c614 l       .rodata	00000000 .LC1
0800c628 l       .rodata	00000000 .LC2
0800c638 l       .rodata	00000000 .LC3
0800c654 l       .rodata	00000000 .LC4
0800c664 l       .rodata	00000000 .LC5
0800c678 l       .rodata	00000000 .LC6
0800c690 l       .rodata	00000000 .LC7
0800c6a4 l       .rodata	00000000 .LC8
0800c6bc l       .rodata	00000000 .LC9
00000000 l    df *ABS*	00000000 priority_queue.c
00000000 l    df *ABS*	00000000 queue.c
20000010 l     O .data	00000004 pbuffer.4030
20000014 l     O .data	00000004 buffer_limit.4029
00000000 l    df *ABS*	00000000 runtime.c
20003c68 l       .bss	00000000 heap.4796
00000000 l    df *ABS*	00000000 stm32f10x_it.c
0800569c l     F .text	00000034 NVIC_ClearPendingIRQ
0800c6cc l       .rodata	00000000 .LC0
0800c6e4 l       .rodata	00000000 .LC1
0800c71c l     O .rodata	00000020 Stack_reg
0800c73c l       .rodata	00000000 .LC10
08005710 l     F .text	0000004c Stack_Dump
0800c750 l       .rodata	00000000 .LC11
0800c768 l       .rodata	00000000 .LC12
0800c774 l       .rodata	00000000 .LC13
0800c780 l       .rodata	00000000 .LC14
0800c7a4 l       .rodata	00000000 .LC15
0800c7a8 l       .rodata	00000000 .LC16
0800c7d4 l       .rodata	00000000 .LC17
0800c800 l       .rodata	00000000 .LC18
0800c804 l       .rodata	00000000 .LC19
0800c830 l       .rodata	00000000 .LC20
0800c840 l       .rodata	00000000 .LC21
0800575c l     F .text	000000fe Fault_Report
0800c860 l       .rodata	00000000 .LC22
0800c86c l       .rodata	00000000 .LC23
0800c87c l       .rodata	00000000 .LC24
0800c890 l       .rodata	00000000 .LC25
0800c8a0 l       .rodata	00000000 .LC26
0800c8b4 l       .rodata	00000000 .LC27
0800c8c4 l       .rodata	00000000 .LC28
0800c8e8 l       .rodata	00000000 .LC29
0800c904 l       .rodata	00000000 .LC30
0800c910 l       .rodata	00000000 .LC31
0800c920 l       .rodata	00000000 .LC32
00000000 l    df *ABS*	00000000 systick.c
00000000 l    df *ABS*	00000000 timer.c
08005e50 l     F .text	00000032 NVIC_EnableIRQ
08005e84 l     F .text	00000034 NVIC_DisableIRQ
08005eb8 l     F .text	00000034 NVIC_ClearPendingIRQ
00000000 l    df *ABS*	00000000 uart.c
08006018 l     F .text	00000032 NVIC_EnableIRQ
0800604c l     F .text	00000034 NVIC_DisableIRQ
08006080 l     F .text	00000034 NVIC_ClearPendingIRQ
00000000 l    df *ABS*	00000000 exp_handler.o
08006399 l       .text	00000000 _PSR
0800635a l       .text	00000000 _loop
0800638c l       .text	00000000 fmt
0800639d l       .text	00000000 _r0
080063a1 l       .text	00000000 _r1
080063a5 l       .text	00000000 _r2
080063a9 l       .text	00000000 _r3
080063ad l       .text	00000000 _r4
080063b1 l       .text	00000000 _r5
080063b5 l       .text	00000000 _r6
080063b9 l       .text	00000000 _r7
080063bd l       .text	00000000 _r8
080063c1 l       .text	00000000 _r9
080063c5 l       .text	00000000 _r10
080063c9 l       .text	00000000 _r11
080063cd l       .text	00000000 _r12
080063d1 l       .text	00000000 _PSP
00000000 l    df *ABS*	00000000 scheduler.o
00000000 l    df *ABS*	00000000 memcpy-stub.c
00000000 l    df *ABS*	00000000 vsprintf.c
00000000 l    df *ABS*	00000000 impure.c
2000004c l     O .data	000000f0 impure_data
00000000 l    df *ABS*	00000000 vfprintf.c
0800c934 l       .rodata	00000000 .LANCHOR0
0800c934 l     O .rodata	00000010 blanks.6752
0800c944 l     O .rodata	00000010 zeroes.6753
00000000 l    df *ABS*	00000000 dtoa.c
08007a20 l     F .text	0000014a quorem
00000000 l    df *ABS*	00000000 locale.c
2000013c l       .data	00000000 .LANCHOR0
2000013c l     O .data	00000020 lc_ctype_charset
20000160 l     O .data	00000020 lc_message_charset
20000180 l     O .data	00000038 lconv
00000000 l    df *ABS*	00000000 malloc.c
00000000 l    df *ABS*	00000000 mallocr.c
200001b8 l       .data	00000000 .LANCHOR0
20003ca0 l       .bss	00000000 .LANCHOR1
00000000 l    df *ABS*	00000000 memchr-stub.c
00000000 l    df *ABS*	00000000 mlock.c
00000000 l    df *ABS*	00000000 mprec.c
0800c958 l       .rodata	00000000 .LANCHOR0
0800c958 l     O .rodata	0000000c p05.5301
00000000 l    df *ABS*	00000000 s_fpclassify.c
00000000 l    df *ABS*	00000000 sbrkr.c
00000000 l    df *ABS*	00000000 lib_a-strcmp.o
00000000 l    df *ABS*	00000000 strlen.c
00000000 l    df *ABS*	00000000 vfprintf.c
0800ca80 l       .rodata	00000000 .LANCHOR0
0800ca80 l     O .rodata	00000010 blanks.6696
0800ca90 l     O .rodata	00000010 zeroes.6697
00000000 l    df *ABS*	00000000 mallocr.c
00000000 l    df *ABS*	00000000 mallocr.c
00000000 l    df *ABS*	00000000 memmove.c
00000000 l    df *ABS*	00000000 memset.c
00000000 l    df *ABS*	00000000 mallocr.c
00000000 l    df *ABS*	00000000 reent.c
00000000 l    df *ABS*	00000000 _udivsi3.o
0800b2d8 l       .text	00000000 .udivsi3_skip_div0_test
00000000 l       *ABS*	00000000 shift
00000000 l    df *ABS*	00000000 _dvmd_tls.o
00000000 l    df *ABS*	00000000 _arm_addsubdf3.o
00000000 l    df *ABS*	00000000 _arm_muldivdf3.o
00000000 l    df *ABS*	00000000 _arm_cmpdf2.o
00000000 l    df *ABS*	00000000 _arm_fixdfsi.o
00000000 l    df *ABS*	00000000 _arm_fixunsdfsi.o
00000000 l    df *ABS*	00000000 _aeabi_uldivmod.o
00000000 l    df *ABS*	00000000 bpabi.c
00000000 l    df *ABS*	00000000 libgcc2.c
00000000 l    df *ABS*	00000000 libgcc2.c
00000000 l    df *ABS*	00000000 
08005a90 g     F .text	0000000a EXTI2_IRQHandler
20003228 g     O .bss	00000004 current_tcb
08003c30 g     F .text	00000018 __set_PRIMASK
08009a18 g     F .text	00000034 _mprec_log10
08009a94 g     F .text	0000005e __any_on
0800ca30 g     O .rodata	00000028 __mprec_tinytens
0800bdbc g     F .text	00000012 .hidden __aeabi_dcmple
0800b1e4 g     F .text	0000001a cleanup_glue
0800bee4 g     F .text	00000030 .hidden __gnu_uldivmod_helper
08003e90 g     F .text	000000f4 Key_Poll_Init
0800bcf8 g     F .text	0000007a .hidden __cmpdf2
08005a00 g     F .text	00000012 DebugMon_Handler
0800bcf8 g     F .text	0000007a .hidden __eqdf2
2000000c g     O .data	00000002 BACK_COLOR
0800bf14 g     F .text	00000352 .hidden __divdi3
0800b868 g     F .text	0000005a .hidden __floatdidf
0800654c g     F .text	0000001a vsprintf
08005bf4 g     F .text	0000000a TIM1_CC_IRQHandler
0800587c g     F .text	000000a8 HardFault_Handler
08008af8 g     F .text	00000052 _setlocale_r
080091b8 g     F .text	00000002 __malloc_unlock
080046c0 g     F .text	00000018 Lcd_Write_RAM_Prepare
08006460 g     F .text	00000000 _OS_Start_First_Task
08003c48 g     F .text	0000001e __get_FAULTMASK
08005a14 g     F .text	0000001a SysTick_Handler
200005c8 g     O .bss	00000b70 tcb
08003cb8 g     F .text	00000020 __REV
08005a3c g     F .text	0000000a PVD_IRQHandler
0800ac88 g     F .text	000000ce memmove
080044a4 g     F .text	00000042 Lcd_Reset
080050e0 g     F .text	000000b6 pq_heapify_down
08006430 g     F .text	00000000 PendSV_Handler
0800585c g     F .text	0000001e NMI_Handler
080091bc g     F .text	0000006c _Balloc
08005a9c g     F .text	0000003e EXTI3_IRQHandler
08004f50 g     F .text	0000001a pq_init
20000038 g     O .data	00000010 EXTI15_10_LUT
0800bce8 g     F .text	0000008a .hidden __gtdf2
08004fc0 g     F .text	0000006a pq_compare_ready
08003550 g     F .text	00000096 OS_Scheduler_Start
08003e00 g     F .text	00000026 __STREXW
08003d8c g     F .text	00000022 __LDREXW
20003cd4 g     O .bss	00000004 errno
0800bd84 g     F .text	00000010 .hidden __aeabi_cdcmple
2000343c g     O .bss	00000002 POINT_COLOR
08004ec4 g     F .text	0000008a Main
08005070 g     F .text	0000006e pq_heapify_up
080044e8 g     F .text	00000060 Lcd_WR_REG
080035e8 g     F .text	000000e2 OS_Scheduler
08006470 g     F .text	000000a6 memcpy
0800bd74 g     F .text	00000020 .hidden __aeabi_cdrcmple
08004c48 g     F .text	00000036 LED_Display
20003c70 g     O .bss	00000004 key_value
0800485c g     F .text	0000000c Lcd_Clr_Screen
08006568 g     F .text	000014b4 _svfprintf_r
0800b7f8 g     F .text	00000022 .hidden __floatsidf
0800bcf0 g     F .text	00000082 .hidden __ltdf2
08005b48 g     F .text	0000000a USB_HP_CAN_TX_IRQHandler
08004548 g     F .text	00000060 Lcd_WR_DATA
08005a78 g     F .text	0000000a EXTI0_IRQHandler
08004ca4 g     F .text	00000024 LED_All_Off
08005c64 g     F .text	0000000a I2C2_EV_IRQHandler
0800be88 g     F .text	00000000 .hidden __aeabi_uldivmod
08009af4 g     F .text	00000050 __fpclassifyd
080099b8 g     F .text	0000005e __ratio
20003c78 g     O .bss	00000004 uart_rx_in
08003d20 g     F .text	00000022 __RBIT
20000000 g       .data	00000000 __RW_BASE__
08008b94 g     F .text	00000010 malloc
0800b2d8 g     F .text	0000025c .hidden __udivsi3
20003328 g     O .bss	000000f8 blocked_queue
0800c968 g     O .rodata	000000c8 __mprec_tens
080059dc g     F .text	00000024 UsageFault_Handler
08003c68 g     F .text	00000018 __set_FAULTMASK
08008b4c g     F .text	0000000a __locale_charset
0800be48 g     F .text	00000040 .hidden __fixunsdfsi
08005b3c g     F .text	0000000a ADC1_2_IRQHandler
20003ca0 g     O .bss	00000004 __malloc_top_pad
2000015c g     O .data	00000004 __mb_cur_max
0800b7d8 g     F .text	0000001e .hidden __aeabi_ui2d
08008b70 g     F .text	00000008 _localeconv_r
08005594 g     F .text	00000022 isFull
08009418 g     F .text	00000012 __i2b
08004418 g     F .text	0000008c Lcd_Fill
08005c7c g     F .text	0000000a SPI1_IRQHandler
08005b6c g     F .text	0000000a CAN_SCE_IRQHandler
0800b554 g     F .text	00000000 .hidden __aeabi_drsub
08009b44 g     F .text	00000026 _sbrk_r
08005a48 g     F .text	0000000a TAMPER_IRQHandler
08004bf0 g     F .text	00000058 LED_Init
20003468 g     O .bss	00000800 queue_buffer
0800bda8 g     F .text	00000012 .hidden __aeabi_dcmplt
08003b00 g     F .text	000000a6 Clock_Init
20003ccc g     O .bss	00000004 __malloc_max_sbrked_mem
08003194 g     F .text	0000001e IdleTask
0800b81c g     F .text	0000003a .hidden __extendsfdf2
0800bb18 g     F .text	000001d0 .hidden __aeabi_ddiv
0800b560 g     F .text	00000276 .hidden __adddf3
200005c8 g       .data	00000000 __RW_LIMIT__
080062ac g     F .text	00000034 Uart1_Printf
08009850 g     F .text	000000ac __b2d
0800b8c4 g     F .text	00000254 .hidden __aeabi_dmul
08003c80 g     F .text	0000001e __get_CONTROL
0800c930 g     O .rodata	00000004 _global_impure_ptr
0800adf8 g     F .text	000003ea _realloc_r
20001138 g     O .bss	00002000 stack
0800c268 g     F .text	00000300 .hidden __udivdi3
08005b0c g     F .text	0000000a DMA1_Channel4_IRQHandler
0800ca58 g     O .rodata	00000028 __mprec_bigtens
080092ec g     F .text	00000098 __s2b
0800b7d8 g     F .text	0000001e .hidden __floatunsidf
080055b8 g     F .text	0000008a _sbrk
080096dc g     F .text	00000042 __mcmp
08004f6c g     F .text	00000052 pq_compare_delay
08004bc4 g     F .text	0000002c Lcd_Put_Pixel
080062e0 g     F .text	00000060 Uart1_RX_Interrupt_Enable
08005d38 g     F .text	0000000a USART3_IRQHandler
08005a54 g     F .text	0000000a RTC_IRQHandler
08003ba8 g     F .text	00000010 __get_PSP
08004020 g     F .text	000001c8 Key_ISR_Enable
08003bb8 g     F .text	00000008 __set_PSP
08005b30 g     F .text	0000000a DMA1_Channel7_IRQHandler
0800b200 g     F .text	000000d6 _reclaim_reent
08009384 g     F .text	0000003c __hi0bits
0800bdf8 g     F .text	0000004e .hidden __fixdfsi
08004868 g     F .text	000000e0 Lcd_Draw_Box
08003390 g     F .text	00000128 OS_Create_Task_Simple
08003aec g     F .text	00000012 PRINT_DUMMY
20003138 g     O .bss	000000f0 queues
080045a8 g     F .text	00000118 Lcd_Set_Display_Mode
08005c18 g     F .text	00000034 TIM4_IRQHandler
0800b560 g     F .text	00000276 .hidden __aeabi_dadd
0800bcf0 g     F .text	00000082 .hidden __ledf2
20003440 g     O .bss	00000028 dummyParams
08005b60 g     F .text	0000000a CAN_RX1_IRQHandler
0800956c g     F .text	000000b8 __pow5mult
0800b858 g     F .text	0000006a .hidden __aeabi_ul2d
20003c9c g     O .bss	00000004 __nlocale_changed
08004d10 g     F .text	00000016 Task1
00000000  w      *UND*	00000000 __sf_fake_stderr
080063d8 g     F .text	00000000 _HardFault_Handler
20003230 g     O .bss	000000f8 ready_queue
08005c4c g     F .text	0000000a I2C1_EV_IRQHandler
080030ec g     F .text	00000000 __start
08003d44 g     F .text	00000022 __LDREXB
08004380 g     F .text	00000026 Lcd_Write_Reg
080039bc g     F .text	000000a4 OS_Block_Current_Task
0800bde4 g     F .text	00000012 .hidden __aeabi_dcmpgt
08005b24 g     F .text	0000000a DMA1_Channel6_IRQHandler
08009124 g     F .text	00000090 memchr
0800aaf0 g     F .text	00000198 _free_r
080053a0 g     F .text	000000d2 createQueue
08005198 g     F .text	00000052 pq_push
08005c0c g     F .text	0000000a TIM3_IRQHandler
08005a6c g     F .text	0000000a RCC_IRQHandler
08008b58 g     F .text	0000000c __locale_mb_cur_max
080046d8 g     F .text	0000009c Lcd_Set_Windows
0800bdd0 g     F .text	00000012 .hidden __aeabi_dcmpge
08005be8 g     F .text	0000000a TIM1_TRG_COM_IRQHandler
08005ae8 g     F .text	0000000a DMA1_Channel1_IRQHandler
08003c10 g     F .text	0000001e __get_PRIMASK
20003c98 g     O .bss	00000004 __mlocale_changed
0800b55c g     F .text	0000027a .hidden __aeabi_dsub
200005c0 g     O .data	00000004 __malloc_sbrk_base
000005c8 g       *ABS*	00000000 __RW_SIZE__
0800b858 g     F .text	0000006a .hidden __floatundidf
08009624 g     F .text	000000b6 __lshift
080063ec g     F .text	00000000 _MemManage_Handler
08009e08 g     F .text	00000104 __ssprint_r
08005d44 g     F .text	00000062 EXTI15_10_IRQHandler
0800cb08 g       *ABS*	00000000 __RW_LOAD_ADDR__
08003cfc g     F .text	00000022 __REVSH
0800942c g     F .text	00000140 __multiply
20003ca4 g     O .bss	00000028 __malloc_current_mallinfo
080098fc g     F .text	000000ba __d2b
20000018 g     O .data	00000020 EXTI9_5_LUT
0800c570 g     O .rodata	00000004 default_delay
0800400c g     F .text	00000012 Key_Wait_Key_Released
080031b4 g     F .text	0000017c OS_Init
080043a8 g     F .text	00000070 Lcd_Write_Data_16Bit
0800b7f8 g     F .text	00000022 .hidden __aeabi_i2d
0800533c g     F .text	00000064 _OS_Get_Buffer
080051ec g     F .text	00000062 pq_pop
0800c570 g       .rodata	00000000 __RO_BASE__
0800b550  w    F .text	00000002 .hidden __aeabi_ldiv0
08005b78 g     F .text	00000056 EXTI9_5_IRQHandler
0800bb18 g     F .text	000001d0 .hidden __divdf3
08009a4c g     F .text	00000046 __copybits
200001b8 g     O .data	00000408 __malloc_av_
0800b8c4 g     F .text	00000254 .hidden __muldf3
080091b4 g     F .text	00000002 __malloc_lock
08004cec g     F .text	00000024 LED_1_Toggle
08005250 g     F .text	00000026 pq_top
0800a9e8 g     F .text	00000062 _calloc_r
08006400 g     F .text	00000000 _BusFault_Handler
08005c88 g     F .text	0000000a SPI2_IRQHandler
00000000  w      *UND*	00000000 __sf_fake_stdin
080052f4 g     F .text	00000046 pq_update
08004cc8 g     F .text	00000024 LED_0_Toggle
08005b54 g     F .text	0000000a USB_LP_CAN_RX0_IRQHandler
0800ad58 g     F .text	0000009e memset
08005924 g     F .text	0000005a MemManage_Handler
20003cd0 g     O .bss	00000004 __malloc_max_total_mem
08004d40 g     F .text	00000166 Task3
20003cd4 g       .bss	00000000 __ZI_LIMIT__
08005644 g     F .text	00000056 System_Init
0800b2d8 g     F .text	00000000 .hidden __aeabi_uidiv
0800644c g     F .text	00000000 SVC_Handler
08005dc0 g     F .text	00000090 SysTick_OS_Tick
08003ca0 g     F .text	00000018 __set_CONTROL
08007b6c g     F .text	00000f8a _dtoa_r
08008bb4 g     F .text	0000056e _malloc_r
0800b868 g     F .text	0000005a .hidden __aeabi_l2d
08006284 g     F .text	00000026 Uart1_Send_String
08006218 g     F .text	0000006a Uart1_Send_Byte
08003f84 g     F .text	00000066 Key_Get_Pressed
20003c6c g     O .bss	00000004 systick_flag
08004c80 g     F .text	00000024 LED_All_On
080034b8 g     F .text	00000098 OS_Create_Queue
08005b18 g     F .text	0000000a DMA1_Channel5_IRQHandler
08005adc g     F .text	0000000a EXTI4_IRQHandler
0800aa4c g     F .text	000000a2 _malloc_trim_r
08003ac8 g     F .text	00000024 OS_Pend_Trigger
0800377c g     F .text	0000014a OS_Signal_Wait
08009b6c g     F .text	00000000 strcmp
08003bc0 g     F .text	00000010 __get_MSP
080036cc g     F .text	000000b0 OS_Tick
0800cb08 g       .rodata	00000000 __RO_LIMIT__
20003c74 g     O .bss	00000004 tim4_timeout
0800bcf8 g     F .text	0000007a .hidden __nedf2
20003c94 g     O .bss	00000004 _PathLocale
20003430 g     O .bss	0000000c lcddev
08004774 g     F .text	00000020 Lcd_Set_Cursor
08006518 g     F .text	00000032 _vsprintf_r
08005b00 g     F .text	0000000a DMA1_Channel3_IRQHandler
08008b78 g     F .text	00000012 setlocale
08003cd8 g     F .text	00000022 __REV16
20000048 g     O .data	00000004 _impure_ptr
08005bdc g     F .text	0000000a TIM1_UP_IRQHandler
08008b6c g     F .text	00000004 __locale_cjk_lang
08003330 g     F .text	00000060 _OS_Get_Stack
08009f0c g     F .text	00000adc _svfiprintf_r
00003710 g       *ABS*	00000000 __ZI_SIZE__
08005a30 g     F .text	0000000a WWDG_IRQHandler
08004ea8 g     F .text	0000001a TaskDummy
08003bd0 g     F .text	00000008 __set_MSP
0800980c g     F .text	00000042 __ulp
08004d28 g     F .text	00000018 Task2
08004948 g     F .text	0000027c Lcd_Init
20003c90 g     O .bss	00000004 uart_rx_index
08005c00 g     F .text	0000000a TIM2_IRQHandler
08005278 g     F .text	0000007c pq_remove
08004304 g     F .text	0000007c Lcd_GPIO_Init
0800be48 g     F .text	00000040 .hidden __aeabi_d2uiz
08005474 g     F .text	0000007c enqueue
20003420 g     O .bss	00000008 system_tick
200005c8 g       .bss	00000000 __ZI_BASE__
08008b8c g     F .text	00000008 localeconv
08005bd0 g     F .text	0000000a TIM1_BRK_IRQHandler
0800b534 g     F .text	0000001a .hidden __aeabi_uidivmod
08005a84 g     F .text	0000000a EXTI1_IRQHandler
08003bf8 g     F .text	00000018 __set_BASEPRI
0800bd94 g     F .text	00000012 .hidden __aeabi_dcmpeq
080054f0 g     F .text	00000080 dequeue
08003fec g     F .text	00000020 Key_Wait_Key_Pressed
080060b4 g     F .text	00000164 Uart1_Init
0800502c g     F .text	00000044 pq_swap
08005da8 g     F .text	0000000a RTCAlarm_IRQHandler
08005d2c g     F .text	0000000a USART2_IRQHandler
200005c4 g     O .data	00000004 __malloc_trim_threshold
08008b64 g     F .text	00000008 __locale_msgcharset
08003dd8 g     F .text	00000028 __STREXH
08009720 g     F .text	000000ea __mdiff
0800bdf8 g     F .text	0000004e .hidden __aeabi_d2iz
08003d68 g     F .text	00000022 __LDREXH
08005c70 g     F .text	0000000a I2C2_ER_IRQHandler
08005af4 g     F .text	0000000a DMA1_Channel2_IRQHandler
2000322c g     O .bss	00000004 next_tcb
00000000  w      *UND*	00000000 __sf_fake_stdout
0800b550  w    F .text	00000002 .hidden __aeabi_idiv0
08003a60 g     F .text	00000066 OS_Unblock_Task
08005a60 g     F .text	0000000a FLASH_IRQHandler
08004794 g     F .text	000000c6 Lcd_Draw_Back_Color
08005980 g     F .text	0000005a BusFault_Handler
08005c94 g     F .text	00000098 USART1_IRQHandler
08009da8 g     F .text	0000005e strlen
08005eec g     F .text	0000012a TIM4_Repeat_Interrupt_Enable
080038c8 g     F .text	000000f2 OS_Signal_Send
08005570 g     F .text	00000022 isEmpty
08006414 g     F .text	00000000 _UsageFault_Handler
08003bd8 g     F .text	0000001e __get_BASEPRI
0800bd84 g     F .text	00000010 .hidden __aeabi_cdcmpeq
0800bce8 g     F .text	0000008a .hidden __gedf2
0800beb4 g     F .text	00000030 .hidden __gnu_ldivmod_helper
08005c58 g     F .text	0000000a I2C1_ER_IRQHandler
20003c7c g     O .bss	00000014 uart_rx_buffer
0800b81c g     F .text	0000003a .hidden __aeabi_f2d
08003db0 g     F .text	00000028 __STREXB
0800b55c g     F .text	0000027a .hidden __subdf3
08006346 g     F .text	00000000 _Print_Reg
20000000 g     O .data	00000004 interrupt_period
080093c0 g     F .text	00000056 __lo0bits
080056d0 g     F .text	00000040 Invalid_ISR
08005db4 g     F .text	0000000a USBWakeUp_IRQHandler
08008ba4 g     F .text	00000010 free
08009260 g     F .text	0000008c __multadd
08006340 g     F .text	00000000 __get_IPSR
08009228 g     F .text	00000036 _Bfree



Disassembly of section .text:

08003000 <__start-0xec>:
 8003000:	20005000 	andcs	r5, r0, r0
 8003004:	080030ed 	stmdaeq	r0, {r0, r2, r3, r5, r6, r7, ip, sp}
 8003008:	0800585d 	stmdaeq	r0, {r0, r2, r3, r4, r6, fp, ip, lr}
 800300c:	080063d9 	stmdaeq	r0, {r0, r3, r4, r6, r7, r8, r9, sp, lr}
 8003010:	080063ed 	stmdaeq	r0, {r0, r2, r3, r5, r6, r7, r8, r9, sp, lr}
 8003014:	08006401 	stmdaeq	r0, {r0, sl, sp, lr}
 8003018:	08006415 	stmdaeq	r0, {r0, r2, r4, sl, sp, lr}
	...
 800302c:	0800644d 	stmdaeq	r0, {r0, r2, r3, r6, sl, sp, lr}
 8003030:	08005a01 	stmdaeq	r0, {r0, r9, fp, ip, lr}
 8003034:	00000000 	andeq	r0, r0, r0
 8003038:	08006431 	stmdaeq	r0, {r0, r4, r5, sl, sp, lr}
 800303c:	08005a15 	stmdaeq	r0, {r0, r2, r4, r9, fp, ip, lr}
 8003040:	08005a31 	stmdaeq	r0, {r0, r4, r5, r9, fp, ip, lr}
 8003044:	08005a3d 	stmdaeq	r0, {r0, r2, r3, r4, r5, r9, fp, ip, lr}
 8003048:	08005a49 	stmdaeq	r0, {r0, r3, r6, r9, fp, ip, lr}
 800304c:	08005a55 	stmdaeq	r0, {r0, r2, r4, r6, r9, fp, ip, lr}
 8003050:	08005a61 	stmdaeq	r0, {r0, r5, r6, r9, fp, ip, lr}
 8003054:	08005a6d 	stmdaeq	r0, {r0, r2, r3, r5, r6, r9, fp, ip, lr}
 8003058:	08005a79 	stmdaeq	r0, {r0, r3, r4, r5, r6, r9, fp, ip, lr}
 800305c:	08005a85 	stmdaeq	r0, {r0, r2, r7, r9, fp, ip, lr}
 8003060:	08005a91 	stmdaeq	r0, {r0, r4, r7, r9, fp, ip, lr}
 8003064:	08005a9d 	stmdaeq	r0, {r0, r2, r3, r4, r7, r9, fp, ip, lr}
 8003068:	08005add 	stmdaeq	r0, {r0, r2, r3, r4, r6, r7, r9, fp, ip, lr}
 800306c:	08005ae9 	stmdaeq	r0, {r0, r3, r5, r6, r7, r9, fp, ip, lr}
 8003070:	08005af5 	stmdaeq	r0, {r0, r2, r4, r5, r6, r7, r9, fp, ip, lr}
 8003074:	08005b01 	stmdaeq	r0, {r0, r8, r9, fp, ip, lr}
 8003078:	08005b0d 	stmdaeq	r0, {r0, r2, r3, r8, r9, fp, ip, lr}
 800307c:	08005b19 	stmdaeq	r0, {r0, r3, r4, r8, r9, fp, ip, lr}
 8003080:	08005b25 	stmdaeq	r0, {r0, r2, r5, r8, r9, fp, ip, lr}
 8003084:	08005b31 	stmdaeq	r0, {r0, r4, r5, r8, r9, fp, ip, lr}
 8003088:	08005b3d 	stmdaeq	r0, {r0, r2, r3, r4, r5, r8, r9, fp, ip, lr}
	...
 800309c:	08005b79 	stmdaeq	r0, {r0, r3, r4, r5, r6, r8, r9, fp, ip, lr}
 80030a0:	08005bd1 	stmdaeq	r0, {r0, r4, r6, r7, r8, r9, fp, ip, lr}
 80030a4:	08005bdd 	stmdaeq	r0, {r0, r2, r3, r4, r6, r7, r8, r9, fp, ip, lr}
 80030a8:	08005be9 	stmdaeq	r0, {r0, r3, r5, r6, r7, r8, r9, fp, ip, lr}
 80030ac:	08005bf5 	stmdaeq	r0, {r0, r2, r4, r5, r6, r7, r8, r9, fp, ip, lr}
 80030b0:	08005c01 	stmdaeq	r0, {r0, sl, fp, ip, lr}
 80030b4:	08005c0d 	stmdaeq	r0, {r0, r2, r3, sl, fp, ip, lr}
 80030b8:	08005c19 	stmdaeq	r0, {r0, r3, r4, sl, fp, ip, lr}
 80030bc:	08005c4d 	stmdaeq	r0, {r0, r2, r3, r6, sl, fp, ip, lr}
 80030c0:	08005c59 	stmdaeq	r0, {r0, r3, r4, r6, sl, fp, ip, lr}
 80030c4:	08005c65 	stmdaeq	r0, {r0, r2, r5, r6, sl, fp, ip, lr}
 80030c8:	08005c71 	stmdaeq	r0, {r0, r4, r5, r6, sl, fp, ip, lr}
 80030cc:	08005c7d 	stmdaeq	r0, {r0, r2, r3, r4, r5, r6, sl, fp, ip, lr}
 80030d0:	08005c89 	stmdaeq	r0, {r0, r3, r7, sl, fp, ip, lr}
 80030d4:	08005c95 	stmdaeq	r0, {r0, r2, r4, r7, sl, fp, ip, lr}
 80030d8:	08005d2d 	stmdaeq	r0, {r0, r2, r3, r5, r8, sl, fp, ip, lr}
 80030dc:	08005d39 	stmdaeq	r0, {r0, r3, r4, r5, r8, sl, fp, ip, lr}
 80030e0:	08005d45 	stmdaeq	r0, {r0, r2, r6, r8, sl, fp, ip, lr}
 80030e4:	08005da9 	stmdaeq	r0, {r0, r3, r5, r7, r8, sl, fp, ip, lr}
 80030e8:	08005db5 	stmdaeq	r0, {r0, r2, r4, r5, r7, r8, sl, fp, ip, lr}

080030ec <__start>:
 80030ec:	480e      	ldr	r0, [pc, #56]	; (8003128 <__start+0x3c>)
 80030ee:	490f      	ldr	r1, [pc, #60]	; (800312c <__start+0x40>)
 80030f0:	4b0f      	ldr	r3, [pc, #60]	; (8003130 <__start+0x44>)
 80030f2:	4288      	cmp	r0, r1
 80030f4:	d006      	beq.n	8003104 <__start+0x18>
 80030f6:	4299      	cmp	r1, r3
 80030f8:	bf3e      	ittt	cc
 80030fa:	f850 2b04 	ldrcc.w	r2, [r0], #4
 80030fe:	f841 2b04 	strcc.w	r2, [r1], #4
 8003102:	e7f8      	bcc.n	80030f6 <__start+0xa>
 8003104:	490b      	ldr	r1, [pc, #44]	; (8003134 <__start+0x48>)
 8003106:	f04f 0200 	mov.w	r2, #0
 800310a:	428b      	cmp	r3, r1
 800310c:	bf3c      	itt	cc
 800310e:	f843 2b04 	strcc.w	r2, [r3], #4
 8003112:	e7fa      	bcc.n	800310a <__start+0x1e>
 8003114:	4808      	ldr	r0, [pc, #32]	; (8003138 <__start+0x4c>)
 8003116:	f380 8814 	msr	CONTROL, r0
 800311a:	f000 fcf1 	bl	8003b00 <Clock_Init>
 800311e:	f002 fa91 	bl	8005644 <System_Init>
 8003122:	f001 fecf 	bl	8004ec4 <Main>
 8003126:	e7fe      	b.n	8003126 <__start+0x3a>
 8003128:	0800cb08 	stmdaeq	r0, {r3, r8, r9, fp, lr, pc}
 800312c:	20000000 	andcs	r0, r0, r0
 8003130:	200005c8 	andcs	r0, r0, r8, asr #11
 8003134:	20003cd4 	ldrdcs	r3, [r0], -r4
 8003138:	00000000 	andeq	r0, r0, r0

0800313c <NVIC_SetPriority>:
 800313c:	b480      	push	{r7}
 800313e:	b083      	sub	sp, #12
 8003140:	af00      	add	r7, sp, #0
 8003142:	4603      	mov	r3, r0
 8003144:	6039      	str	r1, [r7, #0]
 8003146:	71fb      	strb	r3, [r7, #7]
 8003148:	f997 3007 	ldrsb.w	r3, [r7, #7]
 800314c:	2b00      	cmp	r3, #0
 800314e:	da0e      	bge.n	800316e <NVIC_SetPriority+0x32>
 8003150:	f44f 436d 	mov.w	r3, #60672	; 0xed00
 8003154:	f2ce 0300 	movt	r3, #57344	; 0xe000
 8003158:	79fa      	ldrb	r2, [r7, #7]
 800315a:	f002 020f 	and.w	r2, r2, #15
 800315e:	1f11      	subs	r1, r2, #4
 8003160:	683a      	ldr	r2, [r7, #0]
 8003162:	b2d2      	uxtb	r2, r2
 8003164:	0112      	lsls	r2, r2, #4
 8003166:	b2d2      	uxtb	r2, r2
 8003168:	440b      	add	r3, r1
 800316a:	761a      	strb	r2, [r3, #24]
 800316c:	e00c      	b.n	8003188 <NVIC_SetPriority+0x4c>
 800316e:	f44f 4361 	mov.w	r3, #57600	; 0xe100
 8003172:	f2ce 0300 	movt	r3, #57344	; 0xe000
 8003176:	f997 1007 	ldrsb.w	r1, [r7, #7]
 800317a:	683a      	ldr	r2, [r7, #0]
 800317c:	b2d2      	uxtb	r2, r2
 800317e:	0112      	lsls	r2, r2, #4
 8003180:	b2d2      	uxtb	r2, r2
 8003182:	440b      	add	r3, r1
 8003184:	f883 2300 	strb.w	r2, [r3, #768]	; 0x300
 8003188:	370c      	adds	r7, #12
 800318a:	46bd      	mov	sp, r7
 800318c:	f85d 7b04 	ldr.w	r7, [sp], #4
 8003190:	4770      	bx	lr
 8003192:	bf00      	nop

08003194 <IdleTask>:
 8003194:	b480      	push	{r7}
 8003196:	b085      	sub	sp, #20
 8003198:	af00      	add	r7, sp, #0
 800319a:	6078      	str	r0, [r7, #4]
 800319c:	2300      	movs	r3, #0
 800319e:	60fb      	str	r3, [r7, #12]
 80031a0:	e002      	b.n	80031a8 <IdleTask+0x14>
 80031a2:	68fb      	ldr	r3, [r7, #12]
 80031a4:	3301      	adds	r3, #1
 80031a6:	60fb      	str	r3, [r7, #12]
 80031a8:	68fb      	ldr	r3, [r7, #12]
 80031aa:	f1b3 7f80 	cmp.w	r3, #16777216	; 0x1000000
 80031ae:	dbf8      	blt.n	80031a2 <IdleTask+0xe>
 80031b0:	e7f4      	b.n	800319c <IdleTask+0x8>
 80031b2:	bf00      	nop

080031b4 <OS_Init>:
 80031b4:	b580      	push	{r7, lr}
 80031b6:	b082      	sub	sp, #8
 80031b8:	af00      	add	r7, sp, #0
 80031ba:	2030      	movs	r0, #48	; 0x30
 80031bc:	f000 fd1c 	bl	8003bf8 <__set_BASEPRI>
 80031c0:	2300      	movs	r3, #0
 80031c2:	607b      	str	r3, [r7, #4]
 80031c4:	e04d      	b.n	8003262 <OS_Init+0xae>
 80031c6:	f240 52c8 	movw	r2, #1480	; 0x5c8
 80031ca:	f2c2 0200 	movt	r2, #8192	; 0x2000
 80031ce:	6879      	ldr	r1, [r7, #4]
 80031d0:	460b      	mov	r3, r1
 80031d2:	005b      	lsls	r3, r3, #1
 80031d4:	440b      	add	r3, r1
 80031d6:	011b      	lsls	r3, r3, #4
 80031d8:	4413      	add	r3, r2
 80031da:	687a      	ldr	r2, [r7, #4]
 80031dc:	605a      	str	r2, [r3, #4]
 80031de:	f240 52c8 	movw	r2, #1480	; 0x5c8
 80031e2:	f2c2 0200 	movt	r2, #8192	; 0x2000
 80031e6:	6879      	ldr	r1, [r7, #4]
 80031e8:	460b      	mov	r3, r1
 80031ea:	005b      	lsls	r3, r3, #1
 80031ec:	440b      	add	r3, r1
 80031ee:	011b      	lsls	r3, r3, #4
 80031f0:	4413      	add	r3, r2
 80031f2:	3308      	adds	r3, #8
 80031f4:	2200      	movs	r2, #0
 80031f6:	605a      	str	r2, [r3, #4]
 80031f8:	f240 52c8 	movw	r2, #1480	; 0x5c8
 80031fc:	f2c2 0200 	movt	r2, #8192	; 0x2000
 8003200:	6879      	ldr	r1, [r7, #4]
 8003202:	460b      	mov	r3, r1
 8003204:	005b      	lsls	r3, r3, #1
 8003206:	440b      	add	r3, r1
 8003208:	011b      	lsls	r3, r3, #4
 800320a:	4413      	add	r3, r2
 800320c:	f103 0110 	add.w	r1, r3, #16
 8003210:	f04f 0200 	mov.w	r2, #0
 8003214:	f04f 0300 	mov.w	r3, #0
 8003218:	e9c1 2300 	strd	r2, r3, [r1]
 800321c:	f240 52c8 	movw	r2, #1480	; 0x5c8
 8003220:	f2c2 0200 	movt	r2, #8192	; 0x2000
 8003224:	6879      	ldr	r1, [r7, #4]
 8003226:	460b      	mov	r3, r1
 8003228:	005b      	lsls	r3, r3, #1
 800322a:	440b      	add	r3, r1
 800322c:	011b      	lsls	r3, r3, #4
 800322e:	4413      	add	r3, r2
 8003230:	f103 0118 	add.w	r1, r3, #24
 8003234:	f04f 0200 	mov.w	r2, #0
 8003238:	f04f 0300 	mov.w	r3, #0
 800323c:	e9c1 2300 	strd	r2, r3, [r1]
 8003240:	f240 52c8 	movw	r2, #1480	; 0x5c8
 8003244:	f2c2 0200 	movt	r2, #8192	; 0x2000
 8003248:	6879      	ldr	r1, [r7, #4]
 800324a:	460b      	mov	r3, r1
 800324c:	005b      	lsls	r3, r3, #1
 800324e:	440b      	add	r3, r1
 8003250:	011b      	lsls	r3, r3, #4
 8003252:	4413      	add	r3, r2
 8003254:	3320      	adds	r3, #32
 8003256:	f04f 32ff 	mov.w	r2, #4294967295
 800325a:	601a      	str	r2, [r3, #0]
 800325c:	687b      	ldr	r3, [r7, #4]
 800325e:	3301      	adds	r3, #1
 8003260:	607b      	str	r3, [r7, #4]
 8003262:	687b      	ldr	r3, [r7, #4]
 8003264:	2b3c      	cmp	r3, #60	; 0x3c
 8003266:	ddae      	ble.n	80031c6 <OS_Init+0x12>
 8003268:	f243 2030 	movw	r0, #12848	; 0x3230
 800326c:	f2c2 0000 	movt	r0, #8192	; 0x2000
 8003270:	f001 fe6e 	bl	8004f50 <pq_init>
 8003274:	f243 3028 	movw	r0, #13096	; 0x3328
 8003278:	f2c2 0000 	movt	r0, #8192	; 0x2000
 800327c:	f001 fe68 	bl	8004f50 <pq_init>
 8003280:	2300      	movs	r3, #0
 8003282:	607b      	str	r3, [r7, #4]
 8003284:	e042      	b.n	800330c <OS_Init+0x158>
 8003286:	f243 1238 	movw	r2, #12600	; 0x3138
 800328a:	f2c2 0200 	movt	r2, #8192	; 0x2000
 800328e:	6879      	ldr	r1, [r7, #4]
 8003290:	460b      	mov	r3, r1
 8003292:	005b      	lsls	r3, r3, #1
 8003294:	440b      	add	r3, r1
 8003296:	00db      	lsls	r3, r3, #3
 8003298:	4413      	add	r3, r2
 800329a:	2200      	movs	r2, #0
 800329c:	601a      	str	r2, [r3, #0]
 800329e:	f243 1238 	movw	r2, #12600	; 0x3138
 80032a2:	f2c2 0200 	movt	r2, #8192	; 0x2000
 80032a6:	6879      	ldr	r1, [r7, #4]
 80032a8:	460b      	mov	r3, r1
 80032aa:	005b      	lsls	r3, r3, #1
 80032ac:	440b      	add	r3, r1
 80032ae:	00db      	lsls	r3, r3, #3
 80032b0:	4413      	add	r3, r2
 80032b2:	3304      	adds	r3, #4
 80032b4:	2200      	movs	r2, #0
 80032b6:	601a      	str	r2, [r3, #0]
 80032b8:	f243 1238 	movw	r2, #12600	; 0x3138
 80032bc:	f2c2 0200 	movt	r2, #8192	; 0x2000
 80032c0:	6879      	ldr	r1, [r7, #4]
 80032c2:	460b      	mov	r3, r1
 80032c4:	005b      	lsls	r3, r3, #1
 80032c6:	440b      	add	r3, r1
 80032c8:	00db      	lsls	r3, r3, #3
 80032ca:	4413      	add	r3, r2
 80032cc:	3308      	adds	r3, #8
 80032ce:	2200      	movs	r2, #0
 80032d0:	601a      	str	r2, [r3, #0]
 80032d2:	f243 1238 	movw	r2, #12600	; 0x3138
 80032d6:	f2c2 0200 	movt	r2, #8192	; 0x2000
 80032da:	6879      	ldr	r1, [r7, #4]
 80032dc:	460b      	mov	r3, r1
 80032de:	005b      	lsls	r3, r3, #1
 80032e0:	440b      	add	r3, r1
 80032e2:	00db      	lsls	r3, r3, #3
 80032e4:	4413      	add	r3, r2
 80032e6:	330c      	adds	r3, #12
 80032e8:	2200      	movs	r2, #0
 80032ea:	601a      	str	r2, [r3, #0]
 80032ec:	f243 1238 	movw	r2, #12600	; 0x3138
 80032f0:	f2c2 0200 	movt	r2, #8192	; 0x2000
 80032f4:	6879      	ldr	r1, [r7, #4]
 80032f6:	460b      	mov	r3, r1
 80032f8:	005b      	lsls	r3, r3, #1
 80032fa:	440b      	add	r3, r1
 80032fc:	00db      	lsls	r3, r3, #3
 80032fe:	4413      	add	r3, r2
 8003300:	3310      	adds	r3, #16
 8003302:	2200      	movs	r2, #0
 8003304:	601a      	str	r2, [r3, #0]
 8003306:	687b      	ldr	r3, [r7, #4]
 8003308:	3301      	adds	r3, #1
 800330a:	607b      	str	r3, [r7, #4]
 800330c:	687b      	ldr	r3, [r7, #4]
 800330e:	2b09      	cmp	r3, #9
 8003310:	ddb9      	ble.n	8003286 <OS_Init+0xd2>
 8003312:	2000      	movs	r0, #0
 8003314:	f000 fc70 	bl	8003bf8 <__set_BASEPRI>
 8003318:	f243 1095 	movw	r0, #12693	; 0x3195
 800331c:	f6c0 0000 	movt	r0, #2048	; 0x800
 8003320:	2100      	movs	r1, #0
 8003322:	22ff      	movs	r2, #255	; 0xff
 8003324:	2380      	movs	r3, #128	; 0x80
 8003326:	f000 f833 	bl	8003390 <OS_Create_Task_Simple>
 800332a:	3708      	adds	r7, #8
 800332c:	46bd      	mov	sp, r7
 800332e:	bd80      	pop	{r7, pc}

08003330 <_OS_Get_Stack>:
 8003330:	b480      	push	{r7}
 8003332:	b085      	sub	sp, #20
 8003334:	af00      	add	r7, sp, #0
 8003336:	6078      	str	r0, [r7, #4]
 8003338:	f240 0304 	movw	r3, #4
 800333c:	f2c2 0300 	movt	r3, #8192	; 0x2000
 8003340:	681b      	ldr	r3, [r3, #0]
 8003342:	60fb      	str	r3, [r7, #12]
 8003344:	687b      	ldr	r3, [r7, #4]
 8003346:	3307      	adds	r3, #7
 8003348:	f023 0307 	bic.w	r3, r3, #7
 800334c:	607b      	str	r3, [r7, #4]
 800334e:	687b      	ldr	r3, [r7, #4]
 8003350:	425b      	negs	r3, r3
 8003352:	68fa      	ldr	r2, [r7, #12]
 8003354:	441a      	add	r2, r3
 8003356:	f240 0308 	movw	r3, #8
 800335a:	f2c2 0300 	movt	r3, #8192	; 0x2000
 800335e:	681b      	ldr	r3, [r3, #0]
 8003360:	429a      	cmp	r2, r3
 8003362:	d201      	bcs.n	8003368 <_OS_Get_Stack+0x38>
 8003364:	2300      	movs	r3, #0
 8003366:	e00d      	b.n	8003384 <_OS_Get_Stack+0x54>
 8003368:	f240 0304 	movw	r3, #4
 800336c:	f2c2 0300 	movt	r3, #8192	; 0x2000
 8003370:	681a      	ldr	r2, [r3, #0]
 8003372:	687b      	ldr	r3, [r7, #4]
 8003374:	425b      	negs	r3, r3
 8003376:	441a      	add	r2, r3
 8003378:	f240 0304 	movw	r3, #4
 800337c:	f2c2 0300 	movt	r3, #8192	; 0x2000
 8003380:	601a      	str	r2, [r3, #0]
 8003382:	68fb      	ldr	r3, [r7, #12]
 8003384:	4618      	mov	r0, r3
 8003386:	3714      	adds	r7, #20
 8003388:	46bd      	mov	sp, r7
 800338a:	f85d 7b04 	ldr.w	r7, [sp], #4
 800338e:	4770      	bx	lr

08003390 <OS_Create_Task_Simple>:
 8003390:	b580      	push	{r7, lr}
 8003392:	b086      	sub	sp, #24
 8003394:	af00      	add	r7, sp, #0
 8003396:	60f8      	str	r0, [r7, #12]
 8003398:	60b9      	str	r1, [r7, #8]
 800339a:	607a      	str	r2, [r7, #4]
 800339c:	603b      	str	r3, [r7, #0]
 800339e:	2030      	movs	r0, #48	; 0x30
 80033a0:	f000 fc2a 	bl	8003bf8 <__set_BASEPRI>
 80033a4:	f243 4328 	movw	r3, #13352	; 0x3428
 80033a8:	f2c2 0300 	movt	r3, #8192	; 0x2000
 80033ac:	681b      	ldr	r3, [r3, #0]
 80033ae:	f24c 5074 	movw	r0, #50548	; 0xc574
 80033b2:	f6c0 0000 	movt	r0, #2048	; 0x800
 80033b6:	4619      	mov	r1, r3
 80033b8:	f002 ff78 	bl	80062ac <Uart1_Printf>
 80033bc:	f243 4328 	movw	r3, #13352	; 0x3428
 80033c0:	f2c2 0300 	movt	r3, #8192	; 0x2000
 80033c4:	681b      	ldr	r3, [r3, #0]
 80033c6:	2b3c      	cmp	r3, #60	; 0x3c
 80033c8:	dd02      	ble.n	80033d0 <OS_Create_Task_Simple+0x40>
 80033ca:	f04f 33ff 	mov.w	r3, #4294967295
 80033ce:	e06f      	b.n	80034b0 <OS_Create_Task_Simple+0x120>
 80033d0:	f243 4328 	movw	r3, #13352	; 0x3428
 80033d4:	f2c2 0300 	movt	r3, #8192	; 0x2000
 80033d8:	681a      	ldr	r2, [r3, #0]
 80033da:	4613      	mov	r3, r2
 80033dc:	005b      	lsls	r3, r3, #1
 80033de:	4413      	add	r3, r2
 80033e0:	011b      	lsls	r3, r3, #4
 80033e2:	f240 52c8 	movw	r2, #1480	; 0x5c8
 80033e6:	f2c2 0200 	movt	r2, #8192	; 0x2000
 80033ea:	4413      	add	r3, r2
 80033ec:	617b      	str	r3, [r7, #20]
 80033ee:	6838      	ldr	r0, [r7, #0]
 80033f0:	f7ff ff9e 	bl	8003330 <_OS_Get_Stack>
 80033f4:	4602      	mov	r2, r0
 80033f6:	697b      	ldr	r3, [r7, #20]
 80033f8:	601a      	str	r2, [r3, #0]
 80033fa:	697b      	ldr	r3, [r7, #20]
 80033fc:	681b      	ldr	r3, [r3, #0]
 80033fe:	2b00      	cmp	r3, #0
 8003400:	d102      	bne.n	8003408 <OS_Create_Task_Simple+0x78>
 8003402:	f06f 0301 	mvn.w	r3, #1
 8003406:	e053      	b.n	80034b0 <OS_Create_Task_Simple+0x120>
 8003408:	f243 4328 	movw	r3, #13352	; 0x3428
 800340c:	f2c2 0300 	movt	r3, #8192	; 0x2000
 8003410:	681b      	ldr	r3, [r3, #0]
 8003412:	1c5a      	adds	r2, r3, #1
 8003414:	f243 4328 	movw	r3, #13352	; 0x3428
 8003418:	f2c2 0300 	movt	r3, #8192	; 0x2000
 800341c:	601a      	str	r2, [r3, #0]
 800341e:	697b      	ldr	r3, [r7, #20]
 8003420:	681b      	ldr	r3, [r3, #0]
 8003422:	f1a3 0240 	sub.w	r2, r3, #64	; 0x40
 8003426:	697b      	ldr	r3, [r7, #20]
 8003428:	601a      	str	r2, [r3, #0]
 800342a:	697b      	ldr	r3, [r7, #20]
 800342c:	681b      	ldr	r3, [r3, #0]
 800342e:	3320      	adds	r3, #32
 8003430:	68ba      	ldr	r2, [r7, #8]
 8003432:	601a      	str	r2, [r3, #0]
 8003434:	697b      	ldr	r3, [r7, #20]
 8003436:	681b      	ldr	r3, [r3, #0]
 8003438:	3338      	adds	r3, #56	; 0x38
 800343a:	68fa      	ldr	r2, [r7, #12]
 800343c:	601a      	str	r2, [r3, #0]
 800343e:	697b      	ldr	r3, [r7, #20]
 8003440:	681b      	ldr	r3, [r3, #0]
 8003442:	333c      	adds	r3, #60	; 0x3c
 8003444:	f04f 7280 	mov.w	r2, #16777216	; 0x1000000
 8003448:	601a      	str	r2, [r3, #0]
 800344a:	697b      	ldr	r3, [r7, #20]
 800344c:	687a      	ldr	r2, [r7, #4]
 800344e:	609a      	str	r2, [r3, #8]
 8003450:	697b      	ldr	r3, [r7, #20]
 8003452:	2200      	movs	r2, #0
 8003454:	60da      	str	r2, [r3, #12]
 8003456:	f243 4320 	movw	r3, #13344	; 0x3420
 800345a:	f2c2 0300 	movt	r3, #8192	; 0x2000
 800345e:	e9d3 2300 	ldrd	r2, r3, [r3]
 8003462:	6979      	ldr	r1, [r7, #20]
 8003464:	e9c1 2304 	strd	r2, r3, [r1, #16]
 8003468:	697b      	ldr	r3, [r7, #20]
 800346a:	f04f 32ff 	mov.w	r2, #4294967295
 800346e:	621a      	str	r2, [r3, #32]
 8003470:	f243 2030 	movw	r0, #12848	; 0x3230
 8003474:	f2c2 0000 	movt	r0, #8192	; 0x2000
 8003478:	6979      	ldr	r1, [r7, #20]
 800347a:	f644 72c1 	movw	r2, #20417	; 0x4fc1
 800347e:	f6c0 0200 	movt	r2, #2048	; 0x800
 8003482:	f001 fe89 	bl	8005198 <pq_push>
 8003486:	f243 4328 	movw	r3, #13352	; 0x3428
 800348a:	f2c2 0300 	movt	r3, #8192	; 0x2000
 800348e:	681b      	ldr	r3, [r3, #0]
 8003490:	1e5a      	subs	r2, r3, #1
 8003492:	697b      	ldr	r3, [r7, #20]
 8003494:	681b      	ldr	r3, [r3, #0]
 8003496:	f24c 5090 	movw	r0, #50576	; 0xc590
 800349a:	f6c0 0000 	movt	r0, #2048	; 0x800
 800349e:	4611      	mov	r1, r2
 80034a0:	461a      	mov	r2, r3
 80034a2:	f002 ff03 	bl	80062ac <Uart1_Printf>
 80034a6:	2000      	movs	r0, #0
 80034a8:	f000 fba6 	bl	8003bf8 <__set_BASEPRI>
 80034ac:	697b      	ldr	r3, [r7, #20]
 80034ae:	685b      	ldr	r3, [r3, #4]
 80034b0:	4618      	mov	r0, r3
 80034b2:	3718      	adds	r7, #24
 80034b4:	46bd      	mov	sp, r7
 80034b6:	bd80      	pop	{r7, pc}

080034b8 <OS_Create_Queue>:
 80034b8:	b580      	push	{r7, lr}
 80034ba:	b084      	sub	sp, #16
 80034bc:	af00      	add	r7, sp, #0
 80034be:	6078      	str	r0, [r7, #4]
 80034c0:	6039      	str	r1, [r7, #0]
 80034c2:	2030      	movs	r0, #48	; 0x30
 80034c4:	f000 fb98 	bl	8003bf8 <__set_BASEPRI>
 80034c8:	2300      	movs	r3, #0
 80034ca:	60fb      	str	r3, [r7, #12]
 80034cc:	e034      	b.n	8003538 <OS_Create_Queue+0x80>
 80034ce:	f243 1238 	movw	r2, #12600	; 0x3138
 80034d2:	f2c2 0200 	movt	r2, #8192	; 0x2000
 80034d6:	68f9      	ldr	r1, [r7, #12]
 80034d8:	460b      	mov	r3, r1
 80034da:	005b      	lsls	r3, r3, #1
 80034dc:	440b      	add	r3, r1
 80034de:	00db      	lsls	r3, r3, #3
 80034e0:	4413      	add	r3, r2
 80034e2:	330c      	adds	r3, #12
 80034e4:	681b      	ldr	r3, [r3, #0]
 80034e6:	2b00      	cmp	r3, #0
 80034e8:	d123      	bne.n	8003532 <OS_Create_Queue+0x7a>
 80034ea:	68fa      	ldr	r2, [r7, #12]
 80034ec:	4613      	mov	r3, r2
 80034ee:	005b      	lsls	r3, r3, #1
 80034f0:	4413      	add	r3, r2
 80034f2:	00db      	lsls	r3, r3, #3
 80034f4:	f243 1238 	movw	r2, #12600	; 0x3138
 80034f8:	f2c2 0200 	movt	r2, #8192	; 0x2000
 80034fc:	441a      	add	r2, r3
 80034fe:	f243 2328 	movw	r3, #12840	; 0x3228
 8003502:	f2c2 0300 	movt	r3, #8192	; 0x2000
 8003506:	681b      	ldr	r3, [r3, #0]
 8003508:	685b      	ldr	r3, [r3, #4]
 800350a:	4610      	mov	r0, r2
 800350c:	6879      	ldr	r1, [r7, #4]
 800350e:	683a      	ldr	r2, [r7, #0]
 8003510:	f001 ff46 	bl	80053a0 <createQueue>
 8003514:	4603      	mov	r3, r0
 8003516:	2b00      	cmp	r3, #0
 8003518:	d108      	bne.n	800352c <OS_Create_Queue+0x74>
 800351a:	f24c 50b8 	movw	r0, #50616	; 0xc5b8
 800351e:	f6c0 0000 	movt	r0, #2048	; 0x800
 8003522:	68f9      	ldr	r1, [r7, #12]
 8003524:	f002 fec2 	bl	80062ac <Uart1_Printf>
 8003528:	68fb      	ldr	r3, [r7, #12]
 800352a:	e00d      	b.n	8003548 <OS_Create_Queue+0x90>
 800352c:	f06f 0302 	mvn.w	r3, #2
 8003530:	e00a      	b.n	8003548 <OS_Create_Queue+0x90>
 8003532:	68fb      	ldr	r3, [r7, #12]
 8003534:	3301      	adds	r3, #1
 8003536:	60fb      	str	r3, [r7, #12]
 8003538:	68fb      	ldr	r3, [r7, #12]
 800353a:	2b09      	cmp	r3, #9
 800353c:	ddc7      	ble.n	80034ce <OS_Create_Queue+0x16>
 800353e:	2000      	movs	r0, #0
 8003540:	f000 fb5a 	bl	8003bf8 <__set_BASEPRI>
 8003544:	f06f 0302 	mvn.w	r3, #2
 8003548:	4618      	mov	r0, r3
 800354a:	3710      	adds	r7, #16
 800354c:	46bd      	mov	sp, r7
 800354e:	bd80      	pop	{r7, pc}

08003550 <OS_Scheduler_Start>:
 8003550:	b580      	push	{r7, lr}
 8003552:	b082      	sub	sp, #8
 8003554:	af00      	add	r7, sp, #0
 8003556:	2030      	movs	r0, #48	; 0x30
 8003558:	f000 fb4e 	bl	8003bf8 <__set_BASEPRI>
 800355c:	f243 2030 	movw	r0, #12848	; 0x3230
 8003560:	f2c2 0000 	movt	r0, #8192	; 0x2000
 8003564:	f644 71c1 	movw	r1, #20417	; 0x4fc1
 8003568:	f6c0 0100 	movt	r1, #2048	; 0x800
 800356c:	f001 fe3e 	bl	80051ec <pq_pop>
 8003570:	4602      	mov	r2, r0
 8003572:	f243 2328 	movw	r3, #12840	; 0x3228
 8003576:	f2c2 0300 	movt	r3, #8192	; 0x2000
 800357a:	601a      	str	r2, [r3, #0]
 800357c:	f44f 436d 	mov.w	r3, #60672	; 0xed00
 8003580:	f2ce 0300 	movt	r3, #57344	; 0xe000
 8003584:	22f0      	movs	r2, #240	; 0xf0
 8003586:	f883 2023 	strb.w	r2, [r3, #35]	; 0x23
 800358a:	f44f 436d 	mov.w	r3, #60672	; 0xed00
 800358e:	f2ce 0300 	movt	r3, #57344	; 0xe000
 8003592:	22f0      	movs	r2, #240	; 0xf0
 8003594:	f883 2022 	strb.w	r2, [r3, #34]	; 0x22
 8003598:	2300      	movs	r3, #0
 800359a:	607b      	str	r3, [r7, #4]
 800359c:	e009      	b.n	80035b2 <OS_Scheduler_Start+0x62>
 800359e:	687b      	ldr	r3, [r7, #4]
 80035a0:	b2db      	uxtb	r3, r3
 80035a2:	b25b      	sxtb	r3, r3
 80035a4:	4618      	mov	r0, r3
 80035a6:	210e      	movs	r1, #14
 80035a8:	f7ff fdc8 	bl	800313c <NVIC_SetPriority>
 80035ac:	687b      	ldr	r3, [r7, #4]
 80035ae:	3301      	adds	r3, #1
 80035b0:	607b      	str	r3, [r7, #4]
 80035b2:	687b      	ldr	r3, [r7, #4]
 80035b4:	2b2a      	cmp	r3, #42	; 0x2a
 80035b6:	ddf2      	ble.n	800359e <OS_Scheduler_Start+0x4e>
 80035b8:	f243 2328 	movw	r3, #12840	; 0x3228
 80035bc:	f2c2 0300 	movt	r3, #8192	; 0x2000
 80035c0:	681b      	ldr	r3, [r3, #0]
 80035c2:	2202      	movs	r2, #2
 80035c4:	60da      	str	r2, [r3, #12]
 80035c6:	f240 0300 	movw	r3, #0
 80035ca:	f2c2 0300 	movt	r3, #8192	; 0x2000
 80035ce:	681b      	ldr	r3, [r3, #0]
 80035d0:	4618      	mov	r0, r3
 80035d2:	f002 fbf5 	bl	8005dc0 <SysTick_OS_Tick>
 80035d6:	2000      	movs	r0, #0
 80035d8:	f000 fb0e 	bl	8003bf8 <__set_BASEPRI>
 80035dc:	f002 ff40 	bl	8006460 <_OS_Start_First_Task>
 80035e0:	3708      	adds	r7, #8
 80035e2:	46bd      	mov	sp, r7
 80035e4:	bd80      	pop	{r7, pc}
 80035e6:	bf00      	nop

080035e8 <OS_Scheduler>:
 80035e8:	b580      	push	{r7, lr}
 80035ea:	af00      	add	r7, sp, #0
 80035ec:	f243 2030 	movw	r0, #12848	; 0x3230
 80035f0:	f2c2 0000 	movt	r0, #8192	; 0x2000
 80035f4:	f001 fe2c 	bl	8005250 <pq_top>
 80035f8:	4602      	mov	r2, r0
 80035fa:	f243 232c 	movw	r3, #12844	; 0x322c
 80035fe:	f2c2 0300 	movt	r3, #8192	; 0x2000
 8003602:	601a      	str	r2, [r3, #0]
 8003604:	f243 232c 	movw	r3, #12844	; 0x322c
 8003608:	f2c2 0300 	movt	r3, #8192	; 0x2000
 800360c:	681b      	ldr	r3, [r3, #0]
 800360e:	2b00      	cmp	r3, #0
 8003610:	d100      	bne.n	8003614 <OS_Scheduler+0x2c>
 8003612:	e059      	b.n	80036c8 <OS_Scheduler+0xe0>
 8003614:	f243 232c 	movw	r3, #12844	; 0x322c
 8003618:	f2c2 0300 	movt	r3, #8192	; 0x2000
 800361c:	681b      	ldr	r3, [r3, #0]
 800361e:	2b00      	cmp	r3, #0
 8003620:	d052      	beq.n	80036c8 <OS_Scheduler+0xe0>
 8003622:	f243 232c 	movw	r3, #12844	; 0x322c
 8003626:	f2c2 0300 	movt	r3, #8192	; 0x2000
 800362a:	681a      	ldr	r2, [r3, #0]
 800362c:	f243 2328 	movw	r3, #12840	; 0x3228
 8003630:	f2c2 0300 	movt	r3, #8192	; 0x2000
 8003634:	681b      	ldr	r3, [r3, #0]
 8003636:	429a      	cmp	r2, r3
 8003638:	d046      	beq.n	80036c8 <OS_Scheduler+0xe0>
 800363a:	f243 2030 	movw	r0, #12848	; 0x3230
 800363e:	f2c2 0000 	movt	r0, #8192	; 0x2000
 8003642:	f644 71c1 	movw	r1, #20417	; 0x4fc1
 8003646:	f6c0 0100 	movt	r1, #2048	; 0x800
 800364a:	f001 fdcf 	bl	80051ec <pq_pop>
 800364e:	f243 232c 	movw	r3, #12844	; 0x322c
 8003652:	f2c2 0300 	movt	r3, #8192	; 0x2000
 8003656:	681b      	ldr	r3, [r3, #0]
 8003658:	2202      	movs	r2, #2
 800365a:	60da      	str	r2, [r3, #12]
 800365c:	f243 2328 	movw	r3, #12840	; 0x3228
 8003660:	f2c2 0300 	movt	r3, #8192	; 0x2000
 8003664:	681b      	ldr	r3, [r3, #0]
 8003666:	68db      	ldr	r3, [r3, #12]
 8003668:	2b02      	cmp	r3, #2
 800366a:	d123      	bne.n	80036b4 <OS_Scheduler+0xcc>
 800366c:	f243 2328 	movw	r3, #12840	; 0x3228
 8003670:	f2c2 0300 	movt	r3, #8192	; 0x2000
 8003674:	681b      	ldr	r3, [r3, #0]
 8003676:	2200      	movs	r2, #0
 8003678:	60da      	str	r2, [r3, #12]
 800367a:	f243 2328 	movw	r3, #12840	; 0x3228
 800367e:	f2c2 0300 	movt	r3, #8192	; 0x2000
 8003682:	6819      	ldr	r1, [r3, #0]
 8003684:	f243 4320 	movw	r3, #13344	; 0x3420
 8003688:	f2c2 0300 	movt	r3, #8192	; 0x2000
 800368c:	e9d3 2300 	ldrd	r2, r3, [r3]
 8003690:	e9c1 2304 	strd	r2, r3, [r1, #16]
 8003694:	f243 2328 	movw	r3, #12840	; 0x3228
 8003698:	f2c2 0300 	movt	r3, #8192	; 0x2000
 800369c:	681b      	ldr	r3, [r3, #0]
 800369e:	f243 2030 	movw	r0, #12848	; 0x3230
 80036a2:	f2c2 0000 	movt	r0, #8192	; 0x2000
 80036a6:	4619      	mov	r1, r3
 80036a8:	f644 72c1 	movw	r2, #20417	; 0x4fc1
 80036ac:	f6c0 0200 	movt	r2, #2048	; 0x800
 80036b0:	f001 fd72 	bl	8005198 <pq_push>
 80036b4:	f243 232c 	movw	r3, #12844	; 0x322c
 80036b8:	f2c2 0300 	movt	r3, #8192	; 0x2000
 80036bc:	681a      	ldr	r2, [r3, #0]
 80036be:	f243 2328 	movw	r3, #12840	; 0x3228
 80036c2:	f2c2 0300 	movt	r3, #8192	; 0x2000
 80036c6:	601a      	str	r2, [r3, #0]
 80036c8:	bd80      	pop	{r7, pc}
 80036ca:	bf00      	nop

080036cc <OS_Tick>:
 80036cc:	b580      	push	{r7, lr}
 80036ce:	b082      	sub	sp, #8
 80036d0:	af00      	add	r7, sp, #0
 80036d2:	2030      	movs	r0, #48	; 0x30
 80036d4:	f000 fa90 	bl	8003bf8 <__set_BASEPRI>
 80036d8:	f240 0300 	movw	r3, #0
 80036dc:	f2c2 0300 	movt	r3, #8192	; 0x2000
 80036e0:	681b      	ldr	r3, [r3, #0]
 80036e2:	4618      	mov	r0, r3
 80036e4:	ea4f 71e0 	mov.w	r1, r0, asr #31
 80036e8:	f243 4320 	movw	r3, #13344	; 0x3420
 80036ec:	f2c2 0300 	movt	r3, #8192	; 0x2000
 80036f0:	e9d3 2300 	ldrd	r2, r3, [r3]
 80036f4:	1880      	adds	r0, r0, r2
 80036f6:	eb41 0103 	adc.w	r1, r1, r3
 80036fa:	f243 4320 	movw	r3, #13344	; 0x3420
 80036fe:	f2c2 0300 	movt	r3, #8192	; 0x2000
 8003702:	e9c3 0100 	strd	r0, r1, [r3]
 8003706:	e018      	b.n	800373a <OS_Tick+0x6e>
 8003708:	f243 3028 	movw	r0, #13096	; 0x3328
 800370c:	f2c2 0000 	movt	r0, #8192	; 0x2000
 8003710:	f644 716d 	movw	r1, #20333	; 0x4f6d
 8003714:	f6c0 0100 	movt	r1, #2048	; 0x800
 8003718:	f001 fd68 	bl	80051ec <pq_pop>
 800371c:	6078      	str	r0, [r7, #4]
 800371e:	687b      	ldr	r3, [r7, #4]
 8003720:	2200      	movs	r2, #0
 8003722:	60da      	str	r2, [r3, #12]
 8003724:	f243 2030 	movw	r0, #12848	; 0x3230
 8003728:	f2c2 0000 	movt	r0, #8192	; 0x2000
 800372c:	6879      	ldr	r1, [r7, #4]
 800372e:	f644 72c1 	movw	r2, #20417	; 0x4fc1
 8003732:	f6c0 0200 	movt	r2, #2048	; 0x800
 8003736:	f001 fd2f 	bl	8005198 <pq_push>
 800373a:	f243 3328 	movw	r3, #13096	; 0x3328
 800373e:	f2c2 0300 	movt	r3, #8192	; 0x2000
 8003742:	f8d3 30f4 	ldr.w	r3, [r3, #244]	; 0xf4
 8003746:	2b00      	cmp	r3, #0
 8003748:	dd12      	ble.n	8003770 <OS_Tick+0xa4>
 800374a:	f243 3028 	movw	r0, #13096	; 0x3328
 800374e:	f2c2 0000 	movt	r0, #8192	; 0x2000
 8003752:	f001 fd7d 	bl	8005250 <pq_top>
 8003756:	4603      	mov	r3, r0
 8003758:	e9d3 0106 	ldrd	r0, r1, [r3, #24]
 800375c:	f243 4320 	movw	r3, #13344	; 0x3420
 8003760:	f2c2 0300 	movt	r3, #8192	; 0x2000
 8003764:	e9d3 2300 	ldrd	r2, r3, [r3]
 8003768:	4282      	cmp	r2, r0
 800376a:	eb73 0c01 	sbcs.w	ip, r3, r1
 800376e:	dacb      	bge.n	8003708 <OS_Tick+0x3c>
 8003770:	2000      	movs	r0, #0
 8003772:	f000 fa41 	bl	8003bf8 <__set_BASEPRI>
 8003776:	3708      	adds	r7, #8
 8003778:	46bd      	mov	sp, r7
 800377a:	bd80      	pop	{r7, pc}

0800377c <OS_Signal_Wait>:
 800377c:	b580      	push	{r7, lr}
 800377e:	b086      	sub	sp, #24
 8003780:	af00      	add	r7, sp, #0
 8003782:	60f8      	str	r0, [r7, #12]
 8003784:	60b9      	str	r1, [r7, #8]
 8003786:	607a      	str	r2, [r7, #4]
 8003788:	603b      	str	r3, [r7, #0]
 800378a:	2030      	movs	r0, #48	; 0x30
 800378c:	f000 fa34 	bl	8003bf8 <__set_BASEPRI>
 8003790:	2300      	movs	r3, #0
 8003792:	617b      	str	r3, [r7, #20]
 8003794:	68fb      	ldr	r3, [r7, #12]
 8003796:	2b00      	cmp	r3, #0
 8003798:	db02      	blt.n	80037a0 <OS_Signal_Wait+0x24>
 800379a:	68fb      	ldr	r3, [r7, #12]
 800379c:	2b09      	cmp	r3, #9
 800379e:	dd05      	ble.n	80037ac <OS_Signal_Wait+0x30>
 80037a0:	2000      	movs	r0, #0
 80037a2:	f000 fa29 	bl	8003bf8 <__set_BASEPRI>
 80037a6:	f06f 0301 	mvn.w	r3, #1
 80037aa:	e088      	b.n	80038be <OS_Signal_Wait+0x142>
 80037ac:	f243 1238 	movw	r2, #12600	; 0x3138
 80037b0:	f2c2 0200 	movt	r2, #8192	; 0x2000
 80037b4:	68f9      	ldr	r1, [r7, #12]
 80037b6:	460b      	mov	r3, r1
 80037b8:	005b      	lsls	r3, r3, #1
 80037ba:	440b      	add	r3, r1
 80037bc:	00db      	lsls	r3, r3, #3
 80037be:	4413      	add	r3, r2
 80037c0:	330c      	adds	r3, #12
 80037c2:	681a      	ldr	r2, [r3, #0]
 80037c4:	687b      	ldr	r3, [r7, #4]
 80037c6:	429a      	cmp	r2, r3
 80037c8:	d005      	beq.n	80037d6 <OS_Signal_Wait+0x5a>
 80037ca:	2000      	movs	r0, #0
 80037cc:	f000 fa14 	bl	8003bf8 <__set_BASEPRI>
 80037d0:	f06f 0303 	mvn.w	r3, #3
 80037d4:	e073      	b.n	80038be <OS_Signal_Wait+0x142>
 80037d6:	f243 2328 	movw	r3, #12840	; 0x3228
 80037da:	f2c2 0300 	movt	r3, #8192	; 0x2000
 80037de:	681b      	ldr	r3, [r3, #0]
 80037e0:	6a9b      	ldr	r3, [r3, #40]	; 0x28
 80037e2:	2b02      	cmp	r3, #2
 80037e4:	d00c      	beq.n	8003800 <OS_Signal_Wait+0x84>
 80037e6:	f243 2328 	movw	r3, #12840	; 0x3228
 80037ea:	f2c2 0300 	movt	r3, #8192	; 0x2000
 80037ee:	681b      	ldr	r3, [r3, #0]
 80037f0:	2201      	movs	r2, #1
 80037f2:	629a      	str	r2, [r3, #40]	; 0x28
 80037f4:	6838      	ldr	r0, [r7, #0]
 80037f6:	f000 f8e1 	bl	80039bc <OS_Block_Current_Task>
 80037fa:	2030      	movs	r0, #48	; 0x30
 80037fc:	f000 f9fc 	bl	8003bf8 <__set_BASEPRI>
 8003800:	f243 2328 	movw	r3, #12840	; 0x3228
 8003804:	f2c2 0300 	movt	r3, #8192	; 0x2000
 8003808:	681b      	ldr	r3, [r3, #0]
 800380a:	6a9b      	ldr	r3, [r3, #40]	; 0x28
 800380c:	2b01      	cmp	r3, #1
 800380e:	d107      	bne.n	8003820 <OS_Signal_Wait+0xa4>
 8003810:	f04f 33ff 	mov.w	r3, #4294967295
 8003814:	617b      	str	r3, [r7, #20]
 8003816:	2000      	movs	r0, #0
 8003818:	f000 f9ee 	bl	8003bf8 <__set_BASEPRI>
 800381c:	697b      	ldr	r3, [r7, #20]
 800381e:	e04e      	b.n	80038be <OS_Signal_Wait+0x142>
 8003820:	f243 2328 	movw	r3, #12840	; 0x3228
 8003824:	f2c2 0300 	movt	r3, #8192	; 0x2000
 8003828:	681b      	ldr	r3, [r3, #0]
 800382a:	6a9b      	ldr	r3, [r3, #40]	; 0x28
 800382c:	2b02      	cmp	r3, #2
 800382e:	d11d      	bne.n	800386c <OS_Signal_Wait+0xf0>
 8003830:	68fa      	ldr	r2, [r7, #12]
 8003832:	4613      	mov	r3, r2
 8003834:	005b      	lsls	r3, r3, #1
 8003836:	4413      	add	r3, r2
 8003838:	00db      	lsls	r3, r3, #3
 800383a:	f243 1238 	movw	r2, #12600	; 0x3138
 800383e:	f2c2 0200 	movt	r2, #8192	; 0x2000
 8003842:	441a      	add	r2, r3
 8003844:	f243 2328 	movw	r3, #12840	; 0x3228
 8003848:	f2c2 0300 	movt	r3, #8192	; 0x2000
 800384c:	681b      	ldr	r3, [r3, #0]
 800384e:	685b      	ldr	r3, [r3, #4]
 8003850:	4610      	mov	r0, r2
 8003852:	68b9      	ldr	r1, [r7, #8]
 8003854:	461a      	mov	r2, r3
 8003856:	f001 fe4b 	bl	80054f0 <dequeue>
 800385a:	6178      	str	r0, [r7, #20]
 800385c:	697b      	ldr	r3, [r7, #20]
 800385e:	2b00      	cmp	r3, #0
 8003860:	d012      	beq.n	8003888 <OS_Signal_Wait+0x10c>
 8003862:	2000      	movs	r0, #0
 8003864:	f000 f9c8 	bl	8003bf8 <__set_BASEPRI>
 8003868:	697b      	ldr	r3, [r7, #20]
 800386a:	e028      	b.n	80038be <OS_Signal_Wait+0x142>
 800386c:	f24c 50d0 	movw	r0, #50640	; 0xc5d0
 8003870:	f6c0 0000 	movt	r0, #2048	; 0x800
 8003874:	f002 fd1a 	bl	80062ac <Uart1_Printf>
 8003878:	f06f 0301 	mvn.w	r3, #1
 800387c:	617b      	str	r3, [r7, #20]
 800387e:	2000      	movs	r0, #0
 8003880:	f000 f9ba 	bl	8003bf8 <__set_BASEPRI>
 8003884:	697b      	ldr	r3, [r7, #20]
 8003886:	e01a      	b.n	80038be <OS_Signal_Wait+0x142>
 8003888:	68fa      	ldr	r2, [r7, #12]
 800388a:	4613      	mov	r3, r2
 800388c:	005b      	lsls	r3, r3, #1
 800388e:	4413      	add	r3, r2
 8003890:	00db      	lsls	r3, r3, #3
 8003892:	f243 1238 	movw	r2, #12600	; 0x3138
 8003896:	f2c2 0200 	movt	r2, #8192	; 0x2000
 800389a:	4413      	add	r3, r2
 800389c:	4618      	mov	r0, r3
 800389e:	f001 fe67 	bl	8005570 <isEmpty>
 80038a2:	4603      	mov	r3, r0
 80038a4:	2b00      	cmp	r3, #0
 80038a6:	d006      	beq.n	80038b6 <OS_Signal_Wait+0x13a>
 80038a8:	f243 2328 	movw	r3, #12840	; 0x3228
 80038ac:	f2c2 0300 	movt	r3, #8192	; 0x2000
 80038b0:	681b      	ldr	r3, [r3, #0]
 80038b2:	2200      	movs	r2, #0
 80038b4:	629a      	str	r2, [r3, #40]	; 0x28
 80038b6:	2000      	movs	r0, #0
 80038b8:	f000 f99e 	bl	8003bf8 <__set_BASEPRI>
 80038bc:	697b      	ldr	r3, [r7, #20]
 80038be:	4618      	mov	r0, r3
 80038c0:	3718      	adds	r7, #24
 80038c2:	46bd      	mov	sp, r7
 80038c4:	bd80      	pop	{r7, pc}
 80038c6:	bf00      	nop

080038c8 <OS_Signal_Send>:
 80038c8:	b580      	push	{r7, lr}
 80038ca:	b084      	sub	sp, #16
 80038cc:	af00      	add	r7, sp, #0
 80038ce:	6078      	str	r0, [r7, #4]
 80038d0:	6039      	str	r1, [r7, #0]
 80038d2:	2030      	movs	r0, #48	; 0x30
 80038d4:	f000 f990 	bl	8003bf8 <__set_BASEPRI>
 80038d8:	687b      	ldr	r3, [r7, #4]
 80038da:	2b00      	cmp	r3, #0
 80038dc:	db02      	blt.n	80038e4 <OS_Signal_Send+0x1c>
 80038de:	687b      	ldr	r3, [r7, #4]
 80038e0:	2b09      	cmp	r3, #9
 80038e2:	dd00      	ble.n	80038e6 <OS_Signal_Send+0x1e>
 80038e4:	e066      	b.n	80039b4 <OS_Signal_Send+0xec>
 80038e6:	f243 1238 	movw	r2, #12600	; 0x3138
 80038ea:	f2c2 0200 	movt	r2, #8192	; 0x2000
 80038ee:	6879      	ldr	r1, [r7, #4]
 80038f0:	460b      	mov	r3, r1
 80038f2:	005b      	lsls	r3, r3, #1
 80038f4:	440b      	add	r3, r1
 80038f6:	00db      	lsls	r3, r3, #3
 80038f8:	4413      	add	r3, r2
 80038fa:	3314      	adds	r3, #20
 80038fc:	681b      	ldr	r3, [r3, #0]
 80038fe:	2b00      	cmp	r3, #0
 8003900:	db55      	blt.n	80039ae <OS_Signal_Send+0xe6>
 8003902:	f243 1238 	movw	r2, #12600	; 0x3138
 8003906:	f2c2 0200 	movt	r2, #8192	; 0x2000
 800390a:	6879      	ldr	r1, [r7, #4]
 800390c:	460b      	mov	r3, r1
 800390e:	005b      	lsls	r3, r3, #1
 8003910:	440b      	add	r3, r1
 8003912:	00db      	lsls	r3, r3, #3
 8003914:	4413      	add	r3, r2
 8003916:	3314      	adds	r3, #20
 8003918:	681b      	ldr	r3, [r3, #0]
 800391a:	2b3c      	cmp	r3, #60	; 0x3c
 800391c:	dc47      	bgt.n	80039ae <OS_Signal_Send+0xe6>
 800391e:	f243 1238 	movw	r2, #12600	; 0x3138
 8003922:	f2c2 0200 	movt	r2, #8192	; 0x2000
 8003926:	6879      	ldr	r1, [r7, #4]
 8003928:	460b      	mov	r3, r1
 800392a:	005b      	lsls	r3, r3, #1
 800392c:	440b      	add	r3, r1
 800392e:	00db      	lsls	r3, r3, #3
 8003930:	4413      	add	r3, r2
 8003932:	3314      	adds	r3, #20
 8003934:	681a      	ldr	r2, [r3, #0]
 8003936:	4613      	mov	r3, r2
 8003938:	005b      	lsls	r3, r3, #1
 800393a:	4413      	add	r3, r2
 800393c:	011b      	lsls	r3, r3, #4
 800393e:	f240 52c8 	movw	r2, #1480	; 0x5c8
 8003942:	f2c2 0200 	movt	r2, #8192	; 0x2000
 8003946:	4413      	add	r3, r2
 8003948:	60fb      	str	r3, [r7, #12]
 800394a:	68fb      	ldr	r3, [r7, #12]
 800394c:	6a9b      	ldr	r3, [r3, #40]	; 0x28
 800394e:	2b02      	cmp	r3, #2
 8003950:	d00c      	beq.n	800396c <OS_Signal_Send+0xa4>
 8003952:	68fb      	ldr	r3, [r7, #12]
 8003954:	6a9b      	ldr	r3, [r3, #40]	; 0x28
 8003956:	2b01      	cmp	r3, #1
 8003958:	d105      	bne.n	8003966 <OS_Signal_Send+0x9e>
 800395a:	68f8      	ldr	r0, [r7, #12]
 800395c:	f000 f880 	bl	8003a60 <OS_Unblock_Task>
 8003960:	2030      	movs	r0, #48	; 0x30
 8003962:	f000 f949 	bl	8003bf8 <__set_BASEPRI>
 8003966:	68fb      	ldr	r3, [r7, #12]
 8003968:	2202      	movs	r2, #2
 800396a:	629a      	str	r2, [r3, #40]	; 0x28
 800396c:	687a      	ldr	r2, [r7, #4]
 800396e:	4613      	mov	r3, r2
 8003970:	005b      	lsls	r3, r3, #1
 8003972:	4413      	add	r3, r2
 8003974:	00db      	lsls	r3, r3, #3
 8003976:	f243 1238 	movw	r2, #12600	; 0x3138
 800397a:	f2c2 0200 	movt	r2, #8192	; 0x2000
 800397e:	4413      	add	r3, r2
 8003980:	4618      	mov	r0, r3
 8003982:	6839      	ldr	r1, [r7, #0]
 8003984:	f001 fd76 	bl	8005474 <enqueue>
 8003988:	f243 1238 	movw	r2, #12600	; 0x3138
 800398c:	f2c2 0200 	movt	r2, #8192	; 0x2000
 8003990:	6879      	ldr	r1, [r7, #4]
 8003992:	460b      	mov	r3, r1
 8003994:	005b      	lsls	r3, r3, #1
 8003996:	440b      	add	r3, r1
 8003998:	00db      	lsls	r3, r3, #3
 800399a:	4413      	add	r3, r2
 800399c:	3308      	adds	r3, #8
 800399e:	681b      	ldr	r3, [r3, #0]
 80039a0:	f24c 50f0 	movw	r0, #50672	; 0xc5f0
 80039a4:	f6c0 0000 	movt	r0, #2048	; 0x800
 80039a8:	4619      	mov	r1, r3
 80039aa:	f002 fc7f 	bl	80062ac <Uart1_Printf>
 80039ae:	2000      	movs	r0, #0
 80039b0:	f000 f922 	bl	8003bf8 <__set_BASEPRI>
 80039b4:	3710      	adds	r7, #16
 80039b6:	46bd      	mov	sp, r7
 80039b8:	bd80      	pop	{r7, pc}
 80039ba:	bf00      	nop

080039bc <OS_Block_Current_Task>:
 80039bc:	b590      	push	{r4, r7, lr}
 80039be:	b083      	sub	sp, #12
 80039c0:	af00      	add	r7, sp, #0
 80039c2:	6078      	str	r0, [r7, #4]
 80039c4:	2030      	movs	r0, #48	; 0x30
 80039c6:	f000 f917 	bl	8003bf8 <__set_BASEPRI>
 80039ca:	f243 2328 	movw	r3, #12840	; 0x3228
 80039ce:	f2c2 0300 	movt	r3, #8192	; 0x2000
 80039d2:	681b      	ldr	r3, [r3, #0]
 80039d4:	f243 2030 	movw	r0, #12848	; 0x3230
 80039d8:	f2c2 0000 	movt	r0, #8192	; 0x2000
 80039dc:	4619      	mov	r1, r3
 80039de:	f644 72c1 	movw	r2, #20417	; 0x4fc1
 80039e2:	f6c0 0200 	movt	r2, #2048	; 0x800
 80039e6:	f001 fc47 	bl	8005278 <pq_remove>
 80039ea:	f243 2328 	movw	r3, #12840	; 0x3228
 80039ee:	f2c2 0300 	movt	r3, #8192	; 0x2000
 80039f2:	681b      	ldr	r3, [r3, #0]
 80039f4:	2201      	movs	r2, #1
 80039f6:	60da      	str	r2, [r3, #12]
 80039f8:	687b      	ldr	r3, [r7, #4]
 80039fa:	2b00      	cmp	r3, #0
 80039fc:	d104      	bne.n	8003a08 <OS_Block_Current_Task+0x4c>
 80039fe:	f44f 434a 	mov.w	r3, #51712	; 0xca00
 8003a02:	f6c3 339a 	movt	r3, #15258	; 0x3b9a
 8003a06:	607b      	str	r3, [r7, #4]
 8003a08:	f243 2328 	movw	r3, #12840	; 0x3228
 8003a0c:	f2c2 0300 	movt	r3, #8192	; 0x2000
 8003a10:	681c      	ldr	r4, [r3, #0]
 8003a12:	687b      	ldr	r3, [r7, #4]
 8003a14:	4618      	mov	r0, r3
 8003a16:	ea4f 71e0 	mov.w	r1, r0, asr #31
 8003a1a:	f243 4320 	movw	r3, #13344	; 0x3420
 8003a1e:	f2c2 0300 	movt	r3, #8192	; 0x2000
 8003a22:	e9d3 2300 	ldrd	r2, r3, [r3]
 8003a26:	1812      	adds	r2, r2, r0
 8003a28:	eb43 0301 	adc.w	r3, r3, r1
 8003a2c:	e9c4 2306 	strd	r2, r3, [r4, #24]
 8003a30:	f243 2328 	movw	r3, #12840	; 0x3228
 8003a34:	f2c2 0300 	movt	r3, #8192	; 0x2000
 8003a38:	681b      	ldr	r3, [r3, #0]
 8003a3a:	f243 3028 	movw	r0, #13096	; 0x3328
 8003a3e:	f2c2 0000 	movt	r0, #8192	; 0x2000
 8003a42:	4619      	mov	r1, r3
 8003a44:	f644 726d 	movw	r2, #20333	; 0x4f6d
 8003a48:	f6c0 0200 	movt	r2, #2048	; 0x800
 8003a4c:	f001 fba4 	bl	8005198 <pq_push>
 8003a50:	f000 f83a 	bl	8003ac8 <OS_Pend_Trigger>
 8003a54:	2000      	movs	r0, #0
 8003a56:	f000 f8cf 	bl	8003bf8 <__set_BASEPRI>
 8003a5a:	370c      	adds	r7, #12
 8003a5c:	46bd      	mov	sp, r7
 8003a5e:	bd90      	pop	{r4, r7, pc}

08003a60 <OS_Unblock_Task>:
 8003a60:	b580      	push	{r7, lr}
 8003a62:	b082      	sub	sp, #8
 8003a64:	af00      	add	r7, sp, #0
 8003a66:	6078      	str	r0, [r7, #4]
 8003a68:	2030      	movs	r0, #48	; 0x30
 8003a6a:	f000 f8c5 	bl	8003bf8 <__set_BASEPRI>
 8003a6e:	687b      	ldr	r3, [r7, #4]
 8003a70:	2b00      	cmp	r3, #0
 8003a72:	d100      	bne.n	8003a76 <OS_Unblock_Task+0x16>
 8003a74:	e024      	b.n	8003ac0 <OS_Unblock_Task+0x60>
 8003a76:	f243 3028 	movw	r0, #13096	; 0x3328
 8003a7a:	f2c2 0000 	movt	r0, #8192	; 0x2000
 8003a7e:	6879      	ldr	r1, [r7, #4]
 8003a80:	f644 726d 	movw	r2, #20333	; 0x4f6d
 8003a84:	f6c0 0200 	movt	r2, #2048	; 0x800
 8003a88:	f001 fbf6 	bl	8005278 <pq_remove>
 8003a8c:	687b      	ldr	r3, [r7, #4]
 8003a8e:	2200      	movs	r2, #0
 8003a90:	60da      	str	r2, [r3, #12]
 8003a92:	f243 4320 	movw	r3, #13344	; 0x3420
 8003a96:	f2c2 0300 	movt	r3, #8192	; 0x2000
 8003a9a:	e9d3 2300 	ldrd	r2, r3, [r3]
 8003a9e:	6879      	ldr	r1, [r7, #4]
 8003aa0:	e9c1 2304 	strd	r2, r3, [r1, #16]
 8003aa4:	f243 2030 	movw	r0, #12848	; 0x3230
 8003aa8:	f2c2 0000 	movt	r0, #8192	; 0x2000
 8003aac:	6879      	ldr	r1, [r7, #4]
 8003aae:	f644 72c1 	movw	r2, #20417	; 0x4fc1
 8003ab2:	f6c0 0200 	movt	r2, #2048	; 0x800
 8003ab6:	f001 fb6f 	bl	8005198 <pq_push>
 8003aba:	2000      	movs	r0, #0
 8003abc:	f000 f89c 	bl	8003bf8 <__set_BASEPRI>
 8003ac0:	3708      	adds	r7, #8
 8003ac2:	46bd      	mov	sp, r7
 8003ac4:	bd80      	pop	{r7, pc}
 8003ac6:	bf00      	nop

08003ac8 <OS_Pend_Trigger>:
 8003ac8:	b480      	push	{r7}
 8003aca:	af00      	add	r7, sp, #0
 8003acc:	f44f 436d 	mov.w	r3, #60672	; 0xed00
 8003ad0:	f2ce 0300 	movt	r3, #57344	; 0xe000
 8003ad4:	f44f 426d 	mov.w	r2, #60672	; 0xed00
 8003ad8:	f2ce 0200 	movt	r2, #57344	; 0xe000
 8003adc:	6852      	ldr	r2, [r2, #4]
 8003ade:	f042 5280 	orr.w	r2, r2, #268435456	; 0x10000000
 8003ae2:	605a      	str	r2, [r3, #4]
 8003ae4:	46bd      	mov	sp, r7
 8003ae6:	f85d 7b04 	ldr.w	r7, [sp], #4
 8003aea:	4770      	bx	lr

08003aec <PRINT_DUMMY>:
 8003aec:	b580      	push	{r7, lr}
 8003aee:	af00      	add	r7, sp, #0
 8003af0:	f24c 50fc 	movw	r0, #50684	; 0xc5fc
 8003af4:	f6c0 0000 	movt	r0, #2048	; 0x800
 8003af8:	f002 fbd8 	bl	80062ac <Uart1_Printf>
 8003afc:	bd80      	pop	{r7, pc}
 8003afe:	bf00      	nop

08003b00 <Clock_Init>:
 8003b00:	b480      	push	{r7}
 8003b02:	af00      	add	r7, sp, #0
 8003b04:	f44f 5380 	mov.w	r3, #4096	; 0x1000
 8003b08:	f2c4 0302 	movt	r3, #16386	; 0x4002
 8003b0c:	2201      	movs	r2, #1
 8003b0e:	601a      	str	r2, [r3, #0]
 8003b10:	f44f 5380 	mov.w	r3, #4096	; 0x1000
 8003b14:	f2c4 0302 	movt	r3, #16386	; 0x4002
 8003b18:	f44f 5280 	mov.w	r2, #4096	; 0x1000
 8003b1c:	f2c4 0202 	movt	r2, #16386	; 0x4002
 8003b20:	6812      	ldr	r2, [r2, #0]
 8003b22:	f442 3280 	orr.w	r2, r2, #65536	; 0x10000
 8003b26:	601a      	str	r2, [r3, #0]
 8003b28:	f44f 5380 	mov.w	r3, #4096	; 0x1000
 8003b2c:	f2c4 0302 	movt	r3, #16386	; 0x4002
 8003b30:	f44f 6280 	mov.w	r2, #1024	; 0x400
 8003b34:	f2c0 021d 	movt	r2, #29
 8003b38:	605a      	str	r2, [r3, #4]
 8003b3a:	f44f 5380 	mov.w	r3, #4096	; 0x1000
 8003b3e:	f2c4 0302 	movt	r3, #16386	; 0x4002
 8003b42:	f44f 5280 	mov.w	r2, #4096	; 0x1000
 8003b46:	f2c4 0202 	movt	r2, #16386	; 0x4002
 8003b4a:	6812      	ldr	r2, [r2, #0]
 8003b4c:	f042 7280 	orr.w	r2, r2, #16777216	; 0x1000000
 8003b50:	601a      	str	r2, [r3, #0]
 8003b52:	bf00      	nop
 8003b54:	f44f 5380 	mov.w	r3, #4096	; 0x1000
 8003b58:	f2c4 0302 	movt	r3, #16386	; 0x4002
 8003b5c:	681b      	ldr	r3, [r3, #0]
 8003b5e:	f003 7300 	and.w	r3, r3, #33554432	; 0x2000000
 8003b62:	2b00      	cmp	r3, #0
 8003b64:	d0f6      	beq.n	8003b54 <Clock_Init+0x54>
 8003b66:	f44f 5300 	mov.w	r3, #8192	; 0x2000
 8003b6a:	f2c4 0302 	movt	r3, #16386	; 0x4002
 8003b6e:	f44f 5200 	mov.w	r2, #8192	; 0x2000
 8003b72:	f2c4 0202 	movt	r2, #16386	; 0x4002
 8003b76:	6812      	ldr	r2, [r2, #0]
 8003b78:	f022 0203 	bic.w	r2, r2, #3
 8003b7c:	f042 0202 	orr.w	r2, r2, #2
 8003b80:	601a      	str	r2, [r3, #0]
 8003b82:	f44f 5380 	mov.w	r3, #4096	; 0x1000
 8003b86:	f2c4 0302 	movt	r3, #16386	; 0x4002
 8003b8a:	f44f 5280 	mov.w	r2, #4096	; 0x1000
 8003b8e:	f2c4 0202 	movt	r2, #16386	; 0x4002
 8003b92:	6852      	ldr	r2, [r2, #4]
 8003b94:	f022 0203 	bic.w	r2, r2, #3
 8003b98:	f042 0202 	orr.w	r2, r2, #2
 8003b9c:	605a      	str	r2, [r3, #4]
 8003b9e:	46bd      	mov	sp, r7
 8003ba0:	f85d 7b04 	ldr.w	r7, [sp], #4
 8003ba4:	4770      	bx	lr
 8003ba6:	bf00      	nop

08003ba8 <__get_PSP>:
 8003ba8:	2400      	movs	r4, #0
 8003baa:	f3ef 8309 	mrs	r3, PSP
 8003bae:	4618      	mov	r0, r3
 8003bb0:	4770      	bx	lr
 8003bb2:	461c      	mov	r4, r3
 8003bb4:	4623      	mov	r3, r4
 8003bb6:	4618      	mov	r0, r3

08003bb8 <__set_PSP>:
 8003bb8:	4603      	mov	r3, r0
 8003bba:	f383 8809 	msr	PSP, r3
 8003bbe:	4770      	bx	lr

08003bc0 <__get_MSP>:
 8003bc0:	2400      	movs	r4, #0
 8003bc2:	f3ef 8308 	mrs	r3, MSP
 8003bc6:	4618      	mov	r0, r3
 8003bc8:	4770      	bx	lr
 8003bca:	461c      	mov	r4, r3
 8003bcc:	4623      	mov	r3, r4
 8003bce:	4618      	mov	r0, r3

08003bd0 <__set_MSP>:
 8003bd0:	4603      	mov	r3, r0
 8003bd2:	f383 8808 	msr	MSP, r3
 8003bd6:	4770      	bx	lr

08003bd8 <__get_BASEPRI>:
 8003bd8:	b480      	push	{r7}
 8003bda:	b083      	sub	sp, #12
 8003bdc:	af00      	add	r7, sp, #0
 8003bde:	2300      	movs	r3, #0
 8003be0:	607b      	str	r3, [r7, #4]
 8003be2:	f3ef 8312 	mrs	r3, BASEPRI_MAX
 8003be6:	607b      	str	r3, [r7, #4]
 8003be8:	687b      	ldr	r3, [r7, #4]
 8003bea:	4618      	mov	r0, r3
 8003bec:	370c      	adds	r7, #12
 8003bee:	46bd      	mov	sp, r7
 8003bf0:	f85d 7b04 	ldr.w	r7, [sp], #4
 8003bf4:	4770      	bx	lr
 8003bf6:	bf00      	nop

08003bf8 <__set_BASEPRI>:
 8003bf8:	b480      	push	{r7}
 8003bfa:	b083      	sub	sp, #12
 8003bfc:	af00      	add	r7, sp, #0
 8003bfe:	6078      	str	r0, [r7, #4]
 8003c00:	687b      	ldr	r3, [r7, #4]
 8003c02:	f383 8811 	msr	BASEPRI, r3
 8003c06:	370c      	adds	r7, #12
 8003c08:	46bd      	mov	sp, r7
 8003c0a:	f85d 7b04 	ldr.w	r7, [sp], #4
 8003c0e:	4770      	bx	lr

08003c10 <__get_PRIMASK>:
 8003c10:	b480      	push	{r7}
 8003c12:	b083      	sub	sp, #12
 8003c14:	af00      	add	r7, sp, #0
 8003c16:	2300      	movs	r3, #0
 8003c18:	607b      	str	r3, [r7, #4]
 8003c1a:	f3ef 8310 	mrs	r3, PRIMASK
 8003c1e:	607b      	str	r3, [r7, #4]
 8003c20:	687b      	ldr	r3, [r7, #4]
 8003c22:	4618      	mov	r0, r3
 8003c24:	370c      	adds	r7, #12
 8003c26:	46bd      	mov	sp, r7
 8003c28:	f85d 7b04 	ldr.w	r7, [sp], #4
 8003c2c:	4770      	bx	lr
 8003c2e:	bf00      	nop

08003c30 <__set_PRIMASK>:
 8003c30:	b480      	push	{r7}
 8003c32:	b083      	sub	sp, #12
 8003c34:	af00      	add	r7, sp, #0
 8003c36:	6078      	str	r0, [r7, #4]
 8003c38:	687b      	ldr	r3, [r7, #4]
 8003c3a:	f383 8810 	msr	PRIMASK, r3
 8003c3e:	370c      	adds	r7, #12
 8003c40:	46bd      	mov	sp, r7
 8003c42:	f85d 7b04 	ldr.w	r7, [sp], #4
 8003c46:	4770      	bx	lr

08003c48 <__get_FAULTMASK>:
 8003c48:	b480      	push	{r7}
 8003c4a:	b083      	sub	sp, #12
 8003c4c:	af00      	add	r7, sp, #0
 8003c4e:	2300      	movs	r3, #0
 8003c50:	607b      	str	r3, [r7, #4]
 8003c52:	f3ef 8313 	mrs	r3, FAULTMASK
 8003c56:	607b      	str	r3, [r7, #4]
 8003c58:	687b      	ldr	r3, [r7, #4]
 8003c5a:	4618      	mov	r0, r3
 8003c5c:	370c      	adds	r7, #12
 8003c5e:	46bd      	mov	sp, r7
 8003c60:	f85d 7b04 	ldr.w	r7, [sp], #4
 8003c64:	4770      	bx	lr
 8003c66:	bf00      	nop

08003c68 <__set_FAULTMASK>:
 8003c68:	b480      	push	{r7}
 8003c6a:	b083      	sub	sp, #12
 8003c6c:	af00      	add	r7, sp, #0
 8003c6e:	6078      	str	r0, [r7, #4]
 8003c70:	687b      	ldr	r3, [r7, #4]
 8003c72:	f383 8813 	msr	FAULTMASK, r3
 8003c76:	370c      	adds	r7, #12
 8003c78:	46bd      	mov	sp, r7
 8003c7a:	f85d 7b04 	ldr.w	r7, [sp], #4
 8003c7e:	4770      	bx	lr

08003c80 <__get_CONTROL>:
 8003c80:	b480      	push	{r7}
 8003c82:	b083      	sub	sp, #12
 8003c84:	af00      	add	r7, sp, #0
 8003c86:	2300      	movs	r3, #0
 8003c88:	607b      	str	r3, [r7, #4]
 8003c8a:	f3ef 8314 	mrs	r3, CONTROL
 8003c8e:	607b      	str	r3, [r7, #4]
 8003c90:	687b      	ldr	r3, [r7, #4]
 8003c92:	4618      	mov	r0, r3
 8003c94:	370c      	adds	r7, #12
 8003c96:	46bd      	mov	sp, r7
 8003c98:	f85d 7b04 	ldr.w	r7, [sp], #4
 8003c9c:	4770      	bx	lr
 8003c9e:	bf00      	nop

08003ca0 <__set_CONTROL>:
 8003ca0:	b480      	push	{r7}
 8003ca2:	b083      	sub	sp, #12
 8003ca4:	af00      	add	r7, sp, #0
 8003ca6:	6078      	str	r0, [r7, #4]
 8003ca8:	687b      	ldr	r3, [r7, #4]
 8003caa:	f383 8814 	msr	CONTROL, r3
 8003cae:	370c      	adds	r7, #12
 8003cb0:	46bd      	mov	sp, r7
 8003cb2:	f85d 7b04 	ldr.w	r7, [sp], #4
 8003cb6:	4770      	bx	lr

08003cb8 <__REV>:
 8003cb8:	b480      	push	{r7}
 8003cba:	b085      	sub	sp, #20
 8003cbc:	af00      	add	r7, sp, #0
 8003cbe:	6078      	str	r0, [r7, #4]
 8003cc0:	2300      	movs	r3, #0
 8003cc2:	60fb      	str	r3, [r7, #12]
 8003cc4:	687b      	ldr	r3, [r7, #4]
 8003cc6:	ba1b      	rev	r3, r3
 8003cc8:	60fb      	str	r3, [r7, #12]
 8003cca:	68fb      	ldr	r3, [r7, #12]
 8003ccc:	4618      	mov	r0, r3
 8003cce:	3714      	adds	r7, #20
 8003cd0:	46bd      	mov	sp, r7
 8003cd2:	f85d 7b04 	ldr.w	r7, [sp], #4
 8003cd6:	4770      	bx	lr

08003cd8 <__REV16>:
 8003cd8:	b480      	push	{r7}
 8003cda:	b085      	sub	sp, #20
 8003cdc:	af00      	add	r7, sp, #0
 8003cde:	4603      	mov	r3, r0
 8003ce0:	80fb      	strh	r3, [r7, #6]
 8003ce2:	2300      	movs	r3, #0
 8003ce4:	60fb      	str	r3, [r7, #12]
 8003ce6:	88fb      	ldrh	r3, [r7, #6]
 8003ce8:	ba5b      	rev16	r3, r3
 8003cea:	60fb      	str	r3, [r7, #12]
 8003cec:	68fb      	ldr	r3, [r7, #12]
 8003cee:	4618      	mov	r0, r3
 8003cf0:	3714      	adds	r7, #20
 8003cf2:	46bd      	mov	sp, r7
 8003cf4:	f85d 7b04 	ldr.w	r7, [sp], #4
 8003cf8:	4770      	bx	lr
 8003cfa:	bf00      	nop

08003cfc <__REVSH>:
 8003cfc:	b480      	push	{r7}
 8003cfe:	b085      	sub	sp, #20
 8003d00:	af00      	add	r7, sp, #0
 8003d02:	4603      	mov	r3, r0
 8003d04:	80fb      	strh	r3, [r7, #6]
 8003d06:	2300      	movs	r3, #0
 8003d08:	60fb      	str	r3, [r7, #12]
 8003d0a:	88fb      	ldrh	r3, [r7, #6]
 8003d0c:	badb      	revsh	r3, r3
 8003d0e:	60fb      	str	r3, [r7, #12]
 8003d10:	68fb      	ldr	r3, [r7, #12]
 8003d12:	4618      	mov	r0, r3
 8003d14:	3714      	adds	r7, #20
 8003d16:	46bd      	mov	sp, r7
 8003d18:	f85d 7b04 	ldr.w	r7, [sp], #4
 8003d1c:	4770      	bx	lr
 8003d1e:	bf00      	nop

08003d20 <__RBIT>:
 8003d20:	b480      	push	{r7}
 8003d22:	b085      	sub	sp, #20
 8003d24:	af00      	add	r7, sp, #0
 8003d26:	6078      	str	r0, [r7, #4]
 8003d28:	2300      	movs	r3, #0
 8003d2a:	60fb      	str	r3, [r7, #12]
 8003d2c:	687b      	ldr	r3, [r7, #4]
 8003d2e:	fa93 f3a3 	rbit	r3, r3
 8003d32:	60fb      	str	r3, [r7, #12]
 8003d34:	68fb      	ldr	r3, [r7, #12]
 8003d36:	4618      	mov	r0, r3
 8003d38:	3714      	adds	r7, #20
 8003d3a:	46bd      	mov	sp, r7
 8003d3c:	f85d 7b04 	ldr.w	r7, [sp], #4
 8003d40:	4770      	bx	lr
 8003d42:	bf00      	nop

08003d44 <__LDREXB>:
 8003d44:	b480      	push	{r7}
 8003d46:	b085      	sub	sp, #20
 8003d48:	af00      	add	r7, sp, #0
 8003d4a:	6078      	str	r0, [r7, #4]
 8003d4c:	2300      	movs	r3, #0
 8003d4e:	73fb      	strb	r3, [r7, #15]
 8003d50:	687b      	ldr	r3, [r7, #4]
 8003d52:	e8d3 3f4f 	ldrexb	r3, [r3]
 8003d56:	73fb      	strb	r3, [r7, #15]
 8003d58:	7bfb      	ldrb	r3, [r7, #15]
 8003d5a:	4618      	mov	r0, r3
 8003d5c:	3714      	adds	r7, #20
 8003d5e:	46bd      	mov	sp, r7
 8003d60:	f85d 7b04 	ldr.w	r7, [sp], #4
 8003d64:	4770      	bx	lr
 8003d66:	bf00      	nop

08003d68 <__LDREXH>:
 8003d68:	b480      	push	{r7}
 8003d6a:	b085      	sub	sp, #20
 8003d6c:	af00      	add	r7, sp, #0
 8003d6e:	6078      	str	r0, [r7, #4]
 8003d70:	2300      	movs	r3, #0
 8003d72:	81fb      	strh	r3, [r7, #14]
 8003d74:	687b      	ldr	r3, [r7, #4]
 8003d76:	e8d3 3f5f 	ldrexh	r3, [r3]
 8003d7a:	81fb      	strh	r3, [r7, #14]
 8003d7c:	89fb      	ldrh	r3, [r7, #14]
 8003d7e:	4618      	mov	r0, r3
 8003d80:	3714      	adds	r7, #20
 8003d82:	46bd      	mov	sp, r7
 8003d84:	f85d 7b04 	ldr.w	r7, [sp], #4
 8003d88:	4770      	bx	lr
 8003d8a:	bf00      	nop

08003d8c <__LDREXW>:
 8003d8c:	b480      	push	{r7}
 8003d8e:	b085      	sub	sp, #20
 8003d90:	af00      	add	r7, sp, #0
 8003d92:	6078      	str	r0, [r7, #4]
 8003d94:	2300      	movs	r3, #0
 8003d96:	60fb      	str	r3, [r7, #12]
 8003d98:	687b      	ldr	r3, [r7, #4]
 8003d9a:	e853 3f00 	ldrex	r3, [r3]
 8003d9e:	60fb      	str	r3, [r7, #12]
 8003da0:	68fb      	ldr	r3, [r7, #12]
 8003da2:	4618      	mov	r0, r3
 8003da4:	3714      	adds	r7, #20
 8003da6:	46bd      	mov	sp, r7
 8003da8:	f85d 7b04 	ldr.w	r7, [sp], #4
 8003dac:	4770      	bx	lr
 8003dae:	bf00      	nop

08003db0 <__STREXB>:
 8003db0:	b480      	push	{r7}
 8003db2:	b085      	sub	sp, #20
 8003db4:	af00      	add	r7, sp, #0
 8003db6:	4603      	mov	r3, r0
 8003db8:	6039      	str	r1, [r7, #0]
 8003dba:	71fb      	strb	r3, [r7, #7]
 8003dbc:	2300      	movs	r3, #0
 8003dbe:	60fb      	str	r3, [r7, #12]
 8003dc0:	683a      	ldr	r2, [r7, #0]
 8003dc2:	79f9      	ldrb	r1, [r7, #7]
 8003dc4:	e8c2 1f43 	strexb	r3, r1, [r2]
 8003dc8:	60fb      	str	r3, [r7, #12]
 8003dca:	68fb      	ldr	r3, [r7, #12]
 8003dcc:	4618      	mov	r0, r3
 8003dce:	3714      	adds	r7, #20
 8003dd0:	46bd      	mov	sp, r7
 8003dd2:	f85d 7b04 	ldr.w	r7, [sp], #4
 8003dd6:	4770      	bx	lr

08003dd8 <__STREXH>:
 8003dd8:	b480      	push	{r7}
 8003dda:	b085      	sub	sp, #20
 8003ddc:	af00      	add	r7, sp, #0
 8003dde:	4603      	mov	r3, r0
 8003de0:	6039      	str	r1, [r7, #0]
 8003de2:	80fb      	strh	r3, [r7, #6]
 8003de4:	2300      	movs	r3, #0
 8003de6:	60fb      	str	r3, [r7, #12]
 8003de8:	683a      	ldr	r2, [r7, #0]
 8003dea:	88f9      	ldrh	r1, [r7, #6]
 8003dec:	e8c2 1f53 	strexh	r3, r1, [r2]
 8003df0:	60fb      	str	r3, [r7, #12]
 8003df2:	68fb      	ldr	r3, [r7, #12]
 8003df4:	4618      	mov	r0, r3
 8003df6:	3714      	adds	r7, #20
 8003df8:	46bd      	mov	sp, r7
 8003dfa:	f85d 7b04 	ldr.w	r7, [sp], #4
 8003dfe:	4770      	bx	lr

08003e00 <__STREXW>:
 8003e00:	b480      	push	{r7}
 8003e02:	b085      	sub	sp, #20
 8003e04:	af00      	add	r7, sp, #0
 8003e06:	6078      	str	r0, [r7, #4]
 8003e08:	6039      	str	r1, [r7, #0]
 8003e0a:	2300      	movs	r3, #0
 8003e0c:	60fb      	str	r3, [r7, #12]
 8003e0e:	683b      	ldr	r3, [r7, #0]
 8003e10:	687a      	ldr	r2, [r7, #4]
 8003e12:	e843 2300 	strex	r3, r2, [r3]
 8003e16:	60fb      	str	r3, [r7, #12]
 8003e18:	68fb      	ldr	r3, [r7, #12]
 8003e1a:	4618      	mov	r0, r3
 8003e1c:	3714      	adds	r7, #20
 8003e1e:	46bd      	mov	sp, r7
 8003e20:	f85d 7b04 	ldr.w	r7, [sp], #4
 8003e24:	4770      	bx	lr
 8003e26:	bf00      	nop

08003e28 <NVIC_EnableIRQ>:
 8003e28:	b480      	push	{r7}
 8003e2a:	b083      	sub	sp, #12
 8003e2c:	af00      	add	r7, sp, #0
 8003e2e:	4603      	mov	r3, r0
 8003e30:	71fb      	strb	r3, [r7, #7]
 8003e32:	f44f 4361 	mov.w	r3, #57600	; 0xe100
 8003e36:	f2ce 0300 	movt	r3, #57344	; 0xe000
 8003e3a:	f997 2007 	ldrsb.w	r2, [r7, #7]
 8003e3e:	0952      	lsrs	r2, r2, #5
 8003e40:	79f9      	ldrb	r1, [r7, #7]
 8003e42:	f001 011f 	and.w	r1, r1, #31
 8003e46:	2001      	movs	r0, #1
 8003e48:	fa00 f101 	lsl.w	r1, r0, r1
 8003e4c:	f843 1022 	str.w	r1, [r3, r2, lsl #2]
 8003e50:	370c      	adds	r7, #12
 8003e52:	46bd      	mov	sp, r7
 8003e54:	f85d 7b04 	ldr.w	r7, [sp], #4
 8003e58:	4770      	bx	lr
 8003e5a:	bf00      	nop

08003e5c <NVIC_ClearPendingIRQ>:
 8003e5c:	b480      	push	{r7}
 8003e5e:	b083      	sub	sp, #12
 8003e60:	af00      	add	r7, sp, #0
 8003e62:	4603      	mov	r3, r0
 8003e64:	71fb      	strb	r3, [r7, #7]
 8003e66:	f44f 4361 	mov.w	r3, #57600	; 0xe100
 8003e6a:	f2ce 0300 	movt	r3, #57344	; 0xe000
 8003e6e:	f997 2007 	ldrsb.w	r2, [r7, #7]
 8003e72:	0952      	lsrs	r2, r2, #5
 8003e74:	79f9      	ldrb	r1, [r7, #7]
 8003e76:	f001 011f 	and.w	r1, r1, #31
 8003e7a:	2001      	movs	r0, #1
 8003e7c:	fa00 f101 	lsl.w	r1, r0, r1
 8003e80:	3260      	adds	r2, #96	; 0x60
 8003e82:	f843 1022 	str.w	r1, [r3, r2, lsl #2]
 8003e86:	370c      	adds	r7, #12
 8003e88:	46bd      	mov	sp, r7
 8003e8a:	f85d 7b04 	ldr.w	r7, [sp], #4
 8003e8e:	4770      	bx	lr

08003e90 <Key_Poll_Init>:
 8003e90:	b480      	push	{r7}
 8003e92:	af00      	add	r7, sp, #0
 8003e94:	f44f 5380 	mov.w	r3, #4096	; 0x1000
 8003e98:	f2c4 0302 	movt	r3, #16386	; 0x4002
 8003e9c:	f44f 5280 	mov.w	r2, #4096	; 0x1000
 8003ea0:	f2c4 0202 	movt	r2, #16386	; 0x4002
 8003ea4:	6992      	ldr	r2, [r2, #24]
 8003ea6:	f042 0201 	orr.w	r2, r2, #1
 8003eaa:	619a      	str	r2, [r3, #24]
 8003eac:	f44f 5380 	mov.w	r3, #4096	; 0x1000
 8003eb0:	f2c4 0302 	movt	r3, #16386	; 0x4002
 8003eb4:	f44f 5280 	mov.w	r2, #4096	; 0x1000
 8003eb8:	f2c4 0202 	movt	r2, #16386	; 0x4002
 8003ebc:	6992      	ldr	r2, [r2, #24]
 8003ebe:	f042 020c 	orr.w	r2, r2, #12
 8003ec2:	619a      	str	r2, [r3, #24]
 8003ec4:	2300      	movs	r3, #0
 8003ec6:	f2c4 0301 	movt	r3, #16385	; 0x4001
 8003eca:	2200      	movs	r2, #0
 8003ecc:	f2c4 0201 	movt	r2, #16385	; 0x4001
 8003ed0:	6852      	ldr	r2, [r2, #4]
 8003ed2:	f022 62e0 	bic.w	r2, r2, #117440512	; 0x7000000
 8003ed6:	f042 6280 	orr.w	r2, r2, #67108864	; 0x4000000
 8003eda:	605a      	str	r2, [r3, #4]
 8003edc:	f44f 6340 	mov.w	r3, #3072	; 0xc00
 8003ee0:	f2c4 0301 	movt	r3, #16385	; 0x4001
 8003ee4:	f44f 6240 	mov.w	r2, #3072	; 0xc00
 8003ee8:	f2c4 0201 	movt	r2, #16385	; 0x4001
 8003eec:	6812      	ldr	r2, [r2, #0]
 8003eee:	f422 4270 	bic.w	r2, r2, #61440	; 0xf000
 8003ef2:	f442 4200 	orr.w	r2, r2, #32768	; 0x8000
 8003ef6:	601a      	str	r2, [r3, #0]
 8003ef8:	f44f 6340 	mov.w	r3, #3072	; 0xc00
 8003efc:	f2c4 0301 	movt	r3, #16385	; 0x4001
 8003f00:	f44f 6240 	mov.w	r2, #3072	; 0xc00
 8003f04:	f2c4 0201 	movt	r2, #16385	; 0x4001
 8003f08:	68d2      	ldr	r2, [r2, #12]
 8003f0a:	f042 0208 	orr.w	r2, r2, #8
 8003f0e:	60da      	str	r2, [r3, #12]
 8003f10:	f44f 6340 	mov.w	r3, #3072	; 0xc00
 8003f14:	f2c4 0301 	movt	r3, #16385	; 0x4001
 8003f18:	f44f 6240 	mov.w	r2, #3072	; 0xc00
 8003f1c:	f2c4 0201 	movt	r2, #16385	; 0x4001
 8003f20:	6812      	ldr	r2, [r2, #0]
 8003f22:	f3c2 0213 	ubfx	r2, r2, #0, #20
 8003f26:	f042 4208 	orr.w	r2, r2, #2281701376	; 0x88000000
 8003f2a:	f442 0200 	orr.w	r2, r2, #8388608	; 0x800000
 8003f2e:	601a      	str	r2, [r3, #0]
 8003f30:	f44f 6340 	mov.w	r3, #3072	; 0xc00
 8003f34:	f2c4 0301 	movt	r3, #16385	; 0x4001
 8003f38:	f44f 6240 	mov.w	r2, #3072	; 0xc00
 8003f3c:	f2c4 0201 	movt	r2, #16385	; 0x4001
 8003f40:	68d2      	ldr	r2, [r2, #12]
 8003f42:	f042 02e0 	orr.w	r2, r2, #224	; 0xe0
 8003f46:	60da      	str	r2, [r3, #12]
 8003f48:	f44f 6300 	mov.w	r3, #2048	; 0x800
 8003f4c:	f2c4 0301 	movt	r3, #16385	; 0x4001
 8003f50:	f44f 6200 	mov.w	r2, #2048	; 0x800
 8003f54:	f2c4 0201 	movt	r2, #16385	; 0x4001
 8003f58:	6852      	ldr	r2, [r2, #4]
 8003f5a:	f022 627f 	bic.w	r2, r2, #267386880	; 0xff00000
 8003f5e:	f042 6208 	orr.w	r2, r2, #142606336	; 0x8800000
 8003f62:	605a      	str	r2, [r3, #4]
 8003f64:	f44f 6300 	mov.w	r3, #2048	; 0x800
 8003f68:	f2c4 0301 	movt	r3, #16385	; 0x4001
 8003f6c:	f44f 6200 	mov.w	r2, #2048	; 0x800
 8003f70:	f2c4 0201 	movt	r2, #16385	; 0x4001
 8003f74:	68d2      	ldr	r2, [r2, #12]
 8003f76:	f442 42c0 	orr.w	r2, r2, #24576	; 0x6000
 8003f7a:	60da      	str	r2, [r3, #12]
 8003f7c:	46bd      	mov	sp, r7
 8003f7e:	f85d 7b04 	ldr.w	r7, [sp], #4
 8003f82:	4770      	bx	lr

08003f84 <Key_Get_Pressed>:
 8003f84:	b480      	push	{r7}
 8003f86:	b083      	sub	sp, #12
 8003f88:	af00      	add	r7, sp, #0
 8003f8a:	2300      	movs	r3, #0
 8003f8c:	607b      	str	r3, [r7, #4]
 8003f8e:	f44f 6340 	mov.w	r3, #3072	; 0xc00
 8003f92:	f2c4 0301 	movt	r3, #16385	; 0x4001
 8003f96:	689b      	ldr	r3, [r3, #8]
 8003f98:	f003 0308 	and.w	r3, r3, #8
 8003f9c:	2b00      	cmp	r3, #0
 8003f9e:	bf14      	ite	ne
 8003fa0:	2300      	movne	r3, #0
 8003fa2:	2301      	moveq	r3, #1
 8003fa4:	b2db      	uxtb	r3, r3
 8003fa6:	607b      	str	r3, [r7, #4]
 8003fa8:	f44f 6340 	mov.w	r3, #3072	; 0xc00
 8003fac:	f2c4 0301 	movt	r3, #16385	; 0x4001
 8003fb0:	689b      	ldr	r3, [r3, #8]
 8003fb2:	43db      	mvns	r3, r3
 8003fb4:	095b      	lsrs	r3, r3, #5
 8003fb6:	f003 0307 	and.w	r3, r3, #7
 8003fba:	005a      	lsls	r2, r3, #1
 8003fbc:	687b      	ldr	r3, [r7, #4]
 8003fbe:	4313      	orrs	r3, r2
 8003fc0:	607b      	str	r3, [r7, #4]
 8003fc2:	f44f 6300 	mov.w	r3, #2048	; 0x800
 8003fc6:	f2c4 0301 	movt	r3, #16385	; 0x4001
 8003fca:	689b      	ldr	r3, [r3, #8]
 8003fcc:	43db      	mvns	r3, r3
 8003fce:	0b5b      	lsrs	r3, r3, #13
 8003fd0:	f003 0303 	and.w	r3, r3, #3
 8003fd4:	011a      	lsls	r2, r3, #4
 8003fd6:	687b      	ldr	r3, [r7, #4]
 8003fd8:	4313      	orrs	r3, r2
 8003fda:	607b      	str	r3, [r7, #4]
 8003fdc:	687b      	ldr	r3, [r7, #4]
 8003fde:	4618      	mov	r0, r3
 8003fe0:	370c      	adds	r7, #12
 8003fe2:	46bd      	mov	sp, r7
 8003fe4:	f85d 7b04 	ldr.w	r7, [sp], #4
 8003fe8:	4770      	bx	lr
 8003fea:	bf00      	nop

08003fec <Key_Wait_Key_Pressed>:
 8003fec:	b580      	push	{r7, lr}
 8003fee:	b082      	sub	sp, #8
 8003ff0:	af00      	add	r7, sp, #0
 8003ff2:	2300      	movs	r3, #0
 8003ff4:	607b      	str	r3, [r7, #4]
 8003ff6:	f7ff ffc5 	bl	8003f84 <Key_Get_Pressed>
 8003ffa:	6078      	str	r0, [r7, #4]
 8003ffc:	687b      	ldr	r3, [r7, #4]
 8003ffe:	2b00      	cmp	r3, #0
 8004000:	d0f9      	beq.n	8003ff6 <Key_Wait_Key_Pressed+0xa>
 8004002:	687b      	ldr	r3, [r7, #4]
 8004004:	4618      	mov	r0, r3
 8004006:	3708      	adds	r7, #8
 8004008:	46bd      	mov	sp, r7
 800400a:	bd80      	pop	{r7, pc}

0800400c <Key_Wait_Key_Released>:
 800400c:	b580      	push	{r7, lr}
 800400e:	af00      	add	r7, sp, #0
 8004010:	bf00      	nop
 8004012:	f7ff ffb7 	bl	8003f84 <Key_Get_Pressed>
 8004016:	4603      	mov	r3, r0
 8004018:	2b00      	cmp	r3, #0
 800401a:	d1fa      	bne.n	8004012 <Key_Wait_Key_Released+0x6>
 800401c:	bd80      	pop	{r7, pc}
 800401e:	bf00      	nop

08004020 <Key_ISR_Enable>:
 8004020:	b580      	push	{r7, lr}
 8004022:	b082      	sub	sp, #8
 8004024:	af00      	add	r7, sp, #0
 8004026:	6078      	str	r0, [r7, #4]
 8004028:	687b      	ldr	r3, [r7, #4]
 800402a:	2b00      	cmp	r3, #0
 800402c:	f000 80ac 	beq.w	8004188 <Key_ISR_Enable+0x168>
 8004030:	f44f 5380 	mov.w	r3, #4096	; 0x1000
 8004034:	f2c4 0302 	movt	r3, #16386	; 0x4002
 8004038:	f44f 5280 	mov.w	r2, #4096	; 0x1000
 800403c:	f2c4 0202 	movt	r2, #16386	; 0x4002
 8004040:	6992      	ldr	r2, [r2, #24]
 8004042:	f042 0208 	orr.w	r2, r2, #8
 8004046:	619a      	str	r2, [r3, #24]
 8004048:	f44f 5380 	mov.w	r3, #4096	; 0x1000
 800404c:	f2c4 0302 	movt	r3, #16386	; 0x4002
 8004050:	f44f 5280 	mov.w	r2, #4096	; 0x1000
 8004054:	f2c4 0202 	movt	r2, #16386	; 0x4002
 8004058:	6992      	ldr	r2, [r2, #24]
 800405a:	f042 0204 	orr.w	r2, r2, #4
 800405e:	619a      	str	r2, [r3, #24]
 8004060:	f44f 5380 	mov.w	r3, #4096	; 0x1000
 8004064:	f2c4 0302 	movt	r3, #16386	; 0x4002
 8004068:	f44f 5280 	mov.w	r2, #4096	; 0x1000
 800406c:	f2c4 0202 	movt	r2, #16386	; 0x4002
 8004070:	6992      	ldr	r2, [r2, #24]
 8004072:	f042 0201 	orr.w	r2, r2, #1
 8004076:	619a      	str	r2, [r3, #24]
 8004078:	2300      	movs	r3, #0
 800407a:	f2c4 0301 	movt	r3, #16385	; 0x4001
 800407e:	2200      	movs	r2, #0
 8004080:	f2c4 0201 	movt	r2, #16385	; 0x4001
 8004084:	6892      	ldr	r2, [r2, #8]
 8004086:	f422 4270 	bic.w	r2, r2, #61440	; 0xf000
 800408a:	f442 5280 	orr.w	r2, r2, #4096	; 0x1000
 800408e:	609a      	str	r2, [r3, #8]
 8004090:	2300      	movs	r3, #0
 8004092:	f2c4 0301 	movt	r3, #16385	; 0x4001
 8004096:	2200      	movs	r2, #0
 8004098:	f2c4 0201 	movt	r2, #16385	; 0x4001
 800409c:	68d2      	ldr	r2, [r2, #12]
 800409e:	f422 427f 	bic.w	r2, r2, #65280	; 0xff00
 80040a2:	f022 02f0 	bic.w	r2, r2, #240	; 0xf0
 80040a6:	f442 5288 	orr.w	r2, r2, #4352	; 0x1100
 80040aa:	f042 0210 	orr.w	r2, r2, #16
 80040ae:	60da      	str	r2, [r3, #12]
 80040b0:	2300      	movs	r3, #0
 80040b2:	f2c4 0301 	movt	r3, #16385	; 0x4001
 80040b6:	2200      	movs	r2, #0
 80040b8:	f2c4 0201 	movt	r2, #16385	; 0x4001
 80040bc:	6952      	ldr	r2, [r2, #20]
 80040be:	f422 627f 	bic.w	r2, r2, #4080	; 0xff0
 80040c2:	615a      	str	r2, [r3, #20]
 80040c4:	f44f 6380 	mov.w	r3, #1024	; 0x400
 80040c8:	f2c4 0301 	movt	r3, #16385	; 0x4001
 80040cc:	f44f 6280 	mov.w	r2, #1024	; 0x400
 80040d0:	f2c4 0201 	movt	r2, #16385	; 0x4001
 80040d4:	68d2      	ldr	r2, [r2, #12]
 80040d6:	f442 42c0 	orr.w	r2, r2, #24576	; 0x6000
 80040da:	60da      	str	r2, [r3, #12]
 80040dc:	f44f 6380 	mov.w	r3, #1024	; 0x400
 80040e0:	f2c4 0301 	movt	r3, #16385	; 0x4001
 80040e4:	f44f 6280 	mov.w	r2, #1024	; 0x400
 80040e8:	f2c4 0201 	movt	r2, #16385	; 0x4001
 80040ec:	68d2      	ldr	r2, [r2, #12]
 80040ee:	f042 02e0 	orr.w	r2, r2, #224	; 0xe0
 80040f2:	60da      	str	r2, [r3, #12]
 80040f4:	f44f 6380 	mov.w	r3, #1024	; 0x400
 80040f8:	f2c4 0301 	movt	r3, #16385	; 0x4001
 80040fc:	f44f 6280 	mov.w	r2, #1024	; 0x400
 8004100:	f2c4 0201 	movt	r2, #16385	; 0x4001
 8004104:	68d2      	ldr	r2, [r2, #12]
 8004106:	f042 0208 	orr.w	r2, r2, #8
 800410a:	60da      	str	r2, [r3, #12]
 800410c:	f44f 6380 	mov.w	r3, #1024	; 0x400
 8004110:	f2c4 0301 	movt	r3, #16385	; 0x4001
 8004114:	f246 02e8 	movw	r2, #24808	; 0x60e8
 8004118:	615a      	str	r2, [r3, #20]
 800411a:	2009      	movs	r0, #9
 800411c:	f7ff fe9e 	bl	8003e5c <NVIC_ClearPendingIRQ>
 8004120:	2017      	movs	r0, #23
 8004122:	f7ff fe9b 	bl	8003e5c <NVIC_ClearPendingIRQ>
 8004126:	2028      	movs	r0, #40	; 0x28
 8004128:	f7ff fe98 	bl	8003e5c <NVIC_ClearPendingIRQ>
 800412c:	f44f 6380 	mov.w	r3, #1024	; 0x400
 8004130:	f2c4 0301 	movt	r3, #16385	; 0x4001
 8004134:	f44f 6280 	mov.w	r2, #1024	; 0x400
 8004138:	f2c4 0201 	movt	r2, #16385	; 0x4001
 800413c:	6812      	ldr	r2, [r2, #0]
 800413e:	f042 02e0 	orr.w	r2, r2, #224	; 0xe0
 8004142:	601a      	str	r2, [r3, #0]
 8004144:	f44f 6380 	mov.w	r3, #1024	; 0x400
 8004148:	f2c4 0301 	movt	r3, #16385	; 0x4001
 800414c:	f44f 6280 	mov.w	r2, #1024	; 0x400
 8004150:	f2c4 0201 	movt	r2, #16385	; 0x4001
 8004154:	6812      	ldr	r2, [r2, #0]
 8004156:	f442 42c0 	orr.w	r2, r2, #24576	; 0x6000
 800415a:	601a      	str	r2, [r3, #0]
 800415c:	f44f 6380 	mov.w	r3, #1024	; 0x400
 8004160:	f2c4 0301 	movt	r3, #16385	; 0x4001
 8004164:	f44f 6280 	mov.w	r2, #1024	; 0x400
 8004168:	f2c4 0201 	movt	r2, #16385	; 0x4001
 800416c:	6812      	ldr	r2, [r2, #0]
 800416e:	f042 0208 	orr.w	r2, r2, #8
 8004172:	601a      	str	r2, [r3, #0]
 8004174:	2009      	movs	r0, #9
 8004176:	f7ff fe57 	bl	8003e28 <NVIC_EnableIRQ>
 800417a:	2017      	movs	r0, #23
 800417c:	f7ff fe54 	bl	8003e28 <NVIC_EnableIRQ>
 8004180:	2028      	movs	r0, #40	; 0x28
 8004182:	f7ff fe51 	bl	8003e28 <NVIC_EnableIRQ>
 8004186:	e02c      	b.n	80041e2 <Key_ISR_Enable+0x1c2>
 8004188:	2009      	movs	r0, #9
 800418a:	f7ff fe4d 	bl	8003e28 <NVIC_EnableIRQ>
 800418e:	2017      	movs	r0, #23
 8004190:	f7ff fe4a 	bl	8003e28 <NVIC_EnableIRQ>
 8004194:	2028      	movs	r0, #40	; 0x28
 8004196:	f7ff fe47 	bl	8003e28 <NVIC_EnableIRQ>
 800419a:	f44f 5380 	mov.w	r3, #4096	; 0x1000
 800419e:	f2c4 0302 	movt	r3, #16386	; 0x4002
 80041a2:	f44f 5280 	mov.w	r2, #4096	; 0x1000
 80041a6:	f2c4 0202 	movt	r2, #16386	; 0x4002
 80041aa:	6992      	ldr	r2, [r2, #24]
 80041ac:	f022 0208 	bic.w	r2, r2, #8
 80041b0:	619a      	str	r2, [r3, #24]
 80041b2:	f44f 5380 	mov.w	r3, #4096	; 0x1000
 80041b6:	f2c4 0302 	movt	r3, #16386	; 0x4002
 80041ba:	f44f 5280 	mov.w	r2, #4096	; 0x1000
 80041be:	f2c4 0202 	movt	r2, #16386	; 0x4002
 80041c2:	6992      	ldr	r2, [r2, #24]
 80041c4:	f022 0204 	bic.w	r2, r2, #4
 80041c8:	619a      	str	r2, [r3, #24]
 80041ca:	f44f 5380 	mov.w	r3, #4096	; 0x1000
 80041ce:	f2c4 0302 	movt	r3, #16386	; 0x4002
 80041d2:	f44f 5280 	mov.w	r2, #4096	; 0x1000
 80041d6:	f2c4 0202 	movt	r2, #16386	; 0x4002
 80041da:	6992      	ldr	r2, [r2, #24]
 80041dc:	f022 0201 	bic.w	r2, r2, #1
 80041e0:	619a      	str	r2, [r3, #24]
 80041e2:	3708      	adds	r7, #8
 80041e4:	46bd      	mov	sp, r7
 80041e6:	bd80      	pop	{r7, pc}

080041e8 <_SPI1_Init>:
 80041e8:	b480      	push	{r7}
 80041ea:	af00      	add	r7, sp, #0
 80041ec:	f44f 5380 	mov.w	r3, #4096	; 0x1000
 80041f0:	f2c4 0302 	movt	r3, #16386	; 0x4002
 80041f4:	f44f 5280 	mov.w	r2, #4096	; 0x1000
 80041f8:	f2c4 0202 	movt	r2, #16386	; 0x4002
 80041fc:	6992      	ldr	r2, [r2, #24]
 80041fe:	f042 0204 	orr.w	r2, r2, #4
 8004202:	619a      	str	r2, [r3, #24]
 8004204:	f44f 6300 	mov.w	r3, #2048	; 0x800
 8004208:	f2c4 0301 	movt	r3, #16385	; 0x4001
 800420c:	f44f 6200 	mov.w	r2, #2048	; 0x800
 8004210:	f2c4 0201 	movt	r2, #16385	; 0x4001
 8004214:	6812      	ldr	r2, [r2, #0]
 8004216:	b292      	uxth	r2, r2
 8004218:	f042 4234 	orr.w	r2, r2, #3019898880	; 0xb4000000
 800421c:	f442 0233 	orr.w	r2, r2, #11730944	; 0xb30000
 8004220:	601a      	str	r2, [r3, #0]
 8004222:	f44f 6300 	mov.w	r3, #2048	; 0x800
 8004226:	f2c4 0301 	movt	r3, #16385	; 0x4001
 800422a:	f44f 6200 	mov.w	r2, #2048	; 0x800
 800422e:	f2c4 0201 	movt	r2, #16385	; 0x4001
 8004232:	68d2      	ldr	r2, [r2, #12]
 8004234:	f042 0210 	orr.w	r2, r2, #16
 8004238:	60da      	str	r2, [r3, #12]
 800423a:	f44f 5380 	mov.w	r3, #4096	; 0x1000
 800423e:	f2c4 0302 	movt	r3, #16386	; 0x4002
 8004242:	f44f 5280 	mov.w	r2, #4096	; 0x1000
 8004246:	f2c4 0202 	movt	r2, #16386	; 0x4002
 800424a:	6992      	ldr	r2, [r2, #24]
 800424c:	f442 5280 	orr.w	r2, r2, #4096	; 0x1000
 8004250:	619a      	str	r2, [r3, #24]
 8004252:	f44f 5340 	mov.w	r3, #12288	; 0x3000
 8004256:	f2c4 0301 	movt	r3, #16385	; 0x4001
 800425a:	f44f 7241 	mov.w	r2, #772	; 0x304
 800425e:	801a      	strh	r2, [r3, #0]
 8004260:	f44f 5340 	mov.w	r3, #12288	; 0x3000
 8004264:	f2c4 0301 	movt	r3, #16385	; 0x4001
 8004268:	f44f 5240 	mov.w	r2, #12288	; 0x3000
 800426c:	f2c4 0201 	movt	r2, #16385	; 0x4001
 8004270:	8812      	ldrh	r2, [r2, #0]
 8004272:	b292      	uxth	r2, r2
 8004274:	f042 0240 	orr.w	r2, r2, #64	; 0x40
 8004278:	b292      	uxth	r2, r2
 800427a:	801a      	strh	r2, [r3, #0]
 800427c:	46bd      	mov	sp, r7
 800427e:	f85d 7b04 	ldr.w	r7, [sp], #4
 8004282:	4770      	bx	lr

08004284 <_SPI1_Write_Byte>:
 8004284:	b480      	push	{r7}
 8004286:	b083      	sub	sp, #12
 8004288:	af00      	add	r7, sp, #0
 800428a:	4603      	mov	r3, r0
 800428c:	71fb      	strb	r3, [r7, #7]
 800428e:	f44f 5340 	mov.w	r3, #12288	; 0x3000
 8004292:	f2c4 0301 	movt	r3, #16385	; 0x4001
 8004296:	79fa      	ldrb	r2, [r7, #7]
 8004298:	b292      	uxth	r2, r2
 800429a:	819a      	strh	r2, [r3, #12]
 800429c:	bf00      	nop
 800429e:	f44f 5340 	mov.w	r3, #12288	; 0x3000
 80042a2:	f2c4 0301 	movt	r3, #16385	; 0x4001
 80042a6:	891b      	ldrh	r3, [r3, #8]
 80042a8:	b29b      	uxth	r3, r3
 80042aa:	085b      	lsrs	r3, r3, #1
 80042ac:	b29b      	uxth	r3, r3
 80042ae:	f003 0301 	and.w	r3, r3, #1
 80042b2:	2b00      	cmp	r3, #0
 80042b4:	d0f3      	beq.n	800429e <_SPI1_Write_Byte+0x1a>
 80042b6:	bf00      	nop
 80042b8:	f44f 5340 	mov.w	r3, #12288	; 0x3000
 80042bc:	f2c4 0301 	movt	r3, #16385	; 0x4001
 80042c0:	891b      	ldrh	r3, [r3, #8]
 80042c2:	b29b      	uxth	r3, r3
 80042c4:	09db      	lsrs	r3, r3, #7
 80042c6:	b29b      	uxth	r3, r3
 80042c8:	f003 0301 	and.w	r3, r3, #1
 80042cc:	2b00      	cmp	r3, #0
 80042ce:	d1f3      	bne.n	80042b8 <_SPI1_Write_Byte+0x34>
 80042d0:	370c      	adds	r7, #12
 80042d2:	46bd      	mov	sp, r7
 80042d4:	f85d 7b04 	ldr.w	r7, [sp], #4
 80042d8:	4770      	bx	lr
 80042da:	bf00      	nop

080042dc <_Delay>:
 80042dc:	b480      	push	{r7}
 80042de:	b085      	sub	sp, #20
 80042e0:	af00      	add	r7, sp, #0
 80042e2:	6078      	str	r0, [r7, #4]
 80042e4:	2300      	movs	r3, #0
 80042e6:	60fb      	str	r3, [r7, #12]
 80042e8:	e002      	b.n	80042f0 <_Delay+0x14>
 80042ea:	68fb      	ldr	r3, [r7, #12]
 80042ec:	3301      	adds	r3, #1
 80042ee:	60fb      	str	r3, [r7, #12]
 80042f0:	687b      	ldr	r3, [r7, #4]
 80042f2:	031a      	lsls	r2, r3, #12
 80042f4:	68fb      	ldr	r3, [r7, #12]
 80042f6:	429a      	cmp	r2, r3
 80042f8:	dcf7      	bgt.n	80042ea <_Delay+0xe>
 80042fa:	3714      	adds	r7, #20
 80042fc:	46bd      	mov	sp, r7
 80042fe:	f85d 7b04 	ldr.w	r7, [sp], #4
 8004302:	4770      	bx	lr

08004304 <Lcd_GPIO_Init>:
 8004304:	b480      	push	{r7}
 8004306:	af00      	add	r7, sp, #0
 8004308:	f44f 6300 	mov.w	r3, #2048	; 0x800
 800430c:	f2c4 0301 	movt	r3, #16385	; 0x4001
 8004310:	f44f 6200 	mov.w	r2, #2048	; 0x800
 8004314:	f2c4 0201 	movt	r2, #16385	; 0x4001
 8004318:	6812      	ldr	r2, [r2, #0]
 800431a:	f422 2270 	bic.w	r2, r2, #983040	; 0xf0000
 800431e:	f442 3240 	orr.w	r2, r2, #196608	; 0x30000
 8004322:	601a      	str	r2, [r3, #0]
 8004324:	f44f 6300 	mov.w	r3, #2048	; 0x800
 8004328:	f2c4 0301 	movt	r3, #16385	; 0x4001
 800432c:	f44f 6200 	mov.w	r2, #2048	; 0x800
 8004330:	f2c4 0201 	movt	r2, #16385	; 0x4001
 8004334:	6852      	ldr	r2, [r2, #4]
 8004336:	f422 4270 	bic.w	r2, r2, #61440	; 0xf000
 800433a:	f442 5240 	orr.w	r2, r2, #12288	; 0x3000
 800433e:	605a      	str	r2, [r3, #4]
 8004340:	f44f 6340 	mov.w	r3, #3072	; 0xc00
 8004344:	f2c4 0301 	movt	r3, #16385	; 0x4001
 8004348:	f44f 6240 	mov.w	r2, #3072	; 0xc00
 800434c:	f2c4 0201 	movt	r2, #16385	; 0x4001
 8004350:	6812      	ldr	r2, [r2, #0]
 8004352:	f422 2270 	bic.w	r2, r2, #983040	; 0xf0000
 8004356:	f442 3240 	orr.w	r2, r2, #196608	; 0x30000
 800435a:	601a      	str	r2, [r3, #0]
 800435c:	f44f 6340 	mov.w	r3, #3072	; 0xc00
 8004360:	f2c4 0301 	movt	r3, #16385	; 0x4001
 8004364:	f44f 6240 	mov.w	r2, #3072	; 0xc00
 8004368:	f2c4 0201 	movt	r2, #16385	; 0x4001
 800436c:	6852      	ldr	r2, [r2, #4]
 800436e:	f022 02f0 	bic.w	r2, r2, #240	; 0xf0
 8004372:	f042 0230 	orr.w	r2, r2, #48	; 0x30
 8004376:	605a      	str	r2, [r3, #4]
 8004378:	46bd      	mov	sp, r7
 800437a:	f85d 7b04 	ldr.w	r7, [sp], #4
 800437e:	4770      	bx	lr

08004380 <Lcd_Write_Reg>:
 8004380:	b580      	push	{r7, lr}
 8004382:	b082      	sub	sp, #8
 8004384:	af00      	add	r7, sp, #0
 8004386:	4602      	mov	r2, r0
 8004388:	460b      	mov	r3, r1
 800438a:	71fa      	strb	r2, [r7, #7]
 800438c:	80bb      	strh	r3, [r7, #4]
 800438e:	79fb      	ldrb	r3, [r7, #7]
 8004390:	4618      	mov	r0, r3
 8004392:	f000 f8a9 	bl	80044e8 <Lcd_WR_REG>
 8004396:	88bb      	ldrh	r3, [r7, #4]
 8004398:	b2db      	uxtb	r3, r3
 800439a:	4618      	mov	r0, r3
 800439c:	f000 f8d4 	bl	8004548 <Lcd_WR_DATA>
 80043a0:	3708      	adds	r7, #8
 80043a2:	46bd      	mov	sp, r7
 80043a4:	bd80      	pop	{r7, pc}
 80043a6:	bf00      	nop

080043a8 <Lcd_Write_Data_16Bit>:
 80043a8:	b580      	push	{r7, lr}
 80043aa:	b082      	sub	sp, #8
 80043ac:	af00      	add	r7, sp, #0
 80043ae:	4603      	mov	r3, r0
 80043b0:	80fb      	strh	r3, [r7, #6]
 80043b2:	f44f 6300 	mov.w	r3, #2048	; 0x800
 80043b6:	f2c4 0301 	movt	r3, #16385	; 0x4001
 80043ba:	f44f 6200 	mov.w	r2, #2048	; 0x800
 80043be:	f2c4 0201 	movt	r2, #16385	; 0x4001
 80043c2:	68d2      	ldr	r2, [r2, #12]
 80043c4:	f022 0210 	bic.w	r2, r2, #16
 80043c8:	60da      	str	r2, [r3, #12]
 80043ca:	f44f 6340 	mov.w	r3, #3072	; 0xc00
 80043ce:	f2c4 0301 	movt	r3, #16385	; 0x4001
 80043d2:	f44f 6240 	mov.w	r2, #3072	; 0xc00
 80043d6:	f2c4 0201 	movt	r2, #16385	; 0x4001
 80043da:	68d2      	ldr	r2, [r2, #12]
 80043dc:	f442 7200 	orr.w	r2, r2, #512	; 0x200
 80043e0:	60da      	str	r2, [r3, #12]
 80043e2:	88fb      	ldrh	r3, [r7, #6]
 80043e4:	0a1b      	lsrs	r3, r3, #8
 80043e6:	b29b      	uxth	r3, r3
 80043e8:	b2db      	uxtb	r3, r3
 80043ea:	4618      	mov	r0, r3
 80043ec:	f7ff ff4a 	bl	8004284 <_SPI1_Write_Byte>
 80043f0:	88fb      	ldrh	r3, [r7, #6]
 80043f2:	b2db      	uxtb	r3, r3
 80043f4:	4618      	mov	r0, r3
 80043f6:	f7ff ff45 	bl	8004284 <_SPI1_Write_Byte>
 80043fa:	f44f 6300 	mov.w	r3, #2048	; 0x800
 80043fe:	f2c4 0301 	movt	r3, #16385	; 0x4001
 8004402:	f44f 6200 	mov.w	r2, #2048	; 0x800
 8004406:	f2c4 0201 	movt	r2, #16385	; 0x4001
 800440a:	68d2      	ldr	r2, [r2, #12]
 800440c:	f042 0210 	orr.w	r2, r2, #16
 8004410:	60da      	str	r2, [r3, #12]
 8004412:	3708      	adds	r7, #8
 8004414:	46bd      	mov	sp, r7
 8004416:	bd80      	pop	{r7, pc}

08004418 <Lcd_Fill>:
 8004418:	b580      	push	{r7, lr}
 800441a:	b084      	sub	sp, #16
 800441c:	af00      	add	r7, sp, #0
 800441e:	80f8      	strh	r0, [r7, #6]
 8004420:	80b9      	strh	r1, [r7, #4]
 8004422:	807a      	strh	r2, [r7, #2]
 8004424:	803b      	strh	r3, [r7, #0]
 8004426:	887a      	ldrh	r2, [r7, #2]
 8004428:	88fb      	ldrh	r3, [r7, #6]
 800442a:	1ad3      	subs	r3, r2, r3
 800442c:	b29b      	uxth	r3, r3
 800442e:	3301      	adds	r3, #1
 8004430:	817b      	strh	r3, [r7, #10]
 8004432:	883a      	ldrh	r2, [r7, #0]
 8004434:	88bb      	ldrh	r3, [r7, #4]
 8004436:	1ad3      	subs	r3, r2, r3
 8004438:	b29b      	uxth	r3, r3
 800443a:	3301      	adds	r3, #1
 800443c:	813b      	strh	r3, [r7, #8]
 800443e:	88f8      	ldrh	r0, [r7, #6]
 8004440:	88b9      	ldrh	r1, [r7, #4]
 8004442:	887a      	ldrh	r2, [r7, #2]
 8004444:	883b      	ldrh	r3, [r7, #0]
 8004446:	f000 f947 	bl	80046d8 <Lcd_Set_Windows>
 800444a:	2300      	movs	r3, #0
 800444c:	81fb      	strh	r3, [r7, #14]
 800444e:	e010      	b.n	8004472 <Lcd_Fill+0x5a>
 8004450:	2300      	movs	r3, #0
 8004452:	81bb      	strh	r3, [r7, #12]
 8004454:	e006      	b.n	8004464 <Lcd_Fill+0x4c>
 8004456:	8b3b      	ldrh	r3, [r7, #24]
 8004458:	4618      	mov	r0, r3
 800445a:	f7ff ffa5 	bl	80043a8 <Lcd_Write_Data_16Bit>
 800445e:	89bb      	ldrh	r3, [r7, #12]
 8004460:	3301      	adds	r3, #1
 8004462:	81bb      	strh	r3, [r7, #12]
 8004464:	89ba      	ldrh	r2, [r7, #12]
 8004466:	897b      	ldrh	r3, [r7, #10]
 8004468:	429a      	cmp	r2, r3
 800446a:	d3f4      	bcc.n	8004456 <Lcd_Fill+0x3e>
 800446c:	89fb      	ldrh	r3, [r7, #14]
 800446e:	3301      	adds	r3, #1
 8004470:	81fb      	strh	r3, [r7, #14]
 8004472:	89fa      	ldrh	r2, [r7, #14]
 8004474:	893b      	ldrh	r3, [r7, #8]
 8004476:	429a      	cmp	r2, r3
 8004478:	d3ea      	bcc.n	8004450 <Lcd_Fill+0x38>
 800447a:	f243 4330 	movw	r3, #13360	; 0x3430
 800447e:	f2c2 0300 	movt	r3, #8192	; 0x2000
 8004482:	881b      	ldrh	r3, [r3, #0]
 8004484:	3b01      	subs	r3, #1
 8004486:	b29a      	uxth	r2, r3
 8004488:	f243 4330 	movw	r3, #13360	; 0x3430
 800448c:	f2c2 0300 	movt	r3, #8192	; 0x2000
 8004490:	885b      	ldrh	r3, [r3, #2]
 8004492:	3b01      	subs	r3, #1
 8004494:	b29b      	uxth	r3, r3
 8004496:	2000      	movs	r0, #0
 8004498:	2100      	movs	r1, #0
 800449a:	f000 f91d 	bl	80046d8 <Lcd_Set_Windows>
 800449e:	3710      	adds	r7, #16
 80044a0:	46bd      	mov	sp, r7
 80044a2:	bd80      	pop	{r7, pc}

080044a4 <Lcd_Reset>:
 80044a4:	b580      	push	{r7, lr}
 80044a6:	af00      	add	r7, sp, #0
 80044a8:	f44f 6340 	mov.w	r3, #3072	; 0xc00
 80044ac:	f2c4 0301 	movt	r3, #16385	; 0x4001
 80044b0:	f44f 6240 	mov.w	r2, #3072	; 0xc00
 80044b4:	f2c4 0201 	movt	r2, #16385	; 0x4001
 80044b8:	68d2      	ldr	r2, [r2, #12]
 80044ba:	f022 0210 	bic.w	r2, r2, #16
 80044be:	60da      	str	r2, [r3, #12]
 80044c0:	2064      	movs	r0, #100	; 0x64
 80044c2:	f7ff ff0b 	bl	80042dc <_Delay>
 80044c6:	f44f 6340 	mov.w	r3, #3072	; 0xc00
 80044ca:	f2c4 0301 	movt	r3, #16385	; 0x4001
 80044ce:	f44f 6240 	mov.w	r2, #3072	; 0xc00
 80044d2:	f2c4 0201 	movt	r2, #16385	; 0x4001
 80044d6:	68d2      	ldr	r2, [r2, #12]
 80044d8:	f042 0210 	orr.w	r2, r2, #16
 80044dc:	60da      	str	r2, [r3, #12]
 80044de:	2032      	movs	r0, #50	; 0x32
 80044e0:	f7ff fefc 	bl	80042dc <_Delay>
 80044e4:	bd80      	pop	{r7, pc}
 80044e6:	bf00      	nop

080044e8 <Lcd_WR_REG>:
 80044e8:	b580      	push	{r7, lr}
 80044ea:	b082      	sub	sp, #8
 80044ec:	af00      	add	r7, sp, #0
 80044ee:	4603      	mov	r3, r0
 80044f0:	71fb      	strb	r3, [r7, #7]
 80044f2:	f44f 6300 	mov.w	r3, #2048	; 0x800
 80044f6:	f2c4 0301 	movt	r3, #16385	; 0x4001
 80044fa:	f44f 6200 	mov.w	r2, #2048	; 0x800
 80044fe:	f2c4 0201 	movt	r2, #16385	; 0x4001
 8004502:	68d2      	ldr	r2, [r2, #12]
 8004504:	f022 0210 	bic.w	r2, r2, #16
 8004508:	60da      	str	r2, [r3, #12]
 800450a:	f44f 6340 	mov.w	r3, #3072	; 0xc00
 800450e:	f2c4 0301 	movt	r3, #16385	; 0x4001
 8004512:	f44f 6240 	mov.w	r2, #3072	; 0xc00
 8004516:	f2c4 0201 	movt	r2, #16385	; 0x4001
 800451a:	68d2      	ldr	r2, [r2, #12]
 800451c:	f422 7200 	bic.w	r2, r2, #512	; 0x200
 8004520:	60da      	str	r2, [r3, #12]
 8004522:	79fb      	ldrb	r3, [r7, #7]
 8004524:	4618      	mov	r0, r3
 8004526:	f7ff fead 	bl	8004284 <_SPI1_Write_Byte>
 800452a:	f44f 6300 	mov.w	r3, #2048	; 0x800
 800452e:	f2c4 0301 	movt	r3, #16385	; 0x4001
 8004532:	f44f 6200 	mov.w	r2, #2048	; 0x800
 8004536:	f2c4 0201 	movt	r2, #16385	; 0x4001
 800453a:	68d2      	ldr	r2, [r2, #12]
 800453c:	f042 0210 	orr.w	r2, r2, #16
 8004540:	60da      	str	r2, [r3, #12]
 8004542:	3708      	adds	r7, #8
 8004544:	46bd      	mov	sp, r7
 8004546:	bd80      	pop	{r7, pc}

08004548 <Lcd_WR_DATA>:
 8004548:	b580      	push	{r7, lr}
 800454a:	b082      	sub	sp, #8
 800454c:	af00      	add	r7, sp, #0
 800454e:	4603      	mov	r3, r0
 8004550:	71fb      	strb	r3, [r7, #7]
 8004552:	f44f 6300 	mov.w	r3, #2048	; 0x800
 8004556:	f2c4 0301 	movt	r3, #16385	; 0x4001
 800455a:	f44f 6200 	mov.w	r2, #2048	; 0x800
 800455e:	f2c4 0201 	movt	r2, #16385	; 0x4001
 8004562:	68d2      	ldr	r2, [r2, #12]
 8004564:	f022 0210 	bic.w	r2, r2, #16
 8004568:	60da      	str	r2, [r3, #12]
 800456a:	f44f 6340 	mov.w	r3, #3072	; 0xc00
 800456e:	f2c4 0301 	movt	r3, #16385	; 0x4001
 8004572:	f44f 6240 	mov.w	r2, #3072	; 0xc00
 8004576:	f2c4 0201 	movt	r2, #16385	; 0x4001
 800457a:	68d2      	ldr	r2, [r2, #12]
 800457c:	f442 7200 	orr.w	r2, r2, #512	; 0x200
 8004580:	60da      	str	r2, [r3, #12]
 8004582:	79fb      	ldrb	r3, [r7, #7]
 8004584:	4618      	mov	r0, r3
 8004586:	f7ff fe7d 	bl	8004284 <_SPI1_Write_Byte>
 800458a:	f44f 6300 	mov.w	r3, #2048	; 0x800
 800458e:	f2c4 0301 	movt	r3, #16385	; 0x4001
 8004592:	f44f 6200 	mov.w	r2, #2048	; 0x800
 8004596:	f2c4 0201 	movt	r2, #16385	; 0x4001
 800459a:	68d2      	ldr	r2, [r2, #12]
 800459c:	f042 0210 	orr.w	r2, r2, #16
 80045a0:	60da      	str	r2, [r3, #12]
 80045a2:	3708      	adds	r7, #8
 80045a4:	46bd      	mov	sp, r7
 80045a6:	bd80      	pop	{r7, pc}

080045a8 <Lcd_Set_Display_Mode>:
 80045a8:	b580      	push	{r7, lr}
 80045aa:	b082      	sub	sp, #8
 80045ac:	af00      	add	r7, sp, #0
 80045ae:	6078      	str	r0, [r7, #4]
 80045b0:	687b      	ldr	r3, [r7, #4]
 80045b2:	b2da      	uxtb	r2, r3
 80045b4:	f243 4330 	movw	r3, #13360	; 0x3430
 80045b8:	f2c2 0300 	movt	r3, #8192	; 0x2000
 80045bc:	711a      	strb	r2, [r3, #4]
 80045be:	f243 4330 	movw	r3, #13360	; 0x3430
 80045c2:	f2c2 0300 	movt	r3, #8192	; 0x2000
 80045c6:	222a      	movs	r2, #42	; 0x2a
 80045c8:	811a      	strh	r2, [r3, #8]
 80045ca:	f243 4330 	movw	r3, #13360	; 0x3430
 80045ce:	f2c2 0300 	movt	r3, #8192	; 0x2000
 80045d2:	222b      	movs	r2, #43	; 0x2b
 80045d4:	815a      	strh	r2, [r3, #10]
 80045d6:	f243 4330 	movw	r3, #13360	; 0x3430
 80045da:	f2c2 0300 	movt	r3, #8192	; 0x2000
 80045de:	222c      	movs	r2, #44	; 0x2c
 80045e0:	80da      	strh	r2, [r3, #6]
 80045e2:	687b      	ldr	r3, [r7, #4]
 80045e4:	2b04      	cmp	r3, #4
 80045e6:	d867      	bhi.n	80046b8 <Lcd_Set_Display_Mode+0x110>
 80045e8:	a201      	add	r2, pc, #4	; (adr r2, 80045f0 <Lcd_Set_Display_Mode+0x48>)
 80045ea:	f852 f023 	ldr.w	pc, [r2, r3, lsl #2]
 80045ee:	bf00      	nop
 80045f0:	08004605 	stmdaeq	r0, {r0, r2, r9, sl, lr}
 80045f4:	08004629 	stmdaeq	r0, {r0, r3, r5, r9, sl, lr}
 80045f8:	0800464d 	stmdaeq	r0, {r0, r2, r3, r6, r9, sl, lr}
 80045fc:	08004671 	stmdaeq	r0, {r0, r4, r5, r6, r9, sl, lr}
 8004600:	08004695 	stmdaeq	r0, {r0, r2, r4, r7, r9, sl, lr}
 8004604:	f243 4330 	movw	r3, #13360	; 0x3430
 8004608:	f2c2 0300 	movt	r3, #8192	; 0x2000
 800460c:	22f0      	movs	r2, #240	; 0xf0
 800460e:	801a      	strh	r2, [r3, #0]
 8004610:	f243 4330 	movw	r3, #13360	; 0x3430
 8004614:	f2c2 0300 	movt	r3, #8192	; 0x2000
 8004618:	f44f 72a0 	mov.w	r2, #320	; 0x140
 800461c:	805a      	strh	r2, [r3, #2]
 800461e:	2036      	movs	r0, #54	; 0x36
 8004620:	2108      	movs	r1, #8
 8004622:	f7ff fead 	bl	8004380 <Lcd_Write_Reg>
 8004626:	e048      	b.n	80046ba <Lcd_Set_Display_Mode+0x112>
 8004628:	f243 4330 	movw	r3, #13360	; 0x3430
 800462c:	f2c2 0300 	movt	r3, #8192	; 0x2000
 8004630:	f44f 72a0 	mov.w	r2, #320	; 0x140
 8004634:	801a      	strh	r2, [r3, #0]
 8004636:	f243 4330 	movw	r3, #13360	; 0x3430
 800463a:	f2c2 0300 	movt	r3, #8192	; 0x2000
 800463e:	22f0      	movs	r2, #240	; 0xf0
 8004640:	805a      	strh	r2, [r3, #2]
 8004642:	2036      	movs	r0, #54	; 0x36
 8004644:	2168      	movs	r1, #104	; 0x68
 8004646:	f7ff fe9b 	bl	8004380 <Lcd_Write_Reg>
 800464a:	e036      	b.n	80046ba <Lcd_Set_Display_Mode+0x112>
 800464c:	f243 4330 	movw	r3, #13360	; 0x3430
 8004650:	f2c2 0300 	movt	r3, #8192	; 0x2000
 8004654:	22f0      	movs	r2, #240	; 0xf0
 8004656:	801a      	strh	r2, [r3, #0]
 8004658:	f243 4330 	movw	r3, #13360	; 0x3430
 800465c:	f2c2 0300 	movt	r3, #8192	; 0x2000
 8004660:	f44f 72a0 	mov.w	r2, #320	; 0x140
 8004664:	805a      	strh	r2, [r3, #2]
 8004666:	2036      	movs	r0, #54	; 0x36
 8004668:	21c8      	movs	r1, #200	; 0xc8
 800466a:	f7ff fe89 	bl	8004380 <Lcd_Write_Reg>
 800466e:	e024      	b.n	80046ba <Lcd_Set_Display_Mode+0x112>
 8004670:	f243 4330 	movw	r3, #13360	; 0x3430
 8004674:	f2c2 0300 	movt	r3, #8192	; 0x2000
 8004678:	f44f 72a0 	mov.w	r2, #320	; 0x140
 800467c:	801a      	strh	r2, [r3, #0]
 800467e:	f243 4330 	movw	r3, #13360	; 0x3430
 8004682:	f2c2 0300 	movt	r3, #8192	; 0x2000
 8004686:	22f0      	movs	r2, #240	; 0xf0
 8004688:	805a      	strh	r2, [r3, #2]
 800468a:	2036      	movs	r0, #54	; 0x36
 800468c:	21a8      	movs	r1, #168	; 0xa8
 800468e:	f7ff fe77 	bl	8004380 <Lcd_Write_Reg>
 8004692:	e012      	b.n	80046ba <Lcd_Set_Display_Mode+0x112>
 8004694:	f243 4330 	movw	r3, #13360	; 0x3430
 8004698:	f2c2 0300 	movt	r3, #8192	; 0x2000
 800469c:	f44f 72a0 	mov.w	r2, #320	; 0x140
 80046a0:	801a      	strh	r2, [r3, #0]
 80046a2:	f243 4330 	movw	r3, #13360	; 0x3430
 80046a6:	f2c2 0300 	movt	r3, #8192	; 0x2000
 80046aa:	22f0      	movs	r2, #240	; 0xf0
 80046ac:	805a      	strh	r2, [r3, #2]
 80046ae:	2036      	movs	r0, #54	; 0x36
 80046b0:	21e8      	movs	r1, #232	; 0xe8
 80046b2:	f7ff fe65 	bl	8004380 <Lcd_Write_Reg>
 80046b6:	e000      	b.n	80046ba <Lcd_Set_Display_Mode+0x112>
 80046b8:	bf00      	nop
 80046ba:	3708      	adds	r7, #8
 80046bc:	46bd      	mov	sp, r7
 80046be:	bd80      	pop	{r7, pc}

080046c0 <Lcd_Write_RAM_Prepare>:
 80046c0:	b580      	push	{r7, lr}
 80046c2:	af00      	add	r7, sp, #0
 80046c4:	f243 4330 	movw	r3, #13360	; 0x3430
 80046c8:	f2c2 0300 	movt	r3, #8192	; 0x2000
 80046cc:	88db      	ldrh	r3, [r3, #6]
 80046ce:	b2db      	uxtb	r3, r3
 80046d0:	4618      	mov	r0, r3
 80046d2:	f7ff ff09 	bl	80044e8 <Lcd_WR_REG>
 80046d6:	bd80      	pop	{r7, pc}

080046d8 <Lcd_Set_Windows>:
 80046d8:	b580      	push	{r7, lr}
 80046da:	b082      	sub	sp, #8
 80046dc:	af00      	add	r7, sp, #0
 80046de:	80f8      	strh	r0, [r7, #6]
 80046e0:	80b9      	strh	r1, [r7, #4]
 80046e2:	807a      	strh	r2, [r7, #2]
 80046e4:	803b      	strh	r3, [r7, #0]
 80046e6:	f243 4330 	movw	r3, #13360	; 0x3430
 80046ea:	f2c2 0300 	movt	r3, #8192	; 0x2000
 80046ee:	891b      	ldrh	r3, [r3, #8]
 80046f0:	b2db      	uxtb	r3, r3
 80046f2:	4618      	mov	r0, r3
 80046f4:	f7ff fef8 	bl	80044e8 <Lcd_WR_REG>
 80046f8:	88fb      	ldrh	r3, [r7, #6]
 80046fa:	0a1b      	lsrs	r3, r3, #8
 80046fc:	b29b      	uxth	r3, r3
 80046fe:	b2db      	uxtb	r3, r3
 8004700:	4618      	mov	r0, r3
 8004702:	f7ff ff21 	bl	8004548 <Lcd_WR_DATA>
 8004706:	88fb      	ldrh	r3, [r7, #6]
 8004708:	b2db      	uxtb	r3, r3
 800470a:	4618      	mov	r0, r3
 800470c:	f7ff ff1c 	bl	8004548 <Lcd_WR_DATA>
 8004710:	887b      	ldrh	r3, [r7, #2]
 8004712:	0a1b      	lsrs	r3, r3, #8
 8004714:	b29b      	uxth	r3, r3
 8004716:	b2db      	uxtb	r3, r3
 8004718:	4618      	mov	r0, r3
 800471a:	f7ff ff15 	bl	8004548 <Lcd_WR_DATA>
 800471e:	887b      	ldrh	r3, [r7, #2]
 8004720:	b2db      	uxtb	r3, r3
 8004722:	4618      	mov	r0, r3
 8004724:	f7ff ff10 	bl	8004548 <Lcd_WR_DATA>
 8004728:	f243 4330 	movw	r3, #13360	; 0x3430
 800472c:	f2c2 0300 	movt	r3, #8192	; 0x2000
 8004730:	895b      	ldrh	r3, [r3, #10]
 8004732:	b2db      	uxtb	r3, r3
 8004734:	4618      	mov	r0, r3
 8004736:	f7ff fed7 	bl	80044e8 <Lcd_WR_REG>
 800473a:	88bb      	ldrh	r3, [r7, #4]
 800473c:	0a1b      	lsrs	r3, r3, #8
 800473e:	b29b      	uxth	r3, r3
 8004740:	b2db      	uxtb	r3, r3
 8004742:	4618      	mov	r0, r3
 8004744:	f7ff ff00 	bl	8004548 <Lcd_WR_DATA>
 8004748:	88bb      	ldrh	r3, [r7, #4]
 800474a:	b2db      	uxtb	r3, r3
 800474c:	4618      	mov	r0, r3
 800474e:	f7ff fefb 	bl	8004548 <Lcd_WR_DATA>
 8004752:	883b      	ldrh	r3, [r7, #0]
 8004754:	0a1b      	lsrs	r3, r3, #8
 8004756:	b29b      	uxth	r3, r3
 8004758:	b2db      	uxtb	r3, r3
 800475a:	4618      	mov	r0, r3
 800475c:	f7ff fef4 	bl	8004548 <Lcd_WR_DATA>
 8004760:	883b      	ldrh	r3, [r7, #0]
 8004762:	b2db      	uxtb	r3, r3
 8004764:	4618      	mov	r0, r3
 8004766:	f7ff feef 	bl	8004548 <Lcd_WR_DATA>
 800476a:	f7ff ffa9 	bl	80046c0 <Lcd_Write_RAM_Prepare>
 800476e:	3708      	adds	r7, #8
 8004770:	46bd      	mov	sp, r7
 8004772:	bd80      	pop	{r7, pc}

08004774 <Lcd_Set_Cursor>:
 8004774:	b580      	push	{r7, lr}
 8004776:	b082      	sub	sp, #8
 8004778:	af00      	add	r7, sp, #0
 800477a:	4602      	mov	r2, r0
 800477c:	460b      	mov	r3, r1
 800477e:	80fa      	strh	r2, [r7, #6]
 8004780:	80bb      	strh	r3, [r7, #4]
 8004782:	88f8      	ldrh	r0, [r7, #6]
 8004784:	88b9      	ldrh	r1, [r7, #4]
 8004786:	88fa      	ldrh	r2, [r7, #6]
 8004788:	88bb      	ldrh	r3, [r7, #4]
 800478a:	f7ff ffa5 	bl	80046d8 <Lcd_Set_Windows>
 800478e:	3708      	adds	r7, #8
 8004790:	46bd      	mov	sp, r7
 8004792:	bd80      	pop	{r7, pc}

08004794 <Lcd_Draw_Back_Color>:
 8004794:	b580      	push	{r7, lr}
 8004796:	b084      	sub	sp, #16
 8004798:	af00      	add	r7, sp, #0
 800479a:	4603      	mov	r3, r0
 800479c:	80fb      	strh	r3, [r7, #6]
 800479e:	88fb      	ldrh	r3, [r7, #6]
 80047a0:	0a1b      	lsrs	r3, r3, #8
 80047a2:	b29b      	uxth	r3, r3
 80047a4:	72fb      	strb	r3, [r7, #11]
 80047a6:	88fb      	ldrh	r3, [r7, #6]
 80047a8:	72bb      	strb	r3, [r7, #10]
 80047aa:	f243 4330 	movw	r3, #13360	; 0x3430
 80047ae:	f2c2 0300 	movt	r3, #8192	; 0x2000
 80047b2:	881b      	ldrh	r3, [r3, #0]
 80047b4:	3b01      	subs	r3, #1
 80047b6:	b29a      	uxth	r2, r3
 80047b8:	f243 4330 	movw	r3, #13360	; 0x3430
 80047bc:	f2c2 0300 	movt	r3, #8192	; 0x2000
 80047c0:	885b      	ldrh	r3, [r3, #2]
 80047c2:	3b01      	subs	r3, #1
 80047c4:	b29b      	uxth	r3, r3
 80047c6:	2000      	movs	r0, #0
 80047c8:	2100      	movs	r1, #0
 80047ca:	f7ff ff85 	bl	80046d8 <Lcd_Set_Windows>
 80047ce:	f44f 6300 	mov.w	r3, #2048	; 0x800
 80047d2:	f2c4 0301 	movt	r3, #16385	; 0x4001
 80047d6:	f44f 6200 	mov.w	r2, #2048	; 0x800
 80047da:	f2c4 0201 	movt	r2, #16385	; 0x4001
 80047de:	68d2      	ldr	r2, [r2, #12]
 80047e0:	f022 0210 	bic.w	r2, r2, #16
 80047e4:	60da      	str	r2, [r3, #12]
 80047e6:	f44f 6340 	mov.w	r3, #3072	; 0xc00
 80047ea:	f2c4 0301 	movt	r3, #16385	; 0x4001
 80047ee:	f44f 6240 	mov.w	r2, #3072	; 0xc00
 80047f2:	f2c4 0201 	movt	r2, #16385	; 0x4001
 80047f6:	68d2      	ldr	r2, [r2, #12]
 80047f8:	f442 7200 	orr.w	r2, r2, #512	; 0x200
 80047fc:	60da      	str	r2, [r3, #12]
 80047fe:	2300      	movs	r3, #0
 8004800:	60fb      	str	r3, [r7, #12]
 8004802:	e00a      	b.n	800481a <Lcd_Draw_Back_Color+0x86>
 8004804:	7afb      	ldrb	r3, [r7, #11]
 8004806:	4618      	mov	r0, r3
 8004808:	f7ff fd3c 	bl	8004284 <_SPI1_Write_Byte>
 800480c:	7abb      	ldrb	r3, [r7, #10]
 800480e:	4618      	mov	r0, r3
 8004810:	f7ff fd38 	bl	8004284 <_SPI1_Write_Byte>
 8004814:	68fb      	ldr	r3, [r7, #12]
 8004816:	3301      	adds	r3, #1
 8004818:	60fb      	str	r3, [r7, #12]
 800481a:	f243 4330 	movw	r3, #13360	; 0x3430
 800481e:	f2c2 0300 	movt	r3, #8192	; 0x2000
 8004822:	885b      	ldrh	r3, [r3, #2]
 8004824:	461a      	mov	r2, r3
 8004826:	f243 4330 	movw	r3, #13360	; 0x3430
 800482a:	f2c2 0300 	movt	r3, #8192	; 0x2000
 800482e:	881b      	ldrh	r3, [r3, #0]
 8004830:	fb03 f302 	mul.w	r3, r3, r2
 8004834:	461a      	mov	r2, r3
 8004836:	68fb      	ldr	r3, [r7, #12]
 8004838:	429a      	cmp	r2, r3
 800483a:	d8e3      	bhi.n	8004804 <Lcd_Draw_Back_Color+0x70>
 800483c:	f44f 6300 	mov.w	r3, #2048	; 0x800
 8004840:	f2c4 0301 	movt	r3, #16385	; 0x4001
 8004844:	f44f 6200 	mov.w	r2, #2048	; 0x800
 8004848:	f2c4 0201 	movt	r2, #16385	; 0x4001
 800484c:	68d2      	ldr	r2, [r2, #12]
 800484e:	f042 0210 	orr.w	r2, r2, #16
 8004852:	60da      	str	r2, [r3, #12]
 8004854:	3710      	adds	r7, #16
 8004856:	46bd      	mov	sp, r7
 8004858:	bd80      	pop	{r7, pc}
 800485a:	bf00      	nop

0800485c <Lcd_Clr_Screen>:
 800485c:	b580      	push	{r7, lr}
 800485e:	af00      	add	r7, sp, #0
 8004860:	2000      	movs	r0, #0
 8004862:	f7ff ff97 	bl	8004794 <Lcd_Draw_Back_Color>
 8004866:	bd80      	pop	{r7, pc}

08004868 <Lcd_Draw_Box>:
 8004868:	b580      	push	{r7, lr}
 800486a:	b088      	sub	sp, #32
 800486c:	af00      	add	r7, sp, #0
 800486e:	60f8      	str	r0, [r7, #12]
 8004870:	60b9      	str	r1, [r7, #8]
 8004872:	607a      	str	r2, [r7, #4]
 8004874:	603b      	str	r3, [r7, #0]
 8004876:	8d3b      	ldrh	r3, [r7, #40]	; 0x28
 8004878:	0a1b      	lsrs	r3, r3, #8
 800487a:	b29b      	uxth	r3, r3
 800487c:	75fb      	strb	r3, [r7, #23]
 800487e:	8d3b      	ldrh	r3, [r7, #40]	; 0x28
 8004880:	75bb      	strb	r3, [r7, #22]
 8004882:	68fa      	ldr	r2, [r7, #12]
 8004884:	687b      	ldr	r3, [r7, #4]
 8004886:	4413      	add	r3, r2
 8004888:	3b01      	subs	r3, #1
 800488a:	61bb      	str	r3, [r7, #24]
 800488c:	68ba      	ldr	r2, [r7, #8]
 800488e:	683b      	ldr	r3, [r7, #0]
 8004890:	4413      	add	r3, r2
 8004892:	3b01      	subs	r3, #1
 8004894:	613b      	str	r3, [r7, #16]
 8004896:	69bb      	ldr	r3, [r7, #24]
 8004898:	f5b3 7fa0 	cmp.w	r3, #320	; 0x140
 800489c:	db02      	blt.n	80048a4 <Lcd_Draw_Box+0x3c>
 800489e:	f240 133f 	movw	r3, #319	; 0x13f
 80048a2:	61bb      	str	r3, [r7, #24]
 80048a4:	693b      	ldr	r3, [r7, #16]
 80048a6:	2bef      	cmp	r3, #239	; 0xef
 80048a8:	dd01      	ble.n	80048ae <Lcd_Draw_Box+0x46>
 80048aa:	23ef      	movs	r3, #239	; 0xef
 80048ac:	61bb      	str	r3, [r7, #24]
 80048ae:	68fb      	ldr	r3, [r7, #12]
 80048b0:	b298      	uxth	r0, r3
 80048b2:	68bb      	ldr	r3, [r7, #8]
 80048b4:	b299      	uxth	r1, r3
 80048b6:	69bb      	ldr	r3, [r7, #24]
 80048b8:	b29a      	uxth	r2, r3
 80048ba:	693b      	ldr	r3, [r7, #16]
 80048bc:	b29b      	uxth	r3, r3
 80048be:	f7ff ff0b 	bl	80046d8 <Lcd_Set_Windows>
 80048c2:	f44f 6300 	mov.w	r3, #2048	; 0x800
 80048c6:	f2c4 0301 	movt	r3, #16385	; 0x4001
 80048ca:	f44f 6200 	mov.w	r2, #2048	; 0x800
 80048ce:	f2c4 0201 	movt	r2, #16385	; 0x4001
 80048d2:	68d2      	ldr	r2, [r2, #12]
 80048d4:	f022 0210 	bic.w	r2, r2, #16
 80048d8:	60da      	str	r2, [r3, #12]
 80048da:	f44f 6340 	mov.w	r3, #3072	; 0xc00
 80048de:	f2c4 0301 	movt	r3, #16385	; 0x4001
 80048e2:	f44f 6240 	mov.w	r2, #3072	; 0xc00
 80048e6:	f2c4 0201 	movt	r2, #16385	; 0x4001
 80048ea:	68d2      	ldr	r2, [r2, #12]
 80048ec:	f442 7200 	orr.w	r2, r2, #512	; 0x200
 80048f0:	60da      	str	r2, [r3, #12]
 80048f2:	2300      	movs	r3, #0
 80048f4:	61fb      	str	r3, [r7, #28]
 80048f6:	e00a      	b.n	800490e <Lcd_Draw_Box+0xa6>
 80048f8:	7dfb      	ldrb	r3, [r7, #23]
 80048fa:	4618      	mov	r0, r3
 80048fc:	f7ff fcc2 	bl	8004284 <_SPI1_Write_Byte>
 8004900:	7dbb      	ldrb	r3, [r7, #22]
 8004902:	4618      	mov	r0, r3
 8004904:	f7ff fcbe 	bl	8004284 <_SPI1_Write_Byte>
 8004908:	69fb      	ldr	r3, [r7, #28]
 800490a:	3301      	adds	r3, #1
 800490c:	61fb      	str	r3, [r7, #28]
 800490e:	69ba      	ldr	r2, [r7, #24]
 8004910:	68fb      	ldr	r3, [r7, #12]
 8004912:	1ad3      	subs	r3, r2, r3
 8004914:	3301      	adds	r3, #1
 8004916:	6939      	ldr	r1, [r7, #16]
 8004918:	68ba      	ldr	r2, [r7, #8]
 800491a:	1a8a      	subs	r2, r1, r2
 800491c:	3201      	adds	r2, #1
 800491e:	fb02 f303 	mul.w	r3, r2, r3
 8004922:	461a      	mov	r2, r3
 8004924:	69fb      	ldr	r3, [r7, #28]
 8004926:	429a      	cmp	r2, r3
 8004928:	d8e6      	bhi.n	80048f8 <Lcd_Draw_Box+0x90>
 800492a:	f44f 6300 	mov.w	r3, #2048	; 0x800
 800492e:	f2c4 0301 	movt	r3, #16385	; 0x4001
 8004932:	f44f 6200 	mov.w	r2, #2048	; 0x800
 8004936:	f2c4 0201 	movt	r2, #16385	; 0x4001
 800493a:	68d2      	ldr	r2, [r2, #12]
 800493c:	f042 0210 	orr.w	r2, r2, #16
 8004940:	60da      	str	r2, [r3, #12]
 8004942:	3720      	adds	r7, #32
 8004944:	46bd      	mov	sp, r7
 8004946:	bd80      	pop	{r7, pc}

08004948 <Lcd_Init>:
 8004948:	b580      	push	{r7, lr}
 800494a:	af00      	add	r7, sp, #0
 800494c:	f7ff fc4c 	bl	80041e8 <_SPI1_Init>
 8004950:	f7ff fcd8 	bl	8004304 <Lcd_GPIO_Init>
 8004954:	f44f 6300 	mov.w	r3, #2048	; 0x800
 8004958:	f2c4 0301 	movt	r3, #16385	; 0x4001
 800495c:	f44f 6200 	mov.w	r2, #2048	; 0x800
 8004960:	f2c4 0201 	movt	r2, #16385	; 0x4001
 8004964:	68d2      	ldr	r2, [r2, #12]
 8004966:	f422 6200 	bic.w	r2, r2, #2048	; 0x800
 800496a:	60da      	str	r2, [r3, #12]
 800496c:	f7ff fd9a 	bl	80044a4 <Lcd_Reset>
 8004970:	20cf      	movs	r0, #207	; 0xcf
 8004972:	f7ff fdb9 	bl	80044e8 <Lcd_WR_REG>
 8004976:	2000      	movs	r0, #0
 8004978:	f7ff fde6 	bl	8004548 <Lcd_WR_DATA>
 800497c:	20d9      	movs	r0, #217	; 0xd9
 800497e:	f7ff fde3 	bl	8004548 <Lcd_WR_DATA>
 8004982:	2030      	movs	r0, #48	; 0x30
 8004984:	f7ff fde0 	bl	8004548 <Lcd_WR_DATA>
 8004988:	20ed      	movs	r0, #237	; 0xed
 800498a:	f7ff fdad 	bl	80044e8 <Lcd_WR_REG>
 800498e:	2064      	movs	r0, #100	; 0x64
 8004990:	f7ff fdda 	bl	8004548 <Lcd_WR_DATA>
 8004994:	2003      	movs	r0, #3
 8004996:	f7ff fdd7 	bl	8004548 <Lcd_WR_DATA>
 800499a:	2012      	movs	r0, #18
 800499c:	f7ff fdd4 	bl	8004548 <Lcd_WR_DATA>
 80049a0:	2081      	movs	r0, #129	; 0x81
 80049a2:	f7ff fdd1 	bl	8004548 <Lcd_WR_DATA>
 80049a6:	20e8      	movs	r0, #232	; 0xe8
 80049a8:	f7ff fd9e 	bl	80044e8 <Lcd_WR_REG>
 80049ac:	2085      	movs	r0, #133	; 0x85
 80049ae:	f7ff fdcb 	bl	8004548 <Lcd_WR_DATA>
 80049b2:	2010      	movs	r0, #16
 80049b4:	f7ff fdc8 	bl	8004548 <Lcd_WR_DATA>
 80049b8:	207a      	movs	r0, #122	; 0x7a
 80049ba:	f7ff fdc5 	bl	8004548 <Lcd_WR_DATA>
 80049be:	20cb      	movs	r0, #203	; 0xcb
 80049c0:	f7ff fd92 	bl	80044e8 <Lcd_WR_REG>
 80049c4:	2039      	movs	r0, #57	; 0x39
 80049c6:	f7ff fdbf 	bl	8004548 <Lcd_WR_DATA>
 80049ca:	202c      	movs	r0, #44	; 0x2c
 80049cc:	f7ff fdbc 	bl	8004548 <Lcd_WR_DATA>
 80049d0:	2000      	movs	r0, #0
 80049d2:	f7ff fdb9 	bl	8004548 <Lcd_WR_DATA>
 80049d6:	2034      	movs	r0, #52	; 0x34
 80049d8:	f7ff fdb6 	bl	8004548 <Lcd_WR_DATA>
 80049dc:	2002      	movs	r0, #2
 80049de:	f7ff fdb3 	bl	8004548 <Lcd_WR_DATA>
 80049e2:	20f7      	movs	r0, #247	; 0xf7
 80049e4:	f7ff fd80 	bl	80044e8 <Lcd_WR_REG>
 80049e8:	2020      	movs	r0, #32
 80049ea:	f7ff fdad 	bl	8004548 <Lcd_WR_DATA>
 80049ee:	20ea      	movs	r0, #234	; 0xea
 80049f0:	f7ff fd7a 	bl	80044e8 <Lcd_WR_REG>
 80049f4:	2000      	movs	r0, #0
 80049f6:	f7ff fda7 	bl	8004548 <Lcd_WR_DATA>
 80049fa:	2000      	movs	r0, #0
 80049fc:	f7ff fda4 	bl	8004548 <Lcd_WR_DATA>
 8004a00:	20c0      	movs	r0, #192	; 0xc0
 8004a02:	f7ff fd71 	bl	80044e8 <Lcd_WR_REG>
 8004a06:	201b      	movs	r0, #27
 8004a08:	f7ff fd9e 	bl	8004548 <Lcd_WR_DATA>
 8004a0c:	20c1      	movs	r0, #193	; 0xc1
 8004a0e:	f7ff fd6b 	bl	80044e8 <Lcd_WR_REG>
 8004a12:	2012      	movs	r0, #18
 8004a14:	f7ff fd98 	bl	8004548 <Lcd_WR_DATA>
 8004a18:	20c5      	movs	r0, #197	; 0xc5
 8004a1a:	f7ff fd65 	bl	80044e8 <Lcd_WR_REG>
 8004a1e:	2008      	movs	r0, #8
 8004a20:	f7ff fd92 	bl	8004548 <Lcd_WR_DATA>
 8004a24:	2026      	movs	r0, #38	; 0x26
 8004a26:	f7ff fd8f 	bl	8004548 <Lcd_WR_DATA>
 8004a2a:	20c7      	movs	r0, #199	; 0xc7
 8004a2c:	f7ff fd5c 	bl	80044e8 <Lcd_WR_REG>
 8004a30:	20b7      	movs	r0, #183	; 0xb7
 8004a32:	f7ff fd89 	bl	8004548 <Lcd_WR_DATA>
 8004a36:	2036      	movs	r0, #54	; 0x36
 8004a38:	f7ff fd56 	bl	80044e8 <Lcd_WR_REG>
 8004a3c:	2008      	movs	r0, #8
 8004a3e:	f7ff fd83 	bl	8004548 <Lcd_WR_DATA>
 8004a42:	203a      	movs	r0, #58	; 0x3a
 8004a44:	f7ff fd50 	bl	80044e8 <Lcd_WR_REG>
 8004a48:	2055      	movs	r0, #85	; 0x55
 8004a4a:	f7ff fd7d 	bl	8004548 <Lcd_WR_DATA>
 8004a4e:	20b1      	movs	r0, #177	; 0xb1
 8004a50:	f7ff fd4a 	bl	80044e8 <Lcd_WR_REG>
 8004a54:	2000      	movs	r0, #0
 8004a56:	f7ff fd77 	bl	8004548 <Lcd_WR_DATA>
 8004a5a:	201a      	movs	r0, #26
 8004a5c:	f7ff fd74 	bl	8004548 <Lcd_WR_DATA>
 8004a60:	20b6      	movs	r0, #182	; 0xb6
 8004a62:	f7ff fd41 	bl	80044e8 <Lcd_WR_REG>
 8004a66:	200a      	movs	r0, #10
 8004a68:	f7ff fd6e 	bl	8004548 <Lcd_WR_DATA>
 8004a6c:	20a2      	movs	r0, #162	; 0xa2
 8004a6e:	f7ff fd6b 	bl	8004548 <Lcd_WR_DATA>
 8004a72:	20f2      	movs	r0, #242	; 0xf2
 8004a74:	f7ff fd38 	bl	80044e8 <Lcd_WR_REG>
 8004a78:	2000      	movs	r0, #0
 8004a7a:	f7ff fd65 	bl	8004548 <Lcd_WR_DATA>
 8004a7e:	2026      	movs	r0, #38	; 0x26
 8004a80:	f7ff fd32 	bl	80044e8 <Lcd_WR_REG>
 8004a84:	2001      	movs	r0, #1
 8004a86:	f7ff fd5f 	bl	8004548 <Lcd_WR_DATA>
 8004a8a:	20e0      	movs	r0, #224	; 0xe0
 8004a8c:	f7ff fd2c 	bl	80044e8 <Lcd_WR_REG>
 8004a90:	200f      	movs	r0, #15
 8004a92:	f7ff fd59 	bl	8004548 <Lcd_WR_DATA>
 8004a96:	201d      	movs	r0, #29
 8004a98:	f7ff fd56 	bl	8004548 <Lcd_WR_DATA>
 8004a9c:	201a      	movs	r0, #26
 8004a9e:	f7ff fd53 	bl	8004548 <Lcd_WR_DATA>
 8004aa2:	200a      	movs	r0, #10
 8004aa4:	f7ff fd50 	bl	8004548 <Lcd_WR_DATA>
 8004aa8:	200d      	movs	r0, #13
 8004aaa:	f7ff fd4d 	bl	8004548 <Lcd_WR_DATA>
 8004aae:	2007      	movs	r0, #7
 8004ab0:	f7ff fd4a 	bl	8004548 <Lcd_WR_DATA>
 8004ab4:	2049      	movs	r0, #73	; 0x49
 8004ab6:	f7ff fd47 	bl	8004548 <Lcd_WR_DATA>
 8004aba:	2066      	movs	r0, #102	; 0x66
 8004abc:	f7ff fd44 	bl	8004548 <Lcd_WR_DATA>
 8004ac0:	203b      	movs	r0, #59	; 0x3b
 8004ac2:	f7ff fd41 	bl	8004548 <Lcd_WR_DATA>
 8004ac6:	2007      	movs	r0, #7
 8004ac8:	f7ff fd3e 	bl	8004548 <Lcd_WR_DATA>
 8004acc:	2011      	movs	r0, #17
 8004ace:	f7ff fd3b 	bl	8004548 <Lcd_WR_DATA>
 8004ad2:	2001      	movs	r0, #1
 8004ad4:	f7ff fd38 	bl	8004548 <Lcd_WR_DATA>
 8004ad8:	2009      	movs	r0, #9
 8004ada:	f7ff fd35 	bl	8004548 <Lcd_WR_DATA>
 8004ade:	2005      	movs	r0, #5
 8004ae0:	f7ff fd32 	bl	8004548 <Lcd_WR_DATA>
 8004ae4:	2004      	movs	r0, #4
 8004ae6:	f7ff fd2f 	bl	8004548 <Lcd_WR_DATA>
 8004aea:	20e1      	movs	r0, #225	; 0xe1
 8004aec:	f7ff fcfc 	bl	80044e8 <Lcd_WR_REG>
 8004af0:	2000      	movs	r0, #0
 8004af2:	f7ff fd29 	bl	8004548 <Lcd_WR_DATA>
 8004af6:	2018      	movs	r0, #24
 8004af8:	f7ff fd26 	bl	8004548 <Lcd_WR_DATA>
 8004afc:	201d      	movs	r0, #29
 8004afe:	f7ff fd23 	bl	8004548 <Lcd_WR_DATA>
 8004b02:	2002      	movs	r0, #2
 8004b04:	f7ff fd20 	bl	8004548 <Lcd_WR_DATA>
 8004b08:	200f      	movs	r0, #15
 8004b0a:	f7ff fd1d 	bl	8004548 <Lcd_WR_DATA>
 8004b0e:	2004      	movs	r0, #4
 8004b10:	f7ff fd1a 	bl	8004548 <Lcd_WR_DATA>
 8004b14:	2036      	movs	r0, #54	; 0x36
 8004b16:	f7ff fd17 	bl	8004548 <Lcd_WR_DATA>
 8004b1a:	2013      	movs	r0, #19
 8004b1c:	f7ff fd14 	bl	8004548 <Lcd_WR_DATA>
 8004b20:	204c      	movs	r0, #76	; 0x4c
 8004b22:	f7ff fd11 	bl	8004548 <Lcd_WR_DATA>
 8004b26:	2007      	movs	r0, #7
 8004b28:	f7ff fd0e 	bl	8004548 <Lcd_WR_DATA>
 8004b2c:	2013      	movs	r0, #19
 8004b2e:	f7ff fd0b 	bl	8004548 <Lcd_WR_DATA>
 8004b32:	200f      	movs	r0, #15
 8004b34:	f7ff fd08 	bl	8004548 <Lcd_WR_DATA>
 8004b38:	202e      	movs	r0, #46	; 0x2e
 8004b3a:	f7ff fd05 	bl	8004548 <Lcd_WR_DATA>
 8004b3e:	202f      	movs	r0, #47	; 0x2f
 8004b40:	f7ff fd02 	bl	8004548 <Lcd_WR_DATA>
 8004b44:	2005      	movs	r0, #5
 8004b46:	f7ff fcff 	bl	8004548 <Lcd_WR_DATA>
 8004b4a:	202b      	movs	r0, #43	; 0x2b
 8004b4c:	f7ff fccc 	bl	80044e8 <Lcd_WR_REG>
 8004b50:	2000      	movs	r0, #0
 8004b52:	f7ff fcf9 	bl	8004548 <Lcd_WR_DATA>
 8004b56:	2000      	movs	r0, #0
 8004b58:	f7ff fcf6 	bl	8004548 <Lcd_WR_DATA>
 8004b5c:	2001      	movs	r0, #1
 8004b5e:	f7ff fcf3 	bl	8004548 <Lcd_WR_DATA>
 8004b62:	203f      	movs	r0, #63	; 0x3f
 8004b64:	f7ff fcf0 	bl	8004548 <Lcd_WR_DATA>
 8004b68:	202a      	movs	r0, #42	; 0x2a
 8004b6a:	f7ff fcbd 	bl	80044e8 <Lcd_WR_REG>
 8004b6e:	2000      	movs	r0, #0
 8004b70:	f7ff fcea 	bl	8004548 <Lcd_WR_DATA>
 8004b74:	2000      	movs	r0, #0
 8004b76:	f7ff fce7 	bl	8004548 <Lcd_WR_DATA>
 8004b7a:	2000      	movs	r0, #0
 8004b7c:	f7ff fce4 	bl	8004548 <Lcd_WR_DATA>
 8004b80:	20ef      	movs	r0, #239	; 0xef
 8004b82:	f7ff fce1 	bl	8004548 <Lcd_WR_DATA>
 8004b86:	2011      	movs	r0, #17
 8004b88:	f7ff fcae 	bl	80044e8 <Lcd_WR_REG>
 8004b8c:	2078      	movs	r0, #120	; 0x78
 8004b8e:	f7ff fba5 	bl	80042dc <_Delay>
 8004b92:	2029      	movs	r0, #41	; 0x29
 8004b94:	f7ff fca8 	bl	80044e8 <Lcd_WR_REG>
 8004b98:	2003      	movs	r0, #3
 8004b9a:	f7ff fd05 	bl	80045a8 <Lcd_Set_Display_Mode>
 8004b9e:	f7ff fe5d 	bl	800485c <Lcd_Clr_Screen>
 8004ba2:	f44f 7096 	mov.w	r0, #300	; 0x12c
 8004ba6:	f7ff fb99 	bl	80042dc <_Delay>
 8004baa:	f44f 6300 	mov.w	r3, #2048	; 0x800
 8004bae:	f2c4 0301 	movt	r3, #16385	; 0x4001
 8004bb2:	f44f 6200 	mov.w	r2, #2048	; 0x800
 8004bb6:	f2c4 0201 	movt	r2, #16385	; 0x4001
 8004bba:	68d2      	ldr	r2, [r2, #12]
 8004bbc:	f442 6200 	orr.w	r2, r2, #2048	; 0x800
 8004bc0:	60da      	str	r2, [r3, #12]
 8004bc2:	bd80      	pop	{r7, pc}

08004bc4 <Lcd_Put_Pixel>:
 8004bc4:	b580      	push	{r7, lr}
 8004bc6:	b082      	sub	sp, #8
 8004bc8:	af00      	add	r7, sp, #0
 8004bca:	4613      	mov	r3, r2
 8004bcc:	4602      	mov	r2, r0
 8004bce:	80fa      	strh	r2, [r7, #6]
 8004bd0:	460a      	mov	r2, r1
 8004bd2:	80ba      	strh	r2, [r7, #4]
 8004bd4:	807b      	strh	r3, [r7, #2]
 8004bd6:	88fa      	ldrh	r2, [r7, #6]
 8004bd8:	88bb      	ldrh	r3, [r7, #4]
 8004bda:	4610      	mov	r0, r2
 8004bdc:	4619      	mov	r1, r3
 8004bde:	f7ff fdc9 	bl	8004774 <Lcd_Set_Cursor>
 8004be2:	887b      	ldrh	r3, [r7, #2]
 8004be4:	4618      	mov	r0, r3
 8004be6:	f7ff fbdf 	bl	80043a8 <Lcd_Write_Data_16Bit>
 8004bea:	3708      	adds	r7, #8
 8004bec:	46bd      	mov	sp, r7
 8004bee:	bd80      	pop	{r7, pc}

08004bf0 <LED_Init>:
 8004bf0:	b480      	push	{r7}
 8004bf2:	af00      	add	r7, sp, #0
 8004bf4:	f44f 5380 	mov.w	r3, #4096	; 0x1000
 8004bf8:	f2c4 0302 	movt	r3, #16386	; 0x4002
 8004bfc:	f44f 5280 	mov.w	r2, #4096	; 0x1000
 8004c00:	f2c4 0202 	movt	r2, #16386	; 0x4002
 8004c04:	6992      	ldr	r2, [r2, #24]
 8004c06:	f042 0208 	orr.w	r2, r2, #8
 8004c0a:	619a      	str	r2, [r3, #24]
 8004c0c:	f44f 6340 	mov.w	r3, #3072	; 0xc00
 8004c10:	f2c4 0301 	movt	r3, #16385	; 0x4001
 8004c14:	f44f 6240 	mov.w	r2, #3072	; 0xc00
 8004c18:	f2c4 0201 	movt	r2, #16385	; 0x4001
 8004c1c:	6852      	ldr	r2, [r2, #4]
 8004c1e:	f022 02ff 	bic.w	r2, r2, #255	; 0xff
 8004c22:	f042 0266 	orr.w	r2, r2, #102	; 0x66
 8004c26:	605a      	str	r2, [r3, #4]
 8004c28:	f44f 6340 	mov.w	r3, #3072	; 0xc00
 8004c2c:	f2c4 0301 	movt	r3, #16385	; 0x4001
 8004c30:	f44f 6240 	mov.w	r2, #3072	; 0xc00
 8004c34:	f2c4 0201 	movt	r2, #16385	; 0x4001
 8004c38:	68d2      	ldr	r2, [r2, #12]
 8004c3a:	f442 7240 	orr.w	r2, r2, #768	; 0x300
 8004c3e:	60da      	str	r2, [r3, #12]
 8004c40:	46bd      	mov	sp, r7
 8004c42:	f85d 7b04 	ldr.w	r7, [sp], #4
 8004c46:	4770      	bx	lr

08004c48 <LED_Display>:
 8004c48:	b480      	push	{r7}
 8004c4a:	b083      	sub	sp, #12
 8004c4c:	af00      	add	r7, sp, #0
 8004c4e:	6078      	str	r0, [r7, #4]
 8004c50:	f44f 6340 	mov.w	r3, #3072	; 0xc00
 8004c54:	f2c4 0301 	movt	r3, #16385	; 0x4001
 8004c58:	f44f 6240 	mov.w	r2, #3072	; 0xc00
 8004c5c:	f2c4 0201 	movt	r2, #16385	; 0x4001
 8004c60:	68d2      	ldr	r2, [r2, #12]
 8004c62:	f422 7140 	bic.w	r1, r2, #768	; 0x300
 8004c66:	687a      	ldr	r2, [r7, #4]
 8004c68:	43d2      	mvns	r2, r2
 8004c6a:	f002 0203 	and.w	r2, r2, #3
 8004c6e:	0212      	lsls	r2, r2, #8
 8004c70:	430a      	orrs	r2, r1
 8004c72:	60da      	str	r2, [r3, #12]
 8004c74:	370c      	adds	r7, #12
 8004c76:	46bd      	mov	sp, r7
 8004c78:	f85d 7b04 	ldr.w	r7, [sp], #4
 8004c7c:	4770      	bx	lr
 8004c7e:	bf00      	nop

08004c80 <LED_All_On>:
 8004c80:	b480      	push	{r7}
 8004c82:	af00      	add	r7, sp, #0
 8004c84:	f44f 6340 	mov.w	r3, #3072	; 0xc00
 8004c88:	f2c4 0301 	movt	r3, #16385	; 0x4001
 8004c8c:	f44f 6240 	mov.w	r2, #3072	; 0xc00
 8004c90:	f2c4 0201 	movt	r2, #16385	; 0x4001
 8004c94:	68d2      	ldr	r2, [r2, #12]
 8004c96:	f422 7240 	bic.w	r2, r2, #768	; 0x300
 8004c9a:	60da      	str	r2, [r3, #12]
 8004c9c:	46bd      	mov	sp, r7
 8004c9e:	f85d 7b04 	ldr.w	r7, [sp], #4
 8004ca2:	4770      	bx	lr

08004ca4 <LED_All_Off>:
 8004ca4:	b480      	push	{r7}
 8004ca6:	af00      	add	r7, sp, #0
 8004ca8:	f44f 6340 	mov.w	r3, #3072	; 0xc00
 8004cac:	f2c4 0301 	movt	r3, #16385	; 0x4001
 8004cb0:	f44f 6240 	mov.w	r2, #3072	; 0xc00
 8004cb4:	f2c4 0201 	movt	r2, #16385	; 0x4001
 8004cb8:	68d2      	ldr	r2, [r2, #12]
 8004cba:	f442 7240 	orr.w	r2, r2, #768	; 0x300
 8004cbe:	60da      	str	r2, [r3, #12]
 8004cc0:	46bd      	mov	sp, r7
 8004cc2:	f85d 7b04 	ldr.w	r7, [sp], #4
 8004cc6:	4770      	bx	lr

08004cc8 <LED_0_Toggle>:
 8004cc8:	b480      	push	{r7}
 8004cca:	af00      	add	r7, sp, #0
 8004ccc:	f44f 6340 	mov.w	r3, #3072	; 0xc00
 8004cd0:	f2c4 0301 	movt	r3, #16385	; 0x4001
 8004cd4:	f44f 6240 	mov.w	r2, #3072	; 0xc00
 8004cd8:	f2c4 0201 	movt	r2, #16385	; 0x4001
 8004cdc:	68d2      	ldr	r2, [r2, #12]
 8004cde:	f482 7280 	eor.w	r2, r2, #256	; 0x100
 8004ce2:	60da      	str	r2, [r3, #12]
 8004ce4:	46bd      	mov	sp, r7
 8004ce6:	f85d 7b04 	ldr.w	r7, [sp], #4
 8004cea:	4770      	bx	lr

08004cec <LED_1_Toggle>:
 8004cec:	b480      	push	{r7}
 8004cee:	af00      	add	r7, sp, #0
 8004cf0:	f44f 6340 	mov.w	r3, #3072	; 0xc00
 8004cf4:	f2c4 0301 	movt	r3, #16385	; 0x4001
 8004cf8:	f44f 6240 	mov.w	r2, #3072	; 0xc00
 8004cfc:	f2c4 0201 	movt	r2, #16385	; 0x4001
 8004d00:	68d2      	ldr	r2, [r2, #12]
 8004d02:	f482 7200 	eor.w	r2, r2, #512	; 0x200
 8004d06:	60da      	str	r2, [r3, #12]
 8004d08:	46bd      	mov	sp, r7
 8004d0a:	f85d 7b04 	ldr.w	r7, [sp], #4
 8004d0e:	4770      	bx	lr

08004d10 <Task1>:
 8004d10:	b580      	push	{r7, lr}
 8004d12:	b082      	sub	sp, #8
 8004d14:	af00      	add	r7, sp, #0
 8004d16:	6078      	str	r0, [r7, #4]
 8004d18:	f7ff ffd6 	bl	8004cc8 <LED_0_Toggle>
 8004d1c:	f44f 70fa 	mov.w	r0, #500	; 0x1f4
 8004d20:	f7fe fe4c 	bl	80039bc <OS_Block_Current_Task>
 8004d24:	e7f8      	b.n	8004d18 <Task1+0x8>
 8004d26:	bf00      	nop

08004d28 <Task2>:
 8004d28:	b580      	push	{r7, lr}
 8004d2a:	b084      	sub	sp, #16
 8004d2c:	af00      	add	r7, sp, #0
 8004d2e:	6078      	str	r0, [r7, #4]
 8004d30:	2300      	movs	r3, #0
 8004d32:	60fb      	str	r3, [r7, #12]
 8004d34:	f7ff ffda 	bl	8004cec <LED_1_Toggle>
 8004d38:	2064      	movs	r0, #100	; 0x64
 8004d3a:	f7fe fe3f 	bl	80039bc <OS_Block_Current_Task>
 8004d3e:	e7f9      	b.n	8004d34 <Task2+0xc>

08004d40 <Task3>:
 8004d40:	b580      	push	{r7, lr}
 8004d42:	b090      	sub	sp, #64	; 0x40
 8004d44:	af00      	add	r7, sp, #0
 8004d46:	6078      	str	r0, [r7, #4]
 8004d48:	2300      	movs	r3, #0
 8004d4a:	63fb      	str	r3, [r7, #60]	; 0x3c
 8004d4c:	2004      	movs	r0, #4
 8004d4e:	210a      	movs	r1, #10
 8004d50:	f7fe fbb2 	bl	80034b8 <OS_Create_Queue>
 8004d54:	63b8      	str	r0, [r7, #56]	; 0x38
 8004d56:	2020      	movs	r0, #32
 8004d58:	2105      	movs	r1, #5
 8004d5a:	f7fe fbad 	bl	80034b8 <OS_Create_Queue>
 8004d5e:	6378      	str	r0, [r7, #52]	; 0x34
 8004d60:	6bfb      	ldr	r3, [r7, #60]	; 0x3c
 8004d62:	1c5a      	adds	r2, r3, #1
 8004d64:	63fa      	str	r2, [r7, #60]	; 0x3c
 8004d66:	f24c 6008 	movw	r0, #50696	; 0xc608
 8004d6a:	f6c0 0000 	movt	r0, #2048	; 0x800
 8004d6e:	4619      	mov	r1, r3
 8004d70:	f001 fa9c 	bl	80062ac <Uart1_Printf>
 8004d74:	f04f 33ff 	mov.w	r3, #4294967295
 8004d78:	60bb      	str	r3, [r7, #8]
 8004d7a:	f107 0308 	add.w	r3, r7, #8
 8004d7e:	6bb8      	ldr	r0, [r7, #56]	; 0x38
 8004d80:	4619      	mov	r1, r3
 8004d82:	2204      	movs	r2, #4
 8004d84:	f241 3388 	movw	r3, #5000	; 0x1388
 8004d88:	f7fe fcf8 	bl	800377c <OS_Signal_Wait>
 8004d8c:	6338      	str	r0, [r7, #48]	; 0x30
 8004d8e:	f24c 6014 	movw	r0, #50708	; 0xc614
 8004d92:	f6c0 0000 	movt	r0, #2048	; 0x800
 8004d96:	6b39      	ldr	r1, [r7, #48]	; 0x30
 8004d98:	f001 fa88 	bl	80062ac <Uart1_Printf>
 8004d9c:	6b3b      	ldr	r3, [r7, #48]	; 0x30
 8004d9e:	f1b3 3fff 	cmp.w	r3, #4294967295
 8004da2:	d106      	bne.n	8004db2 <Task3+0x72>
 8004da4:	f24c 6028 	movw	r0, #50728	; 0xc628
 8004da8:	f6c0 0000 	movt	r0, #2048	; 0x800
 8004dac:	f001 fa7e 	bl	80062ac <Uart1_Printf>
 8004db0:	e02b      	b.n	8004e0a <Task3+0xca>
 8004db2:	6b3b      	ldr	r3, [r7, #48]	; 0x30
 8004db4:	f113 0f02 	cmn.w	r3, #2
 8004db8:	d106      	bne.n	8004dc8 <Task3+0x88>
 8004dba:	f24c 6038 	movw	r0, #50744	; 0xc638
 8004dbe:	f6c0 0000 	movt	r0, #2048	; 0x800
 8004dc2:	f001 fa73 	bl	80062ac <Uart1_Printf>
 8004dc6:	e020      	b.n	8004e0a <Task3+0xca>
 8004dc8:	6b3b      	ldr	r3, [r7, #48]	; 0x30
 8004dca:	f113 0f03 	cmn.w	r3, #3
 8004dce:	d106      	bne.n	8004dde <Task3+0x9e>
 8004dd0:	f24c 6054 	movw	r0, #50772	; 0xc654
 8004dd4:	f6c0 0000 	movt	r0, #2048	; 0x800
 8004dd8:	f001 fa68 	bl	80062ac <Uart1_Printf>
 8004ddc:	e015      	b.n	8004e0a <Task3+0xca>
 8004dde:	6b3b      	ldr	r3, [r7, #48]	; 0x30
 8004de0:	f113 0f04 	cmn.w	r3, #4
 8004de4:	d106      	bne.n	8004df4 <Task3+0xb4>
 8004de6:	f24c 6064 	movw	r0, #50788	; 0xc664
 8004dea:	f6c0 0000 	movt	r0, #2048	; 0x800
 8004dee:	f001 fa5d 	bl	80062ac <Uart1_Printf>
 8004df2:	e00a      	b.n	8004e0a <Task3+0xca>
 8004df4:	6b3b      	ldr	r3, [r7, #48]	; 0x30
 8004df6:	2b00      	cmp	r3, #0
 8004df8:	d107      	bne.n	8004e0a <Task3+0xca>
 8004dfa:	68bb      	ldr	r3, [r7, #8]
 8004dfc:	f24c 6078 	movw	r0, #50808	; 0xc678
 8004e00:	f6c0 0000 	movt	r0, #2048	; 0x800
 8004e04:	4619      	mov	r1, r3
 8004e06:	f001 fa51 	bl	80062ac <Uart1_Printf>
 8004e0a:	f107 030c 	add.w	r3, r7, #12
 8004e0e:	6b78      	ldr	r0, [r7, #52]	; 0x34
 8004e10:	4619      	mov	r1, r3
 8004e12:	2220      	movs	r2, #32
 8004e14:	f241 3388 	movw	r3, #5000	; 0x1388
 8004e18:	f7fe fcb0 	bl	800377c <OS_Signal_Wait>
 8004e1c:	62f8      	str	r0, [r7, #44]	; 0x2c
 8004e1e:	f24c 6090 	movw	r0, #50832	; 0xc690
 8004e22:	f6c0 0000 	movt	r0, #2048	; 0x800
 8004e26:	6af9      	ldr	r1, [r7, #44]	; 0x2c
 8004e28:	f001 fa40 	bl	80062ac <Uart1_Printf>
 8004e2c:	6b3b      	ldr	r3, [r7, #48]	; 0x30
 8004e2e:	f1b3 3fff 	cmp.w	r3, #4294967295
 8004e32:	d106      	bne.n	8004e42 <Task3+0x102>
 8004e34:	f24c 6028 	movw	r0, #50728	; 0xc628
 8004e38:	f6c0 0000 	movt	r0, #2048	; 0x800
 8004e3c:	f001 fa36 	bl	80062ac <Uart1_Printf>
 8004e40:	e02c      	b.n	8004e9c <Task3+0x15c>
 8004e42:	6b3b      	ldr	r3, [r7, #48]	; 0x30
 8004e44:	f113 0f02 	cmn.w	r3, #2
 8004e48:	d106      	bne.n	8004e58 <Task3+0x118>
 8004e4a:	f24c 6038 	movw	r0, #50744	; 0xc638
 8004e4e:	f6c0 0000 	movt	r0, #2048	; 0x800
 8004e52:	f001 fa2b 	bl	80062ac <Uart1_Printf>
 8004e56:	e021      	b.n	8004e9c <Task3+0x15c>
 8004e58:	6b3b      	ldr	r3, [r7, #48]	; 0x30
 8004e5a:	f113 0f03 	cmn.w	r3, #3
 8004e5e:	d106      	bne.n	8004e6e <Task3+0x12e>
 8004e60:	f24c 6054 	movw	r0, #50772	; 0xc654
 8004e64:	f6c0 0000 	movt	r0, #2048	; 0x800
 8004e68:	f001 fa20 	bl	80062ac <Uart1_Printf>
 8004e6c:	e016      	b.n	8004e9c <Task3+0x15c>
 8004e6e:	6b3b      	ldr	r3, [r7, #48]	; 0x30
 8004e70:	f113 0f04 	cmn.w	r3, #4
 8004e74:	d106      	bne.n	8004e84 <Task3+0x144>
 8004e76:	f24c 6064 	movw	r0, #50788	; 0xc664
 8004e7a:	f6c0 0000 	movt	r0, #2048	; 0x800
 8004e7e:	f001 fa15 	bl	80062ac <Uart1_Printf>
 8004e82:	e00b      	b.n	8004e9c <Task3+0x15c>
 8004e84:	6b3b      	ldr	r3, [r7, #48]	; 0x30
 8004e86:	2b00      	cmp	r3, #0
 8004e88:	d108      	bne.n	8004e9c <Task3+0x15c>
 8004e8a:	f107 030c 	add.w	r3, r7, #12
 8004e8e:	f24c 60a4 	movw	r0, #50852	; 0xc6a4
 8004e92:	f6c0 0000 	movt	r0, #2048	; 0x800
 8004e96:	4619      	mov	r1, r3
 8004e98:	f001 fa08 	bl	80062ac <Uart1_Printf>
 8004e9c:	f44f 70fa 	mov.w	r0, #500	; 0x1f4
 8004ea0:	f7fe fd8c 	bl	80039bc <OS_Block_Current_Task>
 8004ea4:	e75c      	b.n	8004d60 <Task3+0x20>
 8004ea6:	bf00      	nop

08004ea8 <TaskDummy>:
 8004ea8:	b580      	push	{r7, lr}
 8004eaa:	b082      	sub	sp, #8
 8004eac:	af00      	add	r7, sp, #0
 8004eae:	6078      	str	r0, [r7, #4]
 8004eb0:	f640 30b8 	movw	r0, #3000	; 0xbb8
 8004eb4:	f7fe fd82 	bl	80039bc <OS_Block_Current_Task>
 8004eb8:	f44f 707a 	mov.w	r0, #1000	; 0x3e8
 8004ebc:	f7fe fd7e 	bl	80039bc <OS_Block_Current_Task>
 8004ec0:	e7fa      	b.n	8004eb8 <TaskDummy+0x10>
 8004ec2:	bf00      	nop

08004ec4 <Main>:
 8004ec4:	b580      	push	{r7, lr}
 8004ec6:	b082      	sub	sp, #8
 8004ec8:	af00      	add	r7, sp, #0
 8004eca:	f24c 60bc 	movw	r0, #50876	; 0xc6bc
 8004ece:	f6c0 0000 	movt	r0, #2048	; 0x800
 8004ed2:	f001 f9eb 	bl	80062ac <Uart1_Printf>
 8004ed6:	f7fe f96d 	bl	80031b4 <OS_Init>
 8004eda:	f644 5011 	movw	r0, #19729	; 0x4d11
 8004ede:	f6c0 0000 	movt	r0, #2048	; 0x800
 8004ee2:	2100      	movs	r1, #0
 8004ee4:	2205      	movs	r2, #5
 8004ee6:	2380      	movs	r3, #128	; 0x80
 8004ee8:	f7fe fa52 	bl	8003390 <OS_Create_Task_Simple>
 8004eec:	f644 5029 	movw	r0, #19753	; 0x4d29
 8004ef0:	f6c0 0000 	movt	r0, #2048	; 0x800
 8004ef4:	2100      	movs	r1, #0
 8004ef6:	2205      	movs	r2, #5
 8004ef8:	f44f 7380 	mov.w	r3, #256	; 0x100
 8004efc:	f7fe fa48 	bl	8003390 <OS_Create_Task_Simple>
 8004f00:	f644 5041 	movw	r0, #19777	; 0x4d41
 8004f04:	f6c0 0000 	movt	r0, #2048	; 0x800
 8004f08:	2100      	movs	r1, #0
 8004f0a:	2207      	movs	r2, #7
 8004f0c:	f44f 6380 	mov.w	r3, #1024	; 0x400
 8004f10:	f7fe fa3e 	bl	8003390 <OS_Create_Task_Simple>
 8004f14:	2304      	movs	r3, #4
 8004f16:	607b      	str	r3, [r7, #4]
 8004f18:	e013      	b.n	8004f42 <Main+0x7e>
 8004f1a:	687a      	ldr	r2, [r7, #4]
 8004f1c:	17d3      	asrs	r3, r2, #31
 8004f1e:	0fdb      	lsrs	r3, r3, #31
 8004f20:	441a      	add	r2, r3
 8004f22:	f002 0201 	and.w	r2, r2, #1
 8004f26:	1ad3      	subs	r3, r2, r3
 8004f28:	3305      	adds	r3, #5
 8004f2a:	f644 60a9 	movw	r0, #20137	; 0x4ea9
 8004f2e:	f6c0 0000 	movt	r0, #2048	; 0x800
 8004f32:	2100      	movs	r1, #0
 8004f34:	461a      	mov	r2, r3
 8004f36:	2380      	movs	r3, #128	; 0x80
 8004f38:	f7fe fa2a 	bl	8003390 <OS_Create_Task_Simple>
 8004f3c:	687b      	ldr	r3, [r7, #4]
 8004f3e:	3301      	adds	r3, #1
 8004f40:	607b      	str	r3, [r7, #4]
 8004f42:	687b      	ldr	r3, [r7, #4]
 8004f44:	2b3c      	cmp	r3, #60	; 0x3c
 8004f46:	dde8      	ble.n	8004f1a <Main+0x56>
 8004f48:	f7fe fb02 	bl	8003550 <OS_Scheduler_Start>
 8004f4c:	e7fe      	b.n	8004f4c <Main+0x88>
 8004f4e:	bf00      	nop

08004f50 <pq_init>:
 8004f50:	b480      	push	{r7}
 8004f52:	b083      	sub	sp, #12
 8004f54:	af00      	add	r7, sp, #0
 8004f56:	6078      	str	r0, [r7, #4]
 8004f58:	687b      	ldr	r3, [r7, #4]
 8004f5a:	2200      	movs	r2, #0
 8004f5c:	f8c3 20f4 	str.w	r2, [r3, #244]	; 0xf4
 8004f60:	370c      	adds	r7, #12
 8004f62:	46bd      	mov	sp, r7
 8004f64:	f85d 7b04 	ldr.w	r7, [sp], #4
 8004f68:	4770      	bx	lr
 8004f6a:	bf00      	nop

08004f6c <pq_compare_delay>:
 8004f6c:	b480      	push	{r7}
 8004f6e:	b083      	sub	sp, #12
 8004f70:	af00      	add	r7, sp, #0
 8004f72:	6078      	str	r0, [r7, #4]
 8004f74:	6039      	str	r1, [r7, #0]
 8004f76:	687b      	ldr	r3, [r7, #4]
 8004f78:	68db      	ldr	r3, [r3, #12]
 8004f7a:	2b01      	cmp	r3, #1
 8004f7c:	d106      	bne.n	8004f8c <pq_compare_delay+0x20>
 8004f7e:	683b      	ldr	r3, [r7, #0]
 8004f80:	68db      	ldr	r3, [r3, #12]
 8004f82:	2b01      	cmp	r3, #1
 8004f84:	d002      	beq.n	8004f8c <pq_compare_delay+0x20>
 8004f86:	f04f 33ff 	mov.w	r3, #4294967295
 8004f8a:	e012      	b.n	8004fb2 <pq_compare_delay+0x46>
 8004f8c:	687b      	ldr	r3, [r7, #4]
 8004f8e:	68db      	ldr	r3, [r3, #12]
 8004f90:	2b01      	cmp	r3, #1
 8004f92:	d005      	beq.n	8004fa0 <pq_compare_delay+0x34>
 8004f94:	683b      	ldr	r3, [r7, #0]
 8004f96:	68db      	ldr	r3, [r3, #12]
 8004f98:	2b01      	cmp	r3, #1
 8004f9a:	d101      	bne.n	8004fa0 <pq_compare_delay+0x34>
 8004f9c:	2301      	movs	r3, #1
 8004f9e:	e008      	b.n	8004fb2 <pq_compare_delay+0x46>
 8004fa0:	687b      	ldr	r3, [r7, #4]
 8004fa2:	e9d3 2306 	ldrd	r2, r3, [r3, #24]
 8004fa6:	4611      	mov	r1, r2
 8004fa8:	683b      	ldr	r3, [r7, #0]
 8004faa:	e9d3 2306 	ldrd	r2, r3, [r3, #24]
 8004fae:	4613      	mov	r3, r2
 8004fb0:	1acb      	subs	r3, r1, r3
 8004fb2:	4618      	mov	r0, r3
 8004fb4:	370c      	adds	r7, #12
 8004fb6:	46bd      	mov	sp, r7
 8004fb8:	f85d 7b04 	ldr.w	r7, [sp], #4
 8004fbc:	4770      	bx	lr
 8004fbe:	bf00      	nop

08004fc0 <pq_compare_ready>:
 8004fc0:	b480      	push	{r7}
 8004fc2:	b083      	sub	sp, #12
 8004fc4:	af00      	add	r7, sp, #0
 8004fc6:	6078      	str	r0, [r7, #4]
 8004fc8:	6039      	str	r1, [r7, #0]
 8004fca:	687b      	ldr	r3, [r7, #4]
 8004fcc:	68db      	ldr	r3, [r3, #12]
 8004fce:	2b00      	cmp	r3, #0
 8004fd0:	d106      	bne.n	8004fe0 <pq_compare_ready+0x20>
 8004fd2:	683b      	ldr	r3, [r7, #0]
 8004fd4:	68db      	ldr	r3, [r3, #12]
 8004fd6:	2b00      	cmp	r3, #0
 8004fd8:	d002      	beq.n	8004fe0 <pq_compare_ready+0x20>
 8004fda:	f04f 33ff 	mov.w	r3, #4294967295
 8004fde:	e01e      	b.n	800501e <pq_compare_ready+0x5e>
 8004fe0:	687b      	ldr	r3, [r7, #4]
 8004fe2:	68db      	ldr	r3, [r3, #12]
 8004fe4:	2b00      	cmp	r3, #0
 8004fe6:	d005      	beq.n	8004ff4 <pq_compare_ready+0x34>
 8004fe8:	683b      	ldr	r3, [r7, #0]
 8004fea:	68db      	ldr	r3, [r3, #12]
 8004fec:	2b00      	cmp	r3, #0
 8004fee:	d101      	bne.n	8004ff4 <pq_compare_ready+0x34>
 8004ff0:	2301      	movs	r3, #1
 8004ff2:	e014      	b.n	800501e <pq_compare_ready+0x5e>
 8004ff4:	687b      	ldr	r3, [r7, #4]
 8004ff6:	689a      	ldr	r2, [r3, #8]
 8004ff8:	683b      	ldr	r3, [r7, #0]
 8004ffa:	689b      	ldr	r3, [r3, #8]
 8004ffc:	429a      	cmp	r2, r3
 8004ffe:	d005      	beq.n	800500c <pq_compare_ready+0x4c>
 8005000:	687b      	ldr	r3, [r7, #4]
 8005002:	689a      	ldr	r2, [r3, #8]
 8005004:	683b      	ldr	r3, [r7, #0]
 8005006:	689b      	ldr	r3, [r3, #8]
 8005008:	1ad3      	subs	r3, r2, r3
 800500a:	e008      	b.n	800501e <pq_compare_ready+0x5e>
 800500c:	687b      	ldr	r3, [r7, #4]
 800500e:	e9d3 2304 	ldrd	r2, r3, [r3, #16]
 8005012:	4611      	mov	r1, r2
 8005014:	683b      	ldr	r3, [r7, #0]
 8005016:	e9d3 2304 	ldrd	r2, r3, [r3, #16]
 800501a:	4613      	mov	r3, r2
 800501c:	1acb      	subs	r3, r1, r3
 800501e:	4618      	mov	r0, r3
 8005020:	370c      	adds	r7, #12
 8005022:	46bd      	mov	sp, r7
 8005024:	f85d 7b04 	ldr.w	r7, [sp], #4
 8005028:	4770      	bx	lr
 800502a:	bf00      	nop

0800502c <pq_swap>:
 800502c:	b480      	push	{r7}
 800502e:	b085      	sub	sp, #20
 8005030:	af00      	add	r7, sp, #0
 8005032:	6078      	str	r0, [r7, #4]
 8005034:	6039      	str	r1, [r7, #0]
 8005036:	687b      	ldr	r3, [r7, #4]
 8005038:	681b      	ldr	r3, [r3, #0]
 800503a:	60fb      	str	r3, [r7, #12]
 800503c:	683b      	ldr	r3, [r7, #0]
 800503e:	681a      	ldr	r2, [r3, #0]
 8005040:	687b      	ldr	r3, [r7, #4]
 8005042:	601a      	str	r2, [r3, #0]
 8005044:	683b      	ldr	r3, [r7, #0]
 8005046:	68fa      	ldr	r2, [r7, #12]
 8005048:	601a      	str	r2, [r3, #0]
 800504a:	687b      	ldr	r3, [r7, #4]
 800504c:	681b      	ldr	r3, [r3, #0]
 800504e:	6a1b      	ldr	r3, [r3, #32]
 8005050:	60bb      	str	r3, [r7, #8]
 8005052:	687b      	ldr	r3, [r7, #4]
 8005054:	681b      	ldr	r3, [r3, #0]
 8005056:	683a      	ldr	r2, [r7, #0]
 8005058:	6812      	ldr	r2, [r2, #0]
 800505a:	6a12      	ldr	r2, [r2, #32]
 800505c:	621a      	str	r2, [r3, #32]
 800505e:	683b      	ldr	r3, [r7, #0]
 8005060:	681b      	ldr	r3, [r3, #0]
 8005062:	68ba      	ldr	r2, [r7, #8]
 8005064:	621a      	str	r2, [r3, #32]
 8005066:	3714      	adds	r7, #20
 8005068:	46bd      	mov	sp, r7
 800506a:	f85d 7b04 	ldr.w	r7, [sp], #4
 800506e:	4770      	bx	lr

08005070 <pq_heapify_up>:
 8005070:	b580      	push	{r7, lr}
 8005072:	b084      	sub	sp, #16
 8005074:	af00      	add	r7, sp, #0
 8005076:	60f8      	str	r0, [r7, #12]
 8005078:	60b9      	str	r1, [r7, #8]
 800507a:	607a      	str	r2, [r7, #4]
 800507c:	e015      	b.n	80050aa <pq_heapify_up+0x3a>
 800507e:	68bb      	ldr	r3, [r7, #8]
 8005080:	009b      	lsls	r3, r3, #2
 8005082:	68fa      	ldr	r2, [r7, #12]
 8005084:	441a      	add	r2, r3
 8005086:	68bb      	ldr	r3, [r7, #8]
 8005088:	3b01      	subs	r3, #1
 800508a:	0fd9      	lsrs	r1, r3, #31
 800508c:	440b      	add	r3, r1
 800508e:	105b      	asrs	r3, r3, #1
 8005090:	009b      	lsls	r3, r3, #2
 8005092:	68f9      	ldr	r1, [r7, #12]
 8005094:	440b      	add	r3, r1
 8005096:	4610      	mov	r0, r2
 8005098:	4619      	mov	r1, r3
 800509a:	f7ff ffc7 	bl	800502c <pq_swap>
 800509e:	68bb      	ldr	r3, [r7, #8]
 80050a0:	3b01      	subs	r3, #1
 80050a2:	0fda      	lsrs	r2, r3, #31
 80050a4:	4413      	add	r3, r2
 80050a6:	105b      	asrs	r3, r3, #1
 80050a8:	60bb      	str	r3, [r7, #8]
 80050aa:	68bb      	ldr	r3, [r7, #8]
 80050ac:	2b00      	cmp	r3, #0
 80050ae:	dd13      	ble.n	80050d8 <pq_heapify_up+0x68>
 80050b0:	68fb      	ldr	r3, [r7, #12]
 80050b2:	68ba      	ldr	r2, [r7, #8]
 80050b4:	f853 1022 	ldr.w	r1, [r3, r2, lsl #2]
 80050b8:	68bb      	ldr	r3, [r7, #8]
 80050ba:	3b01      	subs	r3, #1
 80050bc:	0fda      	lsrs	r2, r3, #31
 80050be:	4413      	add	r3, r2
 80050c0:	105b      	asrs	r3, r3, #1
 80050c2:	461a      	mov	r2, r3
 80050c4:	68fb      	ldr	r3, [r7, #12]
 80050c6:	f853 2022 	ldr.w	r2, [r3, r2, lsl #2]
 80050ca:	687b      	ldr	r3, [r7, #4]
 80050cc:	4608      	mov	r0, r1
 80050ce:	4611      	mov	r1, r2
 80050d0:	4798      	blx	r3
 80050d2:	4603      	mov	r3, r0
 80050d4:	2b00      	cmp	r3, #0
 80050d6:	dbd2      	blt.n	800507e <pq_heapify_up+0xe>
 80050d8:	3710      	adds	r7, #16
 80050da:	46bd      	mov	sp, r7
 80050dc:	bd80      	pop	{r7, pc}
 80050de:	bf00      	nop

080050e0 <pq_heapify_down>:
 80050e0:	b580      	push	{r7, lr}
 80050e2:	b088      	sub	sp, #32
 80050e4:	af00      	add	r7, sp, #0
 80050e6:	60f8      	str	r0, [r7, #12]
 80050e8:	60b9      	str	r1, [r7, #8]
 80050ea:	607a      	str	r2, [r7, #4]
 80050ec:	68fb      	ldr	r3, [r7, #12]
 80050ee:	f8d3 30f4 	ldr.w	r3, [r3, #244]	; 0xf4
 80050f2:	61bb      	str	r3, [r7, #24]
 80050f4:	e046      	b.n	8005184 <pq_heapify_down+0xa4>
 80050f6:	68bb      	ldr	r3, [r7, #8]
 80050f8:	61fb      	str	r3, [r7, #28]
 80050fa:	68bb      	ldr	r3, [r7, #8]
 80050fc:	005b      	lsls	r3, r3, #1
 80050fe:	3301      	adds	r3, #1
 8005100:	617b      	str	r3, [r7, #20]
 8005102:	68bb      	ldr	r3, [r7, #8]
 8005104:	3301      	adds	r3, #1
 8005106:	005b      	lsls	r3, r3, #1
 8005108:	613b      	str	r3, [r7, #16]
 800510a:	697a      	ldr	r2, [r7, #20]
 800510c:	69bb      	ldr	r3, [r7, #24]
 800510e:	429a      	cmp	r2, r3
 8005110:	da10      	bge.n	8005134 <pq_heapify_down+0x54>
 8005112:	68fb      	ldr	r3, [r7, #12]
 8005114:	697a      	ldr	r2, [r7, #20]
 8005116:	f853 1022 	ldr.w	r1, [r3, r2, lsl #2]
 800511a:	68fb      	ldr	r3, [r7, #12]
 800511c:	69fa      	ldr	r2, [r7, #28]
 800511e:	f853 2022 	ldr.w	r2, [r3, r2, lsl #2]
 8005122:	687b      	ldr	r3, [r7, #4]
 8005124:	4608      	mov	r0, r1
 8005126:	4611      	mov	r1, r2
 8005128:	4798      	blx	r3
 800512a:	4603      	mov	r3, r0
 800512c:	2b00      	cmp	r3, #0
 800512e:	da01      	bge.n	8005134 <pq_heapify_down+0x54>
 8005130:	697b      	ldr	r3, [r7, #20]
 8005132:	61fb      	str	r3, [r7, #28]
 8005134:	693a      	ldr	r2, [r7, #16]
 8005136:	69bb      	ldr	r3, [r7, #24]
 8005138:	429a      	cmp	r2, r3
 800513a:	da10      	bge.n	800515e <pq_heapify_down+0x7e>
 800513c:	68fb      	ldr	r3, [r7, #12]
 800513e:	693a      	ldr	r2, [r7, #16]
 8005140:	f853 1022 	ldr.w	r1, [r3, r2, lsl #2]
 8005144:	68fb      	ldr	r3, [r7, #12]
 8005146:	69fa      	ldr	r2, [r7, #28]
 8005148:	f853 2022 	ldr.w	r2, [r3, r2, lsl #2]
 800514c:	687b      	ldr	r3, [r7, #4]
 800514e:	4608      	mov	r0, r1
 8005150:	4611      	mov	r1, r2
 8005152:	4798      	blx	r3
 8005154:	4603      	mov	r3, r0
 8005156:	2b00      	cmp	r3, #0
 8005158:	da01      	bge.n	800515e <pq_heapify_down+0x7e>
 800515a:	693b      	ldr	r3, [r7, #16]
 800515c:	61fb      	str	r3, [r7, #28]
 800515e:	69fa      	ldr	r2, [r7, #28]
 8005160:	68bb      	ldr	r3, [r7, #8]
 8005162:	429a      	cmp	r2, r3
 8005164:	d100      	bne.n	8005168 <pq_heapify_down+0x88>
 8005166:	e013      	b.n	8005190 <pq_heapify_down+0xb0>
 8005168:	68bb      	ldr	r3, [r7, #8]
 800516a:	009b      	lsls	r3, r3, #2
 800516c:	68fa      	ldr	r2, [r7, #12]
 800516e:	441a      	add	r2, r3
 8005170:	69fb      	ldr	r3, [r7, #28]
 8005172:	009b      	lsls	r3, r3, #2
 8005174:	68f9      	ldr	r1, [r7, #12]
 8005176:	440b      	add	r3, r1
 8005178:	4610      	mov	r0, r2
 800517a:	4619      	mov	r1, r3
 800517c:	f7ff ff56 	bl	800502c <pq_swap>
 8005180:	69fb      	ldr	r3, [r7, #28]
 8005182:	60bb      	str	r3, [r7, #8]
 8005184:	68bb      	ldr	r3, [r7, #8]
 8005186:	005b      	lsls	r3, r3, #1
 8005188:	1c5a      	adds	r2, r3, #1
 800518a:	69bb      	ldr	r3, [r7, #24]
 800518c:	429a      	cmp	r2, r3
 800518e:	dbb2      	blt.n	80050f6 <pq_heapify_down+0x16>
 8005190:	3720      	adds	r7, #32
 8005192:	46bd      	mov	sp, r7
 8005194:	bd80      	pop	{r7, pc}
 8005196:	bf00      	nop

08005198 <pq_push>:
 8005198:	b580      	push	{r7, lr}
 800519a:	b084      	sub	sp, #16
 800519c:	af00      	add	r7, sp, #0
 800519e:	60f8      	str	r0, [r7, #12]
 80051a0:	60b9      	str	r1, [r7, #8]
 80051a2:	607a      	str	r2, [r7, #4]
 80051a4:	68fb      	ldr	r3, [r7, #12]
 80051a6:	f8d3 30f4 	ldr.w	r3, [r3, #244]	; 0xf4
 80051aa:	2b3c      	cmp	r3, #60	; 0x3c
 80051ac:	dd00      	ble.n	80051b0 <pq_push+0x18>
 80051ae:	e019      	b.n	80051e4 <pq_push+0x4c>
 80051b0:	68fb      	ldr	r3, [r7, #12]
 80051b2:	f8d3 20f4 	ldr.w	r2, [r3, #244]	; 0xf4
 80051b6:	68fb      	ldr	r3, [r7, #12]
 80051b8:	68b9      	ldr	r1, [r7, #8]
 80051ba:	f843 1022 	str.w	r1, [r3, r2, lsl #2]
 80051be:	68fb      	ldr	r3, [r7, #12]
 80051c0:	f8d3 20f4 	ldr.w	r2, [r3, #244]	; 0xf4
 80051c4:	68bb      	ldr	r3, [r7, #8]
 80051c6:	621a      	str	r2, [r3, #32]
 80051c8:	68fb      	ldr	r3, [r7, #12]
 80051ca:	f8d3 30f4 	ldr.w	r3, [r3, #244]	; 0xf4
 80051ce:	1c5a      	adds	r2, r3, #1
 80051d0:	68fb      	ldr	r3, [r7, #12]
 80051d2:	f8c3 20f4 	str.w	r2, [r3, #244]	; 0xf4
 80051d6:	68bb      	ldr	r3, [r7, #8]
 80051d8:	6a1b      	ldr	r3, [r3, #32]
 80051da:	68f8      	ldr	r0, [r7, #12]
 80051dc:	4619      	mov	r1, r3
 80051de:	687a      	ldr	r2, [r7, #4]
 80051e0:	f7ff ff46 	bl	8005070 <pq_heapify_up>
 80051e4:	3710      	adds	r7, #16
 80051e6:	46bd      	mov	sp, r7
 80051e8:	bd80      	pop	{r7, pc}
 80051ea:	bf00      	nop

080051ec <pq_pop>:
 80051ec:	b580      	push	{r7, lr}
 80051ee:	b084      	sub	sp, #16
 80051f0:	af00      	add	r7, sp, #0
 80051f2:	6078      	str	r0, [r7, #4]
 80051f4:	6039      	str	r1, [r7, #0]
 80051f6:	687b      	ldr	r3, [r7, #4]
 80051f8:	f8d3 30f4 	ldr.w	r3, [r3, #244]	; 0xf4
 80051fc:	2b00      	cmp	r3, #0
 80051fe:	d101      	bne.n	8005204 <pq_pop+0x18>
 8005200:	2300      	movs	r3, #0
 8005202:	e020      	b.n	8005246 <pq_pop+0x5a>
 8005204:	687b      	ldr	r3, [r7, #4]
 8005206:	681b      	ldr	r3, [r3, #0]
 8005208:	60fb      	str	r3, [r7, #12]
 800520a:	687b      	ldr	r3, [r7, #4]
 800520c:	f8d3 30f4 	ldr.w	r3, [r3, #244]	; 0xf4
 8005210:	1e5a      	subs	r2, r3, #1
 8005212:	687b      	ldr	r3, [r7, #4]
 8005214:	f853 2022 	ldr.w	r2, [r3, r2, lsl #2]
 8005218:	687b      	ldr	r3, [r7, #4]
 800521a:	601a      	str	r2, [r3, #0]
 800521c:	687b      	ldr	r3, [r7, #4]
 800521e:	681b      	ldr	r3, [r3, #0]
 8005220:	2200      	movs	r2, #0
 8005222:	621a      	str	r2, [r3, #32]
 8005224:	687b      	ldr	r3, [r7, #4]
 8005226:	f8d3 30f4 	ldr.w	r3, [r3, #244]	; 0xf4
 800522a:	1e5a      	subs	r2, r3, #1
 800522c:	687b      	ldr	r3, [r7, #4]
 800522e:	f8c3 20f4 	str.w	r2, [r3, #244]	; 0xf4
 8005232:	6878      	ldr	r0, [r7, #4]
 8005234:	2100      	movs	r1, #0
 8005236:	683a      	ldr	r2, [r7, #0]
 8005238:	f7ff ff52 	bl	80050e0 <pq_heapify_down>
 800523c:	68fb      	ldr	r3, [r7, #12]
 800523e:	f04f 32ff 	mov.w	r2, #4294967295
 8005242:	621a      	str	r2, [r3, #32]
 8005244:	68fb      	ldr	r3, [r7, #12]
 8005246:	4618      	mov	r0, r3
 8005248:	3710      	adds	r7, #16
 800524a:	46bd      	mov	sp, r7
 800524c:	bd80      	pop	{r7, pc}
 800524e:	bf00      	nop

08005250 <pq_top>:
 8005250:	b480      	push	{r7}
 8005252:	b083      	sub	sp, #12
 8005254:	af00      	add	r7, sp, #0
 8005256:	6078      	str	r0, [r7, #4]
 8005258:	687b      	ldr	r3, [r7, #4]
 800525a:	f8d3 30f4 	ldr.w	r3, [r3, #244]	; 0xf4
 800525e:	2b00      	cmp	r3, #0
 8005260:	d101      	bne.n	8005266 <pq_top+0x16>
 8005262:	2300      	movs	r3, #0
 8005264:	e001      	b.n	800526a <pq_top+0x1a>
 8005266:	687b      	ldr	r3, [r7, #4]
 8005268:	681b      	ldr	r3, [r3, #0]
 800526a:	4618      	mov	r0, r3
 800526c:	370c      	adds	r7, #12
 800526e:	46bd      	mov	sp, r7
 8005270:	f85d 7b04 	ldr.w	r7, [sp], #4
 8005274:	4770      	bx	lr
 8005276:	bf00      	nop

08005278 <pq_remove>:
 8005278:	b580      	push	{r7, lr}
 800527a:	b086      	sub	sp, #24
 800527c:	af00      	add	r7, sp, #0
 800527e:	60f8      	str	r0, [r7, #12]
 8005280:	60b9      	str	r1, [r7, #8]
 8005282:	607a      	str	r2, [r7, #4]
 8005284:	68bb      	ldr	r3, [r7, #8]
 8005286:	6a1b      	ldr	r3, [r3, #32]
 8005288:	2b00      	cmp	r3, #0
 800528a:	db06      	blt.n	800529a <pq_remove+0x22>
 800528c:	68bb      	ldr	r3, [r7, #8]
 800528e:	6a1a      	ldr	r2, [r3, #32]
 8005290:	68fb      	ldr	r3, [r7, #12]
 8005292:	f8d3 30f4 	ldr.w	r3, [r3, #244]	; 0xf4
 8005296:	429a      	cmp	r2, r3
 8005298:	db00      	blt.n	800529c <pq_remove+0x24>
 800529a:	e028      	b.n	80052ee <pq_remove+0x76>
 800529c:	68bb      	ldr	r3, [r7, #8]
 800529e:	6a1b      	ldr	r3, [r3, #32]
 80052a0:	617b      	str	r3, [r7, #20]
 80052a2:	68fb      	ldr	r3, [r7, #12]
 80052a4:	f8d3 30f4 	ldr.w	r3, [r3, #244]	; 0xf4
 80052a8:	1e5a      	subs	r2, r3, #1
 80052aa:	68fb      	ldr	r3, [r7, #12]
 80052ac:	f853 1022 	ldr.w	r1, [r3, r2, lsl #2]
 80052b0:	68fb      	ldr	r3, [r7, #12]
 80052b2:	697a      	ldr	r2, [r7, #20]
 80052b4:	f843 1022 	str.w	r1, [r3, r2, lsl #2]
 80052b8:	68fb      	ldr	r3, [r7, #12]
 80052ba:	697a      	ldr	r2, [r7, #20]
 80052bc:	f853 3022 	ldr.w	r3, [r3, r2, lsl #2]
 80052c0:	697a      	ldr	r2, [r7, #20]
 80052c2:	621a      	str	r2, [r3, #32]
 80052c4:	68fb      	ldr	r3, [r7, #12]
 80052c6:	f8d3 30f4 	ldr.w	r3, [r3, #244]	; 0xf4
 80052ca:	1e5a      	subs	r2, r3, #1
 80052cc:	68fb      	ldr	r3, [r7, #12]
 80052ce:	f8c3 20f4 	str.w	r2, [r3, #244]	; 0xf4
 80052d2:	68f8      	ldr	r0, [r7, #12]
 80052d4:	6979      	ldr	r1, [r7, #20]
 80052d6:	687a      	ldr	r2, [r7, #4]
 80052d8:	f7ff feca 	bl	8005070 <pq_heapify_up>
 80052dc:	68f8      	ldr	r0, [r7, #12]
 80052de:	6979      	ldr	r1, [r7, #20]
 80052e0:	687a      	ldr	r2, [r7, #4]
 80052e2:	f7ff fefd 	bl	80050e0 <pq_heapify_down>
 80052e6:	68bb      	ldr	r3, [r7, #8]
 80052e8:	f04f 32ff 	mov.w	r2, #4294967295
 80052ec:	621a      	str	r2, [r3, #32]
 80052ee:	3718      	adds	r7, #24
 80052f0:	46bd      	mov	sp, r7
 80052f2:	bd80      	pop	{r7, pc}

080052f4 <pq_update>:
 80052f4:	b580      	push	{r7, lr}
 80052f6:	b084      	sub	sp, #16
 80052f8:	af00      	add	r7, sp, #0
 80052fa:	60f8      	str	r0, [r7, #12]
 80052fc:	60b9      	str	r1, [r7, #8]
 80052fe:	607a      	str	r2, [r7, #4]
 8005300:	68bb      	ldr	r3, [r7, #8]
 8005302:	6a1b      	ldr	r3, [r3, #32]
 8005304:	2b00      	cmp	r3, #0
 8005306:	db06      	blt.n	8005316 <pq_update+0x22>
 8005308:	68bb      	ldr	r3, [r7, #8]
 800530a:	6a1a      	ldr	r2, [r3, #32]
 800530c:	68fb      	ldr	r3, [r7, #12]
 800530e:	f8d3 30f4 	ldr.w	r3, [r3, #244]	; 0xf4
 8005312:	429a      	cmp	r2, r3
 8005314:	db00      	blt.n	8005318 <pq_update+0x24>
 8005316:	e00d      	b.n	8005334 <pq_update+0x40>
 8005318:	68bb      	ldr	r3, [r7, #8]
 800531a:	6a1b      	ldr	r3, [r3, #32]
 800531c:	68f8      	ldr	r0, [r7, #12]
 800531e:	4619      	mov	r1, r3
 8005320:	687a      	ldr	r2, [r7, #4]
 8005322:	f7ff fea5 	bl	8005070 <pq_heapify_up>
 8005326:	68bb      	ldr	r3, [r7, #8]
 8005328:	6a1b      	ldr	r3, [r3, #32]
 800532a:	68f8      	ldr	r0, [r7, #12]
 800532c:	4619      	mov	r1, r3
 800532e:	687a      	ldr	r2, [r7, #4]
 8005330:	f7ff fed6 	bl	80050e0 <pq_heapify_down>
 8005334:	3710      	adds	r7, #16
 8005336:	46bd      	mov	sp, r7
 8005338:	bd80      	pop	{r7, pc}
 800533a:	bf00      	nop

0800533c <_OS_Get_Buffer>:
 800533c:	b480      	push	{r7}
 800533e:	b083      	sub	sp, #12
 8005340:	af00      	add	r7, sp, #0
 8005342:	6078      	str	r0, [r7, #4]
 8005344:	687b      	ldr	r3, [r7, #4]
 8005346:	3307      	adds	r3, #7
 8005348:	f023 0307 	bic.w	r3, r3, #7
 800534c:	607b      	str	r3, [r7, #4]
 800534e:	f240 0310 	movw	r3, #16
 8005352:	f2c2 0300 	movt	r3, #8192	; 0x2000
 8005356:	681a      	ldr	r2, [r3, #0]
 8005358:	687b      	ldr	r3, [r7, #4]
 800535a:	425b      	negs	r3, r3
 800535c:	441a      	add	r2, r3
 800535e:	f240 0314 	movw	r3, #20
 8005362:	f2c2 0300 	movt	r3, #8192	; 0x2000
 8005366:	681b      	ldr	r3, [r3, #0]
 8005368:	429a      	cmp	r2, r3
 800536a:	d201      	bcs.n	8005370 <_OS_Get_Buffer+0x34>
 800536c:	2300      	movs	r3, #0
 800536e:	e011      	b.n	8005394 <_OS_Get_Buffer+0x58>
 8005370:	f240 0310 	movw	r3, #16
 8005374:	f2c2 0300 	movt	r3, #8192	; 0x2000
 8005378:	681a      	ldr	r2, [r3, #0]
 800537a:	687b      	ldr	r3, [r7, #4]
 800537c:	425b      	negs	r3, r3
 800537e:	441a      	add	r2, r3
 8005380:	f240 0310 	movw	r3, #16
 8005384:	f2c2 0300 	movt	r3, #8192	; 0x2000
 8005388:	601a      	str	r2, [r3, #0]
 800538a:	f240 0310 	movw	r3, #16
 800538e:	f2c2 0300 	movt	r3, #8192	; 0x2000
 8005392:	681b      	ldr	r3, [r3, #0]
 8005394:	4618      	mov	r0, r3
 8005396:	370c      	adds	r7, #12
 8005398:	46bd      	mov	sp, r7
 800539a:	f85d 7b04 	ldr.w	r7, [sp], #4
 800539e:	4770      	bx	lr

080053a0 <createQueue>:
 80053a0:	b580      	push	{r7, lr}
 80053a2:	b086      	sub	sp, #24
 80053a4:	af00      	add	r7, sp, #0
 80053a6:	60f8      	str	r0, [r7, #12]
 80053a8:	60b9      	str	r1, [r7, #8]
 80053aa:	607a      	str	r2, [r7, #4]
 80053ac:	603b      	str	r3, [r7, #0]
 80053ae:	68fb      	ldr	r3, [r7, #12]
 80053b0:	2200      	movs	r2, #0
 80053b2:	601a      	str	r2, [r3, #0]
 80053b4:	68fb      	ldr	r3, [r7, #12]
 80053b6:	2200      	movs	r2, #0
 80053b8:	605a      	str	r2, [r3, #4]
 80053ba:	68fb      	ldr	r3, [r7, #12]
 80053bc:	2200      	movs	r2, #0
 80053be:	609a      	str	r2, [r3, #8]
 80053c0:	68fb      	ldr	r3, [r7, #12]
 80053c2:	68ba      	ldr	r2, [r7, #8]
 80053c4:	60da      	str	r2, [r3, #12]
 80053c6:	68fb      	ldr	r3, [r7, #12]
 80053c8:	683a      	ldr	r2, [r7, #0]
 80053ca:	615a      	str	r2, [r3, #20]
 80053cc:	2008      	movs	r0, #8
 80053ce:	f7ff ffb5 	bl	800533c <_OS_Get_Buffer>
 80053d2:	4602      	mov	r2, r0
 80053d4:	68fb      	ldr	r3, [r7, #12]
 80053d6:	611a      	str	r2, [r3, #16]
 80053d8:	68fb      	ldr	r3, [r7, #12]
 80053da:	691b      	ldr	r3, [r3, #16]
 80053dc:	2b00      	cmp	r3, #0
 80053de:	d102      	bne.n	80053e6 <createQueue+0x46>
 80053e0:	f04f 33ff 	mov.w	r3, #4294967295
 80053e4:	e041      	b.n	800546a <createQueue+0xca>
 80053e6:	687b      	ldr	r3, [r7, #4]
 80053e8:	f1b3 3fff 	cmp.w	r3, #4294967295
 80053ec:	d101      	bne.n	80053f2 <createQueue+0x52>
 80053ee:	230a      	movs	r3, #10
 80053f0:	607b      	str	r3, [r7, #4]
 80053f2:	68fb      	ldr	r3, [r7, #12]
 80053f4:	691b      	ldr	r3, [r3, #16]
 80053f6:	617b      	str	r3, [r7, #20]
 80053f8:	2300      	movs	r3, #0
 80053fa:	613b      	str	r3, [r7, #16]
 80053fc:	e01f      	b.n	800543e <createQueue+0x9e>
 80053fe:	68b8      	ldr	r0, [r7, #8]
 8005400:	f7ff ff9c 	bl	800533c <_OS_Get_Buffer>
 8005404:	4602      	mov	r2, r0
 8005406:	697b      	ldr	r3, [r7, #20]
 8005408:	601a      	str	r2, [r3, #0]
 800540a:	697b      	ldr	r3, [r7, #20]
 800540c:	681b      	ldr	r3, [r3, #0]
 800540e:	2b00      	cmp	r3, #0
 8005410:	d102      	bne.n	8005418 <createQueue+0x78>
 8005412:	f04f 33ff 	mov.w	r3, #4294967295
 8005416:	e028      	b.n	800546a <createQueue+0xca>
 8005418:	2008      	movs	r0, #8
 800541a:	f7ff ff8f 	bl	800533c <_OS_Get_Buffer>
 800541e:	4602      	mov	r2, r0
 8005420:	697b      	ldr	r3, [r7, #20]
 8005422:	605a      	str	r2, [r3, #4]
 8005424:	697b      	ldr	r3, [r7, #20]
 8005426:	685b      	ldr	r3, [r3, #4]
 8005428:	2b00      	cmp	r3, #0
 800542a:	d102      	bne.n	8005432 <createQueue+0x92>
 800542c:	f04f 33ff 	mov.w	r3, #4294967295
 8005430:	e01b      	b.n	800546a <createQueue+0xca>
 8005432:	697b      	ldr	r3, [r7, #20]
 8005434:	685b      	ldr	r3, [r3, #4]
 8005436:	617b      	str	r3, [r7, #20]
 8005438:	693b      	ldr	r3, [r7, #16]
 800543a:	3301      	adds	r3, #1
 800543c:	613b      	str	r3, [r7, #16]
 800543e:	687b      	ldr	r3, [r7, #4]
 8005440:	1e5a      	subs	r2, r3, #1
 8005442:	693b      	ldr	r3, [r7, #16]
 8005444:	429a      	cmp	r2, r3
 8005446:	dcda      	bgt.n	80053fe <createQueue+0x5e>
 8005448:	68b8      	ldr	r0, [r7, #8]
 800544a:	f7ff ff77 	bl	800533c <_OS_Get_Buffer>
 800544e:	4602      	mov	r2, r0
 8005450:	697b      	ldr	r3, [r7, #20]
 8005452:	601a      	str	r2, [r3, #0]
 8005454:	697b      	ldr	r3, [r7, #20]
 8005456:	681b      	ldr	r3, [r3, #0]
 8005458:	2b00      	cmp	r3, #0
 800545a:	d102      	bne.n	8005462 <createQueue+0xc2>
 800545c:	f04f 33ff 	mov.w	r3, #4294967295
 8005460:	e003      	b.n	800546a <createQueue+0xca>
 8005462:	697b      	ldr	r3, [r7, #20]
 8005464:	2200      	movs	r2, #0
 8005466:	605a      	str	r2, [r3, #4]
 8005468:	2300      	movs	r3, #0
 800546a:	4618      	mov	r0, r3
 800546c:	3718      	adds	r7, #24
 800546e:	46bd      	mov	sp, r7
 8005470:	bd80      	pop	{r7, pc}
 8005472:	bf00      	nop

08005474 <enqueue>:
 8005474:	b580      	push	{r7, lr}
 8005476:	b084      	sub	sp, #16
 8005478:	af00      	add	r7, sp, #0
 800547a:	6078      	str	r0, [r7, #4]
 800547c:	6039      	str	r1, [r7, #0]
 800547e:	6878      	ldr	r0, [r7, #4]
 8005480:	f000 f888 	bl	8005594 <isFull>
 8005484:	4603      	mov	r3, r0
 8005486:	2b00      	cmp	r3, #0
 8005488:	d002      	beq.n	8005490 <enqueue+0x1c>
 800548a:	f04f 33ff 	mov.w	r3, #4294967295
 800548e:	e02b      	b.n	80054e8 <enqueue+0x74>
 8005490:	687b      	ldr	r3, [r7, #4]
 8005492:	691b      	ldr	r3, [r3, #16]
 8005494:	60fb      	str	r3, [r7, #12]
 8005496:	687b      	ldr	r3, [r7, #4]
 8005498:	691b      	ldr	r3, [r3, #16]
 800549a:	685a      	ldr	r2, [r3, #4]
 800549c:	687b      	ldr	r3, [r7, #4]
 800549e:	611a      	str	r2, [r3, #16]
 80054a0:	68fb      	ldr	r3, [r7, #12]
 80054a2:	681a      	ldr	r2, [r3, #0]
 80054a4:	687b      	ldr	r3, [r7, #4]
 80054a6:	68db      	ldr	r3, [r3, #12]
 80054a8:	4610      	mov	r0, r2
 80054aa:	6839      	ldr	r1, [r7, #0]
 80054ac:	461a      	mov	r2, r3
 80054ae:	f000 ffdf 	bl	8006470 <memcpy>
 80054b2:	68fb      	ldr	r3, [r7, #12]
 80054b4:	2200      	movs	r2, #0
 80054b6:	605a      	str	r2, [r3, #4]
 80054b8:	687b      	ldr	r3, [r7, #4]
 80054ba:	685b      	ldr	r3, [r3, #4]
 80054bc:	2b00      	cmp	r3, #0
 80054be:	d003      	beq.n	80054c8 <enqueue+0x54>
 80054c0:	687b      	ldr	r3, [r7, #4]
 80054c2:	685b      	ldr	r3, [r3, #4]
 80054c4:	68fa      	ldr	r2, [r7, #12]
 80054c6:	605a      	str	r2, [r3, #4]
 80054c8:	687b      	ldr	r3, [r7, #4]
 80054ca:	68fa      	ldr	r2, [r7, #12]
 80054cc:	605a      	str	r2, [r3, #4]
 80054ce:	687b      	ldr	r3, [r7, #4]
 80054d0:	681b      	ldr	r3, [r3, #0]
 80054d2:	2b00      	cmp	r3, #0
 80054d4:	d102      	bne.n	80054dc <enqueue+0x68>
 80054d6:	687b      	ldr	r3, [r7, #4]
 80054d8:	68fa      	ldr	r2, [r7, #12]
 80054da:	601a      	str	r2, [r3, #0]
 80054dc:	687b      	ldr	r3, [r7, #4]
 80054de:	689b      	ldr	r3, [r3, #8]
 80054e0:	1c5a      	adds	r2, r3, #1
 80054e2:	687b      	ldr	r3, [r7, #4]
 80054e4:	609a      	str	r2, [r3, #8]
 80054e6:	2300      	movs	r3, #0
 80054e8:	4618      	mov	r0, r3
 80054ea:	3710      	adds	r7, #16
 80054ec:	46bd      	mov	sp, r7
 80054ee:	bd80      	pop	{r7, pc}

080054f0 <dequeue>:
 80054f0:	b580      	push	{r7, lr}
 80054f2:	b086      	sub	sp, #24
 80054f4:	af00      	add	r7, sp, #0
 80054f6:	60f8      	str	r0, [r7, #12]
 80054f8:	60b9      	str	r1, [r7, #8]
 80054fa:	607a      	str	r2, [r7, #4]
 80054fc:	68f8      	ldr	r0, [r7, #12]
 80054fe:	f000 f837 	bl	8005570 <isEmpty>
 8005502:	4603      	mov	r3, r0
 8005504:	2b00      	cmp	r3, #0
 8005506:	d002      	beq.n	800550e <dequeue+0x1e>
 8005508:	f06f 0302 	mvn.w	r3, #2
 800550c:	e02c      	b.n	8005568 <dequeue+0x78>
 800550e:	68fb      	ldr	r3, [r7, #12]
 8005510:	695a      	ldr	r2, [r3, #20]
 8005512:	687b      	ldr	r3, [r7, #4]
 8005514:	429a      	cmp	r2, r3
 8005516:	d002      	beq.n	800551e <dequeue+0x2e>
 8005518:	f06f 0301 	mvn.w	r3, #1
 800551c:	e024      	b.n	8005568 <dequeue+0x78>
 800551e:	68fb      	ldr	r3, [r7, #12]
 8005520:	681b      	ldr	r3, [r3, #0]
 8005522:	617b      	str	r3, [r7, #20]
 8005524:	697b      	ldr	r3, [r7, #20]
 8005526:	681a      	ldr	r2, [r3, #0]
 8005528:	68fb      	ldr	r3, [r7, #12]
 800552a:	68db      	ldr	r3, [r3, #12]
 800552c:	68b8      	ldr	r0, [r7, #8]
 800552e:	4611      	mov	r1, r2
 8005530:	461a      	mov	r2, r3
 8005532:	f000 ff9d 	bl	8006470 <memcpy>
 8005536:	68fb      	ldr	r3, [r7, #12]
 8005538:	681b      	ldr	r3, [r3, #0]
 800553a:	685a      	ldr	r2, [r3, #4]
 800553c:	68fb      	ldr	r3, [r7, #12]
 800553e:	601a      	str	r2, [r3, #0]
 8005540:	68fb      	ldr	r3, [r7, #12]
 8005542:	681b      	ldr	r3, [r3, #0]
 8005544:	2b00      	cmp	r3, #0
 8005546:	d102      	bne.n	800554e <dequeue+0x5e>
 8005548:	68fb      	ldr	r3, [r7, #12]
 800554a:	2200      	movs	r2, #0
 800554c:	605a      	str	r2, [r3, #4]
 800554e:	68fb      	ldr	r3, [r7, #12]
 8005550:	691a      	ldr	r2, [r3, #16]
 8005552:	697b      	ldr	r3, [r7, #20]
 8005554:	605a      	str	r2, [r3, #4]
 8005556:	68fb      	ldr	r3, [r7, #12]
 8005558:	697a      	ldr	r2, [r7, #20]
 800555a:	611a      	str	r2, [r3, #16]
 800555c:	68fb      	ldr	r3, [r7, #12]
 800555e:	689b      	ldr	r3, [r3, #8]
 8005560:	1e5a      	subs	r2, r3, #1
 8005562:	68fb      	ldr	r3, [r7, #12]
 8005564:	609a      	str	r2, [r3, #8]
 8005566:	2300      	movs	r3, #0
 8005568:	4618      	mov	r0, r3
 800556a:	3718      	adds	r7, #24
 800556c:	46bd      	mov	sp, r7
 800556e:	bd80      	pop	{r7, pc}

08005570 <isEmpty>:
 8005570:	b480      	push	{r7}
 8005572:	b083      	sub	sp, #12
 8005574:	af00      	add	r7, sp, #0
 8005576:	6078      	str	r0, [r7, #4]
 8005578:	687b      	ldr	r3, [r7, #4]
 800557a:	689b      	ldr	r3, [r3, #8]
 800557c:	2b00      	cmp	r3, #0
 800557e:	bf14      	ite	ne
 8005580:	2300      	movne	r3, #0
 8005582:	2301      	moveq	r3, #1
 8005584:	b2db      	uxtb	r3, r3
 8005586:	4618      	mov	r0, r3
 8005588:	370c      	adds	r7, #12
 800558a:	46bd      	mov	sp, r7
 800558c:	f85d 7b04 	ldr.w	r7, [sp], #4
 8005590:	4770      	bx	lr
 8005592:	bf00      	nop

08005594 <isFull>:
 8005594:	b480      	push	{r7}
 8005596:	b083      	sub	sp, #12
 8005598:	af00      	add	r7, sp, #0
 800559a:	6078      	str	r0, [r7, #4]
 800559c:	687b      	ldr	r3, [r7, #4]
 800559e:	689b      	ldr	r3, [r3, #8]
 80055a0:	2b0a      	cmp	r3, #10
 80055a2:	bf14      	ite	ne
 80055a4:	2300      	movne	r3, #0
 80055a6:	2301      	moveq	r3, #1
 80055a8:	b2db      	uxtb	r3, r3
 80055aa:	4618      	mov	r0, r3
 80055ac:	370c      	adds	r7, #12
 80055ae:	46bd      	mov	sp, r7
 80055b0:	f85d 7b04 	ldr.w	r7, [sp], #4
 80055b4:	4770      	bx	lr
 80055b6:	bf00      	nop

080055b8 <_sbrk>:
 80055b8:	b480      	push	{r7}
 80055ba:	b085      	sub	sp, #20
 80055bc:	af00      	add	r7, sp, #0
 80055be:	6078      	str	r0, [r7, #4]
 80055c0:	f643 4368 	movw	r3, #15464	; 0x3c68
 80055c4:	f2c2 0300 	movt	r3, #8192	; 0x2000
 80055c8:	681b      	ldr	r3, [r3, #0]
 80055ca:	2b00      	cmp	r3, #0
 80055cc:	d10c      	bne.n	80055e8 <_sbrk+0x30>
 80055ce:	f643 43d4 	movw	r3, #15572	; 0x3cd4
 80055d2:	f2c2 0300 	movt	r3, #8192	; 0x2000
 80055d6:	3307      	adds	r3, #7
 80055d8:	f023 0307 	bic.w	r3, r3, #7
 80055dc:	461a      	mov	r2, r3
 80055de:	f643 4368 	movw	r3, #15464	; 0x3c68
 80055e2:	f2c2 0300 	movt	r3, #8192	; 0x2000
 80055e6:	601a      	str	r2, [r3, #0]
 80055e8:	f643 4368 	movw	r3, #15464	; 0x3c68
 80055ec:	f2c2 0300 	movt	r3, #8192	; 0x2000
 80055f0:	681b      	ldr	r3, [r3, #0]
 80055f2:	60fb      	str	r3, [r7, #12]
 80055f4:	f643 4368 	movw	r3, #15464	; 0x3c68
 80055f8:	f2c2 0300 	movt	r3, #8192	; 0x2000
 80055fc:	681b      	ldr	r3, [r3, #0]
 80055fe:	461a      	mov	r2, r3
 8005600:	687b      	ldr	r3, [r7, #4]
 8005602:	4413      	add	r3, r2
 8005604:	3307      	adds	r3, #7
 8005606:	f023 0307 	bic.w	r3, r3, #7
 800560a:	60bb      	str	r3, [r7, #8]
 800560c:	68ba      	ldr	r2, [r7, #8]
 800560e:	f643 43d4 	movw	r3, #15572	; 0x3cd4
 8005612:	f2c2 0300 	movt	r3, #8192	; 0x2000
 8005616:	3307      	adds	r3, #7
 8005618:	f023 0307 	bic.w	r3, r3, #7
 800561c:	f503 5380 	add.w	r3, r3, #4096	; 0x1000
 8005620:	429a      	cmp	r2, r3
 8005622:	d301      	bcc.n	8005628 <_sbrk+0x70>
 8005624:	2300      	movs	r3, #0
 8005626:	e006      	b.n	8005636 <_sbrk+0x7e>
 8005628:	f643 4368 	movw	r3, #15464	; 0x3c68
 800562c:	f2c2 0300 	movt	r3, #8192	; 0x2000
 8005630:	68ba      	ldr	r2, [r7, #8]
 8005632:	601a      	str	r2, [r3, #0]
 8005634:	68fb      	ldr	r3, [r7, #12]
 8005636:	4618      	mov	r0, r3
 8005638:	3714      	adds	r7, #20
 800563a:	46bd      	mov	sp, r7
 800563c:	f85d 7b04 	ldr.w	r7, [sp], #4
 8005640:	4770      	bx	lr
 8005642:	bf00      	nop

08005644 <System_Init>:
 8005644:	b580      	push	{r7, lr}
 8005646:	af00      	add	r7, sp, #0
 8005648:	f44f 30e1 	mov.w	r0, #115200	; 0x1c200
 800564c:	f000 fd32 	bl	80060b4 <Uart1_Init>
 8005650:	2001      	movs	r0, #1
 8005652:	f000 fe45 	bl	80062e0 <Uart1_RX_Interrupt_Enable>
 8005656:	f7fe fc1b 	bl	8003e90 <Key_Poll_Init>
 800565a:	2001      	movs	r0, #1
 800565c:	f7fe fce0 	bl	8004020 <Key_ISR_Enable>
 8005660:	f7ff f972 	bl	8004948 <Lcd_Init>
 8005664:	f7ff fac4 	bl	8004bf0 <LED_Init>
 8005668:	f44f 436d 	mov.w	r3, #60672	; 0xed00
 800566c:	f2ce 0300 	movt	r3, #57344	; 0xe000
 8005670:	f44f 5240 	mov.w	r2, #12288	; 0x3000
 8005674:	f6c0 0200 	movt	r2, #2048	; 0x800
 8005678:	609a      	str	r2, [r3, #8]
 800567a:	f44f 436d 	mov.w	r3, #60672	; 0xed00
 800567e:	f2ce 0300 	movt	r3, #57344	; 0xe000
 8005682:	f44f 22e0 	mov.w	r2, #458752	; 0x70000
 8005686:	625a      	str	r2, [r3, #36]	; 0x24
 8005688:	f44f 436d 	mov.w	r3, #60672	; 0xed00
 800568c:	f2ce 0300 	movt	r3, #57344	; 0xe000
 8005690:	2200      	movs	r2, #0
 8005692:	f2c0 52fa 	movt	r2, #1530	; 0x5fa
 8005696:	60da      	str	r2, [r3, #12]
 8005698:	bd80      	pop	{r7, pc}
 800569a:	bf00      	nop

0800569c <NVIC_ClearPendingIRQ>:
 800569c:	b480      	push	{r7}
 800569e:	b083      	sub	sp, #12
 80056a0:	af00      	add	r7, sp, #0
 80056a2:	4603      	mov	r3, r0
 80056a4:	71fb      	strb	r3, [r7, #7]
 80056a6:	f44f 4361 	mov.w	r3, #57600	; 0xe100
 80056aa:	f2ce 0300 	movt	r3, #57344	; 0xe000
 80056ae:	f997 2007 	ldrsb.w	r2, [r7, #7]
 80056b2:	0952      	lsrs	r2, r2, #5
 80056b4:	79f9      	ldrb	r1, [r7, #7]
 80056b6:	f001 011f 	and.w	r1, r1, #31
 80056ba:	2001      	movs	r0, #1
 80056bc:	fa00 f101 	lsl.w	r1, r0, r1
 80056c0:	3260      	adds	r2, #96	; 0x60
 80056c2:	f843 1022 	str.w	r1, [r3, r2, lsl #2]
 80056c6:	370c      	adds	r7, #12
 80056c8:	46bd      	mov	sp, r7
 80056ca:	f85d 7b04 	ldr.w	r7, [sp], #4
 80056ce:	4770      	bx	lr

080056d0 <Invalid_ISR>:
 80056d0:	b580      	push	{r7, lr}
 80056d2:	af00      	add	r7, sp, #0
 80056d4:	f44f 436d 	mov.w	r3, #60672	; 0xed00
 80056d8:	f2ce 0300 	movt	r3, #57344	; 0xe000
 80056dc:	685b      	ldr	r3, [r3, #4]
 80056de:	f3c3 0308 	ubfx	r3, r3, #0, #9
 80056e2:	f24c 60cc 	movw	r0, #50892	; 0xc6cc
 80056e6:	f6c0 0000 	movt	r0, #2048	; 0x800
 80056ea:	4619      	mov	r1, r3
 80056ec:	f000 fdde 	bl	80062ac <Uart1_Printf>
 80056f0:	f44f 436d 	mov.w	r3, #60672	; 0xed00
 80056f4:	f2ce 0300 	movt	r3, #57344	; 0xe000
 80056f8:	685b      	ldr	r3, [r3, #4]
 80056fa:	f3c3 0308 	ubfx	r3, r3, #0, #9
 80056fe:	3b10      	subs	r3, #16
 8005700:	f24c 60e4 	movw	r0, #50916	; 0xc6e4
 8005704:	f6c0 0000 	movt	r0, #2048	; 0x800
 8005708:	4619      	mov	r1, r3
 800570a:	f000 fdcf 	bl	80062ac <Uart1_Printf>
 800570e:	e7fe      	b.n	800570e <Invalid_ISR+0x3e>

08005710 <Stack_Dump>:
 8005710:	b580      	push	{r7, lr}
 8005712:	b086      	sub	sp, #24
 8005714:	af02      	add	r7, sp, #8
 8005716:	6078      	str	r0, [r7, #4]
 8005718:	6039      	str	r1, [r7, #0]
 800571a:	2300      	movs	r3, #0
 800571c:	60fb      	str	r3, [r7, #12]
 800571e:	e017      	b.n	8005750 <Stack_Dump+0x40>
 8005720:	f24c 731c 	movw	r3, #50972	; 0xc71c
 8005724:	f6c0 0300 	movt	r3, #2048	; 0x800
 8005728:	68fa      	ldr	r2, [r7, #12]
 800572a:	f853 3022 	ldr.w	r3, [r3, r2, lsl #2]
 800572e:	68fa      	ldr	r2, [r7, #12]
 8005730:	0092      	lsls	r2, r2, #2
 8005732:	6839      	ldr	r1, [r7, #0]
 8005734:	440a      	add	r2, r1
 8005736:	6812      	ldr	r2, [r2, #0]
 8005738:	9200      	str	r2, [sp, #0]
 800573a:	f24c 703c 	movw	r0, #51004	; 0xc73c
 800573e:	f6c0 0000 	movt	r0, #2048	; 0x800
 8005742:	6879      	ldr	r1, [r7, #4]
 8005744:	68fa      	ldr	r2, [r7, #12]
 8005746:	f000 fdb1 	bl	80062ac <Uart1_Printf>
 800574a:	68fb      	ldr	r3, [r7, #12]
 800574c:	3301      	adds	r3, #1
 800574e:	60fb      	str	r3, [r7, #12]
 8005750:	68fb      	ldr	r3, [r7, #12]
 8005752:	2b07      	cmp	r3, #7
 8005754:	d9e4      	bls.n	8005720 <Stack_Dump+0x10>
 8005756:	3710      	adds	r7, #16
 8005758:	46bd      	mov	sp, r7
 800575a:	bd80      	pop	{r7, pc}

0800575c <Fault_Report>:
 800575c:	b580      	push	{r7, lr}
 800575e:	b084      	sub	sp, #16
 8005760:	af00      	add	r7, sp, #0
 8005762:	60f8      	str	r0, [r7, #12]
 8005764:	60b9      	str	r1, [r7, #8]
 8005766:	607a      	str	r2, [r7, #4]
 8005768:	f24c 7050 	movw	r0, #51024	; 0xc750
 800576c:	f6c0 0000 	movt	r0, #2048	; 0x800
 8005770:	68b9      	ldr	r1, [r7, #8]
 8005772:	f000 fd9b 	bl	80062ac <Uart1_Printf>
 8005776:	f24c 7068 	movw	r0, #51048	; 0xc768
 800577a:	f6c0 0000 	movt	r0, #2048	; 0x800
 800577e:	68f9      	ldr	r1, [r7, #12]
 8005780:	f000 fd94 	bl	80062ac <Uart1_Printf>
 8005784:	f24c 7074 	movw	r0, #51060	; 0xc774
 8005788:	f6c0 0000 	movt	r0, #2048	; 0x800
 800578c:	6879      	ldr	r1, [r7, #4]
 800578e:	f000 fd8d 	bl	80062ac <Uart1_Printf>
 8005792:	68ba      	ldr	r2, [r7, #8]
 8005794:	230f      	movs	r3, #15
 8005796:	f2cf 0300 	movt	r3, #61440	; 0xf000
 800579a:	4013      	ands	r3, r2
 800579c:	2209      	movs	r2, #9
 800579e:	f2cf 0200 	movt	r2, #61440	; 0xf000
 80057a2:	4293      	cmp	r3, r2
 80057a4:	d017      	beq.n	80057d6 <Fault_Report+0x7a>
 80057a6:	220d      	movs	r2, #13
 80057a8:	f2cf 0200 	movt	r2, #61440	; 0xf000
 80057ac:	4293      	cmp	r3, r2
 80057ae:	d020      	beq.n	80057f2 <Fault_Report+0x96>
 80057b0:	2201      	movs	r2, #1
 80057b2:	f2cf 0200 	movt	r2, #61440	; 0xf000
 80057b6:	4293      	cmp	r3, r2
 80057b8:	d129      	bne.n	800580e <Fault_Report+0xb2>
 80057ba:	f24c 7080 	movw	r0, #51072	; 0xc780
 80057be:	f6c0 0000 	movt	r0, #2048	; 0x800
 80057c2:	f000 fd73 	bl	80062ac <Uart1_Printf>
 80057c6:	f24c 70a4 	movw	r0, #51108	; 0xc7a4
 80057ca:	f6c0 0000 	movt	r0, #2048	; 0x800
 80057ce:	68f9      	ldr	r1, [r7, #12]
 80057d0:	f7ff ff9e 	bl	8005710 <Stack_Dump>
 80057d4:	e026      	b.n	8005824 <Fault_Report+0xc8>
 80057d6:	f24c 70a8 	movw	r0, #51112	; 0xc7a8
 80057da:	f6c0 0000 	movt	r0, #2048	; 0x800
 80057de:	f000 fd65 	bl	80062ac <Uart1_Printf>
 80057e2:	f24c 70a4 	movw	r0, #51108	; 0xc7a4
 80057e6:	f6c0 0000 	movt	r0, #2048	; 0x800
 80057ea:	68f9      	ldr	r1, [r7, #12]
 80057ec:	f7ff ff90 	bl	8005710 <Stack_Dump>
 80057f0:	e018      	b.n	8005824 <Fault_Report+0xc8>
 80057f2:	f24c 70d4 	movw	r0, #51156	; 0xc7d4
 80057f6:	f6c0 0000 	movt	r0, #2048	; 0x800
 80057fa:	f000 fd57 	bl	80062ac <Uart1_Printf>
 80057fe:	f64c 0000 	movw	r0, #51200	; 0xc800
 8005802:	f6c0 0000 	movt	r0, #2048	; 0x800
 8005806:	6879      	ldr	r1, [r7, #4]
 8005808:	f7ff ff82 	bl	8005710 <Stack_Dump>
 800580c:	e00a      	b.n	8005824 <Fault_Report+0xc8>
 800580e:	68bb      	ldr	r3, [r7, #8]
 8005810:	f003 030f 	and.w	r3, r3, #15
 8005814:	f64c 0004 	movw	r0, #51204	; 0xc804
 8005818:	f6c0 0000 	movt	r0, #2048	; 0x800
 800581c:	4619      	mov	r1, r3
 800581e:	f000 fd45 	bl	80062ac <Uart1_Printf>
 8005822:	bf00      	nop
 8005824:	f44f 436d 	mov.w	r3, #60672	; 0xed00
 8005828:	f2ce 0300 	movt	r3, #57344	; 0xe000
 800582c:	6a5b      	ldr	r3, [r3, #36]	; 0x24
 800582e:	f64c 0030 	movw	r0, #51248	; 0xc830
 8005832:	f6c0 0000 	movt	r0, #2048	; 0x800
 8005836:	4619      	mov	r1, r3
 8005838:	f000 fd38 	bl	80062ac <Uart1_Printf>
 800583c:	f44f 436d 	mov.w	r3, #60672	; 0xed00
 8005840:	f2ce 0300 	movt	r3, #57344	; 0xe000
 8005844:	6a9b      	ldr	r3, [r3, #40]	; 0x28
 8005846:	f64c 0040 	movw	r0, #51264	; 0xc840
 800584a:	f6c0 0000 	movt	r0, #2048	; 0x800
 800584e:	4619      	mov	r1, r3
 8005850:	f000 fd2c 	bl	80062ac <Uart1_Printf>
 8005854:	3710      	adds	r7, #16
 8005856:	46bd      	mov	sp, r7
 8005858:	bd80      	pop	{r7, pc}
 800585a:	bf00      	nop

0800585c <NMI_Handler>:
 800585c:	b580      	push	{r7, lr}
 800585e:	af00      	add	r7, sp, #0
 8005860:	f44f 73ae 	mov.w	r3, #348	; 0x15c
 8005864:	f2c4 2342 	movt	r3, #16962	; 0x4242
 8005868:	2201      	movs	r2, #1
 800586a:	601a      	str	r2, [r3, #0]
 800586c:	f64c 0060 	movw	r0, #51296	; 0xc860
 8005870:	f6c0 0000 	movt	r0, #2048	; 0x800
 8005874:	f000 fd1a 	bl	80062ac <Uart1_Printf>
 8005878:	bd80      	pop	{r7, pc}
 800587a:	bf00      	nop

0800587c <HardFault_Handler>:
 800587c:	b580      	push	{r7, lr}
 800587e:	b084      	sub	sp, #16
 8005880:	af00      	add	r7, sp, #0
 8005882:	60f8      	str	r0, [r7, #12]
 8005884:	60b9      	str	r1, [r7, #8]
 8005886:	607a      	str	r2, [r7, #4]
 8005888:	f64c 006c 	movw	r0, #51308	; 0xc86c
 800588c:	f6c0 0000 	movt	r0, #2048	; 0x800
 8005890:	f000 fd0c 	bl	80062ac <Uart1_Printf>
 8005894:	68f8      	ldr	r0, [r7, #12]
 8005896:	68b9      	ldr	r1, [r7, #8]
 8005898:	687a      	ldr	r2, [r7, #4]
 800589a:	f7ff ff5f 	bl	800575c <Fault_Report>
 800589e:	f44f 436d 	mov.w	r3, #60672	; 0xed00
 80058a2:	f2ce 0300 	movt	r3, #57344	; 0xe000
 80058a6:	6a9b      	ldr	r3, [r3, #40]	; 0x28
 80058a8:	09db      	lsrs	r3, r3, #7
 80058aa:	f003 0301 	and.w	r3, r3, #1
 80058ae:	f64c 007c 	movw	r0, #51324	; 0xc87c
 80058b2:	f6c0 0000 	movt	r0, #2048	; 0x800
 80058b6:	4619      	mov	r1, r3
 80058b8:	f000 fcf8 	bl	80062ac <Uart1_Printf>
 80058bc:	f44f 436d 	mov.w	r3, #60672	; 0xed00
 80058c0:	f2ce 0300 	movt	r3, #57344	; 0xe000
 80058c4:	6b5b      	ldr	r3, [r3, #52]	; 0x34
 80058c6:	f64c 0090 	movw	r0, #51344	; 0xc890
 80058ca:	f6c0 0000 	movt	r0, #2048	; 0x800
 80058ce:	4619      	mov	r1, r3
 80058d0:	f000 fcec 	bl	80062ac <Uart1_Printf>
 80058d4:	f44f 436d 	mov.w	r3, #60672	; 0xed00
 80058d8:	f2ce 0300 	movt	r3, #57344	; 0xe000
 80058dc:	6a9b      	ldr	r3, [r3, #40]	; 0x28
 80058de:	0bdb      	lsrs	r3, r3, #15
 80058e0:	f003 0301 	and.w	r3, r3, #1
 80058e4:	f64c 00a0 	movw	r0, #51360	; 0xc8a0
 80058e8:	f6c0 0000 	movt	r0, #2048	; 0x800
 80058ec:	4619      	mov	r1, r3
 80058ee:	f000 fcdd 	bl	80062ac <Uart1_Printf>
 80058f2:	f44f 436d 	mov.w	r3, #60672	; 0xed00
 80058f6:	f2ce 0300 	movt	r3, #57344	; 0xe000
 80058fa:	6b9b      	ldr	r3, [r3, #56]	; 0x38
 80058fc:	f64c 00b4 	movw	r0, #51380	; 0xc8b4
 8005900:	f6c0 0000 	movt	r0, #2048	; 0x800
 8005904:	4619      	mov	r1, r3
 8005906:	f000 fcd1 	bl	80062ac <Uart1_Printf>
 800590a:	f44f 436d 	mov.w	r3, #60672	; 0xed00
 800590e:	f2ce 0300 	movt	r3, #57344	; 0xe000
 8005912:	6adb      	ldr	r3, [r3, #44]	; 0x2c
 8005914:	f64c 00c4 	movw	r0, #51396	; 0xc8c4
 8005918:	f6c0 0000 	movt	r0, #2048	; 0x800
 800591c:	4619      	mov	r1, r3
 800591e:	f000 fcc5 	bl	80062ac <Uart1_Printf>
 8005922:	e7fe      	b.n	8005922 <HardFault_Handler+0xa6>

08005924 <MemManage_Handler>:
 8005924:	b580      	push	{r7, lr}
 8005926:	b084      	sub	sp, #16
 8005928:	af00      	add	r7, sp, #0
 800592a:	60f8      	str	r0, [r7, #12]
 800592c:	60b9      	str	r1, [r7, #8]
 800592e:	607a      	str	r2, [r7, #4]
 8005930:	f64c 00e8 	movw	r0, #51432	; 0xc8e8
 8005934:	f6c0 0000 	movt	r0, #2048	; 0x800
 8005938:	f000 fcb8 	bl	80062ac <Uart1_Printf>
 800593c:	68f8      	ldr	r0, [r7, #12]
 800593e:	68b9      	ldr	r1, [r7, #8]
 8005940:	687a      	ldr	r2, [r7, #4]
 8005942:	f7ff ff0b 	bl	800575c <Fault_Report>
 8005946:	f44f 436d 	mov.w	r3, #60672	; 0xed00
 800594a:	f2ce 0300 	movt	r3, #57344	; 0xe000
 800594e:	6a9b      	ldr	r3, [r3, #40]	; 0x28
 8005950:	09db      	lsrs	r3, r3, #7
 8005952:	f003 0301 	and.w	r3, r3, #1
 8005956:	f64c 007c 	movw	r0, #51324	; 0xc87c
 800595a:	f6c0 0000 	movt	r0, #2048	; 0x800
 800595e:	4619      	mov	r1, r3
 8005960:	f000 fca4 	bl	80062ac <Uart1_Printf>
 8005964:	f44f 436d 	mov.w	r3, #60672	; 0xed00
 8005968:	f2ce 0300 	movt	r3, #57344	; 0xe000
 800596c:	6b5b      	ldr	r3, [r3, #52]	; 0x34
 800596e:	f64c 0090 	movw	r0, #51344	; 0xc890
 8005972:	f6c0 0000 	movt	r0, #2048	; 0x800
 8005976:	4619      	mov	r1, r3
 8005978:	f000 fc98 	bl	80062ac <Uart1_Printf>
 800597c:	e7fe      	b.n	800597c <MemManage_Handler+0x58>
 800597e:	bf00      	nop

08005980 <BusFault_Handler>:
 8005980:	b580      	push	{r7, lr}
 8005982:	b084      	sub	sp, #16
 8005984:	af00      	add	r7, sp, #0
 8005986:	60f8      	str	r0, [r7, #12]
 8005988:	60b9      	str	r1, [r7, #8]
 800598a:	607a      	str	r2, [r7, #4]
 800598c:	f64c 1004 	movw	r0, #51460	; 0xc904
 8005990:	f6c0 0000 	movt	r0, #2048	; 0x800
 8005994:	f000 fc8a 	bl	80062ac <Uart1_Printf>
 8005998:	68f8      	ldr	r0, [r7, #12]
 800599a:	68b9      	ldr	r1, [r7, #8]
 800599c:	687a      	ldr	r2, [r7, #4]
 800599e:	f7ff fedd 	bl	800575c <Fault_Report>
 80059a2:	f44f 436d 	mov.w	r3, #60672	; 0xed00
 80059a6:	f2ce 0300 	movt	r3, #57344	; 0xe000
 80059aa:	6a9b      	ldr	r3, [r3, #40]	; 0x28
 80059ac:	0bdb      	lsrs	r3, r3, #15
 80059ae:	f003 0301 	and.w	r3, r3, #1
 80059b2:	f64c 00a0 	movw	r0, #51360	; 0xc8a0
 80059b6:	f6c0 0000 	movt	r0, #2048	; 0x800
 80059ba:	4619      	mov	r1, r3
 80059bc:	f000 fc76 	bl	80062ac <Uart1_Printf>
 80059c0:	f44f 436d 	mov.w	r3, #60672	; 0xed00
 80059c4:	f2ce 0300 	movt	r3, #57344	; 0xe000
 80059c8:	6b9b      	ldr	r3, [r3, #56]	; 0x38
 80059ca:	f64c 00b4 	movw	r0, #51380	; 0xc8b4
 80059ce:	f6c0 0000 	movt	r0, #2048	; 0x800
 80059d2:	4619      	mov	r1, r3
 80059d4:	f000 fc6a 	bl	80062ac <Uart1_Printf>
 80059d8:	e7fe      	b.n	80059d8 <BusFault_Handler+0x58>
 80059da:	bf00      	nop

080059dc <UsageFault_Handler>:
 80059dc:	b580      	push	{r7, lr}
 80059de:	b084      	sub	sp, #16
 80059e0:	af00      	add	r7, sp, #0
 80059e2:	60f8      	str	r0, [r7, #12]
 80059e4:	60b9      	str	r1, [r7, #8]
 80059e6:	607a      	str	r2, [r7, #4]
 80059e8:	f64c 1010 	movw	r0, #51472	; 0xc910
 80059ec:	f6c0 0000 	movt	r0, #2048	; 0x800
 80059f0:	f000 fc5c 	bl	80062ac <Uart1_Printf>
 80059f4:	68f8      	ldr	r0, [r7, #12]
 80059f6:	68b9      	ldr	r1, [r7, #8]
 80059f8:	687a      	ldr	r2, [r7, #4]
 80059fa:	f7ff feaf 	bl	800575c <Fault_Report>
 80059fe:	e7fe      	b.n	80059fe <UsageFault_Handler+0x22>

08005a00 <DebugMon_Handler>:
 8005a00:	b580      	push	{r7, lr}
 8005a02:	af00      	add	r7, sp, #0
 8005a04:	f64c 1020 	movw	r0, #51488	; 0xc920
 8005a08:	f6c0 0000 	movt	r0, #2048	; 0x800
 8005a0c:	f000 fc4e 	bl	80062ac <Uart1_Printf>
 8005a10:	e7fe      	b.n	8005a10 <DebugMon_Handler+0x10>
 8005a12:	bf00      	nop

08005a14 <SysTick_Handler>:
 8005a14:	b580      	push	{r7, lr}
 8005a16:	af00      	add	r7, sp, #0
 8005a18:	f643 436c 	movw	r3, #15468	; 0x3c6c
 8005a1c:	f2c2 0300 	movt	r3, #8192	; 0x2000
 8005a20:	2201      	movs	r2, #1
 8005a22:	601a      	str	r2, [r3, #0]
 8005a24:	f7fd fe52 	bl	80036cc <OS_Tick>
 8005a28:	f7fe f84e 	bl	8003ac8 <OS_Pend_Trigger>
 8005a2c:	bd80      	pop	{r7, pc}
 8005a2e:	bf00      	nop

08005a30 <WWDG_IRQHandler>:
 8005a30:	b580      	push	{r7, lr}
 8005a32:	af00      	add	r7, sp, #0
 8005a34:	f7ff fe4c 	bl	80056d0 <Invalid_ISR>
 8005a38:	bd80      	pop	{r7, pc}
 8005a3a:	bf00      	nop

08005a3c <PVD_IRQHandler>:
 8005a3c:	b580      	push	{r7, lr}
 8005a3e:	af00      	add	r7, sp, #0
 8005a40:	f7ff fe46 	bl	80056d0 <Invalid_ISR>
 8005a44:	bd80      	pop	{r7, pc}
 8005a46:	bf00      	nop

08005a48 <TAMPER_IRQHandler>:
 8005a48:	b580      	push	{r7, lr}
 8005a4a:	af00      	add	r7, sp, #0
 8005a4c:	f7ff fe40 	bl	80056d0 <Invalid_ISR>
 8005a50:	bd80      	pop	{r7, pc}
 8005a52:	bf00      	nop

08005a54 <RTC_IRQHandler>:
 8005a54:	b580      	push	{r7, lr}
 8005a56:	af00      	add	r7, sp, #0
 8005a58:	f7ff fe3a 	bl	80056d0 <Invalid_ISR>
 8005a5c:	bd80      	pop	{r7, pc}
 8005a5e:	bf00      	nop

08005a60 <FLASH_IRQHandler>:
 8005a60:	b580      	push	{r7, lr}
 8005a62:	af00      	add	r7, sp, #0
 8005a64:	f7ff fe34 	bl	80056d0 <Invalid_ISR>
 8005a68:	bd80      	pop	{r7, pc}
 8005a6a:	bf00      	nop

08005a6c <RCC_IRQHandler>:
 8005a6c:	b580      	push	{r7, lr}
 8005a6e:	af00      	add	r7, sp, #0
 8005a70:	f7ff fe2e 	bl	80056d0 <Invalid_ISR>
 8005a74:	bd80      	pop	{r7, pc}
 8005a76:	bf00      	nop

08005a78 <EXTI0_IRQHandler>:
 8005a78:	b580      	push	{r7, lr}
 8005a7a:	af00      	add	r7, sp, #0
 8005a7c:	f7ff fe28 	bl	80056d0 <Invalid_ISR>
 8005a80:	bd80      	pop	{r7, pc}
 8005a82:	bf00      	nop

08005a84 <EXTI1_IRQHandler>:
 8005a84:	b580      	push	{r7, lr}
 8005a86:	af00      	add	r7, sp, #0
 8005a88:	f7ff fe22 	bl	80056d0 <Invalid_ISR>
 8005a8c:	bd80      	pop	{r7, pc}
 8005a8e:	bf00      	nop

08005a90 <EXTI2_IRQHandler>:
 8005a90:	b580      	push	{r7, lr}
 8005a92:	af00      	add	r7, sp, #0
 8005a94:	f7ff fe1c 	bl	80056d0 <Invalid_ISR>
 8005a98:	bd80      	pop	{r7, pc}
 8005a9a:	bf00      	nop

08005a9c <EXTI3_IRQHandler>:
 8005a9c:	b580      	push	{r7, lr}
 8005a9e:	af00      	add	r7, sp, #0
 8005aa0:	f44f 6380 	mov.w	r3, #1024	; 0x400
 8005aa4:	f2c4 0301 	movt	r3, #16385	; 0x4001
 8005aa8:	f44f 6280 	mov.w	r2, #1024	; 0x400
 8005aac:	f2c4 0201 	movt	r2, #16385	; 0x4001
 8005ab0:	6952      	ldr	r2, [r2, #20]
 8005ab2:	f042 0208 	orr.w	r2, r2, #8
 8005ab6:	615a      	str	r2, [r3, #20]
 8005ab8:	2009      	movs	r0, #9
 8005aba:	f7ff fdef 	bl	800569c <NVIC_ClearPendingIRQ>
 8005abe:	f643 4370 	movw	r3, #15472	; 0x3c70
 8005ac2:	f2c2 0300 	movt	r3, #8192	; 0x2000
 8005ac6:	2201      	movs	r2, #1
 8005ac8:	601a      	str	r2, [r3, #0]
 8005aca:	2000      	movs	r0, #0
 8005acc:	f643 4170 	movw	r1, #15472	; 0x3c70
 8005ad0:	f2c2 0100 	movt	r1, #8192	; 0x2000
 8005ad4:	f7fd fef8 	bl	80038c8 <OS_Signal_Send>
 8005ad8:	bd80      	pop	{r7, pc}
 8005ada:	bf00      	nop

08005adc <EXTI4_IRQHandler>:
 8005adc:	b580      	push	{r7, lr}
 8005ade:	af00      	add	r7, sp, #0
 8005ae0:	f7ff fdf6 	bl	80056d0 <Invalid_ISR>
 8005ae4:	bd80      	pop	{r7, pc}
 8005ae6:	bf00      	nop

08005ae8 <DMA1_Channel1_IRQHandler>:
 8005ae8:	b580      	push	{r7, lr}
 8005aea:	af00      	add	r7, sp, #0
 8005aec:	f7ff fdf0 	bl	80056d0 <Invalid_ISR>
 8005af0:	bd80      	pop	{r7, pc}
 8005af2:	bf00      	nop

08005af4 <DMA1_Channel2_IRQHandler>:
 8005af4:	b580      	push	{r7, lr}
 8005af6:	af00      	add	r7, sp, #0
 8005af8:	f7ff fdea 	bl	80056d0 <Invalid_ISR>
 8005afc:	bd80      	pop	{r7, pc}
 8005afe:	bf00      	nop

08005b00 <DMA1_Channel3_IRQHandler>:
 8005b00:	b580      	push	{r7, lr}
 8005b02:	af00      	add	r7, sp, #0
 8005b04:	f7ff fde4 	bl	80056d0 <Invalid_ISR>
 8005b08:	bd80      	pop	{r7, pc}
 8005b0a:	bf00      	nop

08005b0c <DMA1_Channel4_IRQHandler>:
 8005b0c:	b580      	push	{r7, lr}
 8005b0e:	af00      	add	r7, sp, #0
 8005b10:	f7ff fdde 	bl	80056d0 <Invalid_ISR>
 8005b14:	bd80      	pop	{r7, pc}
 8005b16:	bf00      	nop

08005b18 <DMA1_Channel5_IRQHandler>:
 8005b18:	b580      	push	{r7, lr}
 8005b1a:	af00      	add	r7, sp, #0
 8005b1c:	f7ff fdd8 	bl	80056d0 <Invalid_ISR>
 8005b20:	bd80      	pop	{r7, pc}
 8005b22:	bf00      	nop

08005b24 <DMA1_Channel6_IRQHandler>:
 8005b24:	b580      	push	{r7, lr}
 8005b26:	af00      	add	r7, sp, #0
 8005b28:	f7ff fdd2 	bl	80056d0 <Invalid_ISR>
 8005b2c:	bd80      	pop	{r7, pc}
 8005b2e:	bf00      	nop

08005b30 <DMA1_Channel7_IRQHandler>:
 8005b30:	b580      	push	{r7, lr}
 8005b32:	af00      	add	r7, sp, #0
 8005b34:	f7ff fdcc 	bl	80056d0 <Invalid_ISR>
 8005b38:	bd80      	pop	{r7, pc}
 8005b3a:	bf00      	nop

08005b3c <ADC1_2_IRQHandler>:
 8005b3c:	b580      	push	{r7, lr}
 8005b3e:	af00      	add	r7, sp, #0
 8005b40:	f7ff fdc6 	bl	80056d0 <Invalid_ISR>
 8005b44:	bd80      	pop	{r7, pc}
 8005b46:	bf00      	nop

08005b48 <USB_HP_CAN_TX_IRQHandler>:
 8005b48:	b580      	push	{r7, lr}
 8005b4a:	af00      	add	r7, sp, #0
 8005b4c:	f7ff fdc0 	bl	80056d0 <Invalid_ISR>
 8005b50:	bd80      	pop	{r7, pc}
 8005b52:	bf00      	nop

08005b54 <USB_LP_CAN_RX0_IRQHandler>:
 8005b54:	b580      	push	{r7, lr}
 8005b56:	af00      	add	r7, sp, #0
 8005b58:	f7ff fdba 	bl	80056d0 <Invalid_ISR>
 8005b5c:	bd80      	pop	{r7, pc}
 8005b5e:	bf00      	nop

08005b60 <CAN_RX1_IRQHandler>:
 8005b60:	b580      	push	{r7, lr}
 8005b62:	af00      	add	r7, sp, #0
 8005b64:	f7ff fdb4 	bl	80056d0 <Invalid_ISR>
 8005b68:	bd80      	pop	{r7, pc}
 8005b6a:	bf00      	nop

08005b6c <CAN_SCE_IRQHandler>:
 8005b6c:	b580      	push	{r7, lr}
 8005b6e:	af00      	add	r7, sp, #0
 8005b70:	f7ff fdae 	bl	80056d0 <Invalid_ISR>
 8005b74:	bd80      	pop	{r7, pc}
 8005b76:	bf00      	nop

08005b78 <EXTI9_5_IRQHandler>:
 8005b78:	b580      	push	{r7, lr}
 8005b7a:	b082      	sub	sp, #8
 8005b7c:	af00      	add	r7, sp, #0
 8005b7e:	f44f 6380 	mov.w	r3, #1024	; 0x400
 8005b82:	f2c4 0301 	movt	r3, #16385	; 0x4001
 8005b86:	695b      	ldr	r3, [r3, #20]
 8005b88:	095b      	lsrs	r3, r3, #5
 8005b8a:	f003 0307 	and.w	r3, r3, #7
 8005b8e:	607b      	str	r3, [r7, #4]
 8005b90:	f44f 6380 	mov.w	r3, #1024	; 0x400
 8005b94:	f2c4 0301 	movt	r3, #16385	; 0x4001
 8005b98:	22e0      	movs	r2, #224	; 0xe0
 8005b9a:	615a      	str	r2, [r3, #20]
 8005b9c:	2017      	movs	r0, #23
 8005b9e:	f7ff fd7d 	bl	800569c <NVIC_ClearPendingIRQ>
 8005ba2:	f240 0318 	movw	r3, #24
 8005ba6:	f2c2 0300 	movt	r3, #8192	; 0x2000
 8005baa:	687a      	ldr	r2, [r7, #4]
 8005bac:	f853 2022 	ldr.w	r2, [r3, r2, lsl #2]
 8005bb0:	f643 4370 	movw	r3, #15472	; 0x3c70
 8005bb4:	f2c2 0300 	movt	r3, #8192	; 0x2000
 8005bb8:	601a      	str	r2, [r3, #0]
 8005bba:	2000      	movs	r0, #0
 8005bbc:	f643 4170 	movw	r1, #15472	; 0x3c70
 8005bc0:	f2c2 0100 	movt	r1, #8192	; 0x2000
 8005bc4:	f7fd fe80 	bl	80038c8 <OS_Signal_Send>
 8005bc8:	3708      	adds	r7, #8
 8005bca:	46bd      	mov	sp, r7
 8005bcc:	bd80      	pop	{r7, pc}
 8005bce:	bf00      	nop

08005bd0 <TIM1_BRK_IRQHandler>:
 8005bd0:	b580      	push	{r7, lr}
 8005bd2:	af00      	add	r7, sp, #0
 8005bd4:	f7ff fd7c 	bl	80056d0 <Invalid_ISR>
 8005bd8:	bd80      	pop	{r7, pc}
 8005bda:	bf00      	nop

08005bdc <TIM1_UP_IRQHandler>:
 8005bdc:	b580      	push	{r7, lr}
 8005bde:	af00      	add	r7, sp, #0
 8005be0:	f7ff fd76 	bl	80056d0 <Invalid_ISR>
 8005be4:	bd80      	pop	{r7, pc}
 8005be6:	bf00      	nop

08005be8 <TIM1_TRG_COM_IRQHandler>:
 8005be8:	b580      	push	{r7, lr}
 8005bea:	af00      	add	r7, sp, #0
 8005bec:	f7ff fd70 	bl	80056d0 <Invalid_ISR>
 8005bf0:	bd80      	pop	{r7, pc}
 8005bf2:	bf00      	nop

08005bf4 <TIM1_CC_IRQHandler>:
 8005bf4:	b580      	push	{r7, lr}
 8005bf6:	af00      	add	r7, sp, #0
 8005bf8:	f7ff fd6a 	bl	80056d0 <Invalid_ISR>
 8005bfc:	bd80      	pop	{r7, pc}
 8005bfe:	bf00      	nop

08005c00 <TIM2_IRQHandler>:
 8005c00:	b580      	push	{r7, lr}
 8005c02:	af00      	add	r7, sp, #0
 8005c04:	f7ff fd64 	bl	80056d0 <Invalid_ISR>
 8005c08:	bd80      	pop	{r7, pc}
 8005c0a:	bf00      	nop

08005c0c <TIM3_IRQHandler>:
 8005c0c:	b580      	push	{r7, lr}
 8005c0e:	af00      	add	r7, sp, #0
 8005c10:	f7ff fd5e 	bl	80056d0 <Invalid_ISR>
 8005c14:	bd80      	pop	{r7, pc}
 8005c16:	bf00      	nop

08005c18 <TIM4_IRQHandler>:
 8005c18:	b580      	push	{r7, lr}
 8005c1a:	af00      	add	r7, sp, #0
 8005c1c:	f44f 6300 	mov.w	r3, #2048	; 0x800
 8005c20:	f2c4 0300 	movt	r3, #16384	; 0x4000
 8005c24:	f44f 6200 	mov.w	r2, #2048	; 0x800
 8005c28:	f2c4 0200 	movt	r2, #16384	; 0x4000
 8005c2c:	8a12      	ldrh	r2, [r2, #16]
 8005c2e:	b292      	uxth	r2, r2
 8005c30:	f022 0201 	bic.w	r2, r2, #1
 8005c34:	b292      	uxth	r2, r2
 8005c36:	821a      	strh	r2, [r3, #16]
 8005c38:	201e      	movs	r0, #30
 8005c3a:	f7ff fd2f 	bl	800569c <NVIC_ClearPendingIRQ>
 8005c3e:	f643 4374 	movw	r3, #15476	; 0x3c74
 8005c42:	f2c2 0300 	movt	r3, #8192	; 0x2000
 8005c46:	2201      	movs	r2, #1
 8005c48:	601a      	str	r2, [r3, #0]
 8005c4a:	bd80      	pop	{r7, pc}

08005c4c <I2C1_EV_IRQHandler>:
 8005c4c:	b580      	push	{r7, lr}
 8005c4e:	af00      	add	r7, sp, #0
 8005c50:	f7ff fd3e 	bl	80056d0 <Invalid_ISR>
 8005c54:	bd80      	pop	{r7, pc}
 8005c56:	bf00      	nop

08005c58 <I2C1_ER_IRQHandler>:
 8005c58:	b580      	push	{r7, lr}
 8005c5a:	af00      	add	r7, sp, #0
 8005c5c:	f7ff fd38 	bl	80056d0 <Invalid_ISR>
 8005c60:	bd80      	pop	{r7, pc}
 8005c62:	bf00      	nop

08005c64 <I2C2_EV_IRQHandler>:
 8005c64:	b580      	push	{r7, lr}
 8005c66:	af00      	add	r7, sp, #0
 8005c68:	f7ff fd32 	bl	80056d0 <Invalid_ISR>
 8005c6c:	bd80      	pop	{r7, pc}
 8005c6e:	bf00      	nop

08005c70 <I2C2_ER_IRQHandler>:
 8005c70:	b580      	push	{r7, lr}
 8005c72:	af00      	add	r7, sp, #0
 8005c74:	f7ff fd2c 	bl	80056d0 <Invalid_ISR>
 8005c78:	bd80      	pop	{r7, pc}
 8005c7a:	bf00      	nop

08005c7c <SPI1_IRQHandler>:
 8005c7c:	b580      	push	{r7, lr}
 8005c7e:	af00      	add	r7, sp, #0
 8005c80:	f7ff fd26 	bl	80056d0 <Invalid_ISR>
 8005c84:	bd80      	pop	{r7, pc}
 8005c86:	bf00      	nop

08005c88 <SPI2_IRQHandler>:
 8005c88:	b580      	push	{r7, lr}
 8005c8a:	af00      	add	r7, sp, #0
 8005c8c:	f7ff fd20 	bl	80056d0 <Invalid_ISR>
 8005c90:	bd80      	pop	{r7, pc}
 8005c92:	bf00      	nop

08005c94 <USART1_IRQHandler>:
 8005c94:	b580      	push	{r7, lr}
 8005c96:	b082      	sub	sp, #8
 8005c98:	af00      	add	r7, sp, #0
 8005c9a:	f44f 5360 	mov.w	r3, #14336	; 0x3800
 8005c9e:	f2c4 0301 	movt	r3, #16385	; 0x4001
 8005ca2:	889b      	ldrh	r3, [r3, #4]
 8005ca4:	b29b      	uxth	r3, r3
 8005ca6:	71fb      	strb	r3, [r7, #7]
 8005ca8:	2025      	movs	r0, #37	; 0x25
 8005caa:	f7ff fcf7 	bl	800569c <NVIC_ClearPendingIRQ>
 8005cae:	f643 4390 	movw	r3, #15504	; 0x3c90
 8005cb2:	f2c2 0300 	movt	r3, #8192	; 0x2000
 8005cb6:	681b      	ldr	r3, [r3, #0]
 8005cb8:	461a      	mov	r2, r3
 8005cba:	1c51      	adds	r1, r2, #1
 8005cbc:	f643 4390 	movw	r3, #15504	; 0x3c90
 8005cc0:	f2c2 0300 	movt	r3, #8192	; 0x2000
 8005cc4:	6019      	str	r1, [r3, #0]
 8005cc6:	f643 437c 	movw	r3, #15484	; 0x3c7c
 8005cca:	f2c2 0300 	movt	r3, #8192	; 0x2000
 8005cce:	79f9      	ldrb	r1, [r7, #7]
 8005cd0:	5499      	strb	r1, [r3, r2]
 8005cd2:	79fb      	ldrb	r3, [r7, #7]
 8005cd4:	2b0a      	cmp	r3, #10
 8005cd6:	d006      	beq.n	8005ce6 <USART1_IRQHandler+0x52>
 8005cd8:	f643 4390 	movw	r3, #15504	; 0x3c90
 8005cdc:	f2c2 0300 	movt	r3, #8192	; 0x2000
 8005ce0:	681b      	ldr	r3, [r3, #0]
 8005ce2:	2b13      	cmp	r3, #19
 8005ce4:	dd19      	ble.n	8005d1a <USART1_IRQHandler+0x86>
 8005ce6:	f643 4390 	movw	r3, #15504	; 0x3c90
 8005cea:	f2c2 0300 	movt	r3, #8192	; 0x2000
 8005cee:	681a      	ldr	r2, [r3, #0]
 8005cf0:	f643 437c 	movw	r3, #15484	; 0x3c7c
 8005cf4:	f2c2 0300 	movt	r3, #8192	; 0x2000
 8005cf8:	2100      	movs	r1, #0
 8005cfa:	5499      	strb	r1, [r3, r2]
 8005cfc:	f643 4390 	movw	r3, #15504	; 0x3c90
 8005d00:	f2c2 0300 	movt	r3, #8192	; 0x2000
 8005d04:	2200      	movs	r2, #0
 8005d06:	601a      	str	r2, [r3, #0]
 8005d08:	2301      	movs	r3, #1
 8005d0a:	603b      	str	r3, [r7, #0]
 8005d0c:	6838      	ldr	r0, [r7, #0]
 8005d0e:	f643 417c 	movw	r1, #15484	; 0x3c7c
 8005d12:	f2c2 0100 	movt	r1, #8192	; 0x2000
 8005d16:	f7fd fdd7 	bl	80038c8 <OS_Signal_Send>
 8005d1a:	f643 4378 	movw	r3, #15480	; 0x3c78
 8005d1e:	f2c2 0300 	movt	r3, #8192	; 0x2000
 8005d22:	2201      	movs	r2, #1
 8005d24:	601a      	str	r2, [r3, #0]
 8005d26:	3708      	adds	r7, #8
 8005d28:	46bd      	mov	sp, r7
 8005d2a:	bd80      	pop	{r7, pc}

08005d2c <USART2_IRQHandler>:
 8005d2c:	b580      	push	{r7, lr}
 8005d2e:	af00      	add	r7, sp, #0
 8005d30:	f7ff fcce 	bl	80056d0 <Invalid_ISR>
 8005d34:	bd80      	pop	{r7, pc}
 8005d36:	bf00      	nop

08005d38 <USART3_IRQHandler>:
 8005d38:	b580      	push	{r7, lr}
 8005d3a:	af00      	add	r7, sp, #0
 8005d3c:	f7ff fcc8 	bl	80056d0 <Invalid_ISR>
 8005d40:	bd80      	pop	{r7, pc}
 8005d42:	bf00      	nop

08005d44 <EXTI15_10_IRQHandler>:
 8005d44:	b580      	push	{r7, lr}
 8005d46:	b082      	sub	sp, #8
 8005d48:	af00      	add	r7, sp, #0
 8005d4a:	f44f 6380 	mov.w	r3, #1024	; 0x400
 8005d4e:	f2c4 0301 	movt	r3, #16385	; 0x4001
 8005d52:	695b      	ldr	r3, [r3, #20]
 8005d54:	0b5b      	lsrs	r3, r3, #13
 8005d56:	f003 0303 	and.w	r3, r3, #3
 8005d5a:	607b      	str	r3, [r7, #4]
 8005d5c:	f44f 6380 	mov.w	r3, #1024	; 0x400
 8005d60:	f2c4 0301 	movt	r3, #16385	; 0x4001
 8005d64:	f44f 6280 	mov.w	r2, #1024	; 0x400
 8005d68:	f2c4 0201 	movt	r2, #16385	; 0x4001
 8005d6c:	6952      	ldr	r2, [r2, #20]
 8005d6e:	f442 42c0 	orr.w	r2, r2, #24576	; 0x6000
 8005d72:	615a      	str	r2, [r3, #20]
 8005d74:	2028      	movs	r0, #40	; 0x28
 8005d76:	f7ff fc91 	bl	800569c <NVIC_ClearPendingIRQ>
 8005d7a:	f240 0338 	movw	r3, #56	; 0x38
 8005d7e:	f2c2 0300 	movt	r3, #8192	; 0x2000
 8005d82:	687a      	ldr	r2, [r7, #4]
 8005d84:	f853 2022 	ldr.w	r2, [r3, r2, lsl #2]
 8005d88:	f643 4370 	movw	r3, #15472	; 0x3c70
 8005d8c:	f2c2 0300 	movt	r3, #8192	; 0x2000
 8005d90:	601a      	str	r2, [r3, #0]
 8005d92:	2000      	movs	r0, #0
 8005d94:	f643 4170 	movw	r1, #15472	; 0x3c70
 8005d98:	f2c2 0100 	movt	r1, #8192	; 0x2000
 8005d9c:	f7fd fd94 	bl	80038c8 <OS_Signal_Send>
 8005da0:	3708      	adds	r7, #8
 8005da2:	46bd      	mov	sp, r7
 8005da4:	bd80      	pop	{r7, pc}
 8005da6:	bf00      	nop

08005da8 <RTCAlarm_IRQHandler>:
 8005da8:	b580      	push	{r7, lr}
 8005daa:	af00      	add	r7, sp, #0
 8005dac:	f7ff fc90 	bl	80056d0 <Invalid_ISR>
 8005db0:	bd80      	pop	{r7, pc}
 8005db2:	bf00      	nop

08005db4 <USBWakeUp_IRQHandler>:
 8005db4:	b580      	push	{r7, lr}
 8005db6:	af00      	add	r7, sp, #0
 8005db8:	f7ff fc8a 	bl	80056d0 <Invalid_ISR>
 8005dbc:	bd80      	pop	{r7, pc}
 8005dbe:	bf00      	nop

08005dc0 <SysTick_OS_Tick>:
 8005dc0:	b590      	push	{r4, r7, lr}
 8005dc2:	b083      	sub	sp, #12
 8005dc4:	af00      	add	r7, sp, #0
 8005dc6:	6078      	str	r0, [r7, #4]
 8005dc8:	f24e 0310 	movw	r3, #57360	; 0xe010
 8005dcc:	f2ce 0300 	movt	r3, #57344	; 0xe000
 8005dd0:	2202      	movs	r2, #2
 8005dd2:	601a      	str	r2, [r3, #0]
 8005dd4:	f24e 0410 	movw	r4, #57360	; 0xe010
 8005dd8:	f2ce 0400 	movt	r4, #57344	; 0xe000
 8005ddc:	6878      	ldr	r0, [r7, #4]
 8005dde:	f005 fcfb 	bl	800b7d8 <__aeabi_ui2d>
 8005de2:	4602      	mov	r2, r0
 8005de4:	460b      	mov	r3, r1
 8005de6:	4610      	mov	r0, r2
 8005de8:	4619      	mov	r1, r3
 8005dea:	a317      	add	r3, pc, #92	; (adr r3, 8005e48 <SysTick_OS_Tick+0x88>)
 8005dec:	e9d3 2300 	ldrd	r2, r3, [r3]
 8005df0:	f005 fd68 	bl	800b8c4 <__aeabi_dmul>
 8005df4:	4602      	mov	r2, r0
 8005df6:	460b      	mov	r3, r1
 8005df8:	4610      	mov	r0, r2
 8005dfa:	4619      	mov	r1, r3
 8005dfc:	f04f 0200 	mov.w	r2, #0
 8005e00:	f04f 0300 	mov.w	r3, #0
 8005e04:	f6c3 73e0 	movt	r3, #16352	; 0x3fe0
 8005e08:	f005 fbaa 	bl	800b560 <__adddf3>
 8005e0c:	4602      	mov	r2, r0
 8005e0e:	460b      	mov	r3, r1
 8005e10:	4610      	mov	r0, r2
 8005e12:	4619      	mov	r1, r3
 8005e14:	f006 f818 	bl	800be48 <__aeabi_d2uiz>
 8005e18:	4603      	mov	r3, r0
 8005e1a:	6063      	str	r3, [r4, #4]
 8005e1c:	f24e 0310 	movw	r3, #57360	; 0xe010
 8005e20:	f2ce 0300 	movt	r3, #57344	; 0xe000
 8005e24:	2200      	movs	r2, #0
 8005e26:	609a      	str	r2, [r3, #8]
 8005e28:	f24e 0310 	movw	r3, #57360	; 0xe010
 8005e2c:	f2ce 0300 	movt	r3, #57344	; 0xe000
 8005e30:	f24e 0210 	movw	r2, #57360	; 0xe010
 8005e34:	f2ce 0200 	movt	r2, #57344	; 0xe000
 8005e38:	6812      	ldr	r2, [r2, #0]
 8005e3a:	f042 0201 	orr.w	r2, r2, #1
 8005e3e:	601a      	str	r2, [r3, #0]
 8005e40:	370c      	adds	r7, #12
 8005e42:	46bd      	mov	sp, r7
 8005e44:	bd90      	pop	{r4, r7, pc}
 8005e46:	bf00      	nop
 8005e48:	00000000 	andeq	r0, r0, r0
 8005e4c:	40c19400 	sbcmi	r9, r1, r0, lsl #8

08005e50 <NVIC_EnableIRQ>:
 8005e50:	b480      	push	{r7}
 8005e52:	b083      	sub	sp, #12
 8005e54:	af00      	add	r7, sp, #0
 8005e56:	4603      	mov	r3, r0
 8005e58:	71fb      	strb	r3, [r7, #7]
 8005e5a:	f44f 4361 	mov.w	r3, #57600	; 0xe100
 8005e5e:	f2ce 0300 	movt	r3, #57344	; 0xe000
 8005e62:	f997 2007 	ldrsb.w	r2, [r7, #7]
 8005e66:	0952      	lsrs	r2, r2, #5
 8005e68:	79f9      	ldrb	r1, [r7, #7]
 8005e6a:	f001 011f 	and.w	r1, r1, #31
 8005e6e:	2001      	movs	r0, #1
 8005e70:	fa00 f101 	lsl.w	r1, r0, r1
 8005e74:	f843 1022 	str.w	r1, [r3, r2, lsl #2]
 8005e78:	370c      	adds	r7, #12
 8005e7a:	46bd      	mov	sp, r7
 8005e7c:	f85d 7b04 	ldr.w	r7, [sp], #4
 8005e80:	4770      	bx	lr
 8005e82:	bf00      	nop

08005e84 <NVIC_DisableIRQ>:
 8005e84:	b480      	push	{r7}
 8005e86:	b083      	sub	sp, #12
 8005e88:	af00      	add	r7, sp, #0
 8005e8a:	4603      	mov	r3, r0
 8005e8c:	71fb      	strb	r3, [r7, #7]
 8005e8e:	f44f 4361 	mov.w	r3, #57600	; 0xe100
 8005e92:	f2ce 0300 	movt	r3, #57344	; 0xe000
 8005e96:	f997 2007 	ldrsb.w	r2, [r7, #7]
 8005e9a:	0952      	lsrs	r2, r2, #5
 8005e9c:	79f9      	ldrb	r1, [r7, #7]
 8005e9e:	f001 011f 	and.w	r1, r1, #31
 8005ea2:	2001      	movs	r0, #1
 8005ea4:	fa00 f101 	lsl.w	r1, r0, r1
 8005ea8:	3220      	adds	r2, #32
 8005eaa:	f843 1022 	str.w	r1, [r3, r2, lsl #2]
 8005eae:	370c      	adds	r7, #12
 8005eb0:	46bd      	mov	sp, r7
 8005eb2:	f85d 7b04 	ldr.w	r7, [sp], #4
 8005eb6:	4770      	bx	lr

08005eb8 <NVIC_ClearPendingIRQ>:
 8005eb8:	b480      	push	{r7}
 8005eba:	b083      	sub	sp, #12
 8005ebc:	af00      	add	r7, sp, #0
 8005ebe:	4603      	mov	r3, r0
 8005ec0:	71fb      	strb	r3, [r7, #7]
 8005ec2:	f44f 4361 	mov.w	r3, #57600	; 0xe100
 8005ec6:	f2ce 0300 	movt	r3, #57344	; 0xe000
 8005eca:	f997 2007 	ldrsb.w	r2, [r7, #7]
 8005ece:	0952      	lsrs	r2, r2, #5
 8005ed0:	79f9      	ldrb	r1, [r7, #7]
 8005ed2:	f001 011f 	and.w	r1, r1, #31
 8005ed6:	2001      	movs	r0, #1
 8005ed8:	fa00 f101 	lsl.w	r1, r0, r1
 8005edc:	3260      	adds	r2, #96	; 0x60
 8005ede:	f843 1022 	str.w	r1, [r3, r2, lsl #2]
 8005ee2:	370c      	adds	r7, #12
 8005ee4:	46bd      	mov	sp, r7
 8005ee6:	f85d 7b04 	ldr.w	r7, [sp], #4
 8005eea:	4770      	bx	lr

08005eec <TIM4_Repeat_Interrupt_Enable>:
 8005eec:	b580      	push	{r7, lr}
 8005eee:	b082      	sub	sp, #8
 8005ef0:	af00      	add	r7, sp, #0
 8005ef2:	6078      	str	r0, [r7, #4]
 8005ef4:	6039      	str	r1, [r7, #0]
 8005ef6:	687b      	ldr	r3, [r7, #4]
 8005ef8:	2b00      	cmp	r3, #0
 8005efa:	d06a      	beq.n	8005fd2 <TIM4_Repeat_Interrupt_Enable+0xe6>
 8005efc:	f44f 5380 	mov.w	r3, #4096	; 0x1000
 8005f00:	f2c4 0302 	movt	r3, #16386	; 0x4002
 8005f04:	f44f 5280 	mov.w	r2, #4096	; 0x1000
 8005f08:	f2c4 0202 	movt	r2, #16386	; 0x4002
 8005f0c:	69d2      	ldr	r2, [r2, #28]
 8005f0e:	f042 0204 	orr.w	r2, r2, #4
 8005f12:	61da      	str	r2, [r3, #28]
 8005f14:	f44f 6300 	mov.w	r3, #2048	; 0x800
 8005f18:	f2c4 0300 	movt	r3, #16384	; 0x4000
 8005f1c:	2210      	movs	r2, #16
 8005f1e:	801a      	strh	r2, [r3, #0]
 8005f20:	f44f 6300 	mov.w	r3, #2048	; 0x800
 8005f24:	f2c4 0300 	movt	r3, #16384	; 0x4000
 8005f28:	f240 529f 	movw	r2, #1439	; 0x59f
 8005f2c:	851a      	strh	r2, [r3, #40]	; 0x28
 8005f2e:	f44f 6300 	mov.w	r3, #2048	; 0x800
 8005f32:	f2c4 0300 	movt	r3, #16384	; 0x4000
 8005f36:	683a      	ldr	r2, [r7, #0]
 8005f38:	b292      	uxth	r2, r2
 8005f3a:	4611      	mov	r1, r2
 8005f3c:	0089      	lsls	r1, r1, #2
 8005f3e:	440a      	add	r2, r1
 8005f40:	4611      	mov	r1, r2
 8005f42:	0088      	lsls	r0, r1, #2
 8005f44:	4611      	mov	r1, r2
 8005f46:	4602      	mov	r2, r0
 8005f48:	440a      	add	r2, r1
 8005f4a:	0052      	lsls	r2, r2, #1
 8005f4c:	b292      	uxth	r2, r2
 8005f4e:	3a01      	subs	r2, #1
 8005f50:	b292      	uxth	r2, r2
 8005f52:	859a      	strh	r2, [r3, #44]	; 0x2c
 8005f54:	f44f 6300 	mov.w	r3, #2048	; 0x800
 8005f58:	f2c4 0300 	movt	r3, #16384	; 0x4000
 8005f5c:	f44f 6200 	mov.w	r2, #2048	; 0x800
 8005f60:	f2c4 0200 	movt	r2, #16384	; 0x4000
 8005f64:	8a92      	ldrh	r2, [r2, #20]
 8005f66:	b292      	uxth	r2, r2
 8005f68:	f042 0201 	orr.w	r2, r2, #1
 8005f6c:	b292      	uxth	r2, r2
 8005f6e:	829a      	strh	r2, [r3, #20]
 8005f70:	f44f 6300 	mov.w	r3, #2048	; 0x800
 8005f74:	f2c4 0300 	movt	r3, #16384	; 0x4000
 8005f78:	f44f 6200 	mov.w	r2, #2048	; 0x800
 8005f7c:	f2c4 0200 	movt	r2, #16384	; 0x4000
 8005f80:	8a12      	ldrh	r2, [r2, #16]
 8005f82:	b292      	uxth	r2, r2
 8005f84:	f022 0201 	bic.w	r2, r2, #1
 8005f88:	b292      	uxth	r2, r2
 8005f8a:	821a      	strh	r2, [r3, #16]
 8005f8c:	201e      	movs	r0, #30
 8005f8e:	f7ff ff93 	bl	8005eb8 <NVIC_ClearPendingIRQ>
 8005f92:	f44f 6300 	mov.w	r3, #2048	; 0x800
 8005f96:	f2c4 0300 	movt	r3, #16384	; 0x4000
 8005f9a:	f44f 6200 	mov.w	r2, #2048	; 0x800
 8005f9e:	f2c4 0200 	movt	r2, #16384	; 0x4000
 8005fa2:	8992      	ldrh	r2, [r2, #12]
 8005fa4:	b292      	uxth	r2, r2
 8005fa6:	f042 0201 	orr.w	r2, r2, #1
 8005faa:	b292      	uxth	r2, r2
 8005fac:	819a      	strh	r2, [r3, #12]
 8005fae:	201e      	movs	r0, #30
 8005fb0:	f7ff ff4e 	bl	8005e50 <NVIC_EnableIRQ>
 8005fb4:	f44f 6300 	mov.w	r3, #2048	; 0x800
 8005fb8:	f2c4 0300 	movt	r3, #16384	; 0x4000
 8005fbc:	f44f 6200 	mov.w	r2, #2048	; 0x800
 8005fc0:	f2c4 0200 	movt	r2, #16384	; 0x4000
 8005fc4:	8812      	ldrh	r2, [r2, #0]
 8005fc6:	b292      	uxth	r2, r2
 8005fc8:	f042 0201 	orr.w	r2, r2, #1
 8005fcc:	b292      	uxth	r2, r2
 8005fce:	801a      	strh	r2, [r3, #0]
 8005fd0:	e01e      	b.n	8006010 <TIM4_Repeat_Interrupt_Enable+0x124>
 8005fd2:	201e      	movs	r0, #30
 8005fd4:	f7ff ff56 	bl	8005e84 <NVIC_DisableIRQ>
 8005fd8:	f44f 6300 	mov.w	r3, #2048	; 0x800
 8005fdc:	f2c4 0300 	movt	r3, #16384	; 0x4000
 8005fe0:	f44f 6200 	mov.w	r2, #2048	; 0x800
 8005fe4:	f2c4 0200 	movt	r2, #16384	; 0x4000
 8005fe8:	8812      	ldrh	r2, [r2, #0]
 8005fea:	b292      	uxth	r2, r2
 8005fec:	f022 0201 	bic.w	r2, r2, #1
 8005ff0:	b292      	uxth	r2, r2
 8005ff2:	801a      	strh	r2, [r3, #0]
 8005ff4:	f44f 6300 	mov.w	r3, #2048	; 0x800
 8005ff8:	f2c4 0300 	movt	r3, #16384	; 0x4000
 8005ffc:	f44f 6200 	mov.w	r2, #2048	; 0x800
 8006000:	f2c4 0200 	movt	r2, #16384	; 0x4000
 8006004:	8992      	ldrh	r2, [r2, #12]
 8006006:	b292      	uxth	r2, r2
 8006008:	f022 0201 	bic.w	r2, r2, #1
 800600c:	b292      	uxth	r2, r2
 800600e:	819a      	strh	r2, [r3, #12]
 8006010:	3708      	adds	r7, #8
 8006012:	46bd      	mov	sp, r7
 8006014:	bd80      	pop	{r7, pc}
 8006016:	bf00      	nop

08006018 <NVIC_EnableIRQ>:
 8006018:	b480      	push	{r7}
 800601a:	b083      	sub	sp, #12
 800601c:	af00      	add	r7, sp, #0
 800601e:	4603      	mov	r3, r0
 8006020:	71fb      	strb	r3, [r7, #7]
 8006022:	f44f 4361 	mov.w	r3, #57600	; 0xe100
 8006026:	f2ce 0300 	movt	r3, #57344	; 0xe000
 800602a:	f997 2007 	ldrsb.w	r2, [r7, #7]
 800602e:	0952      	lsrs	r2, r2, #5
 8006030:	79f9      	ldrb	r1, [r7, #7]
 8006032:	f001 011f 	and.w	r1, r1, #31
 8006036:	2001      	movs	r0, #1
 8006038:	fa00 f101 	lsl.w	r1, r0, r1
 800603c:	f843 1022 	str.w	r1, [r3, r2, lsl #2]
 8006040:	370c      	adds	r7, #12
 8006042:	46bd      	mov	sp, r7
 8006044:	f85d 7b04 	ldr.w	r7, [sp], #4
 8006048:	4770      	bx	lr
 800604a:	bf00      	nop

0800604c <NVIC_DisableIRQ>:
 800604c:	b480      	push	{r7}
 800604e:	b083      	sub	sp, #12
 8006050:	af00      	add	r7, sp, #0
 8006052:	4603      	mov	r3, r0
 8006054:	71fb      	strb	r3, [r7, #7]
 8006056:	f44f 4361 	mov.w	r3, #57600	; 0xe100
 800605a:	f2ce 0300 	movt	r3, #57344	; 0xe000
 800605e:	f997 2007 	ldrsb.w	r2, [r7, #7]
 8006062:	0952      	lsrs	r2, r2, #5
 8006064:	79f9      	ldrb	r1, [r7, #7]
 8006066:	f001 011f 	and.w	r1, r1, #31
 800606a:	2001      	movs	r0, #1
 800606c:	fa00 f101 	lsl.w	r1, r0, r1
 8006070:	3220      	adds	r2, #32
 8006072:	f843 1022 	str.w	r1, [r3, r2, lsl #2]
 8006076:	370c      	adds	r7, #12
 8006078:	46bd      	mov	sp, r7
 800607a:	f85d 7b04 	ldr.w	r7, [sp], #4
 800607e:	4770      	bx	lr

08006080 <NVIC_ClearPendingIRQ>:
 8006080:	b480      	push	{r7}
 8006082:	b083      	sub	sp, #12
 8006084:	af00      	add	r7, sp, #0
 8006086:	4603      	mov	r3, r0
 8006088:	71fb      	strb	r3, [r7, #7]
 800608a:	f44f 4361 	mov.w	r3, #57600	; 0xe100
 800608e:	f2ce 0300 	movt	r3, #57344	; 0xe000
 8006092:	f997 2007 	ldrsb.w	r2, [r7, #7]
 8006096:	0952      	lsrs	r2, r2, #5
 8006098:	79f9      	ldrb	r1, [r7, #7]
 800609a:	f001 011f 	and.w	r1, r1, #31
 800609e:	2001      	movs	r0, #1
 80060a0:	fa00 f101 	lsl.w	r1, r0, r1
 80060a4:	3260      	adds	r2, #96	; 0x60
 80060a6:	f843 1022 	str.w	r1, [r3, r2, lsl #2]
 80060aa:	370c      	adds	r7, #12
 80060ac:	46bd      	mov	sp, r7
 80060ae:	f85d 7b04 	ldr.w	r7, [sp], #4
 80060b2:	4770      	bx	lr

080060b4 <Uart1_Init>:
 80060b4:	b580      	push	{r7, lr}
 80060b6:	b086      	sub	sp, #24
 80060b8:	af00      	add	r7, sp, #0
 80060ba:	6078      	str	r0, [r7, #4]
 80060bc:	f44f 5380 	mov.w	r3, #4096	; 0x1000
 80060c0:	f2c4 0302 	movt	r3, #16386	; 0x4002
 80060c4:	f44f 5280 	mov.w	r2, #4096	; 0x1000
 80060c8:	f2c4 0202 	movt	r2, #16386	; 0x4002
 80060cc:	6992      	ldr	r2, [r2, #24]
 80060ce:	f042 0204 	orr.w	r2, r2, #4
 80060d2:	619a      	str	r2, [r3, #24]
 80060d4:	f44f 5380 	mov.w	r3, #4096	; 0x1000
 80060d8:	f2c4 0302 	movt	r3, #16386	; 0x4002
 80060dc:	f44f 5280 	mov.w	r2, #4096	; 0x1000
 80060e0:	f2c4 0202 	movt	r2, #16386	; 0x4002
 80060e4:	6992      	ldr	r2, [r2, #24]
 80060e6:	f442 4280 	orr.w	r2, r2, #16384	; 0x4000
 80060ea:	619a      	str	r2, [r3, #24]
 80060ec:	f44f 6300 	mov.w	r3, #2048	; 0x800
 80060f0:	f2c4 0301 	movt	r3, #16385	; 0x4001
 80060f4:	f44f 6200 	mov.w	r2, #2048	; 0x800
 80060f8:	f2c4 0201 	movt	r2, #16385	; 0x4001
 80060fc:	6852      	ldr	r2, [r2, #4]
 80060fe:	f422 627f 	bic.w	r2, r2, #4080	; 0xff0
 8006102:	f442 620a 	orr.w	r2, r2, #2208	; 0x8a0
 8006106:	605a      	str	r2, [r3, #4]
 8006108:	f44f 6300 	mov.w	r3, #2048	; 0x800
 800610c:	f2c4 0301 	movt	r3, #16385	; 0x4001
 8006110:	f44f 6200 	mov.w	r2, #2048	; 0x800
 8006114:	f2c4 0201 	movt	r2, #16385	; 0x4001
 8006118:	68d2      	ldr	r2, [r2, #12]
 800611a:	f442 6280 	orr.w	r2, r2, #1024	; 0x400
 800611e:	60da      	str	r2, [r3, #12]
 8006120:	6878      	ldr	r0, [r7, #4]
 8006122:	f005 fb69 	bl	800b7f8 <__aeabi_i2d>
 8006126:	4602      	mov	r2, r0
 8006128:	460b      	mov	r3, r1
 800612a:	4610      	mov	r0, r2
 800612c:	4619      	mov	r1, r3
 800612e:	f04f 0200 	mov.w	r2, #0
 8006132:	f04f 0300 	mov.w	r3, #0
 8006136:	f2c4 0330 	movt	r3, #16432	; 0x4030
 800613a:	f005 fbc3 	bl	800b8c4 <__aeabi_dmul>
 800613e:	4602      	mov	r2, r0
 8006140:	460b      	mov	r3, r1
 8006142:	a133      	add	r1, pc, #204	; (adr r1, 8006210 <Uart1_Init+0x15c>)
 8006144:	e9d1 0100 	ldrd	r0, r1, [r1]
 8006148:	f005 fce6 	bl	800bb18 <__aeabi_ddiv>
 800614c:	4602      	mov	r2, r0
 800614e:	460b      	mov	r3, r1
 8006150:	e9c7 2304 	strd	r2, r3, [r7, #16]
 8006154:	e9d7 0104 	ldrd	r0, r1, [r7, #16]
 8006158:	f005 fe4e 	bl	800bdf8 <__aeabi_d2iz>
 800615c:	4603      	mov	r3, r0
 800615e:	60fb      	str	r3, [r7, #12]
 8006160:	68f8      	ldr	r0, [r7, #12]
 8006162:	f005 fb39 	bl	800b7d8 <__aeabi_ui2d>
 8006166:	4602      	mov	r2, r0
 8006168:	460b      	mov	r3, r1
 800616a:	e9d7 0104 	ldrd	r0, r1, [r7, #16]
 800616e:	f005 f9f5 	bl	800b55c <__aeabi_dsub>
 8006172:	4602      	mov	r2, r0
 8006174:	460b      	mov	r3, r1
 8006176:	4610      	mov	r0, r2
 8006178:	4619      	mov	r1, r3
 800617a:	f04f 0200 	mov.w	r2, #0
 800617e:	f04f 0300 	mov.w	r3, #0
 8006182:	f2c4 0330 	movt	r3, #16432	; 0x4030
 8006186:	f005 fb9d 	bl	800b8c4 <__aeabi_dmul>
 800618a:	4602      	mov	r2, r0
 800618c:	460b      	mov	r3, r1
 800618e:	4610      	mov	r0, r2
 8006190:	4619      	mov	r1, r3
 8006192:	f04f 0200 	mov.w	r2, #0
 8006196:	f04f 0300 	mov.w	r3, #0
 800619a:	f6c3 73e0 	movt	r3, #16352	; 0x3fe0
 800619e:	f005 f9df 	bl	800b560 <__adddf3>
 80061a2:	4602      	mov	r2, r0
 80061a4:	460b      	mov	r3, r1
 80061a6:	4610      	mov	r0, r2
 80061a8:	4619      	mov	r1, r3
 80061aa:	f005 fe25 	bl	800bdf8 <__aeabi_d2iz>
 80061ae:	4603      	mov	r3, r0
 80061b0:	60bb      	str	r3, [r7, #8]
 80061b2:	68bb      	ldr	r3, [r7, #8]
 80061b4:	091b      	lsrs	r3, r3, #4
 80061b6:	68fa      	ldr	r2, [r7, #12]
 80061b8:	4413      	add	r3, r2
 80061ba:	60fb      	str	r3, [r7, #12]
 80061bc:	68bb      	ldr	r3, [r7, #8]
 80061be:	f003 030f 	and.w	r3, r3, #15
 80061c2:	60bb      	str	r3, [r7, #8]
 80061c4:	f44f 5360 	mov.w	r3, #14336	; 0x3800
 80061c8:	f2c4 0301 	movt	r3, #16385	; 0x4001
 80061cc:	68fa      	ldr	r2, [r7, #12]
 80061ce:	b292      	uxth	r2, r2
 80061d0:	0112      	lsls	r2, r2, #4
 80061d2:	b291      	uxth	r1, r2
 80061d4:	68ba      	ldr	r2, [r7, #8]
 80061d6:	b292      	uxth	r2, r2
 80061d8:	440a      	add	r2, r1
 80061da:	b292      	uxth	r2, r2
 80061dc:	811a      	strh	r2, [r3, #8]
 80061de:	f44f 5360 	mov.w	r3, #14336	; 0x3800
 80061e2:	f2c4 0301 	movt	r3, #16385	; 0x4001
 80061e6:	f242 020c 	movw	r2, #8204	; 0x200c
 80061ea:	819a      	strh	r2, [r3, #12]
 80061ec:	f44f 5360 	mov.w	r3, #14336	; 0x3800
 80061f0:	f2c4 0301 	movt	r3, #16385	; 0x4001
 80061f4:	2200      	movs	r2, #0
 80061f6:	821a      	strh	r2, [r3, #16]
 80061f8:	f44f 5360 	mov.w	r3, #14336	; 0x3800
 80061fc:	f2c4 0301 	movt	r3, #16385	; 0x4001
 8006200:	2200      	movs	r2, #0
 8006202:	829a      	strh	r2, [r3, #20]
 8006204:	3718      	adds	r7, #24
 8006206:	46bd      	mov	sp, r7
 8006208:	bd80      	pop	{r7, pc}
 800620a:	bf00      	nop
 800620c:	f3af 8000 	nop.w
 8006210:	00000000 	andeq	r0, r0, r0
 8006214:	41912a88 	orrsmi	r2, r1, r8, lsl #21

08006218 <Uart1_Send_Byte>:
 8006218:	b480      	push	{r7}
 800621a:	b083      	sub	sp, #12
 800621c:	af00      	add	r7, sp, #0
 800621e:	4603      	mov	r3, r0
 8006220:	71fb      	strb	r3, [r7, #7]
 8006222:	79fb      	ldrb	r3, [r7, #7]
 8006224:	2b0a      	cmp	r3, #10
 8006226:	d113      	bne.n	8006250 <Uart1_Send_Byte+0x38>
 8006228:	bf00      	nop
 800622a:	f44f 5360 	mov.w	r3, #14336	; 0x3800
 800622e:	f2c4 0301 	movt	r3, #16385	; 0x4001
 8006232:	881b      	ldrh	r3, [r3, #0]
 8006234:	b29b      	uxth	r3, r3
 8006236:	09db      	lsrs	r3, r3, #7
 8006238:	b29b      	uxth	r3, r3
 800623a:	f003 0301 	and.w	r3, r3, #1
 800623e:	2b00      	cmp	r3, #0
 8006240:	d0f3      	beq.n	800622a <Uart1_Send_Byte+0x12>
 8006242:	f44f 5360 	mov.w	r3, #14336	; 0x3800
 8006246:	f2c4 0301 	movt	r3, #16385	; 0x4001
 800624a:	220d      	movs	r2, #13
 800624c:	809a      	strh	r2, [r3, #4]
 800624e:	e7ff      	b.n	8006250 <Uart1_Send_Byte+0x38>
 8006250:	bf00      	nop
 8006252:	f44f 5360 	mov.w	r3, #14336	; 0x3800
 8006256:	f2c4 0301 	movt	r3, #16385	; 0x4001
 800625a:	881b      	ldrh	r3, [r3, #0]
 800625c:	b29b      	uxth	r3, r3
 800625e:	09db      	lsrs	r3, r3, #7
 8006260:	b29b      	uxth	r3, r3
 8006262:	f003 0301 	and.w	r3, r3, #1
 8006266:	2b00      	cmp	r3, #0
 8006268:	d0f3      	beq.n	8006252 <Uart1_Send_Byte+0x3a>
 800626a:	f44f 5360 	mov.w	r3, #14336	; 0x3800
 800626e:	f2c4 0301 	movt	r3, #16385	; 0x4001
 8006272:	79fa      	ldrb	r2, [r7, #7]
 8006274:	b292      	uxth	r2, r2
 8006276:	809a      	strh	r2, [r3, #4]
 8006278:	370c      	adds	r7, #12
 800627a:	46bd      	mov	sp, r7
 800627c:	f85d 7b04 	ldr.w	r7, [sp], #4
 8006280:	4770      	bx	lr
 8006282:	bf00      	nop

08006284 <Uart1_Send_String>:
 8006284:	b580      	push	{r7, lr}
 8006286:	b082      	sub	sp, #8
 8006288:	af00      	add	r7, sp, #0
 800628a:	6078      	str	r0, [r7, #4]
 800628c:	e006      	b.n	800629c <Uart1_Send_String+0x18>
 800628e:	687b      	ldr	r3, [r7, #4]
 8006290:	1c5a      	adds	r2, r3, #1
 8006292:	607a      	str	r2, [r7, #4]
 8006294:	781b      	ldrb	r3, [r3, #0]
 8006296:	4618      	mov	r0, r3
 8006298:	f7ff ffbe 	bl	8006218 <Uart1_Send_Byte>
 800629c:	687b      	ldr	r3, [r7, #4]
 800629e:	781b      	ldrb	r3, [r3, #0]
 80062a0:	2b00      	cmp	r3, #0
 80062a2:	d1f4      	bne.n	800628e <Uart1_Send_String+0xa>
 80062a4:	3708      	adds	r7, #8
 80062a6:	46bd      	mov	sp, r7
 80062a8:	bd80      	pop	{r7, pc}
 80062aa:	bf00      	nop

080062ac <Uart1_Printf>:
 80062ac:	b40f      	push	{r0, r1, r2, r3}
 80062ae:	b580      	push	{r7, lr}
 80062b0:	b0a2      	sub	sp, #136	; 0x88
 80062b2:	af00      	add	r7, sp, #0
 80062b4:	f107 0394 	add.w	r3, r7, #148	; 0x94
 80062b8:	f8c7 3084 	str.w	r3, [r7, #132]	; 0x84
 80062bc:	1d3b      	adds	r3, r7, #4
 80062be:	4618      	mov	r0, r3
 80062c0:	f8d7 1090 	ldr.w	r1, [r7, #144]	; 0x90
 80062c4:	f8d7 2084 	ldr.w	r2, [r7, #132]	; 0x84
 80062c8:	f000 f940 	bl	800654c <vsprintf>
 80062cc:	1d3b      	adds	r3, r7, #4
 80062ce:	4618      	mov	r0, r3
 80062d0:	f7ff ffd8 	bl	8006284 <Uart1_Send_String>
 80062d4:	3788      	adds	r7, #136	; 0x88
 80062d6:	46bd      	mov	sp, r7
 80062d8:	e8bd 4080 	ldmia.w	sp!, {r7, lr}
 80062dc:	b004      	add	sp, #16
 80062de:	4770      	bx	lr

080062e0 <Uart1_RX_Interrupt_Enable>:
 80062e0:	b580      	push	{r7, lr}
 80062e2:	b082      	sub	sp, #8
 80062e4:	af00      	add	r7, sp, #0
 80062e6:	6078      	str	r0, [r7, #4]
 80062e8:	687b      	ldr	r3, [r7, #4]
 80062ea:	2b00      	cmp	r3, #0
 80062ec:	d014      	beq.n	8006318 <Uart1_RX_Interrupt_Enable+0x38>
 80062ee:	f44f 5360 	mov.w	r3, #14336	; 0x3800
 80062f2:	f2c4 0301 	movt	r3, #16385	; 0x4001
 80062f6:	f44f 5260 	mov.w	r2, #14336	; 0x3800
 80062fa:	f2c4 0201 	movt	r2, #16385	; 0x4001
 80062fe:	8992      	ldrh	r2, [r2, #12]
 8006300:	b292      	uxth	r2, r2
 8006302:	f042 0220 	orr.w	r2, r2, #32
 8006306:	b292      	uxth	r2, r2
 8006308:	819a      	strh	r2, [r3, #12]
 800630a:	2025      	movs	r0, #37	; 0x25
 800630c:	f7ff feb8 	bl	8006080 <NVIC_ClearPendingIRQ>
 8006310:	2025      	movs	r0, #37	; 0x25
 8006312:	f7ff fe81 	bl	8006018 <NVIC_EnableIRQ>
 8006316:	e010      	b.n	800633a <Uart1_RX_Interrupt_Enable+0x5a>
 8006318:	f44f 5360 	mov.w	r3, #14336	; 0x3800
 800631c:	f2c4 0301 	movt	r3, #16385	; 0x4001
 8006320:	f44f 5260 	mov.w	r2, #14336	; 0x3800
 8006324:	f2c4 0201 	movt	r2, #16385	; 0x4001
 8006328:	8992      	ldrh	r2, [r2, #12]
 800632a:	b292      	uxth	r2, r2
 800632c:	f022 0220 	bic.w	r2, r2, #32
 8006330:	b292      	uxth	r2, r2
 8006332:	819a      	strh	r2, [r3, #12]
 8006334:	2025      	movs	r0, #37	; 0x25
 8006336:	f7ff fe89 	bl	800604c <NVIC_DisableIRQ>
 800633a:	3708      	adds	r7, #8
 800633c:	46bd      	mov	sp, r7
 800633e:	bd80      	pop	{r7, pc}

08006340 <__get_IPSR>:
 8006340:	f3ef 8005 	mrs	r0, IPSR
 8006344:	4770      	bx	lr

08006346 <_Print_Reg>:
 8006346:	e92d 5fff 	stmdb	sp!, {r0, r1, r2, r3, r4, r5, r6, r7, r8, r9, sl, fp, ip, lr}
 800634a:	f3ef 8103 	mrs	r1, PSR
 800634e:	b403      	push	{r0, r1}
 8006350:	f04f 060e 	mov.w	r6, #14
 8006354:	f04f 0404 	mov.w	r4, #4
 8006358:	4d33      	ldr	r5, [pc, #204]	; (8006428 <_UsageFault_Handler+0x14>)

0800635a <_loop>:
 800635a:	4834      	ldr	r0, [pc, #208]	; (800642c <_UsageFault_Handler+0x18>)
 800635c:	4629      	mov	r1, r5
 800635e:	f85d 2004 	ldr.w	r2, [sp, r4]
 8006362:	f7ff ffa3 	bl	80062ac <Uart1_Printf>
 8006366:	f104 0404 	add.w	r4, r4, #4
 800636a:	f105 0504 	add.w	r5, r5, #4
 800636e:	3e01      	subs	r6, #1
 8006370:	dcf3      	bgt.n	800635a <_loop>
 8006372:	482e      	ldr	r0, [pc, #184]	; (800642c <_UsageFault_Handler+0x18>)
 8006374:	4629      	mov	r1, r5
 8006376:	f3ef 8209 	mrs	r2, PSP
 800637a:	f7ff ff97 	bl	80062ac <Uart1_Printf>
 800637e:	bc03      	pop	{r0, r1}
 8006380:	f381 8800 	msr	CPSR_f, r1
 8006384:	f381 8807 	msr	IEPSR, r1
 8006388:	e8bd 9fff 	ldmia.w	sp!, {r0, r1, r2, r3, r4, r5, r6, r7, r8, r9, sl, fp, ip, pc}

0800638c <fmt>:
 800638c:	3a207325 	bcc	8823028 <__RW_LOAD_ADDR__+0x816520>
 8006390:	25783020 	ldrbcs	r3, [r8, #-32]!	; 0xffffffe0
 8006394:	0a58382e 	beq	9614454 <__RW_LOAD_ADDR__+0x160794c>
	...

08006399 <_PSR>:
 8006399:	00525350 	subseq	r5, r2, r0, asr r3

0800639d <_r0>:
 800639d:	00303052 	eorseq	r3, r0, r2, asr r0

080063a1 <_r1>:
 80063a1:	00313052 	eorseq	r3, r1, r2, asr r0

080063a5 <_r2>:
 80063a5:	00323052 	eorseq	r3, r2, r2, asr r0

080063a9 <_r3>:
 80063a9:	00333052 	eorseq	r3, r3, r2, asr r0

080063ad <_r4>:
 80063ad:	00343052 	eorseq	r3, r4, r2, asr r0

080063b1 <_r5>:
 80063b1:	00353052 	eorseq	r3, r5, r2, asr r0

080063b5 <_r6>:
 80063b5:	00363052 	eorseq	r3, r6, r2, asr r0

080063b9 <_r7>:
 80063b9:	00373052 	eorseq	r3, r7, r2, asr r0

080063bd <_r8>:
 80063bd:	00383052 	eorseq	r3, r8, r2, asr r0

080063c1 <_r9>:
 80063c1:	00393052 	eorseq	r3, r9, r2, asr r0

080063c5 <_r10>:
 80063c5:	00303152 	eorseq	r3, r0, r2, asr r1

080063c9 <_r11>:
 80063c9:	00313152 	eorseq	r3, r1, r2, asr r1

080063cd <_r12>:
 80063cd:	00323152 	eorseq	r3, r2, r2, asr r1

080063d1 <_PSP>:
 80063d1:	00505350 	subseq	r5, r0, r0, asr r3
 80063d5:	01bf0000 			; <UNDEFINED> instruction: 0x01bf0000

080063d8 <_HardFault_Handler>:
 80063d8:	b501      	push	{r0, lr}
 80063da:	f7ff ffb4 	bl	8006346 <_Print_Reg>
 80063de:	a802      	add	r0, sp, #8
 80063e0:	9901      	ldr	r1, [sp, #4]
 80063e2:	f3ef 8209 	mrs	r2, PSP
 80063e6:	f7ff fa49 	bl	800587c <HardFault_Handler>
 80063ea:	bd01      	pop	{r0, pc}

080063ec <_MemManage_Handler>:
 80063ec:	b501      	push	{r0, lr}
 80063ee:	f7ff ffaa 	bl	8006346 <_Print_Reg>
 80063f2:	a802      	add	r0, sp, #8
 80063f4:	9901      	ldr	r1, [sp, #4]
 80063f6:	f3ef 8209 	mrs	r2, PSP
 80063fa:	f7ff fa93 	bl	8005924 <MemManage_Handler>
 80063fe:	bd01      	pop	{r0, pc}

08006400 <_BusFault_Handler>:
 8006400:	b501      	push	{r0, lr}
 8006402:	f7ff ffa0 	bl	8006346 <_Print_Reg>
 8006406:	a802      	add	r0, sp, #8
 8006408:	9901      	ldr	r1, [sp, #4]
 800640a:	f3ef 8209 	mrs	r2, PSP
 800640e:	f7ff fab7 	bl	8005980 <BusFault_Handler>
 8006412:	bd01      	pop	{r0, pc}

08006414 <_UsageFault_Handler>:
 8006414:	b501      	push	{r0, lr}
 8006416:	f7ff ff96 	bl	8006346 <_Print_Reg>
 800641a:	a802      	add	r0, sp, #8
 800641c:	9901      	ldr	r1, [sp, #4]
 800641e:	f3ef 8209 	mrs	r2, PSP
 8006422:	f7ff fadb 	bl	80059dc <UsageFault_Handler>
 8006426:	bd01      	pop	{r0, pc}
 8006428:	08006399 	stmdaeq	r0, {r0, r3, r4, r7, r8, r9, sp, lr}
 800642c:	0800638c 	stmdaeq	r0, {r2, r3, r7, r8, r9, sp, lr}

08006430 <PendSV_Handler>:
 8006430:	f3ef 8009 	mrs	r0, PSP
 8006434:	e920 0ff0 	stmdb	r0!, {r4, r5, r6, r7, r8, r9, sl, fp}
 8006438:	490a      	ldr	r1, [pc, #40]	; (8006464 <_OS_Start_First_Task+0x4>)
 800643a:	680a      	ldr	r2, [r1, #0]
 800643c:	6010      	str	r0, [r2, #0]
 800643e:	b51f      	push	{r0, r1, r2, r3, r4, lr}
 8006440:	f7fd f8d2 	bl	80035e8 <OS_Scheduler>
 8006444:	e8bd 401f 	ldmia.w	sp!, {r0, r1, r2, r3, r4, lr}
 8006448:	f000 b800 	b.w	800644c <SVC_Handler>

0800644c <SVC_Handler>:
 800644c:	4b05      	ldr	r3, [pc, #20]	; (8006464 <_OS_Start_First_Task+0x4>)
 800644e:	6819      	ldr	r1, [r3, #0]
 8006450:	6808      	ldr	r0, [r1, #0]
 8006452:	e8b0 0ff0 	ldmia.w	r0!, {r4, r5, r6, r7, r8, r9, sl, fp}
 8006456:	f380 8809 	msr	PSP, r0
 800645a:	f04e 0e0d 	orr.w	lr, lr, #13
 800645e:	4770      	bx	lr

08006460 <_OS_Start_First_Task>:
 8006460:	df00      	svc	0
 8006462:	4770      	bx	lr
 8006464:	20003228 	andcs	r3, r0, r8, lsr #4
 8006468:	f3af 8000 	nop.w
 800646c:	f3af 8000 	nop.w

08006470 <memcpy>:
 8006470:	2a0f      	cmp	r2, #15
 8006472:	b4f0      	push	{r4, r5, r6, r7}
 8006474:	d945      	bls.n	8006502 <memcpy+0x92>
 8006476:	ea40 0301 	orr.w	r3, r0, r1
 800647a:	079b      	lsls	r3, r3, #30
 800647c:	d145      	bne.n	800650a <memcpy+0x9a>
 800647e:	f1a2 0710 	sub.w	r7, r2, #16
 8006482:	460c      	mov	r4, r1
 8006484:	4603      	mov	r3, r0
 8006486:	093f      	lsrs	r7, r7, #4
 8006488:	eb00 1607 	add.w	r6, r0, r7, lsl #4
 800648c:	3610      	adds	r6, #16
 800648e:	6825      	ldr	r5, [r4, #0]
 8006490:	3310      	adds	r3, #16
 8006492:	3410      	adds	r4, #16
 8006494:	f843 5c10 	str.w	r5, [r3, #-16]
 8006498:	f854 5c0c 	ldr.w	r5, [r4, #-12]
 800649c:	f843 5c0c 	str.w	r5, [r3, #-12]
 80064a0:	f854 5c08 	ldr.w	r5, [r4, #-8]
 80064a4:	f843 5c08 	str.w	r5, [r3, #-8]
 80064a8:	f854 5c04 	ldr.w	r5, [r4, #-4]
 80064ac:	f843 5c04 	str.w	r5, [r3, #-4]
 80064b0:	42b3      	cmp	r3, r6
 80064b2:	d1ec      	bne.n	800648e <memcpy+0x1e>
 80064b4:	1c7b      	adds	r3, r7, #1
 80064b6:	f002 0c0f 	and.w	ip, r2, #15
 80064ba:	f1bc 0f03 	cmp.w	ip, #3
 80064be:	ea4f 1303 	mov.w	r3, r3, lsl #4
 80064c2:	4419      	add	r1, r3
 80064c4:	4403      	add	r3, r0
 80064c6:	d922      	bls.n	800650e <memcpy+0x9e>
 80064c8:	460e      	mov	r6, r1
 80064ca:	461d      	mov	r5, r3
 80064cc:	4664      	mov	r4, ip
 80064ce:	f856 7b04 	ldr.w	r7, [r6], #4
 80064d2:	3c04      	subs	r4, #4
 80064d4:	2c03      	cmp	r4, #3
 80064d6:	f845 7b04 	str.w	r7, [r5], #4
 80064da:	d8f8      	bhi.n	80064ce <memcpy+0x5e>
 80064dc:	f1ac 0404 	sub.w	r4, ip, #4
 80064e0:	f002 0203 	and.w	r2, r2, #3
 80064e4:	f024 0403 	bic.w	r4, r4, #3
 80064e8:	3404      	adds	r4, #4
 80064ea:	4423      	add	r3, r4
 80064ec:	4421      	add	r1, r4
 80064ee:	b132      	cbz	r2, 80064fe <memcpy+0x8e>
 80064f0:	440a      	add	r2, r1
 80064f2:	f811 4b01 	ldrb.w	r4, [r1], #1
 80064f6:	4291      	cmp	r1, r2
 80064f8:	f803 4b01 	strb.w	r4, [r3], #1
 80064fc:	d1f9      	bne.n	80064f2 <memcpy+0x82>
 80064fe:	bcf0      	pop	{r4, r5, r6, r7}
 8006500:	4770      	bx	lr
 8006502:	4603      	mov	r3, r0
 8006504:	2a00      	cmp	r2, #0
 8006506:	d1f3      	bne.n	80064f0 <memcpy+0x80>
 8006508:	e7f9      	b.n	80064fe <memcpy+0x8e>
 800650a:	4603      	mov	r3, r0
 800650c:	e7f0      	b.n	80064f0 <memcpy+0x80>
 800650e:	4662      	mov	r2, ip
 8006510:	2a00      	cmp	r2, #0
 8006512:	d1ed      	bne.n	80064f0 <memcpy+0x80>
 8006514:	e7f3      	b.n	80064fe <memcpy+0x8e>
 8006516:	bf00      	nop

08006518 <_vsprintf_r>:
 8006518:	b530      	push	{r4, r5, lr}
 800651a:	b09b      	sub	sp, #108	; 0x6c
 800651c:	460c      	mov	r4, r1
 800651e:	4669      	mov	r1, sp
 8006520:	9400      	str	r4, [sp, #0]
 8006522:	f44f 7502 	mov.w	r5, #520	; 0x208
 8006526:	9404      	str	r4, [sp, #16]
 8006528:	f06f 4400 	mvn.w	r4, #2147483648	; 0x80000000
 800652c:	f8ad 500c 	strh.w	r5, [sp, #12]
 8006530:	f64f 75ff 	movw	r5, #65535	; 0xffff
 8006534:	9402      	str	r4, [sp, #8]
 8006536:	9405      	str	r4, [sp, #20]
 8006538:	f8ad 500e 	strh.w	r5, [sp, #14]
 800653c:	f000 f814 	bl	8006568 <_svfprintf_r>
 8006540:	9b00      	ldr	r3, [sp, #0]
 8006542:	2200      	movs	r2, #0
 8006544:	701a      	strb	r2, [r3, #0]
 8006546:	b01b      	add	sp, #108	; 0x6c
 8006548:	bd30      	pop	{r4, r5, pc}
 800654a:	bf00      	nop

0800654c <vsprintf>:
 800654c:	b430      	push	{r4, r5}
 800654e:	f240 0448 	movw	r4, #72	; 0x48
 8006552:	f2c2 0400 	movt	r4, #8192	; 0x2000
 8006556:	460d      	mov	r5, r1
 8006558:	4613      	mov	r3, r2
 800655a:	4601      	mov	r1, r0
 800655c:	462a      	mov	r2, r5
 800655e:	6820      	ldr	r0, [r4, #0]
 8006560:	bc30      	pop	{r4, r5}
 8006562:	f7ff bfd9 	b.w	8006518 <_vsprintf_r>
 8006566:	bf00      	nop

08006568 <_svfprintf_r>:
 8006568:	e92d 4ff0 	stmdb	sp!, {r4, r5, r6, r7, r8, r9, sl, fp, lr}
 800656c:	b0c9      	sub	sp, #292	; 0x124
 800656e:	4691      	mov	r9, r2
 8006570:	9314      	str	r3, [sp, #80]	; 0x50
 8006572:	910b      	str	r1, [sp, #44]	; 0x2c
 8006574:	900e      	str	r0, [sp, #56]	; 0x38
 8006576:	f002 fafb 	bl	8008b70 <_localeconv_r>
 800657a:	6800      	ldr	r0, [r0, #0]
 800657c:	901a      	str	r0, [sp, #104]	; 0x68
 800657e:	f003 fc13 	bl	8009da8 <strlen>
 8006582:	9c0b      	ldr	r4, [sp, #44]	; 0x2c
 8006584:	89a3      	ldrh	r3, [r4, #12]
 8006586:	901d      	str	r0, [sp, #116]	; 0x74
 8006588:	0618      	lsls	r0, r3, #24
 800658a:	d503      	bpl.n	8006594 <_svfprintf_r+0x2c>
 800658c:	6923      	ldr	r3, [r4, #16]
 800658e:	2b00      	cmp	r3, #0
 8006590:	f001 8079 	beq.w	8007686 <_svfprintf_r+0x111e>
 8006594:	f64c 1534 	movw	r5, #51508	; 0xc934
 8006598:	ac38      	add	r4, sp, #224	; 0xe0
 800659a:	f6c0 0500 	movt	r5, #2048	; 0x800
 800659e:	9515      	str	r5, [sp, #84]	; 0x54
 80065a0:	f10d 05df 	add.w	r5, sp, #223	; 0xdf
 80065a4:	9508      	str	r5, [sp, #32]
 80065a6:	9d15      	ldr	r5, [sp, #84]	; 0x54
 80065a8:	af38      	add	r7, sp, #224	; 0xe0
 80065aa:	9409      	str	r4, [sp, #36]	; 0x24
 80065ac:	f64c 24e4 	movw	r4, #51940	; 0xcae4
 80065b0:	f105 0610 	add.w	r6, r5, #16
 80065b4:	9d08      	ldr	r5, [sp, #32]
 80065b6:	2300      	movs	r3, #0
 80065b8:	f6c0 0400 	movt	r4, #2048	; 0x800
 80065bc:	9311      	str	r3, [sp, #68]	; 0x44
 80065be:	9417      	str	r4, [sp, #92]	; 0x5c
 80065c0:	1b7c      	subs	r4, r7, r5
 80065c2:	931b      	str	r3, [sp, #108]	; 0x6c
 80065c4:	931c      	str	r3, [sp, #112]	; 0x70
 80065c6:	9319      	str	r3, [sp, #100]	; 0x64
 80065c8:	931e      	str	r3, [sp, #120]	; 0x78
 80065ca:	9312      	str	r3, [sp, #72]	; 0x48
 80065cc:	9421      	str	r4, [sp, #132]	; 0x84
 80065ce:	932d      	str	r3, [sp, #180]	; 0xb4
 80065d0:	932c      	str	r3, [sp, #176]	; 0xb0
 80065d2:	972b      	str	r7, [sp, #172]	; 0xac
 80065d4:	f899 3000 	ldrb.w	r3, [r9]
 80065d8:	2b25      	cmp	r3, #37	; 0x25
 80065da:	bf18      	it	ne
 80065dc:	2b00      	cmpne	r3, #0
 80065de:	f000 80b3 	beq.w	8006748 <_svfprintf_r+0x1e0>
 80065e2:	f109 0201 	add.w	r2, r9, #1
 80065e6:	4614      	mov	r4, r2
 80065e8:	3201      	adds	r2, #1
 80065ea:	7823      	ldrb	r3, [r4, #0]
 80065ec:	2b25      	cmp	r3, #37	; 0x25
 80065ee:	bf18      	it	ne
 80065f0:	2b00      	cmpne	r3, #0
 80065f2:	d1f8      	bne.n	80065e6 <_svfprintf_r+0x7e>
 80065f4:	ebb4 0509 	subs.w	r5, r4, r9
 80065f8:	d00f      	beq.n	800661a <_svfprintf_r+0xb2>
 80065fa:	9b2c      	ldr	r3, [sp, #176]	; 0xb0
 80065fc:	9a2d      	ldr	r2, [sp, #180]	; 0xb4
 80065fe:	3301      	adds	r3, #1
 8006600:	f8c7 9000 	str.w	r9, [r7]
 8006604:	2b07      	cmp	r3, #7
 8006606:	607d      	str	r5, [r7, #4]
 8006608:	442a      	add	r2, r5
 800660a:	932c      	str	r3, [sp, #176]	; 0xb0
 800660c:	922d      	str	r2, [sp, #180]	; 0xb4
 800660e:	bfd8      	it	le
 8006610:	3708      	addle	r7, #8
 8006612:	dc7f      	bgt.n	8006714 <_svfprintf_r+0x1ac>
 8006614:	9812      	ldr	r0, [sp, #72]	; 0x48
 8006616:	4428      	add	r0, r5
 8006618:	9012      	str	r0, [sp, #72]	; 0x48
 800661a:	7823      	ldrb	r3, [r4, #0]
 800661c:	2b00      	cmp	r3, #0
 800661e:	f000 8081 	beq.w	8006724 <_svfprintf_r+0x1bc>
 8006622:	2300      	movs	r3, #0
 8006624:	f88d 308f 	strb.w	r3, [sp, #143]	; 0x8f
 8006628:	461a      	mov	r2, r3
 800662a:	9313      	str	r3, [sp, #76]	; 0x4c
 800662c:	930a      	str	r3, [sp, #40]	; 0x28
 800662e:	f104 0901 	add.w	r9, r4, #1
 8006632:	7863      	ldrb	r3, [r4, #1]
 8006634:	f04f 34ff 	mov.w	r4, #4294967295
 8006638:	940c      	str	r4, [sp, #48]	; 0x30
 800663a:	f109 0901 	add.w	r9, r9, #1
 800663e:	f1a3 0120 	sub.w	r1, r3, #32
 8006642:	2958      	cmp	r1, #88	; 0x58
 8006644:	f200 840a 	bhi.w	8006e5c <_svfprintf_r+0x8f4>
 8006648:	e8df f011 	tbh	[pc, r1, lsl #1]
 800664c:	0408038e 	streq	r0, [r8], #-910	; 0xfffffc72
 8006650:	03950408 	orrseq	r0, r5, #8, 8	; 0x8000000
 8006654:	04080408 	streq	r0, [r8], #-1032	; 0xfffffbf8
 8006658:	04080408 	streq	r0, [r8], #-1032	; 0xfffffbf8
 800665c:	04080408 	streq	r0, [r8], #-1032	; 0xfffffbf8
 8006660:	0348039c 	movteq	r0, #33692	; 0x839c
 8006664:	005d0408 	subseq	r0, sp, r8, lsl #8
 8006668:	04080235 	streq	r0, [r8], #-565	; 0xfffffdcb
 800666c:	03f603ef 	mvnseq	r0, #-1140850685	; 0xbc000003
 8006670:	03f603f6 	mvnseq	r0, #-671088637	; 0xd8000003
 8006674:	03f603f6 	mvnseq	r0, #-671088637	; 0xd8000003
 8006678:	03f603f6 	mvnseq	r0, #-671088637	; 0xd8000003
 800667c:	03f603f6 	mvnseq	r0, #-671088637	; 0xd8000003
 8006680:	04080408 	streq	r0, [r8], #-1032	; 0xfffffbf8
 8006684:	04080408 	streq	r0, [r8], #-1032	; 0xfffffbf8
 8006688:	04080408 	streq	r0, [r8], #-1032	; 0xfffffbf8
 800668c:	04080408 	streq	r0, [r8], #-1032	; 0xfffffbf8
 8006690:	04080408 	streq	r0, [r8], #-1032	; 0xfffffbf8
 8006694:	0290026e 	addseq	r0, r0, #-536870906	; 0xe0000006
 8006698:	02900408 	addseq	r0, r0, #8, 8	; 0x8000000
 800669c:	04080408 	streq	r0, [r8], #-1032	; 0xfffffbf8
 80066a0:	04080408 	streq	r0, [r8], #-1032	; 0xfffffbf8
 80066a4:	040802cd 	streq	r0, [r8], #-717	; 0xfffffd33
 80066a8:	02d40408 	sbcseq	r0, r4, #8, 8	; 0x8000000
 80066ac:	04080408 	streq	r0, [r8], #-1032	; 0xfffffbf8
 80066b0:	04080408 	streq	r0, [r8], #-1032	; 0xfffffbf8
 80066b4:	02550408 	subseq	r0, r5, #8, 8	; 0x8000000
 80066b8:	04080408 	streq	r0, [r8], #-1032	; 0xfffffbf8
 80066bc:	040803bc 	streq	r0, [r8], #-956	; 0xfffffc44
 80066c0:	04080408 	streq	r0, [r8], #-1032	; 0xfffffbf8
 80066c4:	04080408 	streq	r0, [r8], #-1032	; 0xfffffbf8
 80066c8:	04080408 	streq	r0, [r8], #-1032	; 0xfffffbf8
 80066cc:	04080408 	streq	r0, [r8], #-1032	; 0xfffffbf8
 80066d0:	03a80408 			; <UNDEFINED> instruction: 0x03a80408
 80066d4:	029003d7 	addseq	r0, r0, #1543503875	; 0x5c000003
 80066d8:	02900290 	addseq	r0, r0, #144, 4
 80066dc:	03d70387 	bicseq	r0, r7, #469762050	; 0x1c000002
 80066e0:	04080408 	streq	r0, [r8], #-1032	; 0xfffffbf8
 80066e4:	0408034c 	streq	r0, [r8], #-844	; 0xfffffcb4
 80066e8:	0224035e 	eoreq	r0, r4, #2013265921	; 0x78000001
 80066ec:	02f00370 	rscseq	r0, r0, #112, 6	; 0xc0000001
 80066f0:	02f70408 	rscseq	r0, r7, #8, 8	; 0x8000000
 80066f4:	00800408 	addeq	r0, r0, r8, lsl #8
 80066f8:	04080408 	streq	r0, [r8], #-1032	; 0xfffffbf8
 80066fc:	9c130320 	ldcls	3, cr0, [r3], {32}
 8006700:	9314      	str	r3, [sp, #80]	; 0x50
 8006702:	4264      	negs	r4, r4
 8006704:	9413      	str	r4, [sp, #76]	; 0x4c
 8006706:	9d0a      	ldr	r5, [sp, #40]	; 0x28
 8006708:	f045 0504 	orr.w	r5, r5, #4
 800670c:	950a      	str	r5, [sp, #40]	; 0x28
 800670e:	f899 3000 	ldrb.w	r3, [r9]
 8006712:	e792      	b.n	800663a <_svfprintf_r+0xd2>
 8006714:	980e      	ldr	r0, [sp, #56]	; 0x38
 8006716:	aa2b      	add	r2, sp, #172	; 0xac
 8006718:	990b      	ldr	r1, [sp, #44]	; 0x2c
 800671a:	f003 fb75 	bl	8009e08 <__ssprint_r>
 800671e:	b940      	cbnz	r0, 8006732 <_svfprintf_r+0x1ca>
 8006720:	af38      	add	r7, sp, #224	; 0xe0
 8006722:	e777      	b.n	8006614 <_svfprintf_r+0xac>
 8006724:	9b2d      	ldr	r3, [sp, #180]	; 0xb4
 8006726:	b123      	cbz	r3, 8006732 <_svfprintf_r+0x1ca>
 8006728:	980e      	ldr	r0, [sp, #56]	; 0x38
 800672a:	aa2b      	add	r2, sp, #172	; 0xac
 800672c:	990b      	ldr	r1, [sp, #44]	; 0x2c
 800672e:	f003 fb6b 	bl	8009e08 <__ssprint_r>
 8006732:	9c0b      	ldr	r4, [sp, #44]	; 0x2c
 8006734:	9812      	ldr	r0, [sp, #72]	; 0x48
 8006736:	89a3      	ldrh	r3, [r4, #12]
 8006738:	f013 0f40 	tst.w	r3, #64	; 0x40
 800673c:	bf18      	it	ne
 800673e:	f04f 30ff 	movne.w	r0, #4294967295
 8006742:	b049      	add	sp, #292	; 0x124
 8006744:	e8bd 8ff0 	ldmia.w	sp!, {r4, r5, r6, r7, r8, r9, sl, fp, pc}
 8006748:	464c      	mov	r4, r9
 800674a:	e766      	b.n	800661a <_svfprintf_r+0xb2>
 800674c:	9c0a      	ldr	r4, [sp, #40]	; 0x28
 800674e:	9316      	str	r3, [sp, #88]	; 0x58
 8006750:	06a3      	lsls	r3, r4, #26
 8006752:	f140 81d9 	bpl.w	8006b08 <_svfprintf_r+0x5a0>
 8006756:	9d14      	ldr	r5, [sp, #80]	; 0x50
 8006758:	2301      	movs	r3, #1
 800675a:	1dea      	adds	r2, r5, #7
 800675c:	f022 0207 	bic.w	r2, r2, #7
 8006760:	f102 0408 	add.w	r4, r2, #8
 8006764:	9414      	str	r4, [sp, #80]	; 0x50
 8006766:	e9d2 4500 	ldrd	r4, r5, [r2]
 800676a:	f04f 0a00 	mov.w	sl, #0
 800676e:	f88d a08f 	strb.w	sl, [sp, #143]	; 0x8f
 8006772:	980c      	ldr	r0, [sp, #48]	; 0x30
 8006774:	2800      	cmp	r0, #0
 8006776:	980c      	ldr	r0, [sp, #48]	; 0x30
 8006778:	bfa2      	ittt	ge
 800677a:	990a      	ldrge	r1, [sp, #40]	; 0x28
 800677c:	f021 0180 	bicge.w	r1, r1, #128	; 0x80
 8006780:	910a      	strge	r1, [sp, #40]	; 0x28
 8006782:	ea54 0205 	orrs.w	r2, r4, r5
 8006786:	bf0c      	ite	eq
 8006788:	2200      	moveq	r2, #0
 800678a:	2201      	movne	r2, #1
 800678c:	2800      	cmp	r0, #0
 800678e:	bf18      	it	ne
 8006790:	f042 0201 	orrne.w	r2, r2, #1
 8006794:	2a00      	cmp	r2, #0
 8006796:	f000 83e5 	beq.w	8006f64 <_svfprintf_r+0x9fc>
 800679a:	2b01      	cmp	r3, #1
 800679c:	f000 8509 	beq.w	80071b2 <_svfprintf_r+0xc4a>
 80067a0:	2b02      	cmp	r3, #2
 80067a2:	f10d 02df 	add.w	r2, sp, #223	; 0xdf
 80067a6:	f040 8159 	bne.w	8006a5c <_svfprintf_r+0x4f4>
 80067aa:	f8dd c064 	ldr.w	ip, [sp, #100]	; 0x64
 80067ae:	f004 010f 	and.w	r1, r4, #15
 80067b2:	0923      	lsrs	r3, r4, #4
 80067b4:	ea43 7305 	orr.w	r3, r3, r5, lsl #28
 80067b8:	0928      	lsrs	r0, r5, #4
 80067ba:	f81c 1001 	ldrb.w	r1, [ip, r1]
 80067be:	461c      	mov	r4, r3
 80067c0:	4605      	mov	r5, r0
 80067c2:	4690      	mov	r8, r2
 80067c4:	ea54 0005 	orrs.w	r0, r4, r5
 80067c8:	f102 32ff 	add.w	r2, r2, #4294967295
 80067cc:	f888 1000 	strb.w	r1, [r8]
 80067d0:	d1ed      	bne.n	80067ae <_svfprintf_r+0x246>
 80067d2:	9b09      	ldr	r3, [sp, #36]	; 0x24
 80067d4:	ebc8 0303 	rsb	r3, r8, r3
 80067d8:	9310      	str	r3, [sp, #64]	; 0x40
 80067da:	9c0c      	ldr	r4, [sp, #48]	; 0x30
 80067dc:	9d10      	ldr	r5, [sp, #64]	; 0x40
 80067de:	42a5      	cmp	r5, r4
 80067e0:	bfb8      	it	lt
 80067e2:	4625      	movlt	r5, r4
 80067e4:	2400      	movs	r4, #0
 80067e6:	950d      	str	r5, [sp, #52]	; 0x34
 80067e8:	9418      	str	r4, [sp, #96]	; 0x60
 80067ea:	f1ba 0f00 	cmp.w	sl, #0
 80067ee:	d002      	beq.n	80067f6 <_svfprintf_r+0x28e>
 80067f0:	9d0d      	ldr	r5, [sp, #52]	; 0x34
 80067f2:	3501      	adds	r5, #1
 80067f4:	950d      	str	r5, [sp, #52]	; 0x34
 80067f6:	9b0a      	ldr	r3, [sp, #40]	; 0x28
 80067f8:	f013 0302 	ands.w	r3, r3, #2
 80067fc:	930f      	str	r3, [sp, #60]	; 0x3c
 80067fe:	bf1e      	ittt	ne
 8006800:	9c0d      	ldrne	r4, [sp, #52]	; 0x34
 8006802:	3402      	addne	r4, #2
 8006804:	940d      	strne	r4, [sp, #52]	; 0x34
 8006806:	9c0a      	ldr	r4, [sp, #40]	; 0x28
 8006808:	f014 0584 	ands.w	r5, r4, #132	; 0x84
 800680c:	f040 8346 	bne.w	8006e9c <_svfprintf_r+0x934>
 8006810:	9c13      	ldr	r4, [sp, #76]	; 0x4c
 8006812:	980d      	ldr	r0, [sp, #52]	; 0x34
 8006814:	ebc0 0b04 	rsb	fp, r0, r4
 8006818:	f1bb 0f00 	cmp.w	fp, #0
 800681c:	f340 833e 	ble.w	8006e9c <_svfprintf_r+0x934>
 8006820:	f1bb 0f10 	cmp.w	fp, #16
 8006824:	f64c 1a34 	movw	sl, #51508	; 0xc934
 8006828:	992d      	ldr	r1, [sp, #180]	; 0xb4
 800682a:	bfdc      	itt	le
 800682c:	f6c0 0a00 	movtle	sl, #2048	; 0x800
 8006830:	9a2c      	ldrle	r2, [sp, #176]	; 0xb0
 8006832:	dd32      	ble.n	800689a <_svfprintf_r+0x332>
 8006834:	f6c0 0a00 	movt	sl, #2048	; 0x800
 8006838:	f8cd 807c 	str.w	r8, [sp, #124]	; 0x7c
 800683c:	9520      	str	r5, [sp, #128]	; 0x80
 800683e:	46d8      	mov	r8, fp
 8006840:	9a2c      	ldr	r2, [sp, #176]	; 0xb0
 8006842:	46d3      	mov	fp, sl
 8006844:	2410      	movs	r4, #16
 8006846:	46ca      	mov	sl, r9
 8006848:	9d15      	ldr	r5, [sp, #84]	; 0x54
 800684a:	f8dd 902c 	ldr.w	r9, [sp, #44]	; 0x2c
 800684e:	e004      	b.n	800685a <_svfprintf_r+0x2f2>
 8006850:	f1a8 0810 	sub.w	r8, r8, #16
 8006854:	f1b8 0f10 	cmp.w	r8, #16
 8006858:	dd19      	ble.n	800688e <_svfprintf_r+0x326>
 800685a:	3201      	adds	r2, #1
 800685c:	3110      	adds	r1, #16
 800685e:	2a07      	cmp	r2, #7
 8006860:	603d      	str	r5, [r7, #0]
 8006862:	607c      	str	r4, [r7, #4]
 8006864:	f107 0708 	add.w	r7, r7, #8
 8006868:	922c      	str	r2, [sp, #176]	; 0xb0
 800686a:	912d      	str	r1, [sp, #180]	; 0xb4
 800686c:	ddf0      	ble.n	8006850 <_svfprintf_r+0x2e8>
 800686e:	980e      	ldr	r0, [sp, #56]	; 0x38
 8006870:	4649      	mov	r1, r9
 8006872:	aa2b      	add	r2, sp, #172	; 0xac
 8006874:	af38      	add	r7, sp, #224	; 0xe0
 8006876:	f003 fac7 	bl	8009e08 <__ssprint_r>
 800687a:	2800      	cmp	r0, #0
 800687c:	f47f af59 	bne.w	8006732 <_svfprintf_r+0x1ca>
 8006880:	f1a8 0810 	sub.w	r8, r8, #16
 8006884:	992d      	ldr	r1, [sp, #180]	; 0xb4
 8006886:	f1b8 0f10 	cmp.w	r8, #16
 800688a:	9a2c      	ldr	r2, [sp, #176]	; 0xb0
 800688c:	dce5      	bgt.n	800685a <_svfprintf_r+0x2f2>
 800688e:	46d1      	mov	r9, sl
 8006890:	9d20      	ldr	r5, [sp, #128]	; 0x80
 8006892:	46da      	mov	sl, fp
 8006894:	46c3      	mov	fp, r8
 8006896:	f8dd 807c 	ldr.w	r8, [sp, #124]	; 0x7c
 800689a:	3201      	adds	r2, #1
 800689c:	eb0b 0401 	add.w	r4, fp, r1
 80068a0:	2a07      	cmp	r2, #7
 80068a2:	922c      	str	r2, [sp, #176]	; 0xb0
 80068a4:	942d      	str	r4, [sp, #180]	; 0xb4
 80068a6:	e887 0c00 	stmia.w	r7, {sl, fp}
 80068aa:	f300 82ec 	bgt.w	8006e86 <_svfprintf_r+0x91e>
 80068ae:	f89d a08f 	ldrb.w	sl, [sp, #143]	; 0x8f
 80068b2:	3708      	adds	r7, #8
 80068b4:	f1ba 0f00 	cmp.w	sl, #0
 80068b8:	d00e      	beq.n	80068d8 <_svfprintf_r+0x370>
 80068ba:	9b2c      	ldr	r3, [sp, #176]	; 0xb0
 80068bc:	f10d 028f 	add.w	r2, sp, #143	; 0x8f
 80068c0:	3401      	adds	r4, #1
 80068c2:	603a      	str	r2, [r7, #0]
 80068c4:	3301      	adds	r3, #1
 80068c6:	2201      	movs	r2, #1
 80068c8:	2b07      	cmp	r3, #7
 80068ca:	607a      	str	r2, [r7, #4]
 80068cc:	942d      	str	r4, [sp, #180]	; 0xb4
 80068ce:	bfd8      	it	le
 80068d0:	3708      	addle	r7, #8
 80068d2:	932c      	str	r3, [sp, #176]	; 0xb0
 80068d4:	f300 8402 	bgt.w	80070dc <_svfprintf_r+0xb74>
 80068d8:	9b0f      	ldr	r3, [sp, #60]	; 0x3c
 80068da:	b16b      	cbz	r3, 80068f8 <_svfprintf_r+0x390>
 80068dc:	9b2c      	ldr	r3, [sp, #176]	; 0xb0
 80068de:	aa24      	add	r2, sp, #144	; 0x90
 80068e0:	3402      	adds	r4, #2
 80068e2:	603a      	str	r2, [r7, #0]
 80068e4:	3301      	adds	r3, #1
 80068e6:	2202      	movs	r2, #2
 80068e8:	2b07      	cmp	r3, #7
 80068ea:	607a      	str	r2, [r7, #4]
 80068ec:	942d      	str	r4, [sp, #180]	; 0xb4
 80068ee:	bfd8      	it	le
 80068f0:	3708      	addle	r7, #8
 80068f2:	932c      	str	r3, [sp, #176]	; 0xb0
 80068f4:	f300 83fe 	bgt.w	80070f4 <_svfprintf_r+0xb8c>
 80068f8:	2d80      	cmp	r5, #128	; 0x80
 80068fa:	f000 8346 	beq.w	8006f8a <_svfprintf_r+0xa22>
 80068fe:	9d0c      	ldr	r5, [sp, #48]	; 0x30
 8006900:	9b10      	ldr	r3, [sp, #64]	; 0x40
 8006902:	ebc3 0a05 	rsb	sl, r3, r5
 8006906:	f1ba 0f00 	cmp.w	sl, #0
 800690a:	dd43      	ble.n	8006994 <_svfprintf_r+0x42c>
 800690c:	f1ba 0f10 	cmp.w	sl, #16
 8006910:	9b2c      	ldr	r3, [sp, #176]	; 0xb0
 8006912:	bfdc      	itt	le
 8006914:	4d94      	ldrle	r5, [pc, #592]	; (8006b68 <_svfprintf_r+0x600>)
 8006916:	950f      	strle	r5, [sp, #60]	; 0x3c
 8006918:	dd27      	ble.n	800696a <_svfprintf_r+0x402>
 800691a:	4893      	ldr	r0, [pc, #588]	; (8006b68 <_svfprintf_r+0x600>)
 800691c:	4622      	mov	r2, r4
 800691e:	2510      	movs	r5, #16
 8006920:	f8dd b038 	ldr.w	fp, [sp, #56]	; 0x38
 8006924:	9c0b      	ldr	r4, [sp, #44]	; 0x2c
 8006926:	900f      	str	r0, [sp, #60]	; 0x3c
 8006928:	e004      	b.n	8006934 <_svfprintf_r+0x3cc>
 800692a:	f1aa 0a10 	sub.w	sl, sl, #16
 800692e:	f1ba 0f10 	cmp.w	sl, #16
 8006932:	dd19      	ble.n	8006968 <_svfprintf_r+0x400>
 8006934:	3301      	adds	r3, #1
 8006936:	3210      	adds	r2, #16
 8006938:	2b07      	cmp	r3, #7
 800693a:	603e      	str	r6, [r7, #0]
 800693c:	607d      	str	r5, [r7, #4]
 800693e:	f107 0708 	add.w	r7, r7, #8
 8006942:	932c      	str	r3, [sp, #176]	; 0xb0
 8006944:	922d      	str	r2, [sp, #180]	; 0xb4
 8006946:	ddf0      	ble.n	800692a <_svfprintf_r+0x3c2>
 8006948:	4658      	mov	r0, fp
 800694a:	4621      	mov	r1, r4
 800694c:	aa2b      	add	r2, sp, #172	; 0xac
 800694e:	af38      	add	r7, sp, #224	; 0xe0
 8006950:	f003 fa5a 	bl	8009e08 <__ssprint_r>
 8006954:	2800      	cmp	r0, #0
 8006956:	f47f aeec 	bne.w	8006732 <_svfprintf_r+0x1ca>
 800695a:	f1aa 0a10 	sub.w	sl, sl, #16
 800695e:	9a2d      	ldr	r2, [sp, #180]	; 0xb4
 8006960:	f1ba 0f10 	cmp.w	sl, #16
 8006964:	9b2c      	ldr	r3, [sp, #176]	; 0xb0
 8006966:	dce5      	bgt.n	8006934 <_svfprintf_r+0x3cc>
 8006968:	4614      	mov	r4, r2
 800696a:	3301      	adds	r3, #1
 800696c:	9d0f      	ldr	r5, [sp, #60]	; 0x3c
 800696e:	2b07      	cmp	r3, #7
 8006970:	4454      	add	r4, sl
 8006972:	932c      	str	r3, [sp, #176]	; 0xb0
 8006974:	e887 0420 	stmia.w	r7, {r5, sl}
 8006978:	bfd8      	it	le
 800697a:	3708      	addle	r7, #8
 800697c:	942d      	str	r4, [sp, #180]	; 0xb4
 800697e:	dd09      	ble.n	8006994 <_svfprintf_r+0x42c>
 8006980:	980e      	ldr	r0, [sp, #56]	; 0x38
 8006982:	aa2b      	add	r2, sp, #172	; 0xac
 8006984:	990b      	ldr	r1, [sp, #44]	; 0x2c
 8006986:	f003 fa3f 	bl	8009e08 <__ssprint_r>
 800698a:	2800      	cmp	r0, #0
 800698c:	f47f aed1 	bne.w	8006732 <_svfprintf_r+0x1ca>
 8006990:	9c2d      	ldr	r4, [sp, #180]	; 0xb4
 8006992:	af38      	add	r7, sp, #224	; 0xe0
 8006994:	9d0a      	ldr	r5, [sp, #40]	; 0x28
 8006996:	05eb      	lsls	r3, r5, #23
 8006998:	f100 8282 	bmi.w	8006ea0 <_svfprintf_r+0x938>
 800699c:	9b2c      	ldr	r3, [sp, #176]	; 0xb0
 800699e:	9d10      	ldr	r5, [sp, #64]	; 0x40
 80069a0:	3301      	adds	r3, #1
 80069a2:	f8c7 8000 	str.w	r8, [r7]
 80069a6:	2b07      	cmp	r3, #7
 80069a8:	442c      	add	r4, r5
 80069aa:	607d      	str	r5, [r7, #4]
 80069ac:	942d      	str	r4, [sp, #180]	; 0xb4
 80069ae:	932c      	str	r3, [sp, #176]	; 0xb0
 80069b0:	f300 837a 	bgt.w	80070a8 <_svfprintf_r+0xb40>
 80069b4:	3708      	adds	r7, #8
 80069b6:	9d0a      	ldr	r5, [sp, #40]	; 0x28
 80069b8:	076b      	lsls	r3, r5, #29
 80069ba:	d540      	bpl.n	8006a3e <_svfprintf_r+0x4d6>
 80069bc:	9813      	ldr	r0, [sp, #76]	; 0x4c
 80069be:	990d      	ldr	r1, [sp, #52]	; 0x34
 80069c0:	1a45      	subs	r5, r0, r1
 80069c2:	2d00      	cmp	r5, #0
 80069c4:	dd3b      	ble.n	8006a3e <_svfprintf_r+0x4d6>
 80069c6:	2d10      	cmp	r5, #16
 80069c8:	f64c 1a34 	movw	sl, #51508	; 0xc934
 80069cc:	9b2c      	ldr	r3, [sp, #176]	; 0xb0
 80069ce:	f6c0 0a00 	movt	sl, #2048	; 0x800
 80069d2:	dd22      	ble.n	8006a1a <_svfprintf_r+0x4b2>
 80069d4:	4622      	mov	r2, r4
 80069d6:	f04f 0810 	mov.w	r8, #16
 80069da:	f8dd b038 	ldr.w	fp, [sp, #56]	; 0x38
 80069de:	9c15      	ldr	r4, [sp, #84]	; 0x54
 80069e0:	e002      	b.n	80069e8 <_svfprintf_r+0x480>
 80069e2:	3d10      	subs	r5, #16
 80069e4:	2d10      	cmp	r5, #16
 80069e6:	dd17      	ble.n	8006a18 <_svfprintf_r+0x4b0>
 80069e8:	3301      	adds	r3, #1
 80069ea:	3210      	adds	r2, #16
 80069ec:	2b07      	cmp	r3, #7
 80069ee:	e887 0110 	stmia.w	r7, {r4, r8}
 80069f2:	932c      	str	r3, [sp, #176]	; 0xb0
 80069f4:	f107 0708 	add.w	r7, r7, #8
 80069f8:	922d      	str	r2, [sp, #180]	; 0xb4
 80069fa:	ddf2      	ble.n	80069e2 <_svfprintf_r+0x47a>
 80069fc:	4658      	mov	r0, fp
 80069fe:	990b      	ldr	r1, [sp, #44]	; 0x2c
 8006a00:	aa2b      	add	r2, sp, #172	; 0xac
 8006a02:	af38      	add	r7, sp, #224	; 0xe0
 8006a04:	f003 fa00 	bl	8009e08 <__ssprint_r>
 8006a08:	2800      	cmp	r0, #0
 8006a0a:	f47f ae92 	bne.w	8006732 <_svfprintf_r+0x1ca>
 8006a0e:	3d10      	subs	r5, #16
 8006a10:	9a2d      	ldr	r2, [sp, #180]	; 0xb4
 8006a12:	2d10      	cmp	r5, #16
 8006a14:	9b2c      	ldr	r3, [sp, #176]	; 0xb0
 8006a16:	dce7      	bgt.n	80069e8 <_svfprintf_r+0x480>
 8006a18:	4614      	mov	r4, r2
 8006a1a:	3301      	adds	r3, #1
 8006a1c:	442c      	add	r4, r5
 8006a1e:	2b07      	cmp	r3, #7
 8006a20:	932c      	str	r3, [sp, #176]	; 0xb0
 8006a22:	942d      	str	r4, [sp, #180]	; 0xb4
 8006a24:	f8c7 a000 	str.w	sl, [r7]
 8006a28:	607d      	str	r5, [r7, #4]
 8006a2a:	dd08      	ble.n	8006a3e <_svfprintf_r+0x4d6>
 8006a2c:	980e      	ldr	r0, [sp, #56]	; 0x38
 8006a2e:	aa2b      	add	r2, sp, #172	; 0xac
 8006a30:	990b      	ldr	r1, [sp, #44]	; 0x2c
 8006a32:	f003 f9e9 	bl	8009e08 <__ssprint_r>
 8006a36:	2800      	cmp	r0, #0
 8006a38:	f47f ae7b 	bne.w	8006732 <_svfprintf_r+0x1ca>
 8006a3c:	9c2d      	ldr	r4, [sp, #180]	; 0xb4
 8006a3e:	9d12      	ldr	r5, [sp, #72]	; 0x48
 8006a40:	990d      	ldr	r1, [sp, #52]	; 0x34
 8006a42:	9813      	ldr	r0, [sp, #76]	; 0x4c
 8006a44:	4281      	cmp	r1, r0
 8006a46:	bfac      	ite	ge
 8006a48:	186d      	addge	r5, r5, r1
